1         High Level Assembler Option Summary                   (PTF UQ57391)                                               Page    1
-                                                                                            HLASM R4.0  2002/06/06 10.05
0  No Overriding ASMAOPT Parameters
   Overriding Parameters-  TERM,RENT,NOXREF,NODXREF,LINECOUNT(32767),NORLD,USING(WARN(11))
   No Process Statements


   Options for this Assembly
0  NOADATA
     ALIGN
   NOASA
     BATCH
     CODEPAGE(047C)
   NOCOMPAT
   NODBCS
   NODECK
 3 NODXREF
     ESD
   NOEXIT
     FLAG(0,ALIGN,CONT,NOIMPLEN,NOPAGE0,PUSH,RECORD,NOSUBSTR,USING0)
   NOFOLD
   NOGOFF
   NOINFO
     LANGUAGE(EN)
   NOLIBMAC
 3   LINECOUNT(32767)
     LIST(121)
     MXREF(SOURCE)
     OBJECT
     OPTABLE(UNI,NOLIST)
   NOPCONTROL
   NOPESTOP
   NOPROFILE
   NORA2
 3   RENT
 3 NORLD
     RXREF
     SIZE(MAX)
     SYSPARM()
 3   TERM(WIDE)
   NOTEST
     THREAD
   NOTRANSLATE
 3   USING(NOLIMIT,MAP,WARN(11))
 3 NOXREF

   No Overriding DD Names

1DBMAIN   External Symbol Dictionary                                                                                        Page    2
-Symbol   Type   Id     Address  Length     LD ID  Flags Alias-of                            HLASM R4.0  2002/06/06 10.05
0DBMAIN    SD 00000001 00000000 00003E18             02
 VERSION   SD 00000002 00003E18 000000EB             00
 STARTUP   LD          00000000           00000001
 PTRACE    ER 00000003
 DUMPINIT  ER 00000004
 ADDSYM    ER 00000005
 SYMDEBUG  ER 00000006
 SYMUTILS  ER 00000007
 SYMMVSUT  ER 00000008
 SYMPATH   ER 00000009
 SYMDUMP   ER 0000000A
 SYMSCANN  ER 0000000B
 DYNINIT   ER 0000000C
 DYNADD    ER 0000000D
 DYNCALL   ER 0000000E
 GETCORE   ER 0000000F
 AMODE24   ER 00000010
 AMODE31   ER 00000011
 SEGCLR    ER 00000012
 SEGB      ER 00000013
 SEG       ER 00000014
 RTRIM     ER 00000015
 PATHINFO  ER 00000016
 PATHREAD  ER 00000017
 SEGT      ER 00000018
 SEGWR     ER 00000019
 FINDTRAP  ER 0000001A
 SEGSYMAD  ER 0000001B
 SEGHX     ER 0000001C
 SCINIT    ER 0000001D
 SCAN      ER 0000001E
 SCTELL    ER 0000001F
 SHOWC     ER 00000020
 PRTDYN    ER 00000021
 DISASMC   ER 00000022
 SHOWG     ER 00000023
 SHOWA     ER 00000024
 SHOWS     ER 00000025
 PATCHC    ER 00000026
 PATCHG    ER 00000027
 PATCHIA   ER 00000028
 SETT      ER 00000029
 SHOWTS    ER 0000002A
 CLEART    ER 0000002B
 CLEARTS   ER 0000002C
 FREECORE  ER 0000002D
 DELSYM    ER 0000002E
 PATHCLS   ER 0000002F
 PATHALLO  ER 00000030
 PATHOPEN  ER 00000031
 SEGINIT   ER 00000032
 PATHSEG   ER 00000033
 SEGINITR  ER 00000034
 SEGDC     ER 00000035
 XPRTCMD   LD          00003CFA           00000001
1DBMAIN   External Symbol Dictionary                                                                                        Page    3

1DBMAIN   Wings: DBMAIN -- Debugger main program                                                                            Page    4
0Loc    Object Code    Addr1 Addr2  Stmt Lv Lineno    Source Statement                    (Asmedit 3.3)  HLASM R4.0  2002/06/06 10.05
+___    ______ ____    _____ _____  ____ __ ______    ______ _________
0                                      2    00002000  ********************************************************************
                                       3    00003000  *** %%Module: wings asm dbmain;                                    *
                                       4    00004000  ********************************************************************
                                       5    00005000  ***                                                                *
                                       6    00006000  ***                                                                *
                                       7    00007000  ***  WINGS -- DBMAIN; OSFILE debugger subtask                      *
                                       8    00008000  ***                                                                *
                                       9    00009000  ***                                                                *
                                      10    00010000  ***                                                                *
                                      11    00011000  ***  Modifications:                                                *
                                      12    00011900  ***    2002/06/05 mcl   MSG->SETMSG                                *
                                      13    00012000  ***    1996/10/10 mcl   TZ fixes                                   *
                                      14    00012100  ***    1994/06/06 mcl   support S9 cmd (SVC99 area display)        *
                                      15    00013000  ***    1994/03/30 MCL   support TRACE cmd, reduce PTRACE mainloop  *
                                      16    00014000  ***    1994/03/15 mcl   timestamp in TVTLRCLK                      *
                                      17    00015000  ***    1992/07/16 Niz   Change to common MYTAG and use path        *
                                      18    00016000  ***                     "password" to indicate path type.          *
                                      19    00017000  ***    1991/11/00 sch   created                                    *
                                      20    00018000  ***                                                                *
                                      21    00019000  ********************************************************************
-
                                      23    00021000  DBMAIN   HIBAL ,                   Initialize HIBAL macro system
                                    1007    00022000  DBMAIN   AMODE 31                  Initial 31-bit addressing mode
                                    1008    00023000  DBMAIN   RMODE 24                  Reside below 16MB line
 000000                00000 03E18  1009    00024000  DBMAIN   CSECT ,                   Define module control section
-
                                    1012    00026000           REGS  FSR,,,,,,,,WAR,BRR,BR,TVTR,(GVTR,LSR),SPR,RAR
                                    1135    00027000           GBLC  &ZONE               Define local time zone
                                    1136    00028000           GBLC  &ALTZONE            Define alternate time zone
0                                   1138    00030000           SYSDEFN ,                 Include Stanford defaults
1DBMAIN   Wings: DBMAIN -- Debugger main program                                                                            Page    5
0Loc    Object Code    Addr1 Addr2  Stmt Lv Lineno    Source Statement           (Hibal 5, Asmedit 3.3)  HLASM R4.0  2002/06/06 10.05
+___    ______ ____    _____ _____  ____ __ ______    ______ _________
0                                   1140    00032000  ¿þþþþþþþþþþþþþþþþþþþþþþþþþþþþþþþþþþþþþþþþþþþþþþþþþþþþþþþþþþþþþþþþþþþþþÜ
                                    1141    00033000  Ÿ                                                                     Ÿ
                                    1142    00034000  Ÿ   CPROC differs from PROC in that it saves the current stack        Ÿ
                                    1143    00035000  Ÿ     and return address in the TVT so error exits can return         Ÿ
                                    1144    00036000  Ÿ     to the "command proc" caller.  See CMDCLEAN routine.            Ÿ
                                    1145    00037000  Ÿ                                                                     Ÿ
                                                      ¾þþþþþþþþþþþþþþþþþþþþþþþþþþþþþþþþþþþþþþþþþþþþþþþþþþþþþþþþþþþþþþþþþþþþþ»
0                                   1146    00038000           MACRO
                                    1147    00039000  &L       CPROC &P1,&P2,&PTR=WAR,&BASE=YES,&TRACE=YES
                                    1148    00040000  &L       PROC  &P1,&P2,PTR=&PTR,BASE=&BASE,TRACE=&TRACE
                                    1149    00041000
                                    1150    00042000           ST    WAR,TVTCMDAS        Current stack frame ptr
                                    1151    00043000           MEND
-                                   1153    00045000  ¿þþþþþþþþþþþþþþþþþþþþþþþþþþþþþþþþþþþþþþþþþþþþþþþþþþþþþþþþþþþþþþþþþþþþþÜ
                                    1154    00046000  Ÿ                                                                     Ÿ
                                    1155    00047000  Ÿ   Define system mapping macros                                      Ÿ
                                    1156    00048000  Ÿ                                                                     Ÿ
                                                      ¾þþþþþþþþþþþþþþþþþþþþþþþþþþþþþþþþþþþþþþþþþþþþþþþþþþþþþþþþþþþþþþþþþþþþþ»
-                                   1158    00050000           PRINT NOGEN
                                    1160    00051000           CVT   DSECT=YES           Communications vector table
                                    2490    00052000           IHASDWA                   Stae/dump work area
                                    4478    00053000           DCBD  DEVD=DA,DSORG=PS    Data control bock
                                    5042    00054000  JFCBDSCT IEFJFCBN ,                Job file control block
 000000                00000 00040  6196    00055000  UCB      DSECT ,
                                    6197    00056000           IEFUCBOB ,                Unit control block
                                    7852    00057000           IEFZB4D0 ,                Dynamic allocation
                                    8249    00058000           IEFZB4D2 ,                Dynamic allocation
                                    8692    00059000           IHAASCB ,                 Address Space Control Block
                                    9423    00060000           IHADVCT ,                 Device characteristics table
                                    9575    00061000           IKJTCB DSECT=YES          Task control block
                                   10488    00062000  TIOTDSCT IEFTIOT1 ,                Task input/output table
                                   10721    00063000           IEZDEB ,                  Data extent block
                                   11783    00064000           PRINT GEN
 000000                00000 00120 11785    00065000           IHAEPIE
-                                  11949    00067000      ¿þþþþþþþþþþþþþþþþþþþþþþþþþþþþþþþþþþþþþþþþþþþþþþþþþþþÜ
                                   11950    00068000      Ÿ  Version info is zapped into the following area.  Ÿ
                                   11951    00069000      ¾þþþþþþþþþþþþþþþþþþþþþþþþþþþþþþþþþþþþþþþþþþþþþþþþþþþ»
 003E18                03E18 000EB 11952    00070000  VERSION  CSECT ,                   The comma only for JDN
 003E18                            11956    00071000           DC  CL235'Wings:DBMAIN (&SYSDATE) (&SYSTIME)'
 003E18 E6899587A27AC4C2                             +
                                   11957    00072000
1DBMAIN   Wings work areas                                                                                                  Page    6
0Loc    Object Code    Addr1 Addr2  Stmt Lv Lineno    Source Statement           (Hibal 5, Asmedit 3.3)  HLASM R4.0  2002/06/06 10.05
+___    ______ ____    _____ _____  ____ __ ______    ______ _________
0                                  11960    00075000           COPY  TPENTRY             TRAP ENTRY
                                   11961=   00001000 =¿þþþþþþþþþþþþþþþþþþþþþþþþþþþþþþþþþþþþþþþþþþþþþþþþþþþþþþþþþþþþþþþþþþþþþÜ
                                   11962=   00002000 =Ÿ                                                                     Ÿ
                                   11963=   00003000 =Ÿ  TRAP ENTRY                                                         Ÿ
                                   11964=   00004000 =Ÿ                                                                     Ÿ
                                   11965=   00005000 =Ÿ                                                                     Ÿ
                                   11966=   00006000 =Ÿ  NOTE:                                                              Ÿ
                                   11967=   00007000 =Ÿ  BECAUSE WE MAY BE DEBUGGING SHARED CODE (EXECUTED BY OTHER         Ÿ
                                   11968=   00008000 =Ÿ  SUBTASKS) WE NEVER DELETE TRAP ENTRIES.  WE MERELY MARK THEM       Ÿ
                                   11969=   00009000 =Ÿ  AS OFF.  WE ALLOW A TOTAL OF TPMAXCNT TRAPS.  CLEARED TRAPS        Ÿ
                                   11970=   00010000 =Ÿ  STILL COUNT.                                                       Ÿ
                                   11971=   00011000 =Ÿ                                                                     Ÿ
                                                      ¾þþþþþþþþþþþþþþþþþþþþþþþþþþþþþþþþþþþþþþþþþþþþþþþþþþþþþþþþþþþþþþþþþþþþþ»
0                                  11972    00012000 =TPMAXCNT EQU   128
                                   11973    00013000 =TRAPCODE EQU   X'00A9'             TRAP OPCODE, CAUSES 0C1
                                   11974    00014000 =
 000000                00000 00008 11975    00015000 =TPENTRY  RECORD BEGIN
 000000                            11983  1 00016000 =TPADDR     DS    F
 000004                            11984  1 00017000 =TPOPCODE   DS    H
 000006 00                         11985  1 00018000 =TPFLAG1    FLAG
 TPFLAG1.TPFOFF    80 ONES         11989  1 00019000 =           FLAG  TPFOFF              TRAP NOT ACTIVE
 000007 00                         11994  1 00020000 =TPFLAG2    FLAG
 000008                            11998  1 00021000 =TPNEXT     DS    0F
 000008                00008 00008 11999    00022000 =         END
1DBMAIN   Wings work areas                                                                                                  Page    7
0Loc    Object Code    Addr1 Addr2  Stmt Lv Lineno    Source Statement           (Hibal 5, Asmedit 3.3)  HLASM R4.0  2002/06/06 10.05
+___    ______ ____    _____ _____  ____ __ ______    ______ _________
0                                  12009    00077000           COPY  DVWA                GLOBAL DEBUG AREA
                                   12010=   00001000 =¿þþþþþþþþþþþþþþþþþþþþþþþþþþþþþþþþþþþþþþþþþþþþþþþþþþþþþþþþþþþþþþþþþþþþþÜ
                                   12011=   00002000 =Ÿ                                                                     Ÿ
                                   12012=   00003000 =Ÿ  DVWA - debug work area                                             Ÿ
                                   12013=   00004000 =Ÿ                                                                     Ÿ
                                   12014=   00004500 =Ÿ  Revised 1994/06/06 mcl                                             Ÿ
                                   12015=   00005000 =Ÿ                                                                     Ÿ
                                   12016=   00006000 =Ÿ  notes:                                                             Ÿ
                                   12017=   00007000 =Ÿ  work area should be initialized to zero by monitor.                Ÿ
                                   12018=   00008000 =Ÿ  debugger and debuggee should re-initialize fields                  Ÿ
                                   12019=   00009000 =Ÿ  they control as is appropriate. (in case there has                 Ÿ
                                   12020=   00010000 =Ÿ  been previous debugging session, now cleared.)                     Ÿ
                                   12021=   00011000 =Ÿ                                                                     Ÿ
                                   12022=   00012000 =Ÿ  We must be careful about multi-processor environment.              Ÿ
                                   12023=   00013000 =Ÿ  Lock rules are complicated.  A simpler rules would                 Ÿ
                                   12024=   00014000 =Ÿ  be nice, but for now they are:                                     Ÿ
                                   12025=   00015000 =Ÿ                                                                     Ÿ
                                   12026=   00016000 =Ÿ  Simple rules are:                                                  Ÿ
                                   12027=   00017000 =Ÿ  DebuggER must obtain DBERTCBP lock (R).  Debugger can              Ÿ
                                   12028=   00018000 =Ÿ  change all fields that belong to debugger.  Debugger               Ÿ
                                   12029=   00019000 =Ÿ  can set DebuggEE at any time, unless DebuggEE is                   Ÿ
                                   12030=   00020000 =Ÿ  locked (E).  Debuggee can change any debuggEE fields               Ÿ
                                   12031=   00021000 =Ÿ  while it holds Debuggee lock (E).                                  Ÿ
                                   12032=   00022000 =Ÿ                                                                     Ÿ
                                   12033=   00023000 =Ÿ  A bit more complex is that if there is no debuggee,                Ÿ
                                   12034=   00024000 =Ÿ  any task can jump in and become the debuggee by setting            Ÿ
                                   12035=   00025000 =Ÿ  itself as the DVEETCBP and obtaining the debuggEE lock (E).        Ÿ
                                   12036=   00026000 =Ÿ                                                                     Ÿ
                                   12037=   00027000 =Ÿ  Also note that either Debugger/Debuggee can set the SYMBOL         Ÿ
                                   12038=   00028000 =Ÿ  Table pointer if it owns the respective lock, they should          Ÿ
                                   12039=   00029000 =Ÿ  be setting it to the same thing.  Also POST/WAIT stuff is          Ÿ
                                   12040=   00030000 =Ÿ  shared between Debugger/Debuggee in a obvious fashion.             Ÿ
                                   12041=   00031000 =Ÿ                                                                     Ÿ
                                   12042=   00032000 =Ÿ  notes:                                                             Ÿ
                                   12043=   00033000 =Ÿ    [cs] - compare and swap field                                    Ÿ
                                   12044=   00034000 =Ÿ    [cds] - compare and swap double fields                           Ÿ
                                   12045=   00035000 =Ÿ                                                                     Ÿ
                                   12046=   00036000 =Ÿ    R   - debuggeR lock                                              Ÿ
                                   12047=   00037000 =Ÿ          this lock may be obtained by any debuger [cs]              Ÿ
                                   12048=   00038000 =Ÿ    E   - debuggeE lock                                              Ÿ
                                   12049=   00039000 =Ÿ          this lock may be obtained only by debuggee [cds]           Ÿ
                                   12050=   00040000 =Ÿ    r   - may be set by debuger (owner of R)                         Ÿ
                                   12051=   00041000 =Ÿ    e   - may be set by debugee (owner of E)                         Ÿ
                                   12052=   00042000 =Ÿ  x r   - may be set by debugger (owner of R); also if               Ÿ
                                   12053=   00043000 =Ÿ          no debugger/debuggee it may be set by any subtask          Ÿ
                                   12054=   00044000 =Ÿ          needing to be debugged                                     Ÿ
                                   12055=   00045000 =Ÿ                                                                     Ÿ
                                                      ¾þþþþþþþþþþþþþþþþþþþþþþþþþþþþþþþþþþþþþþþþþþþþþþþþþþþþþþþþþþþþþþþþþþþþþ»
0000000                00000 00434 12056    00046000 =DVWA     RECORD BEGIN
 000000                            12064  1 00047000 =DVERTCBP   DS    F                 R CURRENT DEBUGGER TCB PTR  [cs]
 000004                            12065  1 00048000 =DVERTVTP   DS    A                   Current debuggee TVT PTR
 000008                            12066  1 00049000 =DSALIGN    DS    0D                  ALIGN ON DWORD FOR CDS
 000008                            12067  1 00050000 =DVEETCBP   DS    F               x r CURRENT DEBUGGEE TCB PTR  [cds]
 00000C                            12068  1 00051000 =DVEEACTV   DS    F                 E DEBUGEE ACTIVE (TCB PTR)  [cds !]
 000010                            12069  1 00052000 =DVERECB    DS    F               r,e POST BY DEBUGGEE, POST TO BREAK
1DBMAIN   Wings work areas                                                                                                  Page    8
0Loc    Object Code    Addr1 Addr2  Stmt Lv Lineno    Source Statement           (Hibal 5, Asmedit 3.3)  HLASM R4.0  2002/06/06 10.05
+___    ______ ____    _____ _____  ____ __ ______    ______ _________
0000014                            12070  1 00053000 =DVEEECB    DS    F               r,e POST BY DEBUGGER, POST BREAK DONE
 000018 00                         12071  1 00054000 =DVFLAGS    FLAG  ,
 DVFLAGS.DVFNEWIA  80 ONES         12075  1 00055000 =           FLAG  DVFNEWIA          r NEW IA SET WITH PIA INSTRUCTION
 DVFLAGS.DVFIRUPT  40 ONES         12080  1 00056000 =           FLAG  DVFIRUPT          e INTERRUPT, NOT TRAP
 00001C                            12085  1 00057000 =DVEPIEP    DS    F                 e EPIE PTR
 000020                            12086  1 00058000 =DVSYMP     DS    F               r,e SYMBOL TABLE PTR
                                   12087  1 00059000 =*                                r TRAP AREA (next line)
 000024                            12088  1 00060000 =DVTRAPS    DS    XL(L'TPENTRY*(TPMAXCNT+2))
 000434                00434 00434 12089    00061000 =         END
1DBMAIN   Wings work areas                                                                                                  Page    9
0Loc    Object Code    Addr1 Addr2  Stmt Lv Lineno    Source Statement           (Hibal 5, Asmedit 3.3)  HLASM R4.0  2002/06/06 10.05
+___    ______ ____    _____ _____  ____ __ ______    ______ _________
0                                  12099    00079000           COPY  LCLDBWA             LOCAL (ESPIE) DEBUG AREA
                                   12100=   00001000 =¿þþþþþþþþþþþþþþþþþþþþþþþþþþþþþþþþþþþþþþþþþþþþþþþþþþþþþþþþþþþþþþþþþþþþþÜ
                                   12101=   00002000 =Ÿ                                                                     Ÿ
                                   12102=   00003000 =Ÿ  LCLDBWA - local work area for espie routine                        Ÿ
                                   12103=   00004000 =Ÿ                                                                     Ÿ
                                   12104=   00005000 =Ÿ                                                                     Ÿ
                                   12105=   00006000 =Ÿ  NOTE: LDBBKPP may not be set, BKWA may need to be loaded           Ÿ
                                   12106=   00007000 =Ÿ      in another (global) manner. Work in progress.                  Ÿ
                                   12107=   00008000 =Ÿ                                                                     Ÿ
                                                      ¾þþþþþþþþþþþþþþþþþþþþþþþþþþþþþþþþþþþþþþþþþþþþþþþþþþþþþþþþþþþþþþþþþþþþþ»
0000000                00000 00168 12108    00009000 =LCLDBWA  RECORD BEGIN
 000000                            12116  1 00010000 =LDBTCBP    DS    F                   TCB ADDRESS
 000004                            12117  1 00011000 =LDBEPIEP   DS    F                   EPIE PTR
 000008                            12118  1 00012000 =LDBDVWAP   DS    F                   GLOBAL DEBUG WORK AREA PTR
 00000C                            12119  1 00012100 =LDBSYMP    DS    F                   SYMBOL TABLE POINTER
 000010 00                         12120  1 00012200 =LDBFLAGS   FLAG  ,
 LDBFLAGS.LDBFNEWI 80 ONES         12124  1 00012300 =           FLAG  LDBFNEWIA           NEW INSTRUCTION ADDRESS
 000014                            12129  1 00012400 =           DS    0F                  ALIGNMENT
 000014                            12130  1 00013000 =LDBINST1   DS    XL6                 INSTR EXECUTION AREA1 (CURR)
 00001A                            12131  1 00014000 =LDBINST2   DS    XL6                 INSTR EXECUTION AREA2 (CONT)
 000020                            12132  1 00015000 =LDBCURR    DS    A                   CURRENT INSTR ADDR (AS IN PIE)
 000024                            12133  1 00016000 =LDBNEXT    DS    A                   NEXT INSTR (AS TO CONTINUE)
 000028                            12134  1 00017000 =LDBSREGS   DS    16F                 SAVE REGS (0-15)
 000068                            12135  1 00018000 =LDBSTACK   DS    XL256               SPIE STACK AREA (SMALL)
 000168                00168 00168 12136    00019000 =         END
                                   12145    00080000  *
1DBMAIN   Wings: Disk I/O support: Global vector table                                                                      Page   10
0Loc    Object Code    Addr1 Addr2  Stmt Lv Lineno    Source Statement           (Hibal 5, Asmedit 3.3)  HLASM R4.0  2002/06/06 10.05
+___    ______ ____    _____ _____  ____ __ ______    ______ _________
0000000                00000 0063C 12147    00082000  GVT      RECORD BEGIN
                                   12155  1 00083000             COPY  GVT
                                   12156= 1 00001000 =¿þþþþþþþþþþþþþþþþþþþþþþþþþþþþþþþþþþþþþþþþþþþþþþþþþþþþþþþþþþþþþþþþþþþþþÜ
                                   12157= 1 00002000 =Ÿ                                                                     Ÿ
                                   12158= 1 00003000 =Ÿ  Global Vector Table.                                               Ÿ
                                   12159= 1 00004000 =Ÿ                                                                     Ÿ
                                   12160= 1 00004500 =Ÿ  revised 1996/02/29  mcl  dsn enqueue lock word                     Ÿ
                                   12161= 1 00005000 =Ÿ  revised 1994/07/06, mcl                                            Ÿ
                                   12162= 1 00006000 =Ÿ                                                                     Ÿ
                                          1           ¾þþþþþþþþþþþþþþþþþþþþþþþþþþþþþþþþþþþþþþþþþþþþþþþþþþþþþþþþþþþþþþþþþþþþþ»
0000000                            12164  1 00008000 =GVTSTART   DS    0D
 000000 C7E5E340                   12165  1 00009000 =           DC    CL4'GVT'            Self-identification
                                   12166  1 00010000 =GVTASMDT   DC    CL8'&SYSDATE'       ASM date
 000004 F0F661F0F661F0F2                  1 00010000 +GVTASMDT   DC    CL8'06/06/02'       ASM date
                                   12167  1 00011000 =GVTASMTM   DC    CL8'&SYSTIME'       ASM time
 00000C F1F04BF0F5404040                  1 00011000 +GVTASMTM   DC    CL8'10.05'          ASM time
                                   12168= 1 00012000 =           ¿þþþþþþþþþþþþþþþþþþþþþþþþþÜ
                                   12169= 1 00013000 =           Ÿ  Common address table.  Ÿ
                                   12170= 1 00014000 =           ¾þþþþþþþþþþþþþþþþþþþþþþþþþ»
 000014 00000000                   12171  1 00015000 =GVTTRACE   DC    V(PTRACE)           PTRACE routine addr
 000018 FFFFFFFFFFFFFFFF           12172  1 00016000 =           DC    4F'-1'              Reserved
                                   12173= 1 00017000 =           ¿þþþþþþþþþþþþþþþþþþþþþþþþÜ
                                   12174= 1 00018000 =           Ÿ  General information.  Ÿ
                                   12175= 1 00019000 =           ¾þþþþþþþþþþþþþþþþþþþþþþþþ»
 000028 0000000000000000           12176  1 00020000 =GVTTIME    DC    D'0'                Start time
 000030 E6C9D5C7E2404040           12177  1 00021000 =GVTJOBNM   DC    CL8'WINGS'          Our job name
 000038 F0F0F0F0                   12178  1 00022000 =GVTJOBNO   DC    CL4'0000'           Our job number
 00003C 4040404040404040           12179  1 00023000 =GVTACCT    DC    CL8' '              Our account (uuu$gg format)
 000044 4040404040404040           12180  1 00024000 =GVTNOTFY   DC    CL8' '              WTO notification account
                                   12181  1 00025000 =
 00004C 00                         12182  1 00026000 =GVTFLAG    FLAG
 GVTFLAG.GVTFTEST  80 ONES         12186  1 00027000 =           FLAG  GVTFTEST            - This is a test version
 GVTFLAG.GVTFDIE   40 ONES         12191  1 00028000 =           FLAG  GVTFDIE             - Die when all subtasks stop
 GVTFLAG.GVTFNOSTA 20 ONES         12196  1 00029000 =           FLAG  GVTFNOSTART         - Don't start subtasks
                                   12201  1 00030000 =
 00004D 00                         12202  1 00031000 =GVTHXDFL   FLAG ,                    HEXDUMP routine flags
 GVTHXDFL.HXDFLEBC 80 ONES         12206  1 00032000 =           FLAG  HXDFLEBC             - CHARS=EBCDIC
 GVTHXDFL.HXDFLADD 40 ONES         12211  1 00033000 =           FLAG  HXDFLADD             - FORMAT=ADDRESS
                                   12216  1 00034000 =
 00004E 0000                              1
 000050 00000000                   12217  1 00035000 =GVTTVTID   DC    F'0'                Last TVT # assigned
 000054 00000000                   12218  1 00036000 =GVTNTASK   DC    F'0'                No. of tasks currently active
 000058 00000000                   12219  1 00037000 =GVTTSKID   DC    F'0'                Last subtask # started (attached)
 00005C FFFFFFFFFFFFFFFF           12220  1 00038000 =           DC    2F'-1'              Reserved
                                   12221  1 00039000 =
 000064 E6C9D5C7E2E5F0F0           12222  1 00040000 =GVTPATHN   DC    CL8'WINGSV00'       Default path name
                                   12223  1 00041000 =
 00006C 00000000                   12224  1 00042000 =GVTTVTQH   DC    A(0)                TVT queue head
 000070 00000000                   12225  1 00043000 =GVTTVTQT   DC    A(0)                TVT queue tail
 000074 00000000                   12226  1 00044010 =GVTQLOCK   DC    A(0)                Internal dataset enqueue lock word
 000078 FFFFFFFFFFFFFFFF           12227  1 00044200 =           DC    3F'-1'              Reserved
 000084                            12228  1 00045000 =GVTECBPT   DS    A(0)                Address of monitor request ECB
                                   12229  1 00046000 =
 000088 00000000                   12230  1 00047000 =GVTVOLT    DC    A(0)                Volume table list head
 00008C 00                         12231  1 00048000 =GVTVOLTF   FLAG  ,                   Volume table flags
1DBMAIN   Wings: Disk I/O support: Global vector table                                                                      Page   11
0Loc    Object Code    Addr1 Addr2  Stmt Lv Lineno    Source Statement           (Hibal 5, Asmedit 3.3)  HLASM R4.0  2002/06/06 10.05
+___    ______ ____    _____ _____  ____ __ ______    ______ _________
0GVTVOLTF.GVTVOLTV 80 ONES         12235  1 00049000 =           FLAG  GVTVOLTVALID        - volume table is valid
 GVTVOLTF.GVTVOLTE 40 ONES         12240  1 00050000 =           FLAG  GVTVOLTERR          - volume table is in error
 GVTVOLTF.GVTVOLTI 20 ONES         12245  1 00051000 =           FLAG  GVTVOLTINT          - Internal command in progress
 00008D 000000                     12250  1 00052000 =           DC    AL3(0)              Reserved
 000090 FFFFFFFFFFFFFFFF           12251  1 00053000 =           DC    3F'-1'              Reserved
                                   12252  1 00054000 =
 00009C 00000000                   12253  1 00055000 =GVTACEE    DC    A(0)                Racf ACEE chain
 0000A0 00                         12254  1 00056000 =GVTACEEF   FLAG  ,                   Define acee processing flags
 GVTACEEF.GVTACEEA 80 ONES         12258  1 00057000 =           FLAG  GVTACEEABRT          - Abort processing active
 0000A1 000000                     12263  1 00058000 =           DC    AL3(0)              Reserved
 0000A4 FFFFFFFFFFFFFFFF           12264  1 00059000 =           DC    3F'-1'              Reserved
                                   12265  1 00060000 =
 0000B0 E6E8D34BC7E24BE6           12266  1 00061000 =GVTPDSN    DC    CL44'WYL.GS.WYL.WINGS.PARMS'
                                   12267  1 00062000 =
 0000DC 00000000                          1
 0000E0                            12268  1 00063000 =           DC    0D'0'               align
 0000E0 4040404040404040           12269  1 00064000 =GVTBLANK   DC    CL256' '            Blanks
 0001E0 0000000000000000           12270  1 00065000 =GVTZERO    DC    XL8'00'             Zeros
 0001E8 FFFFFFFFFFFFFFFF           12271  1 00066000 =           DC    4F'-1'              Reserved
                                   12272  1 00067000 =GVT$HEX    EQU   *-240               Translate table
 0001F8 F0F1F2F3F4F5F6F7           12273  1 00068000 =           DC    C'0123456789ABCDEF'   for hex dump
                                   12274  1 00069000 =
 000208                            12275  1 00070000 =           DS    0D                  Align on double word
 000208                            12276  1 00071000 =GVTDVWA    DS    XL(L'DVWA)          Debug work area (global)
                                   12277  1 00072000 =GVTEND     EQU   *                   End of GVT
 00063C                0063C 0063C 12278    00084000           END   ,
1DBMAIN   Wings: Disk I/O support: Mapping macros                                                                           Page   12
0Loc    Object Code    Addr1 Addr2  Stmt Lv Lineno    Source Statement           (Hibal 5, Asmedit 3.3)  HLASM R4.0  2002/06/06 10.05
+___    ______ ____    _____ _____  ____ __ ______    ______ _________
0                                  12288    00086000           COPY  UPATH               INCLUDE PATH MAPPING INFORMATION
                                   12289=   00001000 =¿þþþþþþþþþþþþþþþþþþþþþþþþþþþþþþþþþþþþþþþþþþþþþþþþþþþþþþþþþþþþþþþþþþþþþÜ
                                   12290=   00002000 =Ÿ                                                                     Ÿ
                                   12291=   00003000 =Ÿ    User Path control block.                                         Ÿ
                                   12292=   00004000 =Ÿ                                                                     Ÿ
                                   12293=   00005000 =Ÿ      MUST BE EXACTLY THE SAME AS MPATH!                             Ÿ
                                   12294=   00006000 =Ÿ                                                                     Ÿ
                                                      ¾þþþþþþþþþþþþþþþþþþþþþþþþþþþþþþþþþþþþþþþþþþþþþþþþþþþþþþþþþþþþþþþþþþþþþ»
0000000                00000 00118 12295    00007000 =UPATH    RECORD BEGIN
 000000 D7C1E3C8                   12303  1 00008000 =UPATHID    DC    CL4'PATH'
 000004 00                         12304  1 00009000 =UPATFLAG   FLAG
 UPATFLAG.UPATFO   80 ONES         12308  1 00010000 =           FLAG  UPATFO              - Path has opened
 UPATFLAG.UPATFHDR 40 ONES         12313  1 00011000 =           FLAG  UPATFHDR            - Send length word before data
 UPATFLAG.UPATFSPR 20 ONES         12318  1 00012000 =           FLAG  UPATFSPR            - Partner is SYS priv'd
 UPATFLAG.UPATFOPR 10 ONES         12323  1 00013000 =           FLAG  UPATFOPR            - Partner is OPR priv'd
 UPATFLAG.UPATFWHD 08 ONES         12328  1 00013100 =           FLAG  UPATFWHDR           - Send WINGS header command
 UPATFLAG.UPATFAUT 04 ONES         12333  1 00013200 =           FLAG  UPATFAUTH           - Partner is authorized
 UPATFLAG.UPATTWAI 02 ONES         12338  1 00013300 =           FLAG  UPATTWAIT           - buffer wait timer set  ML022394
                                   12343  1 00014000 =
 000005                            12344  1 00015000 =UPATWRC    DS    X                   Last write return code
                                   12345  1 00016000 =
 000006 0000                              1
 000008 00000000                   12346  1 00017000 =UPATDLOC   DC    A(0)                Remaining data location
 00000C 00000000                   12347  1 00018000 =UPATDLEN   DC    A(0)                Remaining data length
                                   12348  1 00019000 =
 000010 00000000                   12349  1 00020000 =UPATPASC   DC    F'0'                Partner's ASCB ptr
 000014 0000000000000000           12350  1 00020100 =UPATECBL   DC    A(0),A(0)           ECB list for Suzan/Timeout
 00001C 00000000                   12351  1 00020200 =UPATTOID   DC    A(0)                Timer ID for timeout
 000020 00000000                   12352  1 00020300 =UPATBUFL   DC    A(0)                Partner's buffer length
 000024 0000                       12353  1 00021000 =UPATPLNO   DC    H'0'                Partner's line number
 000026 0000000000000000           12354  1 00022000 =UPATPJOB   DC    XL8'00'             Partner's jobname
 00002E 0000000000000000           12355  1 00023000 =UPATPACT   DC    XL8'00'             Partner's account
 000036 0000000000000000           12356  1 00024000 =UPATPNAM   DC    XL20'00'            Partner's user name
                                   12357  1 00025000 =
                                   12358  1 00026000C=           PATH  VERSION=2,PFX=UPAT,FLAG=UPATSPST,ECB=UPATSECB,
                                          1 00027000 =                 MYTAG=MYTAG,PASS=PROD,BUFSIZE=16384
 00004A 0000                              1          +
 00004C                            12359  1 01-PATH  +UPAT       DC    0F'0'
 00004C 00000000                   12361  1 02-DEFIN +UPATMGC    DC    AL4(0)
 000050 00000000                   12363  1 02-DEFIN +UPATDJNM   DC    AL4(0)
 000054 D4E8E3C1C7404040           12365  1 02-DEFIN +UPATMY     DC    CL8'MYTAG'
 00005C FFFFFFFFFFFFFFFF           12367  1 02-DEFIN +UPATYOU    DC    XL8'FFFFFFFFFFFFFFFF'
 000064 80                         12369  1 02-DEFIN +UPATMFL    DC    AL1(1*X'80'+0*X'40'+0*X'20')
                                   12370  1          +
                                   12371  1 01-PATH  +UPATVER2    EQU  X'80'         CALLER IS USING VERSION 2
                                   12372  1 01-PATH  +UPATMCTL    EQU  X'40'         CALLER ASKS TERMINATION CONTROL
                                   12373  1 01-PATH  +UPATMNAM    EQU  X'20'         CALLER PROVIDES CALLEE NAME
                                   12374  1 01-PATH  +UPATMDP1    EQU  X'10'         DUPLICATE TAGS FOUND: MY=PCBO, YOU=PCBA
                                   12375  1 01-PATH  +UPATMDP2    EQU  X'08'         DUPLICATE TAGS FOUND: MY=PCBA, YOU=PCBO
                                   12376  1          +
 000065 000000                     12378  1 02-DEFIN +UPATOECB   DC    AL3(0)
 000068 00004000                   12380  1 02-DEFIN +UPATBUF    DC    AL4(16384)
 00006C 00000088                   12382  1 02-DEFIN +UPATECBF   DC    AL4(UPATSPST)
                                   12383  1          +
                                   12384  1 01-PATH  +UPATFCLS    EQU   X'80'         I AM POSTED BECAUSE HE CLOSED
1DBMAIN   Wings: Disk I/O support: Mapping macros                                                                           Page   13
0Loc    Object Code    Addr1 Addr2  Stmt Lv Lineno    Source Statement           (Hibal 5, Asmedit 3.3)  HLASM R4.0  2002/06/06 10.05
+___    ______ ____    _____ _____  ____ __ ______    ______ _________
0                                  12385  1 01-PATH  +UPATFFQE    EQU   X'40'         I AM POSTED BECAUSE HIS FULL Q EMPTIED
                                   12386  1 01-PATH  +UPATFNI     EQU   X'20'         I AM POSTED BECAUSE NEW INFO IN MY Q
                                   12387  1 01-PATH  +UPATFDP     EQU   X'10'         I AM POSTED AT HIS DISCRETION
                                   12388  1 01-PATH  +UPATFOPN    EQU   X'08'         I AM POSTED BECAUSE HE OPENED
                                   12389  1 01-PATH  +UPATFCLC    EQU   X'04'         I AM POSTED BECAUSE MY CLOSE IS COMPLETE
                                   12390  1          +
 000070 D7D9D6C4                   12392  1 02-DEFIN +UPATPASS   DC    CL4'PROD'
 000074 00000084                   12394  1 02-DEFIN +UPATECB    DC    AL4(UPATSECB)
 000078 00000000                   12396  1 02-DEFIN +UPATEXIT   DC    AL4(0)
 00007C 00000000                   12398  1 02-DEFIN +UPATPINP   DC    XL4'0'
 000080 00000000                   12400  1 02-DEFIN +UPATRESV   DC    XL4'0'
                                   12401  1          +*
                                   12402  1          +*  VERSION 2 RETURN CODES
                                   12403  1          +*
                                   12404  1 01-PATH  +UPATROK     EQU  0                       COMPLETE OK
                                   12405  1 01-PATH  +UPATRIFC    EQU  4                       INVALID FUNCTION CODE
                                   12406  1 01-PATH  +UPATRPMW    EQU  8                       INVALID PATH MAGIC WORD
                                   12407  1 01-PATH  +UPATRBAF    EQU  12                      PARTNER'S BUFFER AREA FULL
                                   12408  1 01-PATH  +UPATRNOP    EQU  16                      PARTNER NOT THERE
                                   12409  1 01-PATH  +UPATRBOM    EQU  20                      BUFFER OVER PARTNER'S MAXIMUM
                                   12410  1 01-PATH  +UPATRIBS    EQU  24                      RECEIVE BUFFER TOO SMALL
                                   12411  1 01-PATH  +UPATRBPI    EQU  28                      INVALID BUFFER POINTER
                                   12412  1 01-PATH  +UPATRIAD    EQU  32                      INVALID ADDRESS
                                   12413  1 01-PATH  +UPATRES1    EQU  36                      RESERVED
                                   12414  1 01-PATH  +UPATRES2    EQU  40                      RESERVED
                                   12415  1 01-PATH  +UPATRES3    EQU  44                      RESERVED
                                   12416  1 01-PATH  +UPATRES4    EQU  48                      RESERVED
                                   12417  1          +
                                   12418  1 01-PATH  +UPATSIZE    EQU  *-UPAT        LENGTH OF PATH BLOCK
                                   12419  1 00028000 =
 000084 00000000                   12420  1 00029000 =UPATSECB   DC    F'0'                Suzan path ECB (not used?)
                                   12421  1 00030000 =
 000088 00                         12422  1 00031000 =UPATSPST   DC    X'00'               Suzan post flag byte
 000089 00                         12423  1 00032000 =UPATSFLG   DC    X'00'               Copy of Suzan post flag byte
                                   12424  1 00033000 =
 00008A 0000000000000000           12425  1 00034000 =UPATRTIM   DC    XL8'00'             Time of last received msg
 000092 0000                              1
 000094 00000000                   12426  1 00035000 =UPATRLEN   DC    F'0'                Length of last received msg
 000098 0000000000000000           12427  1 00036000 =UPATRDAT   DC    XL128'00'           Last received message
 000118                00118 00118 12428    00037000 =         END
1DBMAIN   Wings: Disk I/O support: Mapping macros                                                                           Page   14
0Loc    Object Code    Addr1 Addr2  Stmt Lv Lineno    Source Statement           (Hibal 5, Asmedit 3.3)  HLASM R4.0  2002/06/06 10.05
+___    ______ ____    _____ _____  ____ __ ______    ______ _________
0                                  12438    00088000           COPY  SYMTAB
                                   12439=   00001000 =¿þþþþþþþþþþþþþþþþþþþþþþþþþþþþþþþþþþþþþþþþþþþþþþþþþþþþþþþþþþþþþþþþþþþþþÜ
                                   12440=   00001010 =Ÿ                                                                     Ÿ
                                   12441=   00001020 =Ÿ   Define format of dynamic symbol table                             Ÿ
                                   12442=   00001030 =Ÿ                                                                     Ÿ
                                                      ¾þþþþþþþþþþþþþþþþþþþþþþþþþþþþþþþþþþþþþþþþþþþþþþþþþþþþþþþþþþþþþþþþþþþþþ»
-000000                00000 00014 12444    00001100 =SYMENTRY RECORD BEGIN
 000000 00000000                   12452  1 00008000 =SYMNEXT    DC    A(0)                Pointer to next symbol or (null)
 000004 D5C1D4C540404040           12453  1 00009000 =SYMNAME    DC    CL8'NAME'           Symbol name (ebcdic)
 00000C 00000000                   12454  1 00010000 =SYMLOC     DC    A(0)                Symbol starting location
 000010 00000000                   12455  1 00011000 =SYMLEN     DC    A(0)                Symbol length
 000014                00014 00014 12456    00013000 =         END
-
                                   12466    00090000           COPY  TRCENTRY
                                   12467=   00001000 =¿þþþþþþþþþþþþþþþþþþþþþþþþþþþþþþþþþþþþþþþþþþþþþþþþþþþþþþþþþþþþþþþþþþþþþÜ
                                   12468=   00002000 =Ÿ                                                                     Ÿ
                                   12469=   00003000 =Ÿ        Trace table entry format.                                    Ÿ
                                   12470=   00004000 =Ÿ                                                                     Ÿ
                                                      ¾þþþþþþþþþþþþþþþþþþþþþþþþþþþþþþþþþþþþþþþþþþþþþþþþþþþþþþþþþþþþþþþþþþþþþ»
0                                  12471    00005000 =TRCNENT# EQU   200,,C'N'           Default number of trace entries
                                   12472    00006000 =
 000000                00000 00050 12473    00007000 =TRCENTRY RECORD BEGIN
 000000                            12481  1 00008000 =TRCCLOCK   DS    D                   Time stamp (STCK format)
 000008                            12482  1 00009000 =TRCNAME    DS    CL8                 Routine name or trace id
 000010                            12483  1 00010000 =TRCREGS    DS    16F                 Registers
 000050                00050 00050 12484    00011000 =         END
-
                                   12494    00092000           COPY  DYNTABLE
                                   12495=   00001000 =¿þþþþþþþþþþþþþþþþþþþþþþþþþþþþþþþþþþþþþþþþþþþþþþþþþþþþþþþþþþþþþþþþþþþþþÜ
                                   12496=   00002000 =Ÿ                                                                     Ÿ
                                   12497=   00003000 =Ÿ   Dynamic allocation buffer definitions                             Ÿ
                                   12498=   00004000 =Ÿ                                                                     Ÿ
                                   12499=   00005000 =Ÿ  1996/02/08 mcl  add request block extension                        Ÿ
                                                      ¾þþþþþþþþþþþþþþþþþþþþþþþþþþþþþþþþþþþþþþþþþþþþþþþþþþþþþþþþþþþþþþþþþþþþþ»
0000000                00000 00050 12501    00007000 =DYNTABLE RECORD BEGIN
 000000 C4E8D5C2                   12509  1 00008000 =DYNTID     DC    CL4'DYNB'           Define eye-catcher
 000004 0000                       12510  1 00009000 =DYNTLEN    DC    AL2(0)              Total buffer length
 000006 0000                       12511  1 00010000 =DYNTRSV    DC    AL2(0)              Reserved
0000008 00000000                   12513  1 00012000 =DYN99CBP   DC    A(0)                Pointer to SVC99 parameter list
0                                  12515  1 00014000 =*  Following 5 words mapped by DSECT S99RB:
000000C 0000000000000000           12517  1 00016000 =DYN99CB    DC    5A(0)               Space for SVC99 parameter list
0                                  12519  1 00018000 =*  Following 9 words mapped by DSECT S99RBX:
0000020 0000000000000000           12521  1 00020000 =DYNRBX     DC    9A(0)               SVC99 Request Block Extension
1DBMAIN   Wings: Disk I/O support: Mapping macros                                                                           Page   15
0Loc    Object Code    Addr1 Addr2  Stmt Lv Lineno    Source Statement           (Hibal 5, Asmedit 3.3)  HLASM R4.0  2002/06/06 10.05
+___    ______ ____    _____ _____  ____ __ ______    ______ _________
0000044 00000000                   12523  1 00022000 =DYNTRETC   DC    A(0)                Return code from SVC99 call
 000048 00000000                   12524  1 00023000 =DYNTUNIT   DC    A(0)                Pointer to next available unit
 00004C 00000000                   12525  1 00024000 =DYNTTEXT   DC    A(0)                Pointer to next available text
0000050                            12527  1 00026000 =DYNTUST    DC    0A(0)               Address of first text unit pointer
 000050                00050 00050 12528    00027000 =         END   ,
1DBMAIN   Wings: Disk I/O support: Mapping macros                                                                           Page   16
0Loc    Object Code    Addr1 Addr2  Stmt Lv Lineno    Source Statement           (Hibal 5, Asmedit 3.3)  HLASM R4.0  2002/06/06 10.05
+___    ______ ____    _____ _____  ____ __ ______    ______ _________
0                                  12538    00094000  ¿þþþþþþþþþþþþþþþþþþþþþþþþþþþþþþþþþþþþþþþþþþþþþþþþþþþþþþþþþþþþþþþþþþþþþÜ
                                   12539    00095000  Ÿ                                                                     Ÿ
                                   12540    00096000  Ÿ  Map segment control block fields                                   Ÿ
                                   12541    00097000  Ÿ                                                                     Ÿ
                                                      ¾þþþþþþþþþþþþþþþþþþþþþþþþþþþþþþþþþþþþþþþþþþþþþþþþþþþþþþþþþþþþþþþþþþþþþ»
-000000                00000 0003C 12543    00099000  SEGCB    RECORD 'SEGCB'
 000000 00                         12553  1 03-SEGCB +$$$SEGCB0   DS   0F
 SEGCBCOD.SEGCBSEG 01 EQ
 SEGCBCOD.SEGCBWR  02 EQ
 SEGCBCOD.SEGCBCLR 03 EQ
 SEGCBCOD.SEGCBSPP 04 EQ
 SEGCBCOD.SEGCBOVF 05 EQ
 SEGCBCOD.SEGCBCR  06 EQ
 SEGCBCOD.SEGCBMAR 07 EQ
 000001 00                         12628  1 03-SEGCB +           DC    X'00'               Reserved
 000002 0000                              1          +
 000004 00000000                   12629  1 03-SEGCB +SEGCBMAXF   DC   A(0)                Maximum buffer length
 000008 00000000                   12630  1 03-SEGCB +SEGCBMRKF   DC   A(0)                Length at last mark
 00000C 00000000                   12631  1 03-SEGCB +SEGCBLENF   DC   A(0)                Current length
 000010 00000000                   12632  1 03-SEGCB +SEGCBINDF   DC   A(0)                Overflow/indent count
 000014 00000000                   12633  1 03-SEGCB +SEGCBERR   DC    A(0)                Address of error recovery routine
 000018 0000000000000000           12634  1 03-SEGCB +           DC    2F'0'               Reserved
 000020 00000000                   12635  1 03-SEGCB +SEGCBLOC   DC    A(0)                Location of buffer
 000024 00000000                   12636  1 03-SEGCB +SEGCBRTN   DC    A(0)                Processing routine
 000028 0000000000000000           12637  1 03-SEGCB +           DC    4F'0'               Reserved
 000038 00000000       0003C 0003C 12638    03-SEGCB +SEGCBUSR DC    A(0)                USER field
-
                                   12649    00101000  ¿þþþþþþþþþþþþþþþþþþþþþþþþþþþþþþþþþþþþþþþþþþþþþþþþþþþþþþþþþþþþþþþþþþþþþÜ
                                   12650    00102000  Ÿ                                                                     Ÿ
                                   12651    00103000  Ÿ  Map scanner control block fields                                   Ÿ
                                   12652    00104000  Ÿ                                                                     Ÿ
                                                      ¾þþþþþþþþþþþþþþþþþþþþþþþþþþþþþþþþþþþþþþþþþþþþþþþþþþþþþþþþþþþþþþþþþþþþþ»
-000000                00000 00020 12654    00106000           SCANCB TYPE=DSECT
 000000                            12663  1 01-SCANC +SCNVAL     DS    A                       Value returned
 000004                            12664  1 01-SCANC +SCNKW      DS    CL8                     Current key word
 00000C                            12665  1 01-SCANC +SCNLEN     DS    A                       Length left to scan
 000010                            12666  1 01-SCANC +SCNLOC     DS    A                       Next thing to scan
 000014                            12667  1 01-SCANC +SCNRA      DS    A                       Return address
 000018                            12668  1 01-SCANC +SCNPRT     DS    A                       Routing table address
 00001C                            12669  1 01-SCANC +SCNCLT     DS    A                       Scan type
                                   12670  1          +*                                          0 = Normal scan
                                   12671  1          +*                                          4 = Expression isolation
                                   12672  1          +*                                          8 = Expression scan
 000020                00020 00020 12673    01-SCANC +SCNCBL   EQU *-SCNCB
1DBMAIN   Wings: Disk I/O support: Task vector table                                                                        Page   17
0Loc    Object Code    Addr1 Addr2  Stmt Lv Lineno    Source Statement           (Hibal 5, Asmedit 3.3)  HLASM R4.0  2002/06/06 10.05
+___    ______ ____    _____ _____  ____ __ ______    ______ _________
0000000                00000 006A0 12684    00109000  TVT      RECORD BEGIN
                                   12692  1 00110000             COPY  TVT                 Basic TVT
                                   12693= 1 00001000 =¿þþþþþþþþþþþþþþþþþþþþþþþþþþþþþþþþþþþþþþþþþþþþþþþþþþþþþþþþþþþþþþþþþþþþþÜ
                                   12694= 1 00002000 =Ÿ                                                                     Ÿ
                                   12695= 1 00003000 =Ÿ  Task Vector Table.                                                 Ÿ
                                   12696= 1 00004000 =Ÿ                                                                     Ÿ
                                   12697= 1 00005000 =Ÿ        All TVTs are 4K in length.                                   Ÿ
                                   12698= 1 00006000 =Ÿ                                                                     Ÿ
                                   12699= 1 00007000 =Ÿ        The first 1K of the TVT is common for all tasks.             Ÿ
                                   12700= 1 00008000 =Ÿ        The remaining 3K is a subtask specific extension.            Ÿ
                                   12701= 1 00009000 =Ÿ                                                                     Ÿ
                                   12702= 1 00009100 =Ÿ        1996/06/03 mcl  TVTSENDXMSGS                                 Ÿ
                                   12703= 1 00009110 =Ÿ        1996/03/04 mcl  queue lock fail flag, move NOFWE to TVTOSFIL Ÿ
                                   12704= 1 00009200 =Ÿ        1996/02/29 mcl  cmd to spin off log file; TVTNOFWE flag      Ÿ
                                   12705= 1 00010000 =Ÿ                                                                     Ÿ
                                   12706= 1 00011000 =Ÿ                                                                     Ÿ
                                          1           ¾þþþþþþþþþþþþþþþþþþþþþþþþþþþþþþþþþþþþþþþþþþþþþþþþþþþþþþþþþþþþþþþþþþþþþ»
-                                         1
 000000                            12708  1 00013000 =TVTSTART   DS    0D
 000000                            12709  1 00014000 =TVTID      DS    CL4'TVT'            Self-identification
                                   12710  1 00015000 =TVTSIZE#   EQU   4096,,C'N'          Length of TVT+extensions
 000004                            12711  1 00016000 =TVTTLEN    DS    AL2                 Total length
                                   12712  1 00017000 =
 000008                            12713  1 00018000 =TVTLINK    DS    A                   Ptr to next TVT (0=last)
                                   12714= 1 00019000 =           ¿þþþþþþþþþþþþþþþþþþþþþþþþþþþÜ
                                   12715= 1 00020000 =           Ÿ  Task DEFINE Information  Ÿ
                                   12716= 1 00021000 =           ¾þþþþþþþþþþþþþþþþþþþþþþþþþþþ»
 00000C                            12717  1 00022000 =TVTNO      DS    F                   Task identification number
 000010 00000000                   12718  1 00023000 =TVTSEQ     DC    A(0)                Global task sequence number
 000014                            12719  1 00024000 =TVTNAME    DS    CL8                 Subtask name
 00001C                            12720  1 00025000 =TVTLMOD    DS    CL8                 Load module name
                                   12721  1 00026000 =
 000024                            12722  1 00027000 =TVTPLIST   DS    4A                  tvt ptr, parm ptr, 0, 0
 000034                            12723  1 00028000 =TVTPLEN    DS    H                   Parm length
 000036                            12724  1 00029000 =TVTPTXT    DS    CL80                Parm text
                                   12725  1 00030000 =
 000088                            12726  1 00031000 =TVTRESTART   DS  F                   Restart allowed
 00008C                            12727  1 00032000 =TVTRESCNT    DS  F                   Restart count
                                   12728= 1 00033000 =       ¿þþþþþþþþþþþþþþþþþþþþþþþÜ
                                   12729= 1 00034000 =       Ÿ  Important addresses  Ÿ
                                   12730= 1 00035000 =       ¾þþþþþþþþþþþþþþþþþþþþþþþ»
 000090 00000000                   12731  1 00036000 =TVTGVTP    DC    A(0)                Address of the GVT
 000094 00000000                   12732  1 00037000 =TVTASCBP   DC    A(0)                Our ASCB address
 000098 00000000                   12733  1 00038000 =TVTTCBP    DC    A(0)                Our TCB address
                                   12734  1 00039000 =*
                                   12735  1 00040000 =*
                                   12736= 1 00041000 =      ¿þþþþþþþþþþþþþþþþþþþþþþþþþþþþþþþþþþþþþþþþþþþþþþþþþþþþþÜ
                                   12737= 1 00042000 =      Ÿ  All fields below TVTCLEAR are initialized to zero  Ÿ
                                   12738= 1 00043000 =      Ÿ  before subtask is attached.  (or restarted!!)      Ÿ
                                   12739= 1 00044000 =      ¾þþþþþþþþþþþþþþþþþþþþþþþþþþþþþþþþþþþþþþþþþþþþþþþþþþþþþ»
                                   12740  1 00045000 =TVTCLEAR   EQU   *
1DBMAIN   Wings: Disk I/O support: Task vector table                                                                        Page   18
0Loc    Object Code    Addr1 Addr2  Stmt Lv Lineno    Source Statement           (Hibal 5, Asmedit 3.3)  HLASM R4.0  2002/06/06 10.05
+___    ______ ____    _____ _____  ____ __ ______    ______ _________
0                                  12741= 1 00046000 =           ¿þþþþþþþþþþþþþþþþþþþþþþþþþþþþÜ
                                   12742= 1 00047000 =           Ÿ  Define global TVT flags.  Ÿ
                                   12743= 1 00048000 =           ¾þþþþþþþþþþþþþþþþþþþþþþþþþþþþ»
 00009C 00                         12744  1 00049000 =TVTFLAG    FLAG  ,                   Misc flags
 TVTFLAG.TVTFSUSPE 80 ONES         12748  1 00050000 =           FLAG  TVTFSUSPEND         - Task is suspended
 TVTFLAG.TVTFQUISC 40 ONES         12753  1 00051000 =           FLAG  TVTFQUISCE          - Quisce processing
 TVTFLAG.TVTFSTOPP 20 ONES         12758  1 00052000 =           FLAG  TVTFSTOPPING        - TVT is stopping
 TVTFLAG.TVTFABEND 10 ONES         12763  1 00053000 =           FLAG  TVTFABENDING        - TVT is abending
 TVTFLAG.TVTFNORES 08 ONES         12768  1 00054000 =           FLAG  TVTFNORESTART       - Do not restart this TVT task
 TVTFLAG.TVTFSPINL 04 ONES         12773  1 00055000 =           FLAG  TVTFSPINLOG         - spin off the logfile
                                   12778  1 00055100 =
 00009D 00                         12779  1 00056000 =TVTSTATE   FLAG  ,                   Task state
 TVTSTATE.TVTSTINI 00 EQ           12783  1 00057000 =           FLAG  (TVTSTINIT,0,EQ)     - Initializing
 TVTSTATE.TVTSTWAI 01 EQ           12793  1 00058000 =           FLAG  (TVTSTWAITING,1,EQ)  - Waiting for work
 TVTSTATE.TVTSTBUS 02 EQ           12803  1 00059000 =           FLAG  (TVTSTBUSY,2,EQ)     - Doing work
                                   12813  1 00060000 =
 00009E 00                         12814  1 00061000 =TVTFLAG3   FLAG  ,                   General flags
 TVTFLAG3.TVTFTRC  80 ONES         12818  1 00062000 =           FLAG  TVTFTRC             - Tracing active
 TVTFLAG3.TVTESTAE 40 ONES         12823  1 00063000 =           FLAG  TVTESTAE            - ESTAE environment active
 TVTFLAG3.TVTNOEST 20 ONES         12828  1 00064000 =           FLAG  TVTNOEST            - Bypass ESTAE environment
 TVTFLAG3.TVTFABND 10 ONES         12833  1 00065000 =           FLAG  TVTFABND            - Abend in progress
 TVTFLAG3.TVTBATCH 08 ONES         12838  1 00066000 =           FLAG  TVTBATCH            - Batch test mode
 TVTFLAG3.TVTREPT  04 ONES         12843  1 00067000 =           FLAG  TVTREPT             - Report file open
 TVTFLAG3.TVTWEIRD 02 ONES         12848  1 00068000 =           FLAG  TVTWEIRD            - Weird processing mode
 TVTFLAG3.TVTFDBUG 01 ONES         12853  1 00069000 =           FLAG  TVTFDBUG            - Debug mode (set debug ESPIE)
                                   12858  1 00070000 =
 00009F 00                         12859  1 00071000 =TVTFLAG4   FLAG  ,
 TVTFLAG4.TVTFOSFI 80 ONES         12863  1 00072000 =           FLAG  TVTFOSFILE          - OSFILE type loadmodule
                                   12868  1 00073000 =
 0000A0 00                         12869  1 00074000 =TVTFLAG5   FLAG  ,                   Subtask post of monitor
 TVTFLAG5.TVTFPOST 80 ONES         12873  1 00075000 =           FLAG  TVTFPOST            - This subtask posted monitor
 TVTFLAG5.TVTFEOTA 40 ONES         12878  1 00076000 =           FLAG  TVTFEOTASK          - End of subtask post
 TVTFLAG5.TVTFCMD  20 ONES         12883  1 00077000 =           FLAG  TVTFCMD             - Monitor command post
 TVTFLAG5.TVTFQLFA 10 ONES         12888  1 00078000 =           FLAG  TVTFQLFAIL          - could not obtain internal
                                   12893  1 00078100 =*                                    enqueue lock          ml960304
                                   12894  1 00079000 =*
 0000A1 00                         12895  1 00080000 =TVTFLAG6   FLAG  ,                   Monitor post of subtask
 TVTFLAG6.TVTFSTOP 80 ONES         12899  1 00081000 =           FLAG  TVTFSTOP            - request subtask termination
 TVTFLAG6.TVTFSTAT 40 ONES         12904  1 00082000 =           FLAG  TVTFSTATUS          - reqst subtask status (not used)
                                   12909  1 00083000 =
 0000A2 00                         12910  1 00084000 =TVTFLAG7   FLAG  ,
 TVTFLAG7.TVTXDBUG 80 ONES         12914  1 00084500 =           FLAG  TVTXDBUG            extra debugging flag
 TVTFLAG7.TVTSENDX 40 ONES         12919  1 00085000 =           FLAG  TVTSENDXMSGS        send extra info messages
                                   12924  1 00085100 =
 0000A3 00                         12925  1 00086000 =TVTFLAG8   FLAG  ,
                                   12929= 1 00087000 =           ¿þþþþþþþþþþþþþþþþþþþþþþþþþþþþþÜ
                                   12930= 1 00088000 =           Ÿ                             Ÿ
                                   12931= 1 00089000 =           Ÿ  General task information.  Ÿ
                                   12932= 1 00090000 =           ¾þþþþþþþþþþþþþþþþþþþþþþþþþþþþþ»
 0000A4                            12933  1 00091000 =TVTUID     DS    CL5                 Current user at death
 0000A9                            12934  1 00092000 =TVTCODES   DS    CL3                 Abend system/user codes
 0000AC                            12935  1 00093000 =TVTREASN   DS    F                   Abend reason code
 0000B0                            12936  1 00094000 =TVTECBRQ   DS    F                   Request of subtask ECB
 0000B4                            12937  1 00095000 =TVTECBCM   DS    F                   Request complete ECB
 0000B8                            12938  1 00096000 =TVTMONCM   DS    F                   Monitor cmd/reqst complete ECB
 0000BC                            12939  1 00097000 =TVTRSPBF   DS    F                   Request response buffer
1DBMAIN   Wings: Disk I/O support: Task vector table                                                                        Page   19
0Loc    Object Code    Addr1 Addr2  Stmt Lv Lineno    Source Statement           (Hibal 5, Asmedit 3.3)  HLASM R4.0  2002/06/06 10.05
+___    ______ ____    _____ _____  ____ __ ______    ______ _________
00000C0                            12940  1 00098000 =TVTRSPLN   DS    F                   Request response buffer len
 0000C4                            12941  1 00099000 =TVTTIME    DS    F                   Time of last abend
                                   12942= 1 00100000 =           ¿þþþþþþþþþþþþþþþþþþþþþþþþþþþþþþþþÜ
                                   12943= 1 00101000 =           Ÿ  Define trace table pointers.  Ÿ
                                   12944= 1 00102000 =           ¾þþþþþþþþþþþþþþþþþþþþþþþþþþþþþþþþ»
 0000C8                            12945  1 00103000 =TVTTRBEG   DS    A                   Trace table start
 0000CC                            12946  1 00104000 =TVTTRCUR   DS    A                   Most recent trace table entry
 0000D0                            12947  1 00105000 =TVTTREND   DS    A                   Trace table end
 0000D4                            12948  1 00106000 =TVTTRSAV   DS    3A                  Trace register save area
                                   12949= 1 00107000 =           ¿þþþþþþþþþþþþþþþþþþþþþþþþþþþþþþþþþþþþþþÜ
                                   12950= 1 00108000 =           Ÿ  Define global pointers within TVT.  Ÿ
                                   12951= 1 00109000 =           ¾þþþþþþþþþþþþþþþþþþþþþþþþþþþþþþþþþþþþþþ»
 0000E0 00000000                   12952  1 00110000 =TVTSYMTB   DC    A(0)                Anchor address for symbol table
 0000E4 00000000                   12953  1 00111000 =TVTWTIME   DC    A(0)                Periodic timer fire (.01) seconds
 0000E8 00000000                   12954  1 00112000 =TVTSTMID   DC    A(0)                STIMERM timer identification
 0000EC 00000000                   12955  1 00113000 =TVTSAVE    DC    A(0)                Address of vs save area
 0000F0 00000000                   12956  1 00114000 =TVTRETCD   DC    A(0)                Global process return code
 0000F4 00000000                   12957  1 00115000 =TVTESTAK   DC    A(0)                Address of ESTAE save stack
 0000F8 00000000                   12958  1 00116000 =TVTDUMPR   DC    A(0)                Dump formatter co-routine (0=none)
 0000FC 00000000                   12959  1 00117000 =TVTTASKP   DC    A(0)                TASKLIB DCB ptr
 000100 00000000                   12960  1 00118000 =TVTBFTIM   DC    A(0)                Time-out value for buffer full
 000104 00000000                   12961  1 00119000 =TVTBETIM   DC    A(0)                Pause time after buffer-empty
 000108 00000000                   12962  1 00120000 =TVTSTPTR   DC    A(0)                Pointer to start of save stack
 00010C 00000000                   12963  1 00121000 =TVTDUMPX   DC    A(0)                Address to be passed to co-routine
                                   12964  1 00121100 =*                                  (0=use SDWA)      **MOVE THIS**
 000110 00000000                   12965  1 00121110 =TVTQWTIM   DC    A(0)                enqueued dataset wait retry time,
                                   12966  1 00121120 =*                                  centiseconds      **MOVE THIS**
 000114 FFFFFFFFFFFFFFFF           12967  1 00121200 =           DC    5F'-1'              Reserved
                                   12968= 1 00122000 =           ¿þþþþþþþþþþþþþþþþþþþþþþþþþþþþþþþþþþþþþþþþþþþþþþþþþþþþþþþþþÜ
                                   12969= 1 00123000 =           Ÿ  Define SVC 99 dynamic allocate initial parameter list  Ÿ
                                   12970= 1 00124000 =           ¾þþþþþþþþþþþþþþþþþþþþþþþþþþþþþþþþþþþþþþþþþþþþþþþþþþþþþþþþþ»
 000128 00000000                   12971  1 00125000 =TVTDYNBF   DC    A(0)                Address of dynamic allocation
 00012C 000000000000               12972  1 00126000 =TVTDYNWP   DC    AL2(0,0,0)          Work area for text unit buildup
 000132 0000000000000000           12973  1 00127000 =TVTDYNWT   DC    XL44'00'            Reserve space
-                                  12975= 1 00129000 =      ¿þþþþþþþþþþþþþþþþþþþþþþþþþþþþþþþþþþþþþþþþþþþÜ
                                   12976= 1 00130000 =      Ÿ  True user identification of client path  Ÿ
                                   12977= 1 00131000 =      ¾þþþþþþþþþþþþþþþþþþþþþþþþþþþþþþþþþþþþþþþþþþþ»
 00015E 0000                              1
 000160                            12978  1 00132000 =           DC    0F'0'               align
 000160                            12979  1 00132100 =TVTACCT    DS    0CL5                Requestor's account (uuugg)
 000160                            12980  1 00133000 =TVTUSER    DS    CL3                 .uuu
 000163                            12981  1 00134000 =TVTGROUP   DS    CL2                 .gg
 000165 00                         12982  1 00135000 =TVTAFIFL   DC    AL1(0)              Keyword record IFL flags
 000166 00                         12983  1 00136000 =TVTAKAFL   DC    AL1(0)              Keyword record AFL flags
 000167 00                                1
 000168 0000                       12984  1 00137000 =TVTLINE    DC    H'0'                Requestor's line-number
                                   12985  1 00138000 =
 00016A 0000                              1
 00016C 00000000                   12986  1 00139000 =TVTLGBEG   DC    A(0)                Log buffer start
 000170 00000000                   12987  1 00140000 =TVTLGCUR   DC    A(0)                Most recent log buffer entry
 000174 00000000                   12988  1 00141000 =TVTLGEND   DC    A(0)                Log buffer end
                                   12989  1 00142000 =LOGCNT     EQU   60                  Log buffer entry count
                                   12990  1 00143000 =LOGLEN     EQU   100                 Log buffer entry length
1DBMAIN   Wings: Disk I/O support: Task vector table                                                                        Page   20
0Loc    Object Code    Addr1 Addr2  Stmt Lv Lineno    Source Statement           (Hibal 5, Asmedit 3.3)  HLASM R4.0  2002/06/06 10.05
+___    ______ ____    _____ _____  ____ __ ______    ______ _________
0000178 00000000                   12992  1 00145000 =TVTRCYST   DC    A(0)                Error recovery stack
 00017C 0000000000000000           12993  1 00146000 =           DC    16A(0)              Error recovery routines
 0001BC FFFFFFFF                   12994  1 00147000 =TVTRLAST   DC    A(-1)               Recovery stack overflow check
-                                  12996= 1 00149000 =      ¿þþþþþþþþþþþþþþþþþþþþþþþþþþþþþþþþþþþþþþþþþþþþþþþþþþþþþþþþþþþþþþþþþþþÜ
                                   12997= 1 00150000 =      Ÿ  Info on most recent request                            ML940204  Ÿ
                                   12998= 1 00151000 =      ¾þþþþþþþþþþþþþþþþþþþþþþþþþþþþþþþþþþþþþþþþþþþþþþþþþþþþþþþþþþþþþþþþþþþ»
 0001C0                            12999  1 00152000 =           DS    0D
 0001C0                            13000  1 00153000 =TVTLRCLK   DS    2F                  Time stamp at path open ML940204
 0001C8                            13001  1 00154000 =TVTLACLK   DS    2F                  Time stamp last action taken
-                                  13003= 1 00156000 =           ¿þþþþþþþþþþþþþþþþþþþÜ
                                   13004= 1 00157000 =           Ÿ  Global counters  Ÿ
                                   13005= 1 00158000 =           ¾þþþþþþþþþþþþþþþþþþþ»
 0001D0 00000000                   13006  1 00159000 =TVTCNTPOPENS     DC    A(0)          Total path opens
 0001D4 00000000                   13007  1 00160000 =TVTCNTPCLOSE     DC    A(0)          Total path closes
 0001D8 00000000                   13008  1 00161000 =TVTCNTREQ        DC    A(0)          Total requests
 0001DC 00000000                   13009  1 00162000 =TVTCNTUSE        DC    A(0)          Total use requests
 0001E0 00000000                   13010  1 00163000 =TVTCNTSAVE       DC    A(0)          Total save requests
 0001E4 0000000000000000           13011  1 00164000 =                 DC    7A(0)         Reserved
 000200 00000000                   13012  1 00165000 =TVTCNTSENT       DC    A(0)          Total scom writes
 000204 00000000                   13013  1 00166000 =TVTCNTRECVD      DC    A(0)          Total scom reads
 000208 0000000000000000           13014  1 00167000 =TVTCNTBSENT      DC    2A(0)         Total bytes sent
 000210 0000000000000000           13015  1 00168000 =TVTCNTBRECVD     DC    2A(0)         Total bytes recieved
                                   13016= 1 00169000 =           ¿þþþþþþþþþþþþþþþþþþþþþþþþþþþþÜ
                                   13017= 1 00170000 =           Ÿ  LOCAL DEBUGGER WORK AREA  Ÿ
                                   13018= 1 00171000 =           ¾þþþþþþþþþþþþþþþþþþþþþþþþþþþþ»
 000218                            13019  1 00172000 =           DS    0D
 000218                            13020  1 00173000 =TVTLCLDB   DS    XL(L'LCLDBWA)
                                   13021  1 00174000 =
 000380                            13022  1 00175000 =           DS    0S(TVTSTART+1024-*) Do not overflow TVT Header area
                                   13023  1 00176000 =
 000380                00380 00400 13024  1 00177000 =           ORG   TVTSTART+1024       Basic TVT is always 1024 bytes
                                   13025  1 00111000             COPY  TVTDBM              TVT DBMAIN tvt extension
                                   13026= 1 00001000 =¿þþþþþþþþþþþþþþþþþþþþþþþþþþþþþþþþþþþþþþþþþþþþþþþþþþþþþþþþþþþþþþþþþþþþþÜ
                                   13027= 1 00002000 =Ÿ                                                                     Ÿ
                                   13028= 1 00003000 =Ÿ        TVT -- DBMAIN file extension                                 Ÿ
                                   13029= 1 00004000 =Ÿ                                                                     Ÿ
                                          1           ¾þþþþþþþþþþþþþþþþþþþþþþþþþþþþþþþþþþþþþþþþþþþþþþþþþþþþþþþþþþþþþþþþþþþþþ»
0                                  13031= 1 00006000 =           ¿þþþþþþþþþþþþþþþþþþþþþþþþþþþþÜ
                                   13032= 1 00007000 =           Ÿ  TASK ECB POINTERS ETC,,,  Ÿ
                                   13033= 1 00008000 =           Ÿ                            Ÿ
                                   13034= 1 00009000 =           ¾þþþþþþþþþþþþþþþþþþþþþþþþþþþþ»
 000400 00                         13035  1 00009100 =TVTFEVTYPE   FLAG ,                  ECBLIST monitor/debug ecbs
 TVTFEVTYPE.TVTFMO 01 EQ           13039  1 00009200 =           FLAG  (TVTFMONEL,1,EQ)    Monitor ECBLIST
 TVTFEVTYPE.TVTFDB 02 EQ           13049  1 00009300 =           FLAG  (TVTFDBEL,2,EQ)     Debug ECBLIST
                                   13059  1 00013000 =TVTECBCNT   EQU  7                   MAX ECBLIST ENTRIES
                                   13060  1 00014000 =
 000401 000000                            1
 000404 00000000                   13061  1 00015000 =TVTPATHECB   DC  F'0'                PATH ECB
 000408 00000000                   13062  1 00016000 =TVTTIMRECB   DC  F'0'                TIMER ECB
 00040C 00000000                   13063  1 00017000 =TVTSTOPECB   DC  F'0'                MONITOR STOP REQUEST ECB
                                   13064  1 00018000 =
1DBMAIN   Wings: Disk I/O support: Task vector table                                                                        Page   21
0Loc    Object Code    Addr1 Addr2  Stmt Lv Lineno    Source Statement           (Hibal 5, Asmedit 3.3)  HLASM R4.0  2002/06/06 10.05
+___    ______ ____    _____ _____  ____ __ ______    ______ _________
0000410 00000000                   13065  1 00019000 =TVTPATHPTR   DC  A(0)                PATH ECB POINTER
 000414 00000000                   13066  1 00020000 =TVTTIMRPTR   DC  A(0)                TIMER ECB POINTER
 000418 00000000                   13067  1 00022000 =TVTDBUGPTR   DC  A(0)                DEBUG ECB POINTER
 00041C 00000000                   13068  1 00023000 =TVTSTOPPTR   DC  A(0)                MONITOR STOP ECB POINTER
                                   13069  1 00024000 =
 000420                            13070  1 00024010 =           DS    0F
 000420                            13071  1 00024100 =TVTDECBL   DS    XL(4*(TVTECBCNT+1)) ECB LIST
 000440                            13072  1 00024200 =TVTDEVNTL   DS   XL(4*(TVTECBCNT+1)) EVENT LIST
0                                  13074= 1 00027000 =           ¿þþþþþþþþþþþþþþþþþþþþþþþþþþþþþÜ
                                   13075= 1 00028000 =           Ÿ  DEFINE DEBUG MODULE STUFF  Ÿ
                                   13076= 1 00029000 =           ¾þþþþþþþþþþþþþþþþþþþþþþþþþþþþþ»
 000460                            13077  1 00030000 =TVDBCLOC   DS    F                   DEBUG COMMAND LOC
 000464                            13078  1 00031000 =TVDBCLEN   DS    F                   DEBUG COMMAND LEN
 000468                            13079  1 00032000 =TVDBSEGP   DS    F                   POINTER TO SEGCB FOR DB CMDS
                                   13080  1 00033000 =           SCANCB PFX=TVDBSCN
 00046C                            13081  1 01-SCANC +TVDBSCNCB   DS   0F
 00046C                            13082  1 01-SCANC +TVDBSCNVAL   DS  A                       Value returned
 000470                            13083  1 01-SCANC +TVDBSCNKW   DS   CL8                     Current key word
 000478                            13084  1 01-SCANC +TVDBSCNLEN   DS  A                       Length left to scan
 00047C                            13085  1 01-SCANC +TVDBSCNLOC   DS  A                       Next thing to scan
 000480                            13086  1 01-SCANC +TVDBSCNRA   DS   A                       Return address
 000484                            13087  1 01-SCANC +TVDBSCNPRT   DS  A                       Routing table address
 000488                            13088  1 01-SCANC +TVDBSCNCLT   DS  A                       Scan type
                                   13089  1          +*                                          0 = Normal scan
                                   13090  1          +*                                          4 = Expression isolation
                                   13091  1          +*                                          8 = Expression scan
                                   13092  1 01-SCANC +TVDBSCNCBL   EQU *-TVDBSCNCB
 00048C 00                         13093  1 00034000 =TVDBFLAG   FLAG  ,
 TVDBFLAG.TVDBFBRK 80 ONES         13097  1 00035000 =           FLAG  TVDBFBRK            AT DEBUGGEE PROGRAM BREAK
                                   13102= 1 00038000 =           ¿þþþþþþþþþþþþþþþþþþþþþþþþþÜ
                                   13103= 1 00039000 =           Ÿ  Conversion work areas  Ÿ
                                   13104= 1 00040000 =           ¾þþþþþþþþþþþþþþþþþþþþþþþþþ»
 00048D 000000                            1
 000490 0000000000000000           13105  1 00041000 =TVTSTCK    DC    D'0'                Save area to STCK
                                   13106= 1 00049000 =           ¿þþþþþþþþþþþþþþþþþþþþþþþþþþþþþþþþþþþþþþþþÜ
                                   13107= 1 00050000 =           Ÿ  DEFINE ANCHOR FOR PATH CONTROL BLOCK  Ÿ
                                   13108= 1 00051000 =           ¾þþþþþþþþþþþþþþþþþþþþþþþþþþþþþþþþþþþþþþþþ»
 000498 00000000                   13109  1 00052000 =TVTUPATH   DC    A(0)                Address of patch control block
 00049C 00000000                   13110  1 00053000 =TVTPATBF   DC    A(0)                Address of path buffer
 0004A0 00000000                   13111  1 00054000 =TVTPATB2   DC    A(0)                Address of moved path buffer
 0004A4 00000000                   13112  1 00055000 =TVTACEE    DC    A(0)                Address of WINGACEE control block
 0004A8 E6C9D5C7E2C3D5E3           13113  1 00056000 =TVTPATHN   DC    CL8'WINGSCNT'       Path name
 0004B0 C3D6D4D4C1D5C440           13114  1 00057000 =TVTPATCM   DC    CL16'COMMAND'       Current command
 0004C0 C3D6D4D4C1D5C440           13115  1 00058000 =TVTPATNX   DC    CL16'COMMAND'       Expected next command
00004D0 00                         13117  1 00060000 =TVTPATFL   FLAG  ,                   Define path processing flags
 TVTPATFL.TPATOPEN 80 ONES         13121  1 00061000 =           FLAG  TPATOPEN             - Path open to client
 TVTPATFL.TPATCMND 40 ONES         13126  1 00062000 =           FLAG  TPATCMND             - Command is in progress
 TVTPATFL.TPATERR  20 ONES         13131  1 00063000 =           FLAG  TPATERR              - Cleanup client path
 TVTPATFL.TERRMSG  10 ONES         13136  1 00064000 =           FLAG  TERRMSG              - Error message exists in ERRSCB
00004D1 00                         13142  1 00066000 =TVTGENF    FLAG  ,                   Define general processing flags
 TVTGENF.TERRMULT  80 ONES         13146  1 00067000 =           FLAG  TERRMULT             - Special ERRSCB processing
00004D2 0000                       13152  1 00069000 =           DC    AL2(0)              Reserved
1DBMAIN   Wings: Disk I/O support: Task vector table                                                                        Page   22
0Loc    Object Code    Addr1 Addr2  Stmt Lv Lineno    Source Statement           (Hibal 5, Asmedit 3.3)  HLASM R4.0  2002/06/06 10.05
+___    ______ ____    _____ _____  ____ __ ______    ______ _________
0                                  13153= 1 00070000 =           ¿þþþþþþþþþþþþþþþþþþþþþþþþþþþþþþþþÜ
                                   13154= 1 00071000 =           Ÿ  DEFINE MACRO PARAMETER LISTS  Ÿ
                                   13155= 1 00072000 =           ¾þþþþþþþþþþþþþþþþþþþþþþþþþþþþþþþþ»
                                   13156  1 00073000 =TVTOPEN    OPEN  (*-*,INPUT),MF=L
 0004D4                            13157  1 01-OPEN  +TVTOPEN    DC    0F'0'                             ALIGN LIST TO FULLWORD
 0004D4 80                         13158  1 01-OPEN  +           DC    AL1(128)                     OPTION BYTE
 0004D5 000000                     13159  1 01-OPEN  +           DC    AL3(*-*)                     DCB ADDRESS
                                   13160  1 00074000 =TVTCLOSE   CLOSE (*-*),MF=L
 0004D8                            13161  1 01-CLOSE +TVTCLOSE   DC    0F'0'             ALIGN LIST TO FULLWORD
 0004D8 80                         13162  1 01-CLOSE +           DC    AL1(128)                          OPTION BYTE
 0004D9 000000                     13163  1 01-CLOSE +           DC    AL3(*-*)                          DCB ADDRESS
                                   13164  1 00075000 =MODSETZ    MODESET KEY=ZERO,MF=L     Enter key zero
                                   13165  1          +* MACDATE Y-3 81030                                                @D1A
 0004DC                            13166  1 01-MODES +MODSETZ    DS    0F
 0004DC 00000030                   13167  1 01-MODES +           DC    B'00000000000000000000000000110000'
                                   13168  1 00076000 =MODSETP    MODESET KEY=NZERO,MF=L    Enter problem key
                                   13169  1          +* MACDATE Y-3 81030                                                @D1A
 0004E0                            13170  1 01-MODES +MODSETP    DS    0F
 0004E0 00000020                   13171  1 01-MODES +           DC    B'00000000000000000000000000100000'
-                                  13173= 1 00078000 =           ¿þþþþþþþþþþþþþþþþþþþþþþþþþþþþþþþþþþþþþþþþþþþþþþþþÜ
                                   13174= 1 00079000 =           Ÿ  Define general TVT scanner control block and  Ÿ
                                   13175= 1 00080000 =           Ÿ  secondary scanner control block               Ÿ
                                   13176= 1 00081000 =           ¾þþþþþþþþþþþþþþþþþþþþþþþþþþþþþþþþþþþþþþþþþþþþþþþþ»
 0004E4                            13178  1 00083000 =           SCANCB PFX=TVTSCN         Primary scanner control block
0                                  13192= 1 00085000 =           ¿þþþþþþþþþþþþþþþþþþþþþþþþþþþþþþþþþþþþþþþþþþÜ
                                   13193= 1 00086000 =           Ÿ  Define path support seg buffer control  Ÿ
                                   13194= 1 00087000 =           ¾þþþþþþþþþþþþþþþþþþþþþþþþþþþþþþþþþþþþþþþþþþ»
 000504 C4C5C2D5D5D5D5D5           13195  1 00088000 =TVTLOGDD   DC    CL8'DEBNNNNN'       Log ddname for DEBUGGER
 00050C 00/00/0000                 13196  1 00089000 =TVTSCB     SEGCB ,                   Define segment control buffer
 TVTSCBCOD.TVTSCBS 01 EQ
 TVTSCBCOD.TVTSCBW 02 EQ
 TVTSCBCOD.TVTSCBC 03 EQ
 TVTSCBCOD.TVTSCBS 04 EQ
 TVTSCBCOD.TVTSCBO 05 EQ
 TVTSCBCOD.TVTSCBC 06 EQ
 TVTSCBCOD.TVTSCBM 07 EQ
 000510 00000000                   13273  1          +
 000514 00000000                   13274  1          +
 000518 00000000                   13275  1          +
 00051C 00000000                   13276  1          +
 000520 00000000                   13277  1          +
 000524 0000000000000000           13278  1          +
 00052C 00000000                   13279  1          +
 000530 00000000                   13280  1          +
 000534 0000000000000000           13281  1          +
 000544 00000000                   13282  1          +
 000548 00/00/0000                 13284  1 00090000 =OSFSCB     SEGCB ,                   Define segment control buffer
 OSFSCBCOD.OSFSCBS 01 EQ
 OSFSCBCOD.OSFSCBW 02 EQ
 OSFSCBCOD.OSFSCBC 03 EQ
 OSFSCBCOD.OSFSCBS 04 EQ
 OSFSCBCOD.OSFSCBO 05 EQ
 OSFSCBCOD.OSFSCBC 06 EQ
1DBMAIN   Wings: Disk I/O support: Task vector table                                                                        Page   23
0Loc    Object Code    Addr1 Addr2  Stmt Lv Lineno    Source Statement           (Hibal 5, Asmedit 3.3)  HLASM R4.0  2002/06/06 10.05
+___    ______ ____    _____ _____  ____ __ ______    ______ _________
0OSFSCBCOD.OSFSCBM 07 EQ
 00054C 00000000                   13361  1          +
 000550 00000000                   13362  1          +
 000554 00000000                   13363  1          +
 000558 00000000                   13364  1          +
 00055C 00000000                   13365  1          +
 000560 0000000000000000           13366  1          +
 000568 00000000                   13367  1          +
 00056C 00000000                   13368  1          +
 000570 0000000000000000           13369  1          +
 000580 00000000                   13370  1          +
                                   13372  1 00091000 =OSFSCBBL   EQU   1024,,C'N'          Define segment buffer length
 000584 00/00/0000                 13373  1 00092000 =ERRSCB     SEGCB ,                   Define segment control for errors
 ERRSCBCOD.ERRSCBS 01 EQ
 ERRSCBCOD.ERRSCBW 02 EQ
 ERRSCBCOD.ERRSCBC 03 EQ
 ERRSCBCOD.ERRSCBS 04 EQ
 ERRSCBCOD.ERRSCBO 05 EQ
 ERRSCBCOD.ERRSCBC 06 EQ
 ERRSCBCOD.ERRSCBM 07 EQ
 000588 00000000                   13450  1          +
 00058C 00000000                   13451  1          +
 000590 00000000                   13452  1          +
 000594 00000000                   13453  1          +
 000598 00000000                   13454  1          +
 00059C 0000000000000000           13455  1          +
 0005A4 00000000                   13456  1          +
 0005A8 00000000                   13457  1          +
 0005AC 0000000000000000           13458  1          +
 0005BC 00000000                   13459  1          +
 0005C0 00000000                   13461  1 00093000 =ERRBUFR    DC    A(0)                Address of error buffer
                                   13462  1 00094000 =ERRBUFL    EQU   1024,,C'N'          Define length of error buffer
0                                  13465= 1 00097000 =           ¿þþþþþþþþþþþþþþþþþþþþþþþþþþþþþþþþþþþþþþþþþþþþþþþþþþþþÜ
                                   13466= 1 00098000 =           Ÿ  General command abort save for stack pointer and  Ÿ
                                   13467= 1 00099000 =           Ÿ    command exit address.                           Ÿ
                                   13468= 1 00100000 =           ¾þþþþþþþþþþþþþþþþþþþþþþþþþþþþþþþþþþþþþþþþþþþþþþþþþþþþ»
 0005C4 00000000                   13469  1 00101000 =TVTCMDAS   DC    A(0)                Stack frame ptr for abort return
                                   13470= 1 00102000 =           ¿þþþþþþþþþþþþþþþþþþþþþþþþþþÜ
                                   13471= 1 00103000 =           Ÿ  Open file information.  Ÿ
                                   13472= 1 00104000 =           Ÿ                          Ÿ
                                   13473= 1 00105000 =           Ÿ                          Ÿ
                                   13474= 1 00106000 =           Ÿ  Abend control           Ÿ
                                   13475= 1 00107000 =           ¾þþþþþþþþþþþþþþþþþþþþþþþþþþ»
 0005C8 00000000                   13476  1 00108000 =TVTABEND   DC    A(0)                Abend system and user code
 0005CC 00000000                   13477  1 00109000 =TVTABREA   DC    A(0)                Abend reason code
0                                  13479  1 00111000 =OSFDCBPR   DCB   DDNAME=DUMMY,MACRF=(PM,GM),DSORG=PS,RECFM=VBS
0                                  13482  1          +*                       DATA CONTROL BLOCK
                                   13483  1          +*
 0005D0                            13484  1 01-DCB   +OSFDCBPR   DC    0F'0'          ORIGIN ON WORD BOUNDARY
                                   13485  1          +*                       DIRECT ACCESS DEVICE INTERFACE
 0005D0 0000000000000000           13486  1 01-DCB   +           DC    BL16'0'        FDAD, DVTBL
 0005E0 00000000                   13487  1 01-DCB   +           DC    A(0)           KEYLEN, DEVT, TRBAL
                                   13488  1          +*                       COMMON ACCESS METHOD INTERFACE
1DBMAIN   Wings: Disk I/O support: Task vector table                                                                        Page   24
0Loc    Object Code    Addr1 Addr2  Stmt Lv Lineno    Source Statement           (Hibal 5, Asmedit 3.3)  HLASM R4.0  2002/06/06 10.05
+___    ______ ____    _____ _____  ____ __ ______    ______ _________
00005E4 00                         13489  1 01-DCB   +           DC    AL1(0)         BUFNO, NUMBER OF BUFFERS
 0005E5 000001                     13490  1 01-DCB   +           DC    AL3(1)         BUFCB, BUFFER POOL CONTROL BLOCK
 0005E8 0000                       13491  1 01-DCB   +           DC    AL2(0)         BUFL, BUFFER LENGTH
 0005EA 4000                       13492  1 01-DCB   +           DC    BL2'0100000000000000' DSORG, DATA SET ORGANIZATION
 0005EC 00000001                   13493  1 01-DCB   +           DC    A(1)           IOBAD FOR EXCP OR RESERVED
                                   13494  1          +*                       FOUNDATION EXTENSION
 0005F0 00                         13495  1 01-DCB   +           DC    BL1'00000000'  BFTEK, BFALN, DCBE INDICATORS
 0005F1 000001                     13496  1 01-DCB   +           DC    AL3(1)         EODAD (END OF DATA ROUTINE ADDRESS)
 0005F4 58                         13497  1 01-DCB   +           DC    BL1'01011000'  RECFM (RECORD FORMAT)
 0005F5 000000                     13498  1 01-DCB   +           DC    AL3(0)         EXLST (EXIT LIST ADDRESS)
                                   13499  1          +*                       FOUNDATION BLOCK
 0005F8 C4E4D4D4E8404040           13500  1 01-DCB   +           DC    CL8'DUMMY'     DDNAME
 000600 02                         13501  1 01-DCB   +           DC    BL1'00000010'  OFLGS (OPEN FLAGS)
 000601 00                         13502  1 01-DCB   +           DC    BL1'00000000'  IFLGS (IOS FLAGS)
 000602 5050                       13503  1 01-DCB   +           DC    BL2'0101000001010000' MACR (MACRO FORMAT)
                                   13504  1          +*                       BSAM-BPAM-QSAM INTERFACE
 000604 00                         13505  1 01-DCB   +           DC    BL1'00000000'  OPTCD, OPTION CODES
 000605 000001                     13506  1 01-DCB   +           DC    AL3(1)         CHECK OR INTERNAL QSAM SYNCHRONIZING RTN.
 000608 00000001                   13507  1 01-DCB   +           DC    A(1)           SYNAD, SYNCHRONOUS ERROR RTN. (3 BYTES)
 00060C 0000                       13508  1 01-DCB   +           DC    H'0'           INTERNAL ACCESS METHOD FLAGS
 00060E 0000                       13509  1 01-DCB   +           DC    AL2(0)         BLKSIZE, BLOCK SIZE
 000610 00000000                   13510  1 01-DCB   +           DC    F'0'           INTERNAL ACCESS METHOD FLAGS
 000614 00000001                   13511  1 01-DCB   +           DC    A(1)           INTERNAL ACCESS METHOD USE
                                   13512  1          +*                            QSAM INTERFACE
 000618 00000001                   13513  1 01-DCB   +           DC    A(1)           EOBAD
 00061C 00000001                   13514  1 01-DCB   +           DC    A(1)           RECAD
 000620 0000                       13515  1 01-DCB   +           DC    H'0'           QSWS (FLAGS) AND EITHER DIRCT OR BUFOFF
 000622 0000                       13516  1 01-DCB   +           DC    AL2(0)         LRECL
 000624 00                         13517  1 01-DCB   +           DC    BL1'00000000'  EROPT, ERROR OPTION
 000625 000001                     13518  1 01-DCB   +           DC    AL3(1)         CNTRL
 000628 00000000                   13519  1 01-DCB   +           DC    H'0,0'         RESERVED AND PRECL
 00062C 00000001                   13520  1 01-DCB   +           DC    A(1)           EOB, INTERNAL ACCESS METHOD FIELD
-                                  13522  1 00113000 =OSFBSAM    DCB   DDNAME=DUMMY,MACRF=(RP,WP),DSORG=PS
0                                  13525  1          +*                       DATA CONTROL BLOCK
                                   13526  1          +*
 000630                            13527  1 01-DCB   +OSFBSAM    DC    0F'0'          ORIGIN ON WORD BOUNDARY
                                   13528  1          +*                       DIRECT ACCESS DEVICE INTERFACE
 000630 0000000000000000           13529  1 01-DCB   +           DC    BL16'0'        FDAD, DVTBL
 000640 00000000                   13530  1 01-DCB   +           DC    A(0)           KEYLEN, DEVT, TRBAL
                                   13531  1          +*                       COMMON ACCESS METHOD INTERFACE
 000644 00                         13532  1 01-DCB   +           DC    AL1(0)         BUFNO, NUMBER OF BUFFERS
 000645 000001                     13533  1 01-DCB   +           DC    AL3(1)         BUFCB, BUFFER POOL CONTROL BLOCK
 000648 0000                       13534  1 01-DCB   +           DC    AL2(0)         BUFL, BUFFER LENGTH
 00064A 4000                       13535  1 01-DCB   +           DC    BL2'0100000000000000' DSORG, DATA SET ORGANIZATION
 00064C 00000001                   13536  1 01-DCB   +           DC    A(1)           IOBAD FOR EXCP OR RESERVED
                                   13537  1          +*                       FOUNDATION EXTENSION
 000650 00                         13538  1 01-DCB   +           DC    BL1'00000000'  BFTEK, BFALN, DCBE INDICATORS
 000651 000001                     13539  1 01-DCB   +           DC    AL3(1)         EODAD (END OF DATA ROUTINE ADDRESS)
 000654 00                         13540  1 01-DCB   +           DC    BL1'00000000'  RECFM (RECORD FORMAT)
 000655 000000                     13541  1 01-DCB   +           DC    AL3(0)         EXLST (EXIT LIST ADDRESS)
                                   13542  1          +*                       FOUNDATION BLOCK
 000658 C4E4D4D4E8404040           13543  1 01-DCB   +           DC    CL8'DUMMY'     DDNAME
 000660 02                         13544  1 01-DCB   +           DC    BL1'00000010'  OFLGS (OPEN FLAGS)
1DBMAIN   Wings: Disk I/O support: Task vector table                                                                        Page   25
0Loc    Object Code    Addr1 Addr2  Stmt Lv Lineno    Source Statement           (Hibal 5, Asmedit 3.3)  HLASM R4.0  2002/06/06 10.05
+___    ______ ____    _____ _____  ____ __ ______    ______ _________
0000661 00                         13545  1 01-DCB   +           DC    BL1'00000000'  IFLGS (IOS FLAGS)
 000662 2424                       13546  1 01-DCB   +           DC    BL2'0010010000100100' MACR (MACRO FORMAT)
                                   13547  1          +*                       BSAM-BPAM-QSAM INTERFACE
 000664 00                         13548  1 01-DCB   +           DC    BL1'00000000'  OPTCD, OPTION CODES
 000665 000001                     13549  1 01-DCB   +           DC    AL3(1)         CHECK OR INTERNAL QSAM SYNCHRONIZING RTN.
 000668 00000001                   13550  1 01-DCB   +           DC    A(1)           SYNAD, SYNCHRONOUS ERROR RTN. (3 BYTES)
 00066C 0000                       13551  1 01-DCB   +           DC    H'0'           INTERNAL ACCESS METHOD FLAGS
 00066E 0000                       13552  1 01-DCB   +           DC    AL2(0)         BLKSIZE, BLOCK SIZE
 000670 00000000                   13553  1 01-DCB   +           DC    F'0'           INTERNAL ACCESS METHOD FLAGS
 000674 00000001                   13554  1 01-DCB   +           DC    A(1)           INTERNAL ACCESS METHOD USE
                                   13555  1          +*                         BSAM-BPAM INTERFACE
 000678 00                         13556  1 01-DCB   +           DC    AL1(0)         NCP, MAX NUM OF OUTSTANDING READ/WRITES
 000679 000001                     13557  1 01-DCB   +           DC    AL3(1)         EOBR, INTERNAL ACCESS METHOD USE
 00067C 00000001                   13558  1 01-DCB   +           DC    A(1)           EOBW, INTERNAL ACCESS METHOD USE
 000680 0000                       13559  1 01-DCB   +           DC    AL1(0,0)       FLAGS AND EITHER DIRCT OR BUFOFF
 000682 0000                       13560  1 01-DCB   +           DC    AL2(0)         LRECL
 000684 00000001                   13561  1 01-DCB   +           DC    A(1)           CNTRL, NOTE, POINT
0000688                00688 00688 13563  1 00114000 =           ORG   ,                   ORIGIN BACK OUT
-                                  13565  1 00116000 =           READ  OSFDECB,SF,,,'S',,MF=L
 000688 00000000                   13567  1 02-IHBRD +OSFDECB    DC    F'0'                              EVENT CONTROL BLOCK
 00068C 80                         13568  1 02-IHBRD +           DC    X'80'                             TYPE FIELD
 00068D 80                         13569  1 02-IHBRD +           DC    X'80'                             TYPE FIELD
 00068E 0000                       13570  1 02-IHBRD +           DC    AL2(0)                            LENGTH
 000690 00000000                   13571  1 02-IHBRD +           DC    A(0)                              DCB ADDRESS
 000694 00000000                   13572  1 02-IHBRD +           DC    A(0)                              AREA ADDRESS
 000698 00000000                   13573  1 02-IHBRD +           DC    A(0)                              RECORD POINTER WORD
-00069C 00000000                          1
 0006A0                            13575  1 00118000 =           DC    0D'0'               Maintain double word boundary
 0006A0                            13576  1 00119000 =           DC    0D'0'               MAINTAIN DOUBLE WORD BOUNDARY
                                   13577= 1 00120000 =           ¿þþþþþþþþþþþþþþþþþþþþþþþþþþþþþþþþþþþþþþþþþþþþþþþþþþþþÜ
                                   13578= 1 00121000 =           Ÿ  GENERAL WORK AREA.  USED BY RACROUTE AND CATALOG  Ÿ
                                   13579= 1 00122000 =           Ÿ  SUPERVISOR ROUTINES.                              Ÿ
                                   13580= 1 00123000 =           ¾þþþþþþþþþþþþþþþþþþþþþþþþþþþþþþþþþþþþþþþþþþþþþþþþþþþþ»
-                                  13582  1 00125000 =TVTSIZE    EQU   *-TVTSTART          GENERATE TVT LENGTH
 0006A0                006A0 006A0 13583    00112000           END
1DBMAIN   Local Macros                                                                                                      Page   26
0Loc    Object Code    Addr1 Addr2  Stmt Lv Lineno    Source Statement           (Hibal 5, Asmedit 3.3)  HLASM R4.0  2002/06/06 10.05
+___    ______ ____    _____ _____  ____ __ ______    ______ _________
0                                  13593    00114000  *
                                   13594    00115000  *  2 macros to push and pop SCANNER state as expected
                                   13595    00116000  *  by monitors version of the scanner.  We must push
                                   13596    00117000  *  the return address and the scancb pointer (r15).
                                   13597    00118000  *  we do not normally push the loc,len... as we want
                                   13598    00119000  *  that part to continue to increment as stuff is
                                   13599    00120000  *  scanned off.  essentially we just want to be able
                                   13600    00121000  *  to continue a scan in a scan routine.  so ...
                                   13601    00122000  *
                                   13602    00123000  *  NOTE: ARGS TO SCPUSH, SCPOP ARE IGNORED.
                                   13603    00124000  *
                                   13604    00125000  *  NOTE, CAUTION !! AHHHGG !!::
                                   13605    00126000  *  IT IS TRUE THOUGH I CAN NOT BELIEVE IT !!
                                   13606    00127000  *  R15 MUST BE SET TO SCANCB POINTER FOR A ROUTINE
                                   13607    00128000  *  TO RETURN TO THE SCANNER! YUCK.  IT IS PUSHED
                                   13608    00129000  *  AND POPPED BY SCPUSH,SCPOP !!
                                   13609    00130000  *
                                   13610    00131000  *  ** FREE REGISTER R15 **
                                   13611    00132000  *
                                   13612    00133000  *  OPPRESSIVE USAGE BY ORVYL SCANNER IS TERRIBLE.
                                   13613    00134000  *
                                   13614    00135000  *
                                   13615    00136000           MACRO
                                   13616    00137000  &L       SCPUSH &M,&N
                                   13617    00138000  &L       ST    R15,@R13
                                   13618    00139000           MVC   @R13+4(4),TVDBSCNRA
                                   13619    00140000           LA    R13,8(R13)
                                   13620    00141000           MEND
                                   13621    00142000  *
                                   13622    00143000  *
                                   13623    00144000           MACRO
                                   13624    00145000  &L       SCPOP &M,&N
                                   13625    00146000           S     R13,=A(8)
                                   13626    00147000           L     R15,@R13
                                   13627    00148000           MVC   TVDBSCNRA,@R13+4
                                   13628    00149000           MEND
                                   13629    00150000
                                   13630    00151000           MACRO
                                   13631    00152000  &L       GETIA &REG,&PSW
                                   13632    00153000  &L       L     &REG,&PSW+4
                                   13633    00154000           LA    &REG,0(&REG)
                                   13634    00155000           MEND
                                   13635    00156000  *
                                   13636    00157000  *  BOMB MACRO - PROGRAM CHECK CURRENT PROGRAM
                                   13637    00158000  *
                                   13638    00159000           MACRO
                                   13639    00160000  &L       BOMB  &D1,&D2
                                   13640    00161000  &L       DC    H'0'
                                   13641    00162000           MEND
1DBMAIN   Wings: Disk I/O support: Initialization                                                                           Page   27
0Loc    Object Code    Addr1 Addr2  Stmt Lv Lineno    Source Statement           (Hibal 5, Asmedit 3.3)  HLASM R4.0  2002/06/06 10.05
+___    ______ ____    _____ _____  ____ __ ______    ______ _________
0                                  13643    00164000  ¿þþþþþþþþþþþþþþþþþþþþþþþþþþþþþþþþþþþþþþþþþþþþþþþþþþþþþþþþþþþþþþþþþþþþþÜ
                                   13644    00165000  Ÿ                                                                     Ÿ
                                   13645    00166000  Ÿ        Main entry point - initialization                            Ÿ
                                   13646    00167000  Ÿ                                                                     Ÿ
                                   13647    00168000  Ÿ                                                                     Ÿ
                                   13648    00169000  Ÿ   debug program.  this program has two mutually exclusive           Ÿ
                                   13649    00170000  Ÿ   modes (as of 1/1/92, this work in progess).  the program          Ÿ
                                   13650    00171000  Ÿ   can be running in monitor or debug mode.  monitor mode is         Ÿ
                                   13651    00172000  Ÿ   the default.  there can be multiple monitor mode programs         Ÿ
                                   13652    00173000  Ÿ   running at once.  there can only be one debug mode program        Ÿ
                                   13653    00174000  Ÿ   at one time.  (also there can only be one debuggee program        Ÿ
                                   13654    00175000  Ÿ   (subtask) at one time.)  anyway the command processing and        Ÿ
                                   13655    00176000  Ÿ   event (ECB) table handling is slightly different in each          Ÿ
                                   13656    00177000  Ÿ   mode.  thus you will note there area 2 event tables used;         Ÿ
                                   13657    00178000  Ÿ   one for each mode.  and there are 2 sckw cmd lists; one for       Ÿ
                                   13658    00179000  Ÿ   each mode.                                                        Ÿ
                                   13659    00180000  Ÿ                                                                     Ÿ
                                   13660    00181000  Ÿ   to invoke debugger:                                               Ÿ
                                   13661    00182000  Ÿ   a) make sure debugger is in parm file for wings initiation.       Ÿ
                                   13662    00183000  Ÿ   b) xcall #wcmd use sch (1/1/92) this is sure to change            Ÿ
                                   13663    00184000  Ÿ   c) type 'help' to see commands available.                         Ÿ
                                   13664    00185000  Ÿ                                                                     Ÿ
                                   13665    00186000  Ÿ   Note for multiple 'debug' or 'monitor' terminal sessions.         Ÿ
                                   13666    00187000  Ÿ   Multiple debug subtasks must be running.                          Ÿ
                                   13667    00188000  Ÿ                                                                     Ÿ
                                   13668    00189000  Ÿ   More comments later. for now much is still being sorted           Ÿ
                                   13669    00190000  Ÿ   out. work in progress. CAUTION!  (ie read code, not comments)     Ÿ
                                   13670    00191000  Ÿ                                                                     Ÿ
                                   13671    00192000  Ÿ                                                                     Ÿ
                                                      ¾þþþþþþþþþþþþþþþþþþþþþþþþþþþþþþþþþþþþþþþþþþþþþþþþþþþþþþþþþþþþþþþþþþþþþ»
0000000                00000 03E18 13673    00194000  DBMAIN   CSECT ,                   Define control section start
 USING  GVT,R12                    13675    00195000           USING GVT                 Global vector table ptr
 USING  TVT,R11                    13684    00196000           USING TVT                 Task vector table
0                                  13694    00198000           ENTRY STARTUP             Define module entry point
 000000                            13695    00199000  STARTUP  LABEL ,                   Module entry point
 000000 90EC D00C            0000C 13697    00200000           STM   R14,R12,@R13+12     Save calling registers
 000004 18AF                       13698    00201000           LR    BR,R15                Move program base register
 USING  STARTUP,R10                13699    00202000           USING STARTUP,BR              Set addressabiltity
 000006 1861                       13708    00203000           LR    R6,R1                     Save VS parameter pointer
 000008 183D                       13709    00204000           LR    R3,R13                      Save VS save area address
000000A 5890 A488            00488 13711    00206000           L     BRR,=A(OSFCOMMN)    Address of common routines
 USING  OSFCOMMN,R9                13712    00207000           USING OSFCOMMN,BRR        Declare addressability
0                                  13722    00209000           ¿þþþþþþþþþþþþþþþþþþþþþþþþþþþþþþþþþþþþþþþþþþþþþþþþþþþÜ
                                   13723    00210000           Ÿ  Save VS save area address and allocate internal  Ÿ
                                   13724    00211000           Ÿ  save stack mechanism.                            Ÿ
                                   13725    00212000           ¾þþþþþþþþþþþþþþþþþþþþþþþþþþþþþþþþþþþþþþþþþþþþþþþþþþþ»
                                   13726    00213000C          GETMAIN RC,LV=32*1024,    Get a 32K stack
 00000E 0700/47F0 A01C       0001C          00214000                 BNDRY=PAGE,LOC=(BELOW,ANY)
 000014 00008000/00/00             13730             +
 00001A 00/54                      13733             +
 00001C 5800 A014            00014 13736             +
 000020 58F0 A018/1B11       00018 13737             +
1DBMAIN   Wings: Disk I/O support: Initialization                                                                           Page   28
0Current Usings:  (OSFCOMMN,R9) (STARTUP,R10) (TVT,R11) (GVT,R12)
0Loc    Object Code    Addr1 Addr2  Stmt Lv Lineno    Source Statement           (Hibal 5, Asmedit 3.3)  HLASM R4.0  2002/06/06 10.05
+___    ______ ____    _____ _____  ____ __ ______    ______ _________
0000026 0A78                       13739             +
 000028 12FF/4780 A036       00036 13740    00215000           IF    (R15,NZ),BEGIN      Insufficient memory for stack
 00002E 41F0 000C            0000C 13754  1 00216000             LA    R15,12              Load return code
 000032 47F0 90DE            0060E 13755  1 00217000             B     OSFXIT2             Abort processing
 000036                            13756    00218000           END   ,
 000036 18D1                       13760    00219000           LR    SPR,R1              Set stack
 000038 1881                       13761    00220000           LR    WAR,R1              Ditto
0                                  13763    00222000           ¿þþþþþþþþþþþþþþþþþþþþþþþþþþþþþþþþþþÜ
                                   13764    00223000           Ÿ  Test for batch mode invocation  Ÿ
                                   13765    00224000           ¾þþþþþþþþþþþþþþþþþþþþþþþþþþþþþþþþþþ»
 00003A 9180 6000      00000       13766    00225000           TM    @R6,X'80'           Test for batch mode
 00003E 47E0 A0F8            000F8 13767    00226000           IF    ONES,BEGIN          Invoked in batch test mode
 000042 1BCC                       13778  1 00227000             CLEAR GVTR                Indicate no GVT yet
 000044 1BBB                       13782  1 00228000             CLEAR TVTR                Indicate no TVT yet
                                   13786  1 00229000C            GETMAIN RC,LV=L'GVT,      Request memory for GVT
 000046 0700/47F0 A054       00054        1 00230000                   BNDRY=PAGE,LOC=(BELOW,ANY)
 00004C 0000063C/00/00             13790  1          +
 000052 00/54                      13793  1          +
 000054 5800 A04C            0004C 13796  1          +
 000058 58F0 A050/1B11       00050 13797  1          +
 00005E 0A78                       13799  1          +
 000060 12FF/4780 A06E       0006E 13800  1 00231000             IF    (R15,NZ),BEGIN      Insufficient memory
 000066 41F0 000C            0000C 13814  2 00232000               LA    R15,12              Load return code
 00006A 47F0 90DE            0060E 13815  2 00233000               B     OSFXIT2             Abort processing
 00006E                            13816  1 00234000             END   ,
000006E 18C1                       13821  1 00236000             LR    GVTR,R1             Move address of GVT
 000070 1801                       13822  1 00237000             LR    R0,R1               Clear GVT to zero values
 000072 4110 063C            0063C 13823  1 00238000             LA    R1,L'GVT              Set length to clear
 000076 1BFF                       13824  1 00239000             CLEAR R15                     Zero from length
 000078 0E0E                       13828  1 00240000             MVCL  R0,R14                    Clear GVT to zeros
000007A 9240 C0E0      000E0       13830  1 00242000             MVI   GVTBLANK,C' '       Set blank constant value
 00007E D2FE C0E1 C0E0 000E1 000E0 13831  1 00243000             MVC   GVTBLANK+1(L'GVTBLANK-1),GVTBLANK
 000084 D203 C014 A48C 00014 0048C 13832  1 00244000             MVC   GVTTRACE,=V(PTRACE) Set PTRACE addr
0                                  13834  1 00246000             ¿þþþþþþþþþþþþþþþþþþþþþþþþþþþþþþÜ
                                   13835  1 00247000             Ÿ  Acquire and initialize TVT  Ÿ
                                   13836  1 00248000             ¾þþþþþþþþþþþþþþþþþþþþþþþþþþþþþþ»
 00008A 5820 A490            00490 13837  1 00249000             L     R2,=A(TVTSIZE)      Set length of TVT
                                   13838  1 00250000C            GETMAIN RC,,LV=(R2),      Request memory for TVT
 00008E 0700/47F0 A098       00098        1 00251000                   BNDRY=PAGE,LOC=(BELOW,ANY)
 000094 00/00/00/54                13842  1          +
 000098 1802/58F0 A094       00094 13847  1          +
 00009E 1B11/0A78                  13849  1          +
 0000A2 12FF/4780 A0B0       000B0 13851  1 00252000             IF    (R15,NZ),BEGIN      Insufficient memory
 0000A8 41F0 000C            0000C 13865  2 00253000               LA    R15,12              Load return code
 0000AC 47F0 90DE            0060E 13866  2 00254000               B     OSFXIT2             Abort processing
 0000B0                            13867  1 00255000             END   ,
 0000B0 18B1                       13871  1 00256000             LR    TVTR,R1             Move address of TVT
 0000B2 180B                       13872  1 00257000             LR    R0,TVTR             Clear TVT to zero values
 0000B4 1812                       13873  1 00258000             LR    R1,R2                 Set length of TVT to clear
 0000B6 1BFF                       13874  1 00259000             CLEAR R15                     Zero from length
1DBMAIN   Wings: Disk I/O support: Initialization                                                                           Page   29
0Current Usings:  (OSFCOMMN,R9) (STARTUP,R10) (TVT,R11) (GVT,R12)
0Loc    Object Code    Addr1 Addr2  Stmt Lv Lineno    Source Statement           (Hibal 5, Asmedit 3.3)  HLASM R4.0  2002/06/06 10.05
+___    ______ ____    _____ _____  ____ __ ______    ______ _________
00000B8 0E0E                       13878  1 00260000             MVCL  R0,R14                    Clear TVT to zero
00000BA 50C0 B090            00090 13880  1 00262000             ST    GVTR,TVTGVTP        Set address of GVT
 0000BE D203 C000 A526 00000 00526 13881  1 00263000             MVC   GVTSTART(4),=C'GVT' Set identification
 0000C4 4100 0004/181D       00004 13882  1 00264000             HASPSERV JOBNAME,@R13     Get our job name
 0000CA 1BFF/0AFE                  13900  1          +
 0000CE D207 C030 D000 00030 00000 13902  1 00265000             MVC   GVTJOBNM,@R13       Move in jobname
 0000D4 9608 B09E      0009E       13903  1 00266000             SET   TVTBATCH            Set test mode
 0000D8 D203 B000 A529 00000 00529 13909  1 00267000             MVC   TVTSTART(4),=C'TVT' Set identification
 0000DE D201 B004 A514 00004 00514 13910  1 00268000             MVC   TVTTLEN,=AL2(TVTSIZE)   set TVT total size
 0000E4 D203 B00C A494 0000C 00494 13911  1 00269000             MVC   TVTNO,=A(1)             SET TVT IDENTIFICATION
 0000EA 5810 0010            00010 13912  1 00270000             L     R1,CVTPTR           SET CVT POINTER FOR TCB RETRIEVE
 0000EE 5810 1000            00000 13913  1 00271000             WITH  (CVT,R1),'L R1,CVTTCBP'  TCB Words
 USING  CVT,R1
 DROP   CVT,R1
 0000F2 D203 B098 1004 00098 00004 13937  1 00272000             MVC   TVTTCBP,@R1+4       Save our TCB ptr
 0000F8                            13938    00273000           END   ,
                                   13942    00274000  *
                                   13943    00275000  *                                  If invoked by monitor
                                   13944    00276000  *                                  TVT is passed as parm
 0000F8 A0FC           000F8 00040 13945    00277000           ELSE  BEGIN
 0000F8 47F0 A10C            0010C 13950             +
 0000FC 58B0 6000            00000 13956  1 00278000             L     TVTR,@R6            Addr of passed TVT
 000100 41BB 0000            00000 13957  1 00279000             LA    TVTR,0(TVTR)        get rid of high order bit if any
 000104 58C0 B090            00090 13958  1 00280000             L     GVTR,TVTGVTP        Addr of GVT
 000108 4160 6004            00004 13959  1 00281000             LA    R6,@R6+4            Bump to parm string pointer
 00010C                            13960    00282000           END
0                                  13965    00284000           ¿þþþþþþþþþþþþþþþþþþþþþþþþþþþþÜ
                                   13966    00285000           Ÿ  Initialize values in TVT  Ÿ
                                   13967    00286000           ¾þþþþþþþþþþþþþþþþþþþþþþþþþþþþ»
 00010C 5030 B0EC            000EC 13968    00287000           ST    R3,TVTSAVE          Save vs save area address
 000110 9200 B09D      0009D       13969    00288000           SET   TVTSTINIT           Subtask initialization in progress
 000114 D203 B1BC A498 001BC 00498 13975    00289000           MVC   TVTRLAST,=A(-1)     Set for recovery stack overflow
 00011A D207 B4A8 C064 004A8 00064 13976    00290000           MVC   TVTPATHN,GVTPATHN   Set path name
 000120                            13977    00291000           IF    (TVTWTIME,Z),'MVC TVTWTIME,=A(100*60)'
 000120 D603 B0E4 B0E4 000E4 000E4 13987             +
 000126 4770 A130            00130 13988             +
 00012A D203 B0E4 A49C 000E4 0049C 13994             +
 000130 9680 B4D4      004D4       13999    00292000           OI    TVTOPEN,X'80'       Mark only one DCB
 000134 9680 B4D8      004D8       14000    00293000           OI    TVTCLOSE,X'80'      Mark only one dcb
 000138 5810 A4A0            004A0 14001    00294000           L     R1,=A(MODSETZM)     Model MODESET for key=zero
 00013C D203 B4DC 1000 004DC 00000 14002    00295000           MVC   MODSETZ(4),@R1        Set into tvt
 000142 5810 A4A4            004A4 14003    00296000           L     R1,=A(MODSETPM)     Model MODESET for key=zero
 000146 D203 B4E0 1000 004E0 00000 14004    00297000           MVC   MODSETP(4),@R1        Set into tvt
 00014C 5810 A4A8            004A8 14005    00298000           L     R1,=A(8192)         Set stack for 8K bytes
 000150 47F0 A158/00         00158 14006    00299000           GETMAIN RC,LV=(0),LOC=(BELOW,ANY)
 000155 00/00/50                   14011             +
 000158 58F0 A154/1B11       00154 14015             +
 00015E 0A78                       14017             +
 000160 5010 B0F4            000F4 14018    00300000           ST    R1,TVTESTAK         Reserve for ESTAE stack processing
 000164 4130 00C8            000C8 14019    00301000           LA    R3,TRCNENT#         Number of trace entries
 000168 5C20 A4AC            004AC 14020    00302000           M     R2,=A(L'TRCENTRY)   Compute total table size
 00016C 47F0 A174/00         00174 14021    00303000           GETMAIN RC,LV=(3)         Get trace table storage
1DBMAIN   Wings: Disk I/O support: Initialization                                                                           Page   30
0Current Usings:  (OSFCOMMN,R9) (STARTUP,R10) (TVT,R11) (GVT,R12)
0Loc    Object Code    Addr1 Addr2  Stmt Lv Lineno    Source Statement           (Hibal 5, Asmedit 3.3)  HLASM R4.0  2002/06/06 10.05
+___    ______ ____    _____ _____  ____ __ ______    ______ _________
0000171 00/00/00/1803              14026             +
 000176 58F0 A170/1B11       00170 14031             +
 00017C 0A78                       14033             +
 00017E 12FF/4780 A18C       0018C 14034    00304000           IF    (R15,NZ),BEGIN      Insufficient memory
 000184 920C B0F3      000F3       14048  1 00305000             MVI   TVTRETCD+3,12       Set return code
 000188 47F0 9000            00530 14049  1 00306000             B     OSFXIT              Abort processing
 00018C                            14050    00307000           END   ,
000018C 5010 B0C8            000C8 14055    00309000           ST    R1,TVTTRBEG         Save pointer
 000190 5010 B0CC            000CC 14056    00310000           ST    R1,TVTTRCUR         Init entry pointer
 000194 4101 3000            00000 14057    00311000           LA    R0,0(R1,R3)         Table end address
 000198 5000 B0D0            000D0 14058    00312000           ST    R0,TVTTREND         Save address
 00019C 1821                       14059    00313000           LR    R2,R1               Copy address for MVCL
 00019E 1BFF                       14060    00314000           CLEAR R15                 Clear from length
 0001A0 0E2E                       14064    00315000           MVCL  R2,R14              Clear trace table
 0001A2 9680 B09E      0009E       14065    00316000           SET   TVTFTRC             Flag tracing active
 0001A6 4110 B40C            0040C 14071    00317000           LA    R1,TVTSTOPECB       ADDRESS OF TASK ACTION ECB
 0001AA 5010 B0B0            000B0 14072    00318000           ST    R1,TVTECBRQ           SAVE FOR MOTHER TASK POST
 0001AE 90DF B0D4            000D4 14073    00319000           PTRACE Startup            Add first entry
 0001B2 58F0 C014/0DEF       00014 14076             +
 0001B8 E2A38199A3A49740           14078             +
 0001C0 98DF B0D4            000D4 14079             +
 0001C4 9180 6000      00000       14080    00320000           TM    @R6,X'80'           Test for exec parameter pointer
 0001C8 47E0 A1CE/1816       001CE 14081    00321000           IF    ONES,'LR R1,R6'     Move pointer to exec parameters
 0001CE A1D2           001CE 001CA 14098    00322000           ELSE  'LA R1,@R6+4'       Set pointer to exec parameters
 0001CE 47F0 A1D6            001D6 14103             +
 0001D2 4110 6004            00004 14110             +
 0001D6 58E0 A4B0/0DEE       004B0 14115    00323000           ACALL SCANPARM            Scan initialization parameters
-                                  14120    00325000           ¿þþþþþþþþþþþþþþþþþþþþþþþþþþþþþþþþþþþþþþþþþþþþþþþþþþþþþþþþþþþÜ
                                   14121    00326000           Ÿ  Define extended STAE recovery environment                Ÿ
                                   14122    00327000           Ÿ                                                           Ÿ
                                   14123    00328000           Ÿ        Insure that this ESTAE is queued prior to calling  Ÿ
                                   14124    00329000           Ÿ        DUMPINIT so that the dumper has a chance before    Ÿ
                                   14125    00330000           Ÿ        we release all of the GD control blocks!!          Ÿ
                                   14126    00331000           ¾þþþþþþþþþþþþþþþþþþþþþþþþþþþþþþþþþþþþþþþþþþþþþþþþþþþþþþþþþþþ»
 0001DC 58E0 A4B4/0DEE       004B4 14127    00332000           ACALL SETESTAE            ENABLE ESTAE EXIT
-                                  14132    00334000           ¿þþþþþþþþþþþþþþþþþþþþþþþþþþþþþþÜ
                                   14133    00335000           Ÿ  Initialize dump formatter.  Ÿ
                                   14134    00336000           ¾þþþþþþþþþþþþþþþþþþþþþþþþþþþþþþ»
 0001E2 1B11                       14135    00337000           CLEAR R1                  NO AUXILIARY DUMP ROUTINE
 0001E4 58E0 A4B8/0DEE       004B8 14139    00338000           VCALL DUMPINIT            Initialize dump formatter
-                                  14144    00340000           ¿þþþþþþþþþþþþþþþþþþþþþþþþþþþþþþþþþþþþþþþþþþþþþþþþþþþþþþþþþÜ
                                   14145    00341000           Ÿ  Initialize trace table addresses and the symbol table  Ÿ
                                   14146    00342000           ¾þþþþþþþþþþþþþþþþþþþþþþþþþþþþþþþþþþþþþþþþþþþþþþþþþþþþþþþþþ»
 0001EA 182D/41D0 D010       00010 14147    00343000           XPUSH ,,16,PTR=R2             Get stack space
 0001F0 18F2                       14150    00344000           ADDSYM ENTRY=(R2),NAME='TVT',LOC=(TVTR),LEN=LH:TVTTLEN
 0001F2 D207 F000 A470 00000 00470 14156             +
 0001F8 50B0 F008            00008 14158             +
1DBMAIN   Wings: Disk I/O support: Initialization                                                                           Page   31
0Current Usings:  (OSFCOMMN,R9) (STARTUP,R10) (TVT,R11) (GVT,R12)
0Loc    Object Code    Addr1 Addr2  Stmt Lv Lineno    Source Statement           (Hibal 5, Asmedit 3.3)  HLASM R4.0  2002/06/06 10.05
+___    ______ ____    _____ _____  ____ __ ______    ______ _________
00001FC 4810 B004            00004 14162             +
 000200 5010 F00C            0000C 14163             +
 000204 4110 B0E0            000E0 14170             +
 000208 58E0 A4BC/0DEE       004BC 14173             +
 00020E 18F2                       14175    00345000           ADDSYM ENTRY=(R2),NAME='GVT',LOC=(GVTR),LEN=L'GVT
 000210 D207 F000 A478 00000 00478 14181             +
 000216 50C0 F008            00008 14183             +
 00021A 4110 063C            0063C 14190             +
 00021E 5010 F00C            0000C 14191             +
 000222 4110 B0E0            000E0 14198             +
 000226 58E0 A4BC/0DEE       004BC 14201             +
 00022C 58F0 A4C0            004C0 14203    00346000           ADDSYM ENTRY=L:=A(SYMDBM)     Add DBMAIN Symbols
 000230 4110 B0E0            000E0 14215             +
 000234 58E0 A4BC/0DEE       004BC 14218             +
 00023A 58F0 A4C4            004C4 14220    00347000           ADDSYM ENTRY=L:=V(SYMDEBUG)   Add DEBUG utilites Symbols
 00023E 4110 B0E0            000E0 14232             +
 000242 58E0 A4BC/0DEE       004BC 14235             +
 000248 58F0 A4C8            004C8 14237    00348000           ADDSYM ENTRY=L:=V(SYMUTILS)   Add UTILITY symbols
 00024C 4110 B0E0            000E0 14249             +
 000250 58E0 A4BC/0DEE       004BC 14252             +
 000256 58F0 A4CC            004CC 14254    00348500           ADDSYM ENTRY=L:=V(SYMMVSUT)   Add MVSUTILS symbols
 00025A 4110 B0E0            000E0 14266             +
 00025E 58E0 A4BC/0DEE       004BC 14269             +
 000264 58F0 A4D0            004D0 14271    00349000           ADDSYM ENTRY=L:=V(SYMPATH)    Add PATH symbols
 000268 4110 B0E0            000E0 14283             +
 00026C 58E0 A4BC/0DEE       004BC 14286             +
 000272 58F0 A4D4            004D4 14288    00350000           ADDSYM ENTRY=L:=V(SYMDUMP)    Add DUMPER symbols
 000276 4110 B0E0            000E0 14300             +
 00027A 58E0 A4BC/0DEE       004BC 14303             +
 000280 58F0 A4D8            004D8 14305    00351000           ADDSYM ENTRY=L:=V(SYMSCANN)   Add SCANNER symbols
 000284 4110 B0E0            000E0 14317             +
 000288 58E0 A4BC/0DEE       004BC 14320             +
 00028E 18D2                       14322    00352000           XPOP  PTR=R2                  Pop stack work area
-                                  14325    00354000           ¿þþþþþþþþþþþþþþþþþþþþþþþþþþþþþþþþþþþþþþÜ
                                   14326    00355000           Ÿ  Allocate dynamic allocation buffer  Ÿ
                                   14327    00356000           ¾þþþþþþþþþþþþþþþþþþþþþþþþþþþþþþþþþþþþþþ»
 000290 4110 B128            00128 14328    00357000           DYNINIT TABLE=TVTDYNBF,LENGTH=L:=A(512)
 000294 5800 A4DC            004DC 14342             +
 000298 58E0 A4E0/0DEE       004E0 14345             +
 00029E 12FF/4780 A2AC       002AC 14347    00358000           IF    (R15,NZ),BEGIN      Insufficient memory
 0002A4 920C B0F3      000F3       14361  1 00359000             MVI   TVTRETCD+3,12       Set return code
 0002A8 47F0 9000            00530 14362  1 00360000             B     OSFXIT              Abort processing
 0002AC                            14363    00361000           END   ,
 0002AC 5820 B128            00128 14367    00362000           L     R2,TVTDYNBF         Set address of dynamic buffer
 0002B0 183D/41D0 D010       00010 14368    00363000           XPUSH ,,16,PTR=R3         Reserve space
 0002B6 18F3                       14371    00364000           ADDSYM ENTRY=(R3),NAME='DYNAMBF',LOC=(R2),LEN=512
 0002B8 D207 F000 A480 00000 00480 14377             +
 0002BE 5020 F008            00008 14379             +
 0002C2 4110 0200            00200 14386             +
 0002C6 5010 F00C            0000C 14387             +
 0002CA 4110 B0E0            000E0 14394             +
 0002CE 58E0 A4BC/0DEE       004BC 14397             +
1DBMAIN   Wings: Disk I/O support: Initialization                                                                           Page   32
0Current Usings:  (OSFCOMMN,R9) (STARTUP,R10) (TVT,R11) (GVT,R12)
0Loc    Object Code    Addr1 Addr2  Stmt Lv Lineno    Source Statement           (Hibal 5, Asmedit 3.3)  HLASM R4.0  2002/06/06 10.05
+___    ______ ____    _____ _____  ____ __ ______    ______ _________
00002D4 18D3                       14399    00365000           XPOP  PTR=R3              Release stack space
 0002D6 5800 B00C            0000C 14401    00366000           L     R0,TVTNO            Set TVT id number
 0002DA 4E00 D000            00000 14402    00367000           CVD   R0,@SPR             Convert to decimal
 0002DE F377 B504 D000 00504 00000 14403    00368000           UNPK  TVTLOGDD,@SPR(8)    Convert to zoned
 0002E4 96F0 B50B      0050B       14404    00369000           OI    TVTLOGDD+7,X'F0'    Set valid sign
 0002E8 D202 B504 A52C 00504 0052C 14405    00370000           MVC   TVTLOGDD(3),=C'OSF' Set complete ddname
 0002EE 181D/41D0 D010       00010 14406    00371000           DYNADD (DALDDNAM,1,8),TVTLOGDD
 0002F4 D205 1000 A516 00000 00516 14410             +
 0002FA D207 1006 B504 00006 00504 14411             +
 000300 41F0 B128            00128 14418             +
 000304 58E0 A4E4/0DEE       004E4 14421             +
 00030A 4BD0 A51C            0051C 14424             +
 00030E 181D/41D0 D008       00008 14425    00372000           DYNADD (DALSYSOU,0,0)
 000314 D205 1000 A51E 00000 0051E 14429             +
 00031A 41F0 B128            00128 14436             +
 00031E 58E0 A4E4/0DEE       004E4 14439             +
 000324 4BD0 A524            00524 14442             +
 000328 41F0 B128            00128 14443    00373000           DYNCALL ,                 ALLOCATE FILE
 00032C 58E0 A4E8/0DEE       004E8 14453             +
0                                  14456    00375000           ¿þþþþþþþþþþþþþþþþþþþþþþþþþþþþþþþþþþþþþþþþþþþþþþþþþþþþþþÜ
                                   14457    00376000           Ÿ  Allocate client/server seg buffer for path support  Ÿ
                                   14458    00377000           ¾þþþþþþþþþþþþþþþþþþþþþþþþþþþþþþþþþþþþþþþþþþþþþþþþþþþþþþ»
 000332 5800 A4EC            004EC 14459    00378000           L     R0,=A(16384)        Acquire 16k buffer
 000336 1850                       14460    00379000           LR    R5,R0               Copy length
 000338 58E0 A4F0/0DEE       004F0 14461    00380000           VCALL GETCORE             Allocate memory
 00033E 5010 B49C            0049C 14465    00381000           ST    R1,TVTPATBF         Save buffer address
 000342 1805                       14466    00382000           LR    R0,R5               Set length of buffer
 000344 58E0 A4F0/0DEE       004F0 14467    00383000           VCALL GETCORE             Allocate memory
 00034A 5010 B4A0            004A0 14471    00384000           ST    R1,TVTPATB2         Set secondary buffer
                                   14472    00385000           ¿þþþþþþþþþþþþþþþþþþþþþþþþþþþþþþþþþþþþþþþþþþþþÜ
                                   14473    00386000           Ÿ  ALLOCATE CLIENT/SERVER DATA/COMMAND PATH  Ÿ
                                   14474    00387000           ¾þþþþþþþþþþþþþþþþþþþþþþþþþþþþþþþþþþþþþþþþþþþþ»
 00034E 58E0 A4F4/0DEE       004F4 14475    00388000           ACALL SETPATH             Reset new path and queue to event
                                   14479    00389000           ¿þþþþþþþþþþþþþþþþþþþþþþþþþÜ
                                   14480    00390000           Ÿ  Start periodic timer.  Ÿ
                                   14481    00391000           ¾þþþþþþþþþþþþþþþþþþþþþþþþþ»
 000354 58E0 A4F8/0DEE       004F8 14482    00392000           ACALL SETTIMER            Start up periodic timer
                                   14486    00393000           ¿þþþþþþþþþþþþþþþþþþþþþþþþþþþþþþþþþþþþþþþþÜ
                                   14487    00394000           Ÿ  SET UP EVENT TABLE, ECB AND ROUTINES  Ÿ
                                   14488    00395000           ¾þþþþþþþþþþþþþþþþþþþþþþþþþþþþþþþþþþþþþþþþ»
 00035A                            14489    00396000           CLEAR TVTDECBL            CLEAR DEBUGGER ECB LIST
 00035A D71F B420 B420 00420 00420 14495             +
 000360                            14496    00397000           CLEAR TVTDEVNTL           CLEAR DEBUGGER EVENT LIST
 000360 D71F B440 B440 00440 00440 14502             +
 000366 58E0 A4FC/0DEE       004FC 14503    00398000           ACALL SETMECBL            SET UP MONITOR ECB LIST
 00036C 58E0 A500/0DEE       00500 14507    00399000           ACALL INITECBS            CLEAR MONITOR ECBS
1DBMAIN   Wings: Disk I/O support: Main processing loop                                                                     Page   33
0Current Usings:  (OSFCOMMN,R9) (STARTUP,R10) (TVT,R11) (GVT,R12)
0Loc    Object Code    Addr1 Addr2  Stmt Lv Lineno    Source Statement           (Hibal 5, Asmedit 3.3)  HLASM R4.0  2002/06/06 10.05
+___    ______ ____    _____ _____  ____ __ ______    ______ _________
0                                  14513    00402000  ¿þþþþþþþþþþþþþþþþþþþþþþþþþþþþþþþþþþþþþþþþþþþþþþþþþþþþþþþþþþþþþþþþþþþþþÜ
                                   14514    00403000  Ÿ                                                                     Ÿ
                                   14515    00404000  Ÿ    Main processing loop                                             Ÿ
                                   14516    00405000  Ÿ                                                                     Ÿ
                                                      ¾þþþþþþþþþþþþþþþþþþþþþþþþþþþþþþþþþþþþþþþþþþþþþþþþþþþþþþþþþþþþþþþþþþþþþ»
0000372                            14517    00406000  MAINWAIT LOOP  BEGIN
                                   14524  1 00407000  *
                                   14525  1 00408000  *                                  WAIT FOR EVENT
 000372 90DF B0D4            000D4 14526  1 00409000             PTRACE MainWait           TRACE WAIT
 000376 58F0 C014/0DEF       00014 14529  1          +
 00037C D4818995E68189A3           14531  1          +
 000384 98DF B0D4            000D4 14532  1          +
 000388 9140 B09C      0009C       14533  1 00410000             IF    (TVTFQUISCE,AND,~TPATCMND),OSFXIT
 00038C 47E0 A398            00398 14545  1          +
 000390 9140 B4D0      004D0       14556  1          +
 000394 47E0 9000            00530 14559  1          +
 000398 9201 B09D      0009D       14565  1 00411000             SET   TVTSTWAITING        SET SUBTASK WAITING FOR WORK
 00039C 4100 0001            00001 14571  1 00412000             WAIT  ECBLIST=TVTDECBL    WAIT FOR EVENT TO OCCUR
 0003A0 4110 B420/1311       00420 14576  1          +
 0003A6 0A01                       14578  1          +
                                   14579  1 00413000  **-ml    PTRACE GotEVNT
 0003A8 9202 B09D      0009D       14580  1 00414000             SET   TVTSTBUSY           SET SUBTASK BUSY WITH WORK
                                   14586  1 00415000  *
                                   14587  1 00416000  *                                  MAKE LIST OF EVENTS TO PROCESS
 0003AC 1B00                       14588  1 00417000             CLEAR R0                  R0 - ZERO
 0003AE 4110 B420            00420 14592  1 00418000             LA    R1,TVTDECBL         R1 - ECBLIST NDX, END
 0003B2 5820 1000            00000 14593  1 00419000             L     R2,@R1              R2 - ECB PTR
 0003B6 4122 0000            00000 14594  1 00420000             LA    R2,0(R2)
                                   14595  1 00421000  *                                  R3 - ECB VALUE
 0003BA 4140 B440            00440 14596  1 00422000             LA    R4,TVTDEVNTL        R4 - EVENT LIST
 0003BE                            14597  1 00423000             CLEAR TVTDEVNTL
 0003BE D71F B440 B440 00440 00440 14603  1          +
 0003C4 1222/4780 A3F4       003F4 14604  1 00424000             WHILE (R2,NZ),BEGIN       LOOP THRU ALL ECB POINTERS
 0003CA 5830 2000            00000 14620  2 00425000               L     R3,@R2
 0003CE 5430 A504            00504 14621  2 00426000               N     R3,=X'40000000'
 0003D2 1233/4780 A3E4       003E4 14622  2 00427000               IF    (R3,NZ),BEGIN       IF POSTED, ,,,
 0003D8 5020 4000            00000 14636  3 00428000                 ST    R2,@R4              PUT ECB POINTER IN EVENT LIST
 0003DC 4144 0004            00004 14637  3 00429000                 LA    R4,4(R4)            CLEAR ECB
 0003E0 5000 2000            00000 14638  3 00430000                 ST    R0,@R2
 0003E4                            14639  2 00431000               END
 0003E4 4111 0004            00004 14643  2 00432000               LA    R1,4(R1)
 0003E8 5820 1000            00000 14644  2 00433000               L     R2,@R1
 0003EC 4122 0000            00000 14645  2 00434000               LA    R2,0(R2)
 0003F0 47F0 A3C4            003C4 14646  1 00435000             END
                                   14651  1 00436000  *
                                   14652  1 00437000  *                                  PROCESS EVENTS
 0003F4 4140 B440            00440 14653  1 00438000             LA    R4,TVTDEVNTL
 0003F8 5820 4000            00000 14654  1 00439000             L     R2,@R4
 0003FC 1222/4780 A46A       0046A 14655  1 00440000             WHILE (R2,NZ),BEGIN
 000402 1802                       14671  2 00441000               LR    R0,R2
                                   14672  2 00442000  **-ml    PTRACE EVNTexec
 000404 5920 B410            00410 14673  2 00443000               IF    (R2,EQ,TVTPATHPTR),BEGIN
 000408 4770 A428            00428 14685  2          +
1DBMAIN   Wings: Disk I/O support: Main processing loop                                                                     Page   34
0Current Usings:  (OSFCOMMN,R9) (STARTUP,R10) (TVT,R11) (GVT,R12)
0Loc    Object Code    Addr1 Addr2  Stmt Lv Lineno    Source Statement           (Hibal 5, Asmedit 3.3)  HLASM R4.0  2002/06/06 10.05
+___    ______ ____    _____ _____  ____ __ ______    ______ _________
000040C 90DF B0D4            000D4 14690  3 00444000                 PTRACE PathEvnt
 000410 58F0 C014/0DEF       00014 14693  3          +
 000416 D781A388C5A595A3           14695  3          +
 00041E 98DF B0D4            000D4 14696  3          +
 000422 58E0 A508/0DEE       00508 14697  3 00445000                 ACALL PROCPATH
 000428                            14701  2 00446000               END
 000428 A42C           00428 0040A 14705  2 00447000               ELSEIF (R2,EQ,TVTTIMRPTR),BEGIN
 000428 47F0 A43A            0043A 14711  2          +
 00042C 5920 B414            00414 14725  2          +
 000430 4770 A43A            0043A 14726  2          +
 000434 58E0 A4F8/0DEE       004F8 14731  3 00448000                 ACALL SETTIMER
 00043A                            14735  2 00449000               END
 00043A A43E           0043A 00432 14739  2 00450000               ELSEIF (R2,EQ,TVTDBUGPTR),BEGIN
 00043A 47F0 A44C            0044C 14745  2          +
 00043E 5920 B418            00418 14759  2          +
 000442 4770 A44C            0044C 14760  2          +
 000446 58E0 A50C/0DEE       0050C 14765  3 00451000                 ACALL DODEBUG
 00044C                            14769  2 00452000               END
 00044C A450           0044C 00444 14773  2 00453000               ELSEIF (R2,EQ,TVTSTOPPTR),BEGIN
 00044C 47F0 A45E            0045E 14779  2          +
 000450 5920 B41C            0041C 14793  2          +
 000454 4770 A45E            0045E 14794  2          +
 000458 58E0 A510/0DEE       00510 14799  3 00454000                 ACALL MONPOST
 00045E                            14803  2 00455000               END
 00045E 4144 0004            00004 14807  2 00456000               LA    R4,4(R4)
 000462 5820 4000            00000 14808  2 00457000               L     R2,@R4
 000466 47F0 A3FC            003FC 14809  1 00458000             END
                                   14814  1 00459000
 00046A 47F0 A372            00372 14815    00460000           END   , LOOP WAITING/PROCESSING EVENTS
1DBMAIN   Wings: Disk I/O support: Main processing loop                                                                     Page   35
0Current Usings:  (OSFCOMMN,R9) (STARTUP,R10) (TVT,R11) (GVT,R12)
0Loc    Object Code    Addr1 Addr2  Stmt Lv Lineno    Source Statement           (Hibal 5, Asmedit 3.3)  HLASM R4.0  2002/06/06 10.05
+___    ______ ____    _____ _____  ____ __ ______    ______ _________
0                                  14821    00462000           QLTORG
1DBMAIN   Wings: Disk I/O support: Termination control                                                                      Page   36
0Current Usings:  (OSFCOMMN,R9) (STARTUP,R10) (TVT,R11) (GVT,R12)
0Loc    Object Code    Addr1 Addr2  Stmt Lv Lineno    Source Statement           (Hibal 5, Asmedit 3.3)  HLASM R4.0  2002/06/06 10.05
+___    ______ ____    _____ _____  ____ __ ______    ______ _________
0                                  14880    00464000  ¿þþþþþþþþþþþþþþþþþþþþþþþþþþþþþþþþþþþþþþþþþþþþþþþþþþþþþþþþþþþþþþþþþþþþþÜ
                                   14881    00465000  Ÿ                                                                     Ÿ
                                   14882    00466000  Ÿ   Wings: OSFILE termination process control                         Ÿ
                                   14883    00467000  Ÿ                                                                     Ÿ
                                   14884    00468000  Ÿ        Release acquired resources and terminate task                Ÿ
                                   14885    00469000  Ÿ                                                                     Ÿ
                                                      ¾þþþþþþþþþþþþþþþþþþþþþþþþþþþþþþþþþþþþþþþþþþþþþþþþþþþþþþþþþþþþþþþþþþþþþ»
-000530                            14887    00471000  OSFCOMMN LABEL ,
 000530                            14889    00472000  OSFXIT   LABEL ,                   Exit processing
 000530 9180 B09E      0009E       14891    00473000           IF    TVTFTRC,'PTRACE OSFXIT' Trace termination if active
 000534 47E0 901E            0054E 14901             +
 000538 90DF B0D4            000D4 14909  1          +
 00053C 58F0 C014/0DEF       00014 14910  1          +
 000542 D6E2C6E7C9E34040           14912  1          +
 00054A 98DF B0D4            000D4 14913             +
000054E 9104 B09E      0009E       14919    00475000           IF    TVTREPT,BEGIN       Close out report file
 000552 47E0 90B0            005E0 14929             +
 000556 58E0 9398/0DEE       008C8 14934  1 00476000             VCALL AMODE24             Enter 24-bit addressing mode
 00055C 4120 B5D0            005D0 14938  1 00477000             LA    R2,OSFDCBPR
 000560 4110 B4D4            004D4 14939  1 00478000             CLOSE (R2),MF=(E,TVTOPEN) Close report file
 000564 43E1 0000            00000 14942  1          +
 000568 4100 0002            00002 14943  1          +
 00056C 5001 0000            00000 14944  1          +
 000570 42E1 0000/0A14       00000 14945  1          +
 000576 4110 B5D0            005D0 14947  1 00479000             FREEPOOL OSFDCBPR         Release buffer pool
 00057A 9101 1017      00017       14950  1          +
 00057E 4710 9094/1FFF       005C4 14951  1          +
 000584 BFF7 1015            00015 14953  1          +
 000588 58E0 F000/12EE       00000 14954  1          +
 00058E 4770 906A            0059A 14956  1          +
 000592 9130 F004      00004       14957  1          +
 000596 4770 9094            005C4 14958  1          +
 00059A 9601 1017/1BEE 00017       14959  1          +
 0005A0 1B11/BF13 F006       00006 14961  1          +
 0005A6 43E0 F005/1C0E       00005 14963  1          +
 0005AC 4110 1008            00008 14965  1          +
 0005B0 9140 F004      00004       14966  1          +
 0005B4 47E0 908C            005BC 14967  1          +
 0005B8 4110 1008/1801       00008 14968  1          +
 0005BE 4110 F000/0A0A       00000 14970  1          +
 0005C4 4800 B54C            0054C 14973  1 00480000             LH    R0,OSFSCBMAXF       Set buffer length
 0005C8 5810 B568            00568 14974  1 00481000             L     R1,OSFSCBLOC        Set buffer address
 0005CC 5B10 939C            008CC 14975  1 00482000             S     R1,=A(4)            Decrement for header
 0005D0 5A00 939C            008CC 14976  1 00483000             A     R0,=A(4)            Adjust for header
 0005D4 4110 1000/0A0A       00000 14977  1 00484000             FREEMAIN R,LV=(0),A=(1)   Release seg buffer
 0005DA 58E0 93A0/0DEE       008D0 14981  1 00485000             VCALL AMODE31             Enter 31-bit addressing mode
 0005E0                            14985    00486000           END   ,
00005E0 5830 B0EC            000EC 14990    00488000           L     R3,TVTSAVE          Reload passed vs save area addr
 0005E4 5840 B0F0            000F0 14991    00489000           L     R4,TVTRETCD         Load global return code
1DBMAIN   Wings: Disk I/O support: Termination control                                                                      Page   37
0Current Usings:  (OSFCOMMN,R9) (STARTUP,R10) (TVT,R11) (GVT,R12)
0Loc    Object Code    Addr1 Addr2  Stmt Lv Lineno    Source Statement           (Hibal 5, Asmedit 3.3)  HLASM R4.0  2002/06/06 10.05
+___    ______ ____    _____ _____  ____ __ ______    ______ _________
00005E8 9108 B09E      0009E       14993    00491000           IF    TVTBATCH,BEGIN      Release GVT, TVT if in test mode
 0005EC 47E0 90DC            0060C 15003             +
 0005F0 47F0 90C8            005F8 15008  1 00492000             FREEMAIN R,LV=L'GVT,A=(GVTR)  Release GVT memory
 0005F4 0000063C                   15012  1          +
 0005F8 5800 90C4            005F4 15013  1          +
 0005FC 4110 C000/0A0A       00000 15014  1          +
 000602 4800 B004            00004 15016  1 00493000             LH    R0,TVTTLEN          Set total length of TVT
 000606 4110 B000/0A0A       00000 15017  1 00494000             FREEMAIN R,LV=(0),A=(TVTR)    Release TVT memory
 00060C                            15021    00495000           END
 00060C 18F4                       15025    00496000           LR    R15,R4              Set final return code
000060E                            15027    00498000  OSFXIT2  LABEL ,                   Exit point prior to initialization
                                   15029    00499000           ¿þþþþþþþþþþþþþþþþþþþþþþþþþþþþþþþþÜ
                                   15030    00500000           Ÿ  Assumes R13, R15, and R0 set  Ÿ
                                   15031    00501000           ¾þþþþþþþþþþþþþþþþþþþþþþþþþþþþþþþþ»
 00060E 58E0 300C            0000C 15032    00502000           L     R14,@R3+12          Load return address
 000612 981C 3018            00018 15033    00503000           LM    R1,R12,@R3+24         Reload remaining registers
 000616 07FE                       15034    00504000           BR    R14                     Return to caller
-DROP   STARTUP,R10                15036    00506000           DROP  BR                  Release base addressability
1DBMAIN   Wings: Disk I/O support: Global keyword exit routs                                                                Page   38
0Current Usings:  (OSFCOMMN,R9) (TVT,R11) (GVT,R12)
0Loc    Object Code    Addr1 Addr2  Stmt Lv Lineno    Source Statement           (Hibal 5, Asmedit 3.3)  HLASM R4.0  2002/06/06 10.05
+___    ______ ____    _____ _____  ____ __ ______    ______ _________
0                                  15044    00509000  ¿þþþþþþþþþþþþþþþþþþþþþþþþþþþþþþþþþþþþþþþþþþþþþþþþþþþþþþþþþþþþþþþþþþþþþÜ
                                   15045    00510000  Ÿ                                                                     Ÿ
                                   15046    00511000  Ÿ  Bad option processing                                              Ÿ
                                   15047    00512000  Ÿ                                                                     Ÿ
                                                      ¾þþþþþþþþþþþþþþþþþþþþþþþþþþþþþþþþþþþþþþþþþþþþþþþþþþþþþþþþþþþþþþþþþþþþþ»
-000618                            15049    00514000  BADOPT   LABEL ,
 000618 90DF B0D4            000D4 15051    00515000           PTRACE BADOPT             Trace bad option
 00061C 58F0 C014/0DEF       00014 15054             +
 000622 C2C1C4D6D7E34040           15056             +
 00062A 98DF B0D4            000D4 15057             +
 00062E 9001 D000            00000 15058    00516000           XPUSH R0,R1               Save pointer to length, address
 000632 41D0 D008            00008 15060             +
 000636 41F0 B584            00584 15061    00517000           SEGCLR ERRSCB             Clear error seg control block
 00063A 58E0 93A4/0DEE       008D4 15072             +
 000640 4110 93C2            008F2 15074    00518000           SEGB  'ERRID=UNREC'       Set error to unrecognized
 000644 4100 000B            0000B 15079             +
 000648 41F0 B584            00584 15087             +
 00064C 58E0 93A8/0DEE       008D8 15090             +
 000652 4110 9380            008B0 15092    00519000           SEG   'ERRMSG='''         Build error message
 000656 4100 0008            00008 15096             +
 00065A 41F0 B584            00584 15104             +
 00065E 58E0 93AC/0DEE       008DC 15107             +
 000664 4110 93CD            008FD 15109    00520000           SEGB  ':'                 Add separator
 000668 4100 0001            00001 15114             +
 00066C 41F0 B584            00584 15122             +
 000670 58E0 93A8/0DEE       008D8 15125             +
 000676 4BD0 93C0            008F0 15127    00521000           XPOP  R0,R1               Retrieve parameter pointers
 00067A 9801 D000            00000 15129             +
 00067E 1200/47D0 9170       006A0 15130    00522000           IF    (R0,P),BEGIN
 000684 41F0 B584            00584 15144  1 00523000             SEG   (R1),(R0)           Add bad parameter
 000688 58E0 93AC/0DEE       008DC 15165  1          +
 00068E 4110 93CE            008FE 15167  1 00524000             SEG   ' unrecognized option.' add to error message
 000692 4100 0015            00015 15171  1          +
 000696 41F0 B584            00584 15179  1          +
 00069A 58E0 93AC/0DEE       008DC 15182  1          +
 0006A0                            15184    00525000           END   ,
 0006A0 4110 93E3            00913 15188    00526000           SEG   ''''                Add trailing quote
 0006A4 4100 0001            00001 15192             +
 0006A8 41F0 B584            00584 15200             +
 0006AC 58E0 93AC/0DEE       008DC 15203             +
 0006B2 9630 B4D0      004D0       15205    00527000           SET   TPATERR+TERRMSG     Set flags for path re-queue+msg
 0006B6 47F0 92FE            0082E 15214    00528000           B     CMDCLEAN            Cleanup path and re-wait
1DBMAIN   Wings: Disk I/O support: Global keyword exit routs                                                                Page   39
0Current Usings:  (OSFCOMMN,R9) (TVT,R11) (GVT,R12)
0Loc    Object Code    Addr1 Addr2  Stmt Lv Lineno    Source Statement           (Hibal 5, Asmedit 3.3)  HLASM R4.0  2002/06/06 10.05
+___    ______ ____    _____ _____  ____ __ ______    ______ _________
0                                  15216    00530000  ¿þþþþþþþþþþþþþþþþþþþþþþþþþþþþþþþþþþþþþþþþþþþþþþþþþþþþþþþþþþþþþþþþþþþþþÜ
                                   15217    00531000  Ÿ                                                                     Ÿ
                                   15218    00532000  Ÿ  Missing option processing                                          Ÿ
                                   15219    00533000  Ÿ                                                                     Ÿ
                                                      ¾þþþþþþþþþþþþþþþþþþþþþþþþþþþþþþþþþþþþþþþþþþþþþþþþþþþþþþþþþþþþþþþþþþþþþ»
-0006BA                            15221    00535000  MISSING  LABEL ,
 0006BA 90DF B0D4            000D4 15223    00536000           PTRACE MISSING            Trace bad option
 0006BE 58F0 C014/0DEF       00014 15226             +
 0006C4 D4C9E2E2C9D5C740           15228             +
 0006CC 98DF B0D4            000D4 15229             +
 0006D0 41F0 B584            00584 15230    00537000           SEGCLR ERRSCB             Clear error seg control block
 0006D4 58E0 93A4/0DEE       008D4 15241             +
 0006DA 4110 93E4            00914 15243    00538000           SEGB  'ERRID=MISSING'     Set error to unrecognized
 0006DE 4100 000D            0000D 15248             +
 0006E2 41F0 B584            00584 15256             +
 0006E6 58E0 93A8/0DEE       008D8 15259             +
 0006EC 4110 9380            008B0 15261    00539000           SEG   'ERRMSG='''         Build error message
 0006F0 4100 0008            00008 15265             +
 0006F4 41F0 B584            00584 15273             +
 0006F8 58E0 93AC/0DEE       008DC 15276             +
 0006FE 4110 B4E8            004E8 15278    00540000           LA    R1,TVTSCNKW         Address of error keyword
 000702 4100 0008            00008 15279    00541000           LA    R0,8                Maximum length of keyword
 000706 58E0 93B0/0DEE       008E0 15280    00542000           VCALL RTRIM               Trim trailing blanks
 00070C 41F0 B584            00584 15284    00543000           SEG   (R1),(R0)           Add bad parameter
 000710 58E0 93AC/0DEE       008DC 15305             +
 000716 4110 93CD            008FD 15307    00544000           SEGB  ':'                 Add separator
 00071A 4100 0001            00001 15312             +
 00071E 41F0 B584            00584 15320             +
 000722 58E0 93A8/0DEE       008D8 15323             +
 000728 4110 9388            008B8 15325    00545000           SEG   ' missing option.'  Add to error message
 00072C 4100 0010            00010 15329             +
 000730 41F0 B584            00584 15337             +
 000734 58E0 93AC/0DEE       008DC 15340             +
 00073A 4110 93E3            00913 15342    00546000           SEG   ''''                Add trailing quote
 00073E 4100 0001            00001 15346             +
 000742 41F0 B584            00584 15354             +
 000746 58E0 93AC/0DEE       008DC 15357             +
 00074C 9630 B4D0      004D0       15359    00547000           SET   TPATERR+TERRMSG     Set error flags for cmdclean
 000750 47F0 92FE            0082E 15368    00548000           B     CMDCLEAN            Cleanup path and re-wait
-                                  15370    00550000  ¿þþþþþþþþþþþþþþþþþþþþþþþþþþþþþþþþþþþþþþþþþþþþþþþþþþþþþþþþþþþþþþþþþþþþþÜ
                                   15371    00551000  Ÿ                                                                     Ÿ
                                   15372    00552000  Ÿ  Error recovery stack overflow                                      Ÿ
                                   15373    00553000  Ÿ                                                                     Ÿ
                                                      ¾þþþþþþþþþþþþþþþþþþþþþþþþþþþþþþþþþþþþþþþþþþþþþþþþþþþþþþþþþþþþþþþþþþþþþ»
0000754                            15375    00555000  STCKOVFL LABEL ,
 000754 FEDC1E                     15377    00556000           FAIL  'ERROR RECOVERY STACK OVERFLOW.'
 000757 C5D9D9D6D940D9C5           15380             +
1DBMAIN   WINGS: ENABLE ESTAE EXIT                                                                                          Page   40
0Current Usings:  (OSFCOMMN,R9) (TVT,R11) (GVT,R12)
0Loc    Object Code    Addr1 Addr2  Stmt Lv Lineno    Source Statement           (Hibal 5, Asmedit 3.3)  HLASM R4.0  2002/06/06 10.05
+___    ______ ____    _____ _____  ____ __ ______    ______ _________
0                                  15383    00558000  ¿þþþþþþþþþþþþþþþþþþþþþþþþþþþþþþþþþþþþþþþþþþþþþþþþþþþþþþþþþþþþþþþþþþþþþÜ
                                   15384    00559000  Ÿ                                                                     Ÿ
                                   15385    00560000  Ÿ  SETESTAE - ENABLE OSFILE ESTAE EXIT                                Ÿ
                                   15386    00561000  Ÿ                                                                     Ÿ
                                                      ¾þþþþþþþþþþþþþþþþþþþþþþþþþþþþþþþþþþþþþþþþþþþþþþþþþþþþþþþþþþþþþþþþþþþþþ»
0000000                00000 00018 15388    00563000  SETESTL  RECORD BEGIN
                                   15396  1 00564000  TVTESTPL   ESTAE *-*,PURGE=NONE,ASYNCH=YES,TERM=YES,MF=L
                                   15398  1          +*    MACDATE   10/01/94                                        @G860P1C
 000000                            15400  1 01-ESTAE +           DS    0F
 000000 16                         15401  1 01-ESTAEC+TVTESTPL   DC    AL1(22)                 FLAGS FOR TCB,PURGE,ASYNCH,
                                          1          +                                         AND CANCEL                  @D1C
 000001 000000                     15402  1 01-ESTAE +           DC    AL3(0)                  FIELD NO LONGER USED  @G860P1C
 000004 00000000                   15403  1 01-ESTAE +           DC    A(0)                    PARM. LIST ADDR. NOT SPECIFIED
 000008 00000000                   15404  1 01-ESTAE +           DC    A(0)                    TCB NOT SPECIFIED
 00000C 40                         15405  1 01-ESTAE +           DC    AL1(64)                 FLAGS
 00000D 01                         15406  1 01-ESTAE +           DC    AL1(1)                  THIRD FLAG BYTE       @G860P1C
 00000E 0000                       15407  1 01-ESTAE +           DC    AL2(0)                  RESERVED              @G860P1C
 000010 00000000                   15408  1 01-ESTAE +           DC    A(0)                    TOKEN VALUE AREA      @G81CP2F
 000014 00000000                   15409  1 01-ESTAE +           DC    AL4(*-*)                FOUR BYTE EXIT ADDR   @G860P1C
 000018                00018 00018 15410    00565000           END   ,
0000776 90DF B0D4            000D4 15420    00567000  SETESTAE PROC  SETESTL
 00077A 58F0 C014/0DEF       00014 15431             +
 000780 E2C5E3C5E2E3C1C5           15433             +
 000788 98DF B0D4            000D4 15434             +
 00078C 50E0 D000            00000 15437             +
 000790 900C D004/188D       00004 15440             +
 000796 41D0 D050/0DA0       00050 15443             +
 USING  *,R10                      15475    00568000           CLEAR SETESTL
 USING  SETESTL-(4+52),R8
 00079C D717 8038 8038 00000 00000 15481             +
 0007A2 5800 A148            008E4 15482    00569000           L     R0,=A(OSFESTAE)
                                   15483    00570000C          ESTAE (0),PURGE=NONE,ASYNCH=YES,TERM=YES,
 0007A6 4110 8038            00000          00571000                 PARAM=(TVTR),MF=(E,TVTESTPL)
 0007AA 5001 0014            00014 15489             +
 0007AE 94BC 1000      00000       15490             +
 0007B2 9616 1000      00000       15491             +
 0007B6 50B0 1004            00004 15492             +
 0007BA 9640 100C      0000C       15493             +
 0007BE 94F7 1000      00000       15494             +
 0007C2 94E4 100C      0000C       15495             +
 0007C6 9201 100D      0000D       15496             +
 0007CA D701 100E 100E 0000E 0000E 15497             +
 0007D0 4100 0100/0A3C       00100 15498             +
 0007D6 12FF/4780 A06A       00806 15500    00572000           IF    (R15,NZ),BEGIN      Can't set STAE exit...
 0007DC 4510 A068/0024       00804 15514  1 00573000             WTO   'Note: ESTAE exit can not be set.'
 0007E2 0000                       15518  1          +
 0007E4 D596A3857A40C5E2           15519  1          +
 0007EC E3C1C54085A789A3                  1          +
 000804 0A23                       15521  1          +
 000806                            15522    00574000           END
 000806 9640 B09E      0009E       15526    00575000           SET   TVTESTAE            Set ESTAE environment active
 00080A 90DF B0D4            000D4 15532    00576000           PTRACE ESTAEOK            Trace ESTAE successful
1DBMAIN   WINGS: ENABLE ESTAE EXIT                                                                                          Page   41
0Current Usings:  (SETESTL-(4+52),R8) (OSFCOMMN,R9) (*,R10) (TVT,R11) (GVT,R12)
0Loc    Object Code    Addr1 Addr2  Stmt Lv Lineno    Source Statement           (Hibal 5, Asmedit 3.3)  HLASM R4.0  2002/06/06 10.05
+___    ______ ____    _____ _____  ____ __ ______    ______ _________
000080E 58F0 C014/0DEF       00014 15535             +
 000814 C5E2E3C1C5D6D240           15537             +
 00081C 98DF B0D4            000D4 15538             +
 000820 18D8/980C D004       00004 15539    00577000           PEND  ,
 DROP   SETESTL-(4+52),R8
 DROP   *,R10
 000826 58E0 D000/12FF       00000 15560             +
 00082C 07FE                       15563             +
1DBMAIN   WINGS: COMMAND CLEANUP ROUTINE                                                                                    Page   42
0Current Usings:  (OSFCOMMN,R9) (TVT,R11) (GVT,R12)
0Loc    Object Code    Addr1 Addr2  Stmt Lv Lineno    Source Statement           (Hibal 5, Asmedit 3.3)  HLASM R4.0  2002/06/06 10.05
+___    ______ ____    _____ _____  ____ __ ______    ______ _________
0                                  15565    00579000  ¿þþþþþþþþþþþþþþþþþþþþþþþþþþþþþþþþþþþþþþþþþþþþþþþþþþþþþþþþþþþþþþþþþþþþþÜ
                                   15566    00580000  Ÿ                                                                     Ÿ
                                   15567    00581000  Ÿ  Command cleanup routine                                            Ÿ
                                   15568    00582000  Ÿ                                                                     Ÿ
                                   15569    00583000  Ÿ    1.  Return error message across path to client.                  Ÿ
                                   15570    00584000  Ÿ    2.  Re-queue path.                                               Ÿ
                                   15571    00585000  Ÿ    3.  Call error recovery routines in reverse order                Ÿ
                                   15572    00586000  Ÿ                                                                     Ÿ
                                                      ¾þþþþþþþþþþþþþþþþþþþþþþþþþþþþþþþþþþþþþþþþþþþþþþþþþþþþþþþþþþþþþþþþþþþþþ»
000082E 90DF B0D4            000D4 15573    00587000  CMDCLEAN PROC  ,                   Entry for general command cleanup
 000832 58F0 C014/0DEF       00014 15583             +
 000838 C3D4C4C3D3C5C1D5           15585             +
 000840 98DF B0D4            000D4 15586             +
 000844 50E0 D000            00000 15589             +
 000848 900C D004/188D       00004 15592             +
 00084E 41D0 D038/0DA0       00038 15594             +
                                   15617    00588000           ¿þþþþþþþþþþþþþþþþþþþþþþþþþþþþþþþþþþÜ
                                   15618    00589000           Ÿ  Close and re-queue client path  Ÿ
                                   15619    00590000           ¾þþþþþþþþþþþþþþþþþþþþþþþþþþþþþþþþþþ»
 000854 9120 B4D0      004D0       15620    00591000           IF    TPATERR,BEGIN       Close and re-queued client path
 USING  *,R10
 000858 47E0 A018            0086C 15630             +
 00085C 9200 B4D0      004D0       15635  1 00592000             CLEAR TVTPATFL            Clear path flags
 000860 D20F B4B0 C0E0 004B0 000E0 15642  1 00593000             MVC   TVTPATCM,GVTBLANK   Clear command in progress
 000866 58E0 A094/0DEE       008E8 15643  1 00594000             ACALL SETPATH             Close and the and re-open
 00086C                            15647    00595000           END   ,
0                                  15652    00597000           ¿þþþþþþþþþþþþþþþþþþþþþþþþþþþþþþþþþþþþþþþþþþþþþþþþÜ
                                   15653    00598000           Ÿ  Call all recovery routines in recovery stack  Ÿ
                                   15654    00599000           ¾þþþþþþþþþþþþþþþþþþþþþþþþþþþþþþþþþþþþþþþþþþþþþþþþ»
 00086C 58E0 A098/0DEE       008EC 15655    00600000           ACALL RECOVERY            Process the error recovery stack
                                   15659    00601000           ¿þþþþþþþþþþþþþþþþþþþþþþþþþþþþþÜ
                                   15660    00602000           Ÿ  Reset command in progress  Ÿ
                                   15661    00603000           ¾þþþþþþþþþþþþþþþþþþþþþþþþþþþþþ»
 000872 94BF B4D0      004D0       15662    00604000           CLEAR TPATCMND            Clear command in progress
 000876                            15669    00605000           CLEAR TVTPATCM            Clear current command name
 000876 D70F B4B0 B4B0 004B0 004B0 15675             +
 00087C                            15676    00606000           CLEAR TVTPATNX            And next command expected
 00087C D70F B4C0 B4C0 004C0 004C0 15682             +
                                   15683    00607000           ¿þþþþþþþþþþþþþþþþþþþþþþþþþþþþÜ
                                   15684    00608000           Ÿ  Restore stack frame ptr.  Ÿ
                                   15685    00609000           ¾þþþþþþþþþþþþþþþþþþþþþþþþþþþþ»
 000882 5880 B5C4/1288       005C4 15686    00610000           LT    WAR,TVTCMDAS        Reset stack pointer
 000888 4770 A04E            008A2 15690    00611000           FAIL  Z,'Bad CMDCLEAN call.'
 00088C FEDC12                     15703  1          +
 00088F C2818440C3D4C4C3           15704             +
 0008A2 18D8/980C D004       00004 15710    00612000           PEND
 DROP   *,R10
 0008A8 58E0 D000/12FF       00000 15726             +
 0008AE 07FE                       15729             +
1DBMAIN   WINGS: COMMAND CLEANUP ROUTINE                                                                                    Page   43
0Current Usings:  (OSFCOMMN,R9) (TVT,R11) (GVT,R12)
0Loc    Object Code    Addr1 Addr2  Stmt Lv Lineno    Source Statement           (Hibal 5, Asmedit 3.3)  HLASM R4.0  2002/06/06 10.05
+___    ______ ____    _____ _____  ____ __ ______    ______ _________
0                                  15731    00614000  ¿þþþþþþþþþþþþþþþþþþþþþþþþþþþþþþþþþþþþþþþþþþþþþþþþþþþþþþþþþþþþþþþþþþþþþÜ
                                   15732    00615000  Ÿ                                                                     Ÿ
                                   15733    00616000  Ÿ  Define common routine literal pool                                 Ÿ
                                   15734    00617000  Ÿ                                                                     Ÿ
                                                      ¾þþþþþþþþþþþþþþþþþþþþþþþþþþþþþþþþþþþþþþþþþþþþþþþþþþþþþþþþþþþþþþþþþþþþþ»
-0008B0                            15736    00619000           LTORG ,
 0008B0 C5D9D9D4E2C77E7D           15738                             =C'ERRMSG='''
 0008B8 409489A2A2899587           15739                             =C' missing option.'
 0008C8 00000000                   15740                             =V(AMODE24)
 0008CC 00000004                   15741                             =A(4)
 0008D0 00000000                   15742                             =V(AMODE31)
 0008D4 00000000                   15743                             =V(SEGCLR)
 0008D8 00000000                   15744                             =V(SEGB)
 0008DC 00000000                   15745                             =V(SEG)
 0008E0 00000000                   15746                             =V(RTRIM)
 0008E4 00003D30                   15747                             =A(OSFESTAE)
 0008E8 000037FC                   15748                             =A(SETPATH)
 0008EC 00003916                   15749                             =A(RECOVERY)
 0008F0 0008                       15750                             =Y((R1+1-(R0)+16*((R0)/(R1+1))/((R0)/(R1+1)))*4)
 0008F2 C5D9D9C9C47EE4D5           15751                             =C'ERRID=UNREC'
 0008FD 7A                         15752                             =C':'
 0008FE 40A4959985839687           15753                             =C' unrecognized option.'
 000913 7D                         15754                             =C''''
 000914 C5D9D9C9C47ED4C9           15755                             =C'ERRID=MISSING'
1DBMAIN   Wings: PROCPATH - Process path activity                                                                           Page   44
0Current Usings:  (OSFCOMMN,R9) (TVT,R11) (GVT,R12)
0Loc    Object Code    Addr1 Addr2  Stmt Lv Lineno    Source Statement           (Hibal 5, Asmedit 3.3)  HLASM R4.0  2002/06/06 10.05
+___    ______ ____    _____ _____  ____ __ ______    ______ _________
0                                  15760    00621000  ¿þþþþþþþþþþþþþþþþþþþþþþþþþþþþþþþþþþþþþþþþþþþþþþþþþþþþþþþþþþþþþþþþþþþþþÜ
                                   15761    00622000  Ÿ                                                                     Ÿ
                                   15762    00623000  Ÿ  PROCPATH - PROCESS PATH ACTIVITY                                   Ÿ
                                   15763    00624000  Ÿ                                                                     Ÿ
                                   15764    00625000  Ÿ        1.  Handle path open requests.                               Ÿ
                                   15765    00626000  Ÿ        2.  Handle path close request.                               Ÿ
                                   15766    00627000  Ÿ        3.  Handle new information post codes.                       Ÿ
                                   15767    00628000  Ÿ                                                                     Ÿ
                                                      ¾þþþþþþþþþþþþþþþþþþþþþþþþþþþþþþþþþþþþþþþþþþþþþþþþþþþþþþþþþþþþþþþþþþþþþ»
-000922 90DF B0D4            000D4 15769    00630000  PROCPATH PROC  ,
 000926 58F0 C014/0DEF       00014 15779             +
 00092C D7D9D6C3D7C1E3C8           15781             +
 000934 98DF B0D4            000D4 15782             +
 000938 50E0 D000            00000 15785             +
 00093C 900C D004/188D       00004 15788             +
 000942 41D0 D038/0DA0       00038 15790             +
 000948 5820 B498            00498 15813    00631000           L     R2,TVTUPATH         Address of upath control
 USING  *,R10
 USING  UPATH,R2                   15814    00632000           WITH  (UPATH,R2),BEGIN    Addressability to UPATH
 00094C 1F00/BF03 2088       00088 15828  1 00633000             L2    R0,UPATSPST         LOAD POST FLAGS
 000952 90DF B0D4            000D4 15834  1 00634000             PTRACE Upatspst
 000956 58F0 C014/0DEF       00014 15837  1          +
 00095C E49781A3A297A2A3           15839  1          +
 000964 98DF B0D4            000D4 15840  1          +
 000968 9180 2088      00088       15841  1 00635000             IF    UPATSPST.UPATFCLS,BEGIN opened path has closed
 00096C 47E0 A04C            00994 15852  1          +
 000970 90DF B0D4            000D4 15857  2 00636000               PTRACE PCLOSED            Trace path closed
 000974 58F0 C014/0DEF       00014 15860  2          +
 00097A D7C3D3D6E2C5C440           15862  2          +
 000982 98DF B0D4            000D4 15863  2          +
 000986 947F B4D0      004D0       15864  2 00637000               CLEAR TPATOPEN            QSNAP DEBUG
 00098A 58E0 A220/0DEE       00B68 15871  2 00638000               ACALL SETPATH             Restart a fresh path
 000990 47F0 A1FC            00B44 15875  2 00639000               EXIT  PROCPATH            Return to main wait loop
 000994                            15878  1 00640000             END   ,
 000994 9108 2088      00088       15882  1 00641000             IF    UPATSPST.UPATFOPN,BEGIN fresh path open
 000998 47E0 A0CC            00A14 15893  1          +
 00099C 90DF B0D4            000D4 15898  2 00642000               PTRACE POPENED            Trace path opened
 0009A0 58F0 C014/0DEF       00014 15901  2          +
 0009A6 D7D6D7C5D5C5C440           15903  2          +
 0009AE 98DF B0D4            000D4 15904  2          +
 0009B2 9280 B4D0      004D0       15905  2 00643000               SET   (TPATOPEN,EQ)       Reset path flags
 0009B6 4110 0001            00001 15912  2 00644000               INCR  R1,TVTCNTPOPENS     TALLY A PATH OPEN
 0009BA 5E10 B1D0            001D0 15916  2          +
 0009BE 5010 B1D0            001D0 15917  2          +
 000BAD F7             00BAD 03E18 15918  2 00645000               CLEAR UPATSPST.UPATFOPN,MODE=LOCKED,REF=UPATH
 0009C2 41F0 0001/111F       00001 15939  2          +
 0009C8 89F0 0003            00003 15941  2          +
 0009CC 44F0 A266            00BAE 15943  2          +
 000BAE BF10 A265            00BAD 15950  2          +
 0009D0 58F0 2088/180F       00088 15958  2          +
 0009D6 1401/BAF0 2088       00088 15960  2          +
 0009DC 4770 A08C            009D4 15963  2          +
1DBMAIN   Wings: PROCPATH - Process path activity                                                                           Page   45
0Current Usings:  (UPATH,R2) (OSFCOMMN,R9) (*,R10) (TVT,R11) (GVT,R12)
0Loc    Object Code    Addr1 Addr2  Stmt Lv Lineno    Source Statement           (Hibal 5, Asmedit 3.3)  HLASM R4.0  2002/06/06 10.05
+___    ______ ____    _____ _____  ____ __ ______    ______ _________
00009E0 1812                       15964  2 00646000               LR    R1,R2               Set address of upath control
 0009E2 58E0 A224/0DEE       00B6C 15965  2 00647000               VCALL PATHINFO            Request path information
 0009E8 D202 B160 2031 00160 00031 15969  2 00648000               MVC   TVTUSER,UPATPACT+3  Requestor's userid (uuu)
 0009EE D201 B163 202E 00163 0002E 15970  2 00649000               MVC   TVTGROUP,UPATPACT   Requestor's group code (gg)
 0009F4 D201 B168 2024 00168 00024 15971  2 00650000               MVC   TVTLINE,UPATPLNO    Requestor's line number ml940330
 0009FA B205 B1C0      001C0       15972  2 00651000               STCK  TVTLRCLK            Save time stamp         ML940315
 0009FE 5800 B1C0            001C0 15973  2 00651100               L     R0,TVTLRCLK         time, left part
 000A02 5850 0010            00010 15974  2 00651200               L     R5,CVTPTR
 000A06 5E00 5130            00130 15975  2 00651300               WITH  (CVT,R5),'AL R0,CVTTZ'  Time zone adjustment
 USING  CVT,R5
 DROP   CVT,R5
 000A0A 5000 B1C0            001C0 15999  2 00651400               ST    R0,TVTLRCLK         save adjusted (local) time
 000A0E D203 B1C8 B1C0 001C8 001C0 16000  2 00652000               MVC   TVTLACLK,TVTLRCLK   Copy time stamp         ml940330
 000A14                            16001  1 00653000             END
 000A14 9120 2088      00088       16005  1 00654000             IF    UPATSPST.UPATFNI,BEGIN  New information processing
 000A18 47E0 A1FC            00B44 16016  1          +
 000A1C 90DF B0D4            000D4 16021  2 00655000               PTRACE PNEWINFO           Trace new information post
 000A20 58F0 C014/0DEF       00014 16024  2          +
 000A26 D7D5C5E6C9D5C6D6           16026  2          +
 000A2E 98DF B0D4            000D4 16027  2          +
 000BB2 DF             00BAD 03E18 16028  2 00656000               CLEAR UPATSPST.UPATFNI,MODE=LOCKED,REF=UPATH
 000A32 41F0 0001/111F       00001 16049  2          +
 000A38 89F0 0003            00003 16051  2          +
 000A3C 44F0 A26C            00BB4 16053  2          +
 000BB3 00/BF10 A26A         00BB2        2          +
 000A40 58F0 2088/180F       00088 16068  2          +
 000A46 1401/BAF0 2088       00088 16070  2          +
 000A4C 4770 A0FC            00A44 16073  2          +
 000A50 1812                       16074  2 00657000               LR    R1,R2               Set upath pointer
 000A52 58E0 A228/0DEE       00B70 16075  2 00658000               VCALL PATHREAD            Read buffer from partner
 000A58 90DF B0D4            000D4 16079  2 00659000               PTRACE AFTPATHR           R0=Length, R1=Address, R15=return
 000A5C 58F0 C014/0DEF       00014 16082  2          +
 000A62 C1C6E3D7C1E3C8D9           16084  2          +
 000A6A 98DF B0D4            000D4 16085  2          +
0000A6E 12FF/4770 A1FC       00B44 16087  2 00661000               WHILE (R15,Z),BEGIN       Process ALL data in buffer
 000A74 1820                       16103  3 00662000                 LR    R2,R0               Save length
 000A76 5830 B4A0            004A0 16104  3 00663000                 L     R3,TVTPATB2         Set to address
 000A7A 18F0                       16105  3 00664000                 LR    R15,R0                Save length
 000A7C 18E1                       16106  3 00665000                 LR    R14,R1                  Save address of data
 000A7E 1803                       16107  3 00666000                 LR    R0,R3                     Set move to address
 000A80 1812                       16108  3 00667000                 LR    R1,R2                       Set move to length
 000A82 0E0E                       16109  3 00668000                 MVCL  R0,R14                        Move to secondary buffer
0000A84 41F0 A3DC            00D24 16111  3 00670000                 LA    R15,CMDVECT         Address of command vector table
 000A88                            16112  3 00671000                 LOOP  BEGIN               Scan possible major commands
 000A88 58E0 F010            00010 16118  4 00672000                   L     R14,@R15+16         Load processing command address
 000A8C D50F F000 3000 00000 00000 16119  4 00673000                   CLC   @R15(16),@R3        Compare against passed request
 000A92 4770 A160            00AA8 16120  4 00674000                   IF    EQ,BEGIN            Found command processing routine
 000A96 4110 3000            00000 16131  5 00675000                     LA    R1,@R3              Start of message
 000A9A 4110 3010            00010 16132  5 00676000                     LA    R1,@R3+16           Skip past prefix
 000A9E 1802                       16133  5 00677000                     LR    R0,R2
 000AA0 4B00 A24C            00B94 16134  5 00678000                     SH    R0,=H'16'           Adjust length
 000AA4 05EE                       16135  5 00679000                     BALR  R14,R14             Don't change addressing mode
1DBMAIN   Wings: PROCPATH - Process path activity                                                                           Page   46
0Current Usings:  (UPATH,R2) (OSFCOMMN,R9) (*,R10) (TVT,R11) (GVT,R12)
0Loc    Object Code    Addr1 Addr2  Stmt Lv Lineno    Source Statement           (Hibal 5, Asmedit 3.3)  HLASM R4.0  2002/06/06 10.05
+___    ______ ____    _____ _____  ____ __ ______    ______ _________
0000AA6 1BEE                       16136  5 00680000                     CLEAR R14                 Terminate loop
 000AA8 A164           00AA8 00A94 16140  4 00681000                   END   ELSE,BEGIN
 000AA8 47F0 A1D2            00B1A 16149  4          +
 000AAC 12FF/4770 A1CE       00B16 16155  5 00682000                     IF    (R15,Z),BEGIN
 000AB2 5810 B49C            0049C 16169  6 00683000                       WINGSHDR SET,HEADER='FILE_ERROR:'
 000AB6 D20F 1000 A210 00000 00B58 16171  6          +
 000ABC 5810 B498            00498 16172  6          +
 000AC0 9608 1004      00004       16178  6          +
 000AC4 41F0 B50C            0050C 16179  6 00684000                       SEGCLR TVTSCB
 000AC8 58E0 A22C/0DEE       00B74 16190  6          +
 000ACE 4110 A230            00B78 16192  6 00685000                       SEGB  'ERRID=BADCMD'
 000AD2 4100 000C            0000C 16197  6          +
 000AD6 41F0 B50C            0050C 16205  6          +
 000ADA 58E0 A23C/0DEE       00B84 16208  6          +
 000AE0 1813/4100 0010       00010 16210  6 00686000                       SEGT  @R3,16
 000AE6 41F0 B50C            0050C 16235  6          +
 000AEA 58E0 A240/0DEE       00B88 16238  6          +
 000AF0 4110 A24E            00B96 16240  6 00687000                       SEG   ': INVALID WINGS COMMAND'
 000AF4 4100 0017            00017 16244  6          +
 000AF8 41F0 B50C            0050C 16252  6          +
 000AFC 58E0 A244/0DEE       00B8C 16255  6          +
 000B02 1B00/41F0 B50C       0050C 16257  6 00688000                       SEGWR ,
 000B08 58E0 A248/0DEE       00B90 16279  6          +
 000B0E 9630 B4D0      004D0       16281  6 00689000                       SET   TPATERR+TERRMSG
 000B12 47F0 92FE            0082E 16290  6 00690000                       B     CMDCLEAN            ABORT COMMAND
 000B16                            16291  5 00691000                     END   ,
 000B16 41F0 F014            00014 16295  5 00692000                     LA    R15,@R15+20         Bump to next major command
 000B1A                            16296  4 00693000                   END   ,
 000B1A 12EE/4770 A140       00A88 16300  3 00694000                 UNTIL (R14,Z),END         Loop back for next command
 000B20 5810 B498            00498 16322  3 00695000                 L     R1,TVTUPATH         Address of upath control
 000B24 58E0 A228/0DEE       00B70 16323  3 00696000                 VCALL PATHREAD            Read next transaction if any
 000B2A 90DF B0D4            000D4 16327  3 00697000                 PTRACE AFTPATHR
 000B2E 58F0 C014/0DEF       00014 16330  3          +
 000B34 C1C6E3D7C1E3C8D9           16332  3          +
 000B3C 98DF B0D4            000D4 16333  3          +
 000B40 47F0 A126            00A6E 16334  2 00698000               END   ,
 000B44                            16339  1 00699000             END   ,
 DROP   UPATH,R2                   16343    00700000           END   ,
 000B44 18D8/980C D004       00004 16351    00701000           PEND  ,
 DROP   *,R10
 000B4A 58E0 D000/12FF       00000 16367             +
 000B50 07FE                       16370             +
                                   16371    00702000
                                   16372    00703000           QLTORG
1DBMAIN   Wings: PROCPATH - Process path activity                                                                           Page   47
0Current Usings:  (OSFCOMMN,R9) (TVT,R11) (GVT,R12)
0Loc    Object Code    Addr1 Addr2  Stmt Lv Lineno    Source Statement           (Hibal 5, Asmedit 3.3)  HLASM R4.0  2002/06/06 10.05
+___    ______ ____    _____ _____  ____ __ ______    ______ _________
0                                  16397    00705000           SEGDEF TVTSCB
                                   16398    00706000  *
                                   16399    00707000  *  DODEBUG
                                   16400    00708000  *
                                   16401    00709000  *  NOTIFY TERMINAL PATH THAT DEBUG INTERRUPT OR TRAP
                                   16402    00710000  *  HAS OCCURRED.
                                   16403    00711000  *
                                   16404    00712000  *
 000BB8 90DF B0D4            000D4 16405    00713000  DODEBUG  PROC
 000BBC 58F0 C014/0DEF       00014 16415             +
 000BC2 C4D6C4C5C2E4C740           16417             +
 000BCA 98DF B0D4            000D4 16418             +
 000BCE 50E0 D000            00000 16421             +
 000BD2 900C D004/188D       00004 16424             +
 000BD8 41D0 D038/0DA0       00038 16426             +
 000BDE 4160 C208            00208 16449    00714000           LA    R6,GVTDVWA
 USING  *,R10
 USING  DVWA,R6                    16450    00715000           USING DVWA,R6
                                   16459    00716000  *
                                   16460    00717000  *                                  DO SOME CHECKS
                                   16461    00718000  *                                  CHECK THAT WE ARE DEBUGGER
 000BE2 58E0 A0FA/0DEE       00CD8 16462    00719000           ACALL CHKDBGER
 000BE8 4780 A010            00BEE 16466    00720000           IF    NZ,BEGIN
 000BEC 0000                       16477  1 00721000             BOMB
 000BEE                            16479    00722000           END
                                   16483    00723000  *                                  PATH TO TERMINAL MUST BE OPEN
 000BEE 9180 B4D0      004D0       16484    00724000           IF    ~TPATOPEN,BEGIN
 000BF2 4710 A01A            00BF8 16494             +
 000BF6 0000                       16499  1 00725000             BOMB
 000BF8                            16501    00726000           END
                                   16505    00727000  *
                                   16506    00728000  *                                  GET FAILED INSTRUCTION ADDR
 000BF8 5850 601C            0001C 16507    00729000           L     R5,DVEPIEP
 USING  EPIE,R5                    16508    00730000           USING EPIE,R5
 000BFC 4100 6000            00000 16517    00731000           LA    R0,DVWA
 000C00 5810 504C            0004C 16518    00732000           GETIA R1,EPIEPSW
 000C04 4111 0000            00000 16520             +
 000C08 58E0 A0FE/0DEE       00CDC 16521    00733000           VCALL FINDTRAP
 000C0E 4770 A070            00C4E 16525    00734000           IF    (Z,AND,~DVFIRUPT),BEGIN
 000C12 9140 6018      00018       16544             +
 000C16 4710 A070            00C4E 16545             +
 000C1A 4110 A102            00CE0 16550  1 00735000             SEG   'Trap hit at '
 000C1E 4100 000C            0000C 16554  1          +
 000C22 41F0 B50C            0050C 16562  1          +
 000C26 58E0 A10E/0DEE       00CEC 16565  1          +
 000C2C 5810 504C            0004C 16567  1 00736000             GETIA R1,EPIEPSW
 000C30 4111 0000            00000 16569  1          +
 000C34 5820 6020            00020 16570  1 00737000             L     R2,DVSYMP
 000C38 58F0 B468            00468 16571  1 00738000             L     R15,TVDBSEGP
 000C3C 58E0 A112/0DEE       00CF0 16572  1 00739000             VCALL SEGSYMAD
 000C42 1B00/41F0 B50C       0050C 16576  1 00740000             SEGWR
 000C48 58E0 A116/0DEE       00CF4 16598  1          +
 000C4E                            16600    00741000           END
 000C4E A074           00C4E 00C10 16604    00742000           ELSE  BEGIN
1DBMAIN   Wings: PROCPATH - Process path activity                                                                           Page   48
0Current Usings:  (EPIE,R5) (DVWA,R6) (OSFCOMMN,R9) (*,R10) (TVT,R11) (GVT,R12)
0Loc    Object Code    Addr1 Addr2  Stmt Lv Lineno    Source Statement           (Hibal 5, Asmedit 3.3)  HLASM R4.0  2002/06/06 10.05
+___    ______ ____    _____ _____  ____ __ ______    ______ _________
0000C18 A074           00C1A 00C4E 16609             +
 000C4E 47F0 A0D2            00CB0 16611             +
 000C52 4110 A126            00D04 16617  1 00743000             SEG   'Program check '
 000C56 4100 000E            0000E 16621  1          +
 000C5A 41F0 B50C            0050C 16629  1          +
 000C5E 58E0 A10E/0DEE       00CEC 16632  1          +
 000C64 5830 5050            00050 16634  1 00744000             L     R3,EPIEINT
 000C68 5430 A11A            00CF8 16635  1 00745000             N     R3,=X'0000FFFF'
 000C6C 1813/4100 0004       00004 16636  1 00746000             SEGHX (R3),4
 000C72 41F0 B50C            0050C 16655  1          +
 000C76 58E0 A11E/0DEE       00CFC 16658  1          +
 000C7C 4110 A122            00D00 16660  1 00747000             SEG   ' at '
 000C80 4100 0004            00004 16664  1          +
 000C84 41F0 B50C            0050C 16672  1          +
 000C88 58E0 A10E/0DEE       00CEC 16675  1          +
 000C8E 5810 504C            0004C 16677  1 00748000             GETIA R1,EPIEPSW
 000C92 4111 0000            00000 16679  1          +
 000C96 5820 6020            00020 16680  1 00749000             L     R2,DVSYMP
 000C9A 58F0 B468            00468 16681  1 00750000             L     R15,TVDBSEGP
 000C9E 58E0 A112/0DEE       00CF0 16682  1 00751000             VCALL SEGSYMAD
 000CA4 1B00/41F0 B50C       0050C 16686  1 00752000             SEGWR
 000CAA 58E0 A116/0DEE       00CF4 16708  1          +
 000CB0                            16710    00753000           END
                                   16714    00754000  *
                                   16715    00755000  *                                  SEND END OF MSG
 000CB0 4110 A134            00D12 16716    00756000           SEGWR 'EOF:             '
 000CB4 4100 0011            00011 16721             +
 000CB8 41F0 B50C            0050C 16729             +
 000CBC 58E0 A116/0DEE       00CF4 16732             +
                                   16734    00757000  *
                                   16735    00758000  *                                  SET/CLEAR APPROPRIATE FLAGS
 000CC2 9680 B48C      0048C       16736    00759000           SET   TVDBFBRK
 000CC6 94BF 6018      00018       16742    00760000           CLEAR DVFIRUPT
                                   16749    00761000
 000CCA 18D8/980C D004       00004 16750    00762000           PEND
 DROP   *,R10
 000CD0 58E0 D000/12FF       00000 16766             +
 000CD6 07FE                       16769             +
 DROP   EPIE,R5                    16770    00763000           DROP  R5
 DROP   DVWA,R6                    16777    00764000           DROP  R6
                                   16784    00765000
                                   16785    00766000           QLTORG
1DBMAIN   Debug: Commands                                                                                                   Page   49
0Current Usings:  (OSFCOMMN,R9) (TVT,R11) (GVT,R12)
0Loc    Object Code    Addr1 Addr2  Stmt Lv Lineno    Source Statement           (Hibal 5, Asmedit 3.3)  HLASM R4.0  2002/06/06 10.05
+___    ______ ____    _____ _____  ____ __ ______    ______ _________
0                                  16809    00768000  ¿þþþþþþþþþþþþþþþþþþþþþþþþþþþþþþþþþþþþþþþþþþþþþþþþþþþþþþþþþþþþþþþþþþþþþÜ
                                   16810    00769000  Ÿ                                                                     Ÿ
                                   16811    00770000  Ÿ   WINGS - Major command vector table:                               Ÿ
                                   16812    00771000  Ÿ                                                                     Ÿ
                                                      ¾þþþþþþþþþþþþþþþþþþþþþþþþþþþþþþþþþþþþþþþþþþþþþþþþþþþþþþþþþþþþþþþþþþþþþ»
-000D23 00
 000D24                            16814    00773000  CMDVECT  DC    0A(0)               Command vector table
 000D24                            16815    00774000           CMDVECT COMMAND='DEBUG_COMMAND:  ',ROUT=CMDS
 000D24 C4C5C2E4C76DC3D6           16816             +
 000D38                            16817    00775000           CMDVECT ,                 Terminate command vector list
 000D38 4040404040404040           16818             +
                                   16819    00776000
1DBMAIN   Debug: Commands                                                                                                   Page   50
0Current Usings:  (OSFCOMMN,R9) (TVT,R11) (GVT,R12)
0Loc    Object Code    Addr1 Addr2  Stmt Lv Lineno    Source Statement           (Hibal 5, Asmedit 3.3)  HLASM R4.0  2002/06/06 10.05
+___    ______ ____    _____ _____  ____ __ ______    ______ _________
0                                  16821    00778000  *
                                   16822    00779000  *  PROCESS DEBUG COMMANDS
                                   16823    00780000  *
                                   16824    00781000  *  ON ENTRY: R1,R0 CMD LOCATION LENGTH
                                   16825    00782000  *            R15 - SEGCB PTR (NOT YET)
                                   16826    00783000  *
                                   16827    00784000  *
 000D4C 90DF B0D4            000D4 16828    00785000  CMDS     CPROC
 000D50 58F0 C014/0DEF       00014 16839             +
 000D56 C3D4C4E240404040           16841             +
 000D5E 98DF B0D4            000D4 16842             +
 000D62 50E0 D000            00000 16845             +
 000D66 900C D004/188D       00004 16848             +
 000D6C 41D0 D038/0DA0       00038 16850             +
 000D72 5080 B5C4            005C4 16873             +*
 USING  *,R10
                                   16875    00786000  *
 000D76 5000 B464            00464 16876    00787000           ST    R0,TVDBCLEN
 000D7A 5010 B460            00460 16877    00788000           ST    R1,TVDBCLOC
 000D7E 41F0 B50C            0050C 16878    00789000           LA    R15,TVTSCB          PATH SEG CONTROL BLOCK
 000D82 50F0 B468            00468 16879    00790000           ST    R15,TVDBSEGP
                                   16880    00791000           SEGDEF L:TVDBSEGP
                                   16881    00792000
 000D86 41F0 0001            00001 16882    00793000           INCR  R15,TVTCNTREQ
 000D8A 5EF0 B1D8            001D8 16886             +
 000D8E 50F0 B1D8            001D8 16887             +
                                   16888    00794000  *
                                   16889    00795000  *
 000D92 58E0 A2B6/0DEE       01028 16890    00796000           ACALL CHKDEBUG
                                   16894    00797000  *
                                   16895    00798000  *                                  IF DEBUGGER, PROCESS DEBUG CMDS
 000D98 58E0 A2BA/0DEE       0102C 16896    00799000           ACALL CHKDBGER
 000D9E 4770 A074            00DE6 16900    00800000           IF    Z,BEGIN
 000DA2 58E0 A2BE/0DEE       01030 16911  1 00801000             ACALL SETDEBUG
 000DA8 41F0 B46C            0046C 16915  1 00802000             SCINIT (R1),(R0),TVDBSCNCB
 000DAC 58E0 A2C2/0DEE       01034 16933  1          +
 000DB2 4110 A0DC            00E4E 16935  1 00803000             SCAN  DBCMDPRT,TVDBSCNCB
 000DB6 41F0 B46C            0046C 16949  1          +
 000DBA 58E0 A2C6/0DEE       01038 16952  1          +
 000DC0 47B0 A074            00DE6 16954  1 00804000             IF    M,BEGIN
 000DC4 1300                       16965  2 00805000               LCR   R0,R0
 000DC6 58F0 B468            00468 16966  2 00806000               SEG   (R1),(R0)
 000DCA 58E0 A2CA/0DEE       0103C 16985  2          +
 000DD0 4110 A2D6            01048 16987  2 00807000               SEGWR ': invalid.'
 000DD4 4100 000A            0000A 16992  2          +
 000DD8 58F0 B468            00468 16998  2          +
 000DDC 58E0 A2CE/0DEE       01040 17001  2          +
 000DE2 47F0 A0BC            00E2E 17003  2 00808000               B     CMDSEXIT
 000DE6                            17004  1 00809000             END
 000DE6                            17008    00810000           END
                                   17012    00811000  *
                                   17013    00812000  *                                  IF NOT DEBUGGER,
                                   17014    00813000  *                                    PROCESS MONITOR COMMANDS
 000DE6 A078           00DE6 00DA0 17015    00814000           ELSE  BEGIN
1DBMAIN   Debug: Commands                                                                                                   Page   51
0Current Usings:  (OSFCOMMN,R9) (*,R10) (TVT,R11) (GVT,R12)
0Loc    Object Code    Addr1 Addr2  Stmt Lv Lineno    Source Statement           (Hibal 5, Asmedit 3.3)  HLASM R4.0  2002/06/06 10.05
+___    ______ ____    _____ _____  ____ __ ______    ______ _________
0000DE6 47F0 A0BC            00E2E 17020             +
 000DEA 58E0 A2D2/0DEE       01044 17026  1 00815000             ACALL SETMON
 000DF0 41F0 B46C            0046C 17030  1 00816000             SCINIT (R1),(R0),TVDBSCNCB
 000DF4 58E0 A2C2/0DEE       01034 17048  1          +
 000DFA 4110 A1CC            00F3E 17050  1 00817000             SCAN  MONPRT,TVDBSCNCB
 000DFE 41F0 B46C            0046C 17064  1          +
 000E02 58E0 A2C6/0DEE       01038 17067  1          +
 000E08 47B0 A0BC            00E2E 17069  1 00818000             IF    M,BEGIN
 000E0C 1300                       17080  2 00819000               LCR   R0,R0
 000E0E 58F0 B468            00468 17081  2 00820000               SEG   (R1),(R0)
 000E12 58E0 A2CA/0DEE       0103C 17100  2          +
 000E18 4110 A2D6            01048 17102  2 00821000               SEGWR ': invalid.'
 000E1C 4100 000A            0000A 17107  2          +
 000E20 58F0 B468            00468 17113  2          +
 000E24 58E0 A2CE/0DEE       01040 17116  2          +
 000E2A 47F0 A0BC            00E2E 17118  2 00822000               B     CMDSEXIT
 000E2E                            17119  1 00823000             END
 000E2E                            17123    00824000           END
                                   17127    00825000
 000E2E                            17128    00826000  CMDSEXIT LABEL ,
 000E2E 4110 A2E0            01052 17130    00827000           SEGWR 'EOF:             '
 000E32 4100 0011            00011 17135             +
 000E36 58F0 B468            00468 17141             +
 000E3A 58E0 A2CE/0DEE       01040 17144             +
 000E40 18D8/980C D004       00004 17146    00828000           PEND
 DROP   *,R10
 000E46 58E0 D000/12FF       00000 17162             +
 000E4C 07FE                       17165             +
1DBMAIN   Debug: Commands                                                                                                   Page   52
0Current Usings:  (OSFCOMMN,R9) (TVT,R11) (GVT,R12)
0Loc    Object Code    Addr1 Addr2  Stmt Lv Lineno    Source Statement           (Hibal 5, Asmedit 3.3)  HLASM R4.0  2002/06/06 10.05
+___    ______ ____    _____ _____  ____ __ ______    ______ _________
0                                  17167    00830000  *
                                   17168    00831000  *  DEBUG CMDS
                                   17169    00832000  *
 000E4E                            17170    00833000  DBCMDPRT SCKW  HELP,HELP,A         HELP
 000E4E 0B001064C8C5D3D7           17171             +
 000E56 000010646F                 17172    00834000           SCKW  ?,HELP
                                   17174    00835000
 000E5B                            17175    00836000           SCKW  DEBUG,CMDDEBUG,A    DEBUG COMMANDS
 000E5B 0C00164AC4C5C2E4           17176             +
 000E64                            17177    00837000           SCKW  QUIT,CMDQUIT
 000E64 030017F4D8E4C9E3           17178             +
 000E6C 010018D0E2C4               17179    00838000           SCKW  SD,CMDSD
 000E72 0100192CE2C9               17181    00839000           SCKW  SI,CMDSI
 000E78 010019A8E2C3               17183    00840000           SCKW  SC,CMDSC
 000E7E 01001A8AE2F9               17185    00841000           SCKW  S9,CMDS9
 000E84 01001B40C4C3               17187    00842000           SCKW  DC,CMDDC
 000E8A 01001C22E2C7               17189    00843000           SCKW  SG,CMDSG
 000E90 01001CE8E2D7               17191    00844000           SCKW  SP,CMDSP
 000E96 01001DE2E2C1               17193    00845000           SCKW  SA,CMDSA
 000E9C 01001EC4E2E2               17195    00846000           SCKW  SS,CMDSS
 000EA2 010021F0D7C3               17197    00847000           SCKW  PC,CMDPC
 000EA8 010022D2D7C7               17199    00848000           SCKW  PG,CMDPG
 000EAE                            17201    00849000           SCKW  PIA,CMDPIA
 000EAE 02002398D7C9C1             17202             +
 000EB5 000024EEC7                 17203    00850000           SCKW  G,CMDGO
 000EBA 010024EEC7D6               17205    00851000           SCKW  GO,CMDGO
 000EC0                            17207    00852000           SCKW  GOTO,CMDGOTO
 000EC0 0300259CC7D6E3D6           17208             +
 000EC8 0100267CE2E3               17209    00853000           SCKW  ST,CMDST
 000ECE                            17211    00854000           SCKW  STS,CMDSTS
 000ECE 02002754E2E3E2             17212             +
 000ED5 0100282CC3E3               17213    00855000           SCKW  CT,CMDCT
 000EDB                            17215    00856000           SCKW  CTS,CMDCTS
 000EDB 02002904C3E3E2             17216             +
                                   17217    00857000
 000EE2                            17218    00858000           SCKW  MONITOR,MONCMD,A    MONITOR COMMANDS
 000EE2 0E002AA0D4D6D5C9           17219             +
 000EED                            17220    00859000           SCKW  DEFINE,MONPASS,A
 000EED 0D002A32C4C5C6C9           17221             +
 000EF7                            17222    00860000           SCKW  START,MONPASS,A
 000EF7 0C002A32E2E3C1D9           17223             +
 000F00                            17224    00861000           SCKW  STOP,MONPASS,A
 000F00 0B002A32E2E3D6D7           17225             +
 000F08                            17226    00862000           SCKW  CANCEL,MONPASS,A
 000F08 0D002A32C3C1D5C3           17227             +
 000F12                            17228    00863000           SCKW  SUSPEND,MONPASS,A
 000F12 0E002A32E2E4E2D7           17229             +
 000F1D                            17230    00864000           SCKW  RESUME,MONPASS,A
 000F1D 0D002A32D9C5E2E4           17231             +
 000F27                            17232    00865000           SCKW  STATUS,MONPASS,A
 000F27 0D002A32E2E3C1E3           17233             +
 000F31                            17234    00866000           SCKW  TRACE,MONPASS,A                             ML940330
 000F31 0C002A32E3D9C1C3           17235             +
                                   17236    00867000
1DBMAIN   Debug: Commands                                                                                                   Page   53
0Current Usings:  (OSFCOMMN,R9) (TVT,R11) (GVT,R12)
0Loc    Object Code    Addr1 Addr2  Stmt Lv Lineno    Source Statement           (Hibal 5, Asmedit 3.3)  HLASM R4.0  2002/06/06 10.05
+___    ______ ____    _____ _____  ____ __ ______    ______ _________
0000F3A FF002C12                   17237    00868000           SCKW  ,BADCMD
                                   17239    00869000  *
                                   17240    00870000  *  MONITOR CMDS
                                   17241    00871000  *
 000F3E                            17242    00872000  MONPRT   SCKW  HELP,HELP,A         HELP
 000F3E 0B001064C8C5D3D7           17243             +
 000F46 000010646F                 17244    00873000           SCKW  ?,HELP
                                   17246    00874000
 000F4B                            17247    00875000           SCKW  DEBUG,CMDDEBUG,A    DEBUG COMMANDS
 000F4B 0C00164AC4C5C2E4           17248             +
 000F54                            17249    00876000           SCKW  QUIT,MONQUIT
 000F54 03001246D8E4C9E3           17250             +
 000F5C 010018D0E2C4               17251    00877000           SCKW  SD,CMDSD
 000F62 0100192CE2C9               17253    00878000           SCKW  SI,CMDSI
 000F68 01002CF6E2C3               17255    00879000           SCKW  SC,NOTDEBUG
 000F6E 01002CF6C4C3               17257    00880000           SCKW  DC,NOTDEBUG
 000F74 01002CF6E2C7               17259    00881000           SCKW  SG,NOTDEBUG
 000F7A 01002CF6E2D7               17261    00882000           SCKW  SP,NOTDEBUG
 000F80 01002CF6E2C1               17263    00883000           SCKW  SA,NOTDEBUG
 000F86 01002CF6E2E2               17265    00884000           SCKW  SS,NOTDEBUG
 000F8C 01002CF6D7C3               17267    00885000           SCKW  PC,NOTDEBUG
 000F92 01002CF6D7C7               17269    00886000           SCKW  PG,NOTDEBUG
 000F98                            17271    00887000           SCKW  PIA,NOTDEBUG
 000F98 02002CF6D7C9C1             17272             +
 000F9F 00002CF6C7                 17273    00888000           SCKW  G,NOTDEBUG
 000FA4 01002CF6C7D6               17275    00889000           SCKW  GO,NOTDEBUG
 000FAA                            17277    00890000           SCKW  GOTO,NOTDEBUG
 000FAA 03002CF6C7D6E3D6           17278             +
 000FB2 01002CF6E2E3               17279    00891000           SCKW  ST,NOTDEBUG
 000FB8                            17281    00892000           SCKW  STS,NOTDEBUG
 000FB8 02002CF6E2E3E2             17282             +
 000FBF 01002CF6C3E3               17283    00893000           SCKW  CT,NOTDEBUG
 000FC5                            17285    00894000           SCKW  CTS,NOTDEBUG
 000FC5 02002CF6C3E3E2             17286             +
                                   17287    00895000
 000FCC                            17288    00896000           SCKW  MONITOR,MONCMD,A    MONITOR COMMANDS
 000FCC 0E002AA0D4D6D5C9           17289             +
 000FD7                            17290    00897000           SCKW  DEFINE,MONPASS,A
 000FD7 0D002A32C4C5C6C9           17291             +
 000FE1                            17292    00898000           SCKW  START,MONPASS,A
 000FE1 0C002A32E2E3C1D9           17293             +
 000FEA                            17294    00899000           SCKW  STOP,MONPASS,A
 000FEA 0B002A32E2E3D6D7           17295             +
 000FF2                            17296    00900000           SCKW  CANCEL,MONPASS,A
 000FF2 0D002A32C3C1D5C3           17297             +
 000FFC                            17298    00901000           SCKW  SUSPEND,MONPASS,A
 000FFC 0E002A32E2E4E2D7           17299             +
 001007                            17300    00902000           SCKW  RESUME,MONPASS,A
 001007 0D002A32D9C5E2E4           17301             +
 001011                            17302    00903000           SCKW  STATUS,MONPASS,A
 001011 0D002A32E2E3C1E3           17303             +
 00101B                            17304    00904000           SCKW  TRACE,MONPASS,A                             ML940330
 00101B 0C002A32E3D9C1C3           17305             +
                                   17306    00905000
1DBMAIN   Debug: Commands                                                                                                   Page   54
0Current Usings:  (OSFCOMMN,R9) (TVT,R11) (GVT,R12)
0Loc    Object Code    Addr1 Addr2  Stmt Lv Lineno    Source Statement           (Hibal 5, Asmedit 3.3)  HLASM R4.0  2002/06/06 10.05
+___    ______ ____    _____ _____  ____ __ ______    ______ _________
0001024 FF002C12                   17307    00906000           SCKW  ,BADCMD
                                   17309    00907000
                                   17310    00908000           QLTORG
1DBMAIN   Debug: Commands                                                                                                   Page   55
0Current Usings:  (OSFCOMMN,R9) (TVT,R11) (GVT,R12)
0Loc    Object Code    Addr1 Addr2  Stmt Lv Lineno    Source Statement           (Hibal 5, Asmedit 3.3)  HLASM R4.0  2002/06/06 10.05
+___    ______ ____    _____ _____  ____ __ ______    ______ _________
0                                  17333    00910000  *
                                   17334    00911000  *
                                   17335    00912000  *
 001064 90DF B0D4            000D4 17336    00913000  HELP     PROC
 001068 58F0 C014/0DEF       00014 17346             +
 00106E C8C5D3D740404040           17348             +
 001076 98DF B0D4            000D4 17349             +
 00107A 50E0 D000            00000 17352             +
 00107E 900C D004/188D       00004 17355             +
 001084 41D0 D038/0DA0       00038 17357             +
 00108A 50F0 D000            00000 17380    00914000           SCPUSH
 USING  *,R10
 00108E D203 D004 B480 00004 00480 17382             +
 001094 41DD 0008            00008 17383             +
                                   17384    00915000
 001098 4110 A3E0            0146A 17385    00916000   SEGWR 'Debug commands:'
 00109C 4100 000F            0000F 17390             +
 0010A0 58F0 B468            00468 17396             +
 0010A4 58E0 A286/0DEE       01310 17399             +
 0010AA 4110 A3EF            01479 17401    00917000   SEGWR '   DEBUG <task-name>  - become debugger'
 0010AE 4100 0027            00027 17406             +
 0010B2 58F0 B468            00468 17412             +
 0010B6 58E0 A286/0DEE       01310 17415             +
 0010BC 4110 A416            014A0 17417    00918000   SEGWR '   SI  show info    SD   show debug    QUIT debugging'
 0010C0 4100 0035            00035 17422             +
 0010C4 58F0 B468            00468 17428             +
 0010C8 58E0 A286/0DEE       01310 17431             +
 0010CE 4110 A44B            014D5 17433    00919000   SEGWR '   SC  show core    SA   show address  SP  show psw'
 0010D2 4100 0033            00033 17438             +
 0010D6 58F0 B468            00468 17444             +
 0010DA 58E0 A286/0DEE       01310 17447             +
 0010E0 4110 A47E            01508 17449    00920000   SEGWR '   DC  disassemble  SG   show GPR      SS  show symbols'
 0010E4 4100 0037            00037 17454             +
 0010E8 58F0 B468            00468 17460             +
 0010EC 58E0 A286/0DEE       01310 17463             +
 0010F2 4110 A4B5            0153F 17465    00921000   SEGWR '   PC  patch core   PG   patch GPR     PIA patch IA'
 0010F6 4100 0033            00033 17470             +
 0010FA 58F0 B468            00468 17476             +
 0010FE 58E0 A286/0DEE       01310 17479             +
 001104 4110 A4E8            01572 17481    00922000   SEGWR '   GO  resume       GOTO resume @loc   ST  set trap'
 001108 4100 0033            00033 17486             +
 00110C 58F0 B468            00468 17492             +
 001110 58E0 A286/0DEE       01310 17495             +
 001116 4110 A2F6            01380 17497    00923000   SEGWR '   STS show traps   CT   clear trap    CTS clear all traps'
 00111A 4100 003A            0003A 17502             +
 00111E 58F0 B468            00468 17508             +
 001122 58E0 A286/0DEE       01310 17511             +
 001128 4110 A330            013BA 17513    00924000   SEGWR '   S9  show SVC99 info                                    '
 00112C 4100 003A            0003A 17518             +
 001130 58F0 B468            00468 17524             +
 001134 58E0 A286/0DEE       01310 17527             +
 00113A 4110 A36A            013F4 17529    00925000   SEGWR '   MONITOR <command> - pass command to monitor'
 00113E 4100 002E            0002E 17534             +
 001142 58F0 B468            00468 17540             +
1DBMAIN   Debug: Commands                                                                                                   Page   56
0Current Usings:  (OSFCOMMN,R9) (*,R10) (TVT,R11) (GVT,R12)
0Loc    Object Code    Addr1 Addr2  Stmt Lv Lineno    Source Statement           (Hibal 5, Asmedit 3.3)  HLASM R4.0  2002/06/06 10.05
+___    ______ ____    _____ _____  ____ __ ______    ______ _________
0001146 58E0 A286/0DEE       01310 17543             +
 00114C 4110 A51B            015A5 17545    00926000   SEGWR ' '
 001150 4100 0001            00001 17550             +
 001154 58F0 B468            00468 17556             +
 001158 58E0 A286/0DEE       01310 17559             +
 00115E 4110 A51C            015A6 17561    00927000   SEGWR 'Monitor commands:'
 001162 4100 0011            00011 17566             +
 001166 58F0 B468            00468 17572             +
 00116A 58E0 A286/0DEE       01310 17575             +
 001170 4110 A398            01422 17577    00928000   SEGWR '   DEFINE <task-name> MODULE <module-name> ...'
 001174 4100 002E            0002E 17582             +
 001178 58F0 B468            00468 17588             +
 00117C 58E0 A286/0DEE       01310 17591             +
 001182 4110 A3C6            01450 17593    00929000   SEGWR '   START <task-name> | ALL'
 001186 4100 001A            0001A 17598             +
 00118A 58F0 B468            00468 17604             +
 00118E 58E0 A286/0DEE       01310 17607             +
 001194 4110 A52D            015B7 17609    00930000   SEGWR '   similarly STOP, CANCEL, SUSPEND, RESUME, STATUS, TRACE'
 001198 4100 0039            00039 17614             +
 00119C 58F0 B468            00468 17620             +
 0011A0 58E0 A286/0DEE       01310 17623             +
 0011A6 4110 A566            015F0 17625    00931000   SEGWR '   MONITOR SC <task-name> <address>'
 0011AA 4100 0023            00023 17630             +
 0011AE 58F0 B468            00468 17636             +
 0011B2 58E0 A286/0DEE       01310 17639             +
 0011B8 4110 A216            012A0 17641    00932000   SEGWR '   similarly SA (show addres), DC (disassemble core), PC'
 0011BC 4100 0038            00038 17646             +
 0011C0 58F0 B468            00468 17652             +
 0011C4 58E0 A286/0DEE       01310 17655             +
 0011CA 4110 A51B            015A5 17657    00933000   SEGWR ' '
 0011CE 4100 0001            00001 17662             +
 0011D2 58F0 B468            00468 17668             +
 0011D6 58E0 A286/0DEE       01310 17671             +
 0011DC 4110 A28A            01314 17673    00934000   SEGWR 'Note: To issue debug commands, you must become the debugger.'
 0011E0 4100 003C            0003C 17678             +
 0011E4 58F0 B468            00468 17684             +
 0011E8 58E0 A286/0DEE       01310 17687             +
 0011EE 4110 A24E            012D8 17689    00935000   SEGWR '   (Only one debugger/debuggee subtask pair is allowed.)'
 0011F2 4100 0038            00038 17694             +
 0011F6 58F0 B468            00468 17700             +
 0011FA 58E0 A286/0DEE       01310 17703             +
 001200 4110 A589            01613 17705    00936000   SEGWR '   Monitor commands are valid at all times.  DEBUG, SI,'
 001204 4100 0037            00037 17710             +
 001208 58F0 B468            00468 17716             +
 00120C 58E0 A286/0DEE       01310 17719             +
 001212 4110 A2C6            01350 17721    00937000   SEGWR '   SD, QUIT commands are valid at all times.'
 001216 4100 002C            0002C 17726             +
 00121A 58F0 B468            00468 17732             +
 00121E 58E0 A286/0DEE       01310 17735             +
                                   17737    00938000
 001224                            17738    00939000           CLEAR TVDBSCNLEN
 001224 D703 B478 B478 00478 00478 17744             +
 00122A 5BD0 A2F2            0137C 17745    00940000           SCPOP
 00122E 58F0 D000            00000 17747             +
1DBMAIN   Debug: Commands                                                                                                   Page   57
0Current Usings:  (OSFCOMMN,R9) (*,R10) (TVT,R11) (GVT,R12)
0Loc    Object Code    Addr1 Addr2  Stmt Lv Lineno    Source Statement           (Hibal 5, Asmedit 3.3)  HLASM R4.0  2002/06/06 10.05
+___    ______ ____    _____ _____  ____ __ ______    ______ _________
0001232 D203 B480 D004 00480 00004 17748             +
 001238 18D8/980C D004       00004 17749    00941000           PEND
 DROP   *,R10
 00123E 58E0 D000/12FF       00000 17765             +
 001244 07FE                       17768             +
                                   17769    00942000
 001246 90DF B0D4            000D4 17770    00943000  MONQUIT  PROC
 00124A 58F0 C014/0DEF       00014 17780             +
 001250 D4D6D5D8E4C9E340           17782             +
 001258 98DF B0D4            000D4 17783             +
 00125C 50E0 D000            00000 17786             +
 001260 900C D004/188D       00004 17789             +
 001266 41D0 D038/0DA0       00038 17791             +
 00126C 50F0 D000            00000 17814    00944000           SCPUSH
 USING  *,R10
 001270 D203 D004 B480 00004 00480 17816             +
 001276 41DD 0008            00008 17817             +
 00127A                            17818    00945000           CLEAR TVDBSCNLEN
 00127A D703 B478 B478 00478 00478 17824             +
 001280 5BD0 A110            0137C 17825    00946000           SCPOP
 001284 58F0 D000            00000 17827             +
 001288 D203 B480 D004 00480 00004 17828             +
 00128E 18D8/980C D004       00004 17829    00947000           PEND
 DROP   *,R10
 001294 58E0 D000/12FF       00000 17845             +
 00129A 07FE                       17848             +
                                   17849    00948000
                                   17850    00949000           QLTORG
1DBMAIN   Debug: Commands                                                                                                   Page   58
0Current Usings:  (OSFCOMMN,R9) (TVT,R11) (GVT,R12)
0Loc    Object Code    Addr1 Addr2  Stmt Lv Lineno    Source Statement           (Hibal 5, Asmedit 3.3)  HLASM R4.0  2002/06/06 10.05
+___    ______ ____    _____ _____  ____ __ ______    ______ _________
0                                  17886    00951000  *
                                   17887    00952000  *  DEBUG <task>
                                   17888    00953000  *
                                   17889    00954000  *
 00164A 90DF B0D4            000D4 17890    00955000  CMDDEBUG PROC
 00164E 58F0 C014/0DEF       00014 17900             +
 001654 C3D4C4C4C5C2E4C7           17902             +
 00165C 98DF B0D4            000D4 17903             +
 001660 50E0 D000            00000 17906             +
 001664 900C D004/188D       00004 17909             +
 00166A 41D0 D038/0DA0       00038 17911             +
 001670 50F0 D000            00000 17934    00956000           SCPUSH
 USING  *,R10
 001674 D203 D004 B480 00004 00480 17936             +
 00167A 41DD 0008            00008 17937             +
                                   17938    00957000  *
                                   17939    00958000  *                                  LOOK FOR ANY DEAD DEBUGGEE/ER
 00167E 58E0 A980/0DEE       01FF0 17940    00959000           ACALL CHKDEBUG
                                   17944    00960000  *
                                   17945    00961000  *                                  SCAN TASK NAME
 001684 1B11/41F0 B46C       0046C 17946    00962000           SCAN  ,TVDBSCNCB
 00168A 58E0 A984/0DEE       01FF4 17960             +
 001690 47B0 A046            016B6 17962    00963000           IF    M,BEGIN
 001694 1300                       17973  1 00964000             LCR   R0,R0
 001696 58F0 B468            00468 17974  1 00965000             SEG   (R1),(R0)
 00169A 58E0 A988/0DEE       01FF8 17993  1          +
 0016A0 4110 AA70            020E0 17995  1 00966000             SEGWR ': invalid.'
 0016A4 4100 000A            0000A 18000  1          +
 0016A8 58F0 B468            00468 18006  1          +
 0016AC 58E0 A98C/0DEE       01FFC 18009  1          +
 0016B2 47F0 A162            017D2 18011  1 00967000             B     CDEBEXIT
 0016B6                            18012    00968000           END
                                   18016    00969000  *
                                   18017    00970000  *                                  IF NO TASK, JUST SHOW STATUS
 0016B6 1200/4770 A062       016D2 18018    00971000           IF    (R0,Z),BEGIN
 0016BC 4110 AA8A            020FA 18032  1 00972000             SEGWR 'Command failed.  Missing task name.'
 0016C0 4100 0023            00023 18037  1          +
 0016C4 58F0 B468            00468 18043  1          +
 0016C8 58E0 A98C/0DEE       01FFC 18046  1          +
 0016CE 47F0 A162            017D2 18048  1 00973000             B     CDEBEXIT
 0016D2                            18049    00974000           END
                                   18053    00975000  *
                                   18054    00976000  *                                  MONITOR DEBUGGING NOT ALLOWED
 0016D2 4110 B470            00470 18055    00977000           LA    R1,TVDBSCNKW
 0016D6                            18056    00978000           IF    (@R1,EQ,'MONITOR '),BEGIN
 0016D6 D507 A928 1000 01F98 00000 18066             +
 0016DC 4770 A086            016F6 18067             +
 0016E0 4110 AAAD            0211D 18072  1 00979000             SEGWR 'Monitor cannot be debugged.'
 0016E4 4100 001B            0001B 18077  1          +
 0016E8 58F0 B468            00468 18083  1          +
 0016EC 58E0 A98C/0DEE       01FFC 18086  1          +
 0016F2 47F0 A162            017D2 18088  1 00980000             B     CDEBEXIT
 0016F6                            18089    00981000           END
                                   18093    00982000  *
1DBMAIN   Debug: Commands                                                                                                   Page   59
0Current Usings:  (OSFCOMMN,R9) (*,R10) (TVT,R11) (GVT,R12)
0Loc    Object Code    Addr1 Addr2  Stmt Lv Lineno    Source Statement           (Hibal 5, Asmedit 3.3)  HLASM R4.0  2002/06/06 10.05
+___    ______ ____    _____ _____  ____ __ ______    ______ _________
0                                  18094    00983000  *                                  CHECK FOR DEBUG TASK
 0016F6 4110 B470            00470 18095    00984000           LA    R1,TVDBSCNKW
 0016FA 58E0 A990/0DEE       02000 18096    00985000           ACALL FINDTCB
 001700 4780 A0C8            01738 18100    00986000           IF    NZ,BEGIN
 001704 4110 AAC8            02138 18111  1 00987000             SEG   'Unable to find task: '
 001708 4100 0015            00015 18115  1          +
 00170C 58F0 B468            00468 18121  1          +
 001710 58E0 A988/0DEE       01FF8 18124  1          +
 001716 4110 B470            00470 18126  1 00988000             SEGT  TVDBSCNKW
 00171A 4100 0008            00008 18141  1          +
 00171E 58F0 B468            00468 18147  1          +
 001722 58E0 A994/0DEE       02004 18150  1          +
 001728 1B00/58F0 B468       00468 18152  1 00989000             SEGWR
 00172E 58E0 A98C/0DEE       01FFC 18172  1          +
 001734 47F0 A162            017D2 18174  1 00990000             B     CDEBEXIT
 001738                            18175    00991000           END
                                   18179    00992000  *
                                   18180    00993000  *                                  TRY TO BECOME DEBUGGER
 001738 58E0 A998/0DEE       02008 18181    00994000           ACALL CHKDBGER
 00173E 4780 A0F8            01768 18185    00995000           IF    NZ,BEGIN
 001742 58E0 A99C/0DEE       0200C 18196  1 00996000             ACALL SETDBGER
 001748 4780 A0F8            01768 18200  1 00997000             IF    NZ,BEGIN
 00174C 4110 A9A0            02010 18211  2 00998000               SEGWR 'Command failed.  Another debugger is already active.'
 001750 4100 0034            00034 18216  2          +
 001754 58F0 B468            00468 18222  2          +
 001758 58E0 A98C/0DEE       01FFC 18225  2          +
 00175E 58E0 A9D4/0DEE       02044 18227  2 00999000               ACALL DBSTATUS            SHOW DEBUGGER STATUS
 001764 47F0 A162            017D2 18231  2 01000000               B     CDEBEXIT
 001768                            18232  1 01001000             END
 001768                            18236    01002000           END
                                   18240    01003000  *
                                   18241    01004000  *                                  IF TASK SPECIFIED, SET DEBUGGEE
 001768 4110 B470            00470 18242    01005000           LA    R1,TVDBSCNKW
 00176C 58E0 A990/0DEE       02000 18243    01006000           ACALL FINDTCB
 001772 4780 A136            017A6 18247    01007000           IF    NZ,BEGIN
 001776 4110 AAC8            02138 18258  1 01008000             SEG   'Unable to find task: '
 00177A 4100 0015            00015 18262  1          +
 00177E 58F0 B468            00468 18268  1          +
 001782 58E0 A988/0DEE       01FF8 18271  1          +
 001788 4110 B470            00470 18273  1 01009000             SEGT  TVDBSCNKW
 00178C 4100 0008            00008 18288  1          +
 001790 58F0 B468            00468 18294  1          +
 001794 58E0 A994/0DEE       02004 18297  1          +
 00179A 1B00/58F0 B468       00468 18299  1 01010000             SEGWR
 0017A0 58E0 A98C/0DEE       01FFC 18319  1          +
 0017A6                            18321    01011000           END
 0017A6 A13A           017A6 01774 18325    01012000           ELSE  BEGIN
 0017A6 47F0 A156            017C6 18330             +
 0017AA 58E0 A9D8/0DEE       02048 18336  1 01013000             ACALL SETDBGEE
 0017B0 4780 A156            017C6 18340  1 01014000             IF    NZ,BEGIN
 0017B4 4110 AADD            0214D 18351  2 01015000               SEGWR 'Unable to change task being debugged.'
 0017B8 4100 0025            00025 18356  2          +
 0017BC 58F0 B468            00468 18362  2          +
 0017C0 58E0 A98C/0DEE       01FFC 18365  2          +
1DBMAIN   Debug: Commands                                                                                                   Page   60
0Current Usings:  (OSFCOMMN,R9) (*,R10) (TVT,R11) (GVT,R12)
0Loc    Object Code    Addr1 Addr2  Stmt Lv Lineno    Source Statement           (Hibal 5, Asmedit 3.3)  HLASM R4.0  2002/06/06 10.05
+___    ______ ____    _____ _____  ____ __ ______    ______ _________
00017C6                            18367  1 01016000             END
 0017C6                            18371    01017000           END
                                   18375    01018000  *
                                   18376    01019000  *                                  SET DEBUG MODE INFO
 0017C6 58E0 A9DC/0DEE       0204C 18377    01020000           ACALL SETDEBUG
                                   18381    01021000  *
                                   18382    01022000  *                                  SEG DEBUG STATUS
 0017CC 58E0 A9D4/0DEE       02044 18383    01023000           ACALL DBSTATUS
                                   18387    01024000
 0017D2                            18388    01025000  CDEBEXIT LABEL ,
 0017D2                            18390    01026000           CLEAR TVDBSCNLEN
 0017D2 D703 B478 B478 00478 00478 18396             +
 0017D8 5BD0 A9E0            02050 18397    01027000           SCPOP
 0017DC 58F0 D000            00000 18399             +
 0017E0 D203 B480 D004 00480 00004 18400             +
 0017E6 18D8/980C D004       00004 18401    01028000           PEND
 DROP   *,R10
 0017EC 58E0 D000/12FF       00000 18417             +
 0017F2 07FE                       18420             +
1DBMAIN   Debug: Commands                                                                                                   Page   61
0Current Usings:  (OSFCOMMN,R9) (TVT,R11) (GVT,R12)
0Loc    Object Code    Addr1 Addr2  Stmt Lv Lineno    Source Statement           (Hibal 5, Asmedit 3.3)  HLASM R4.0  2002/06/06 10.05
+___    ______ ____    _____ _____  ____ __ ______    ______ _________
0                                  18422    01030000  *
                                   18423    01031000  *  CMDQUIT - QUIT DEBUGGING
                                   18424    01032000  *
                                   18425    01033000  *  In this routine we attempt to clear both the DEBUGEE
                                   18426    01034000  *  and the DEBUGGER.  The main problem is that we can
                                   18427    01035000  *  not clear an active (at breakpoint, or waiting a
                                   18428    01036000  *  task waiting to be debugged).  (though if not at
                                   18429    01037000  *  breakpoint we will force the matter.)  to do proper
                                   18430    01038000  *  clearing of the debuggee we try to set ourselves as
                                   18431    01039000  *  the debuggEE (we are also the debuggER) this will
                                   18432    01040000  *  clear all important DVWA fields.  We then clear the
                                   18433    01041000  *  debuggee, and then we clear the debugger.
                                   18434    01042000  *
                                   18435    01043000  *
 0017F4 90DF B0D4            000D4 18436    01044000  CMDQUIT  PROC
 0017F8 58F0 C014/0DEF       00014 18446             +
 0017FE C3D4C4D8E4C9E340           18448             +
 001806 98DF B0D4            000D4 18449             +
 00180A 50E0 D000            00000 18452             +
 00180E 900C D004/188D       00004 18455             +
 001814 41D0 D038/0DA0       00038 18457             +
 00181A 50F0 D000            00000 18480    01045000           SCPUSH
 USING  *,R10
 00181E D203 D004 B480 00004 00480 18482             +
 001824 41DD 0008            00008 18483             +
                                   18484    01046000
 001828 4160 C208            00208 18485    01047000           LA    R6,GVTDVWA
 USING  DVWA,R6                    18486    01048000           USING DVWA,R6
                                   18495    01049000  *
                                   18496    01050000  *                                  REMOVE DECEASED DEBUGER/EE
 00182C 58E0 A7D6/0DEE       01FF0 18497    01051000           ACALL CHKDEBUG
                                   18501    01052000  *
                                   18502    01053000  *                                  IF AT BREAK
 001832 9180 B48C      0048C       18503    01054000           IF    TVDBFBRK,BEGIN
 001836 47E0 A048            01862 18513             +
 00183A 4110 A786            01FA0 18518  1 01055000             SEGWR 'DEBUGGEE is at breakpoint. Unable to QUIT debug '
 00183E 4100 0030            00030 18523  1          +
 001842 58F0 B468            00468 18529  1          +
 001846 58E0 A7E2/0DEE       01FFC 18532  1          +
 00184C 4110 A83A            02054 18534  1 01056000             SEGWR 'session.  Type GO to resume task, then QUIT.'
 001850 4100 002C            0002C 18539  1          +
 001854 58F0 B468            00468 18545  1          +
 001858 58E0 A7E2/0DEE       01FFC 18548  1          +
 00185E 47F0 A094            018AE 18550  1 01057000             B     CQUITXIT
 001862                            18551    01058000           END
                                   18555    01059000  *
                                   18556    01060000  *                                  CLEAR DEBUGGEE ,,
 001862 5810 6000            00000 18557    01061000           L     R1,DVERTCBP         TRY TO MAKE OURSELVES DEBUGEEE
 001866 58E0 A82E/0DEE       02048 18558    01062000           ACALL SETDBGEE
                                   18562    01063000  *
                                   18563    01064000  *                                  CLEAR DEBUGEE ,,
 00186C 5820 6008            00008 18564    01065000           L     R2,DVEETCBP
 001870 1B33                       18565    01066000           CLEAR R3
 001872 1B44                       18569    01067000           CLEAR R4
1DBMAIN   Debug: Commands                                                                                                   Page   62
0Current Usings:  (DVWA,R6) (OSFCOMMN,R9) (*,R10) (TVT,R11) (GVT,R12)
0Loc    Object Code    Addr1 Addr2  Stmt Lv Lineno    Source Statement           (Hibal 5, Asmedit 3.3)  HLASM R4.0  2002/06/06 10.05
+___    ______ ____    _____ _____  ____ __ ______    ______ _________
0001874 1B55                       18573    01068000           CLEAR R5
 001876 BB24 6008            00008 18577    01069000           CDS   R2,R4,DVEETCBP
 00187A 4780 A088            018A2 18578    01070000           IF    NZ,BEGIN
 00187E 4110 A958            02172 18589  1 01071000             SEGWR 'DEBUGGEE is active. Unable to QUIT debug session.'
 001882 4100 0031            00031 18594  1          +
 001886 58F0 B468            00468 18600  1          +
 00188A 58E0 A7E2/0DEE       01FFC 18603  1          +
 001890 4110 A866            02080 18605  1 01072000             SEGWR '(You may STOP (CANCEL) DEBUGGEE task to deactivate.)'
 001894 4100 0034            00034 18610  1          +
 001898 58F0 B468            00468 18616  1          +
 00189C 58E0 A7E2/0DEE       01FFC 18619  1          +
 0018A2                            18621    01073000           END
                                   18625    01074000  *
                                   18626    01075000  *                                  CLEAR ANY TRAPS
 0018A2 58E0 A89A/0DEE       020B4 18627    01076000           ACALL CMDCTS
                                   18631    01077000  *
                                   18632    01078000  *                                  CLEAR DEBUGGER
 0018A8                            18633    01079000           CLEAR DVERTCBP
 0018A8 D703 6000 6000 00000 00000 18639             +
                                   18640    01080000
 0018AE                            18641    01081000  CQUITXIT LABEL ,
 0018AE                            18643    01082000           CLEAR TVDBSCNLEN          CMD DONE, SCAN NO MORE
 0018AE D703 B478 B478 00478 00478 18649             +
 0018B4 5BD0 A836            02050 18650    01083000           SCPOP
 0018B8 58F0 D000            00000 18652             +
 0018BC D203 B480 D004 00480 00004 18653             +
 0018C2 18D8/980C D004       00004 18654    01084000           PEND
 DROP   *,R10
 0018C8 58E0 D000/12FF       00000 18670             +
 0018CE 07FE                       18673             +
 DROP   DVWA,R6                    18674    01085000           DROP  R6
1DBMAIN   Debug: Commands                                                                                                   Page   63
0Current Usings:  (OSFCOMMN,R9) (TVT,R11) (GVT,R12)
0Loc    Object Code    Addr1 Addr2  Stmt Lv Lineno    Source Statement           (Hibal 5, Asmedit 3.3)  HLASM R4.0  2002/06/06 10.05
+___    ______ ____    _____ _____  ____ __ ______    ______ _________
0                                  18682    01087000  *
                                   18683    01088000  *  CMDSD - SHOW DEBUG
                                   18684    01089000  *
                                   18685    01090000  *
 0018D0 90DF B0D4            000D4 18686    01091000  CMDSD    PROC
 0018D4 58F0 C014/0DEF       00014 18696             +
 0018DA C3D4C4E2C4404040           18698             +
 0018E2 98DF B0D4            000D4 18699             +
 0018E6 50E0 D000            00000 18702             +
 0018EA 900C D004/188D       00004 18705             +
 0018F0 41D0 D038/0DA0       00038 18707             +
 0018F6 50F0 D000            00000 18730    01092000           SCPUSH
 USING  *,R10
 0018FA D203 D004 B480 00004 00480 18732             +
 001900 41DD 0008            00008 18733             +
                                   18734    01093000  *
                                   18735    01094000  *                                  SHOW DEBUGGER/DEBUGGEE
 001904 58E0 A74E/0DEE       02044 18736    01095000           ACALL DBSTATUS
                                   18740    01096000
 00190A                            18741    01097000           CLEAR TVDBSCNLEN
 00190A D703 B478 B478 00478 00478 18747             +
 001910 5BD0 A75A            02050 18748    01098000           SCPOP
 001914 58F0 D000            00000 18750             +
 001918 D203 B480 D004 00480 00004 18751             +
 00191E 18D8/980C D004       00004 18752    01099000           PEND
 DROP   *,R10
 001924 58E0 D000/12FF       00000 18768             +
 00192A 07FE                       18771             +
                                   18772    01100000           DROP  R6
1DBMAIN   Debug: Commands                                                                                                   Page   64
0Current Usings:  (OSFCOMMN,R9) (TVT,R11) (GVT,R12)
0Loc    Object Code    Addr1 Addr2  Stmt Lv Lineno    Source Statement           (Hibal 5, Asmedit 3.3)  HLASM R4.0  2002/06/06 10.05
+___    ______ ____    _____ _____  ____ __ ______    ______ _________
0                                  18777    01102000  *
                                   18778    01103000  *  CMDSI - SHOW INFO
                                   18779    01104000  *
                                   18780    01105000  *  NOTE, CAUTION:
                                   18781    01106000  *  UNUSUAL CODE AHEAD, THIS IS A COMPOUND COMMAND. IT
                                   18782    01107000  *  IS THE SAME AS A 'SHOW STATUS ALL' AND A 'SD'
                                   18783    01108000  *  (show debug) COMMAND.
                                   18784    01109000  *
                                   18785    01110000  *
 00192C 90DF B0D4            000D4 18786    01111000  CMDSI    PROC
 001930 58F0 C014/0DEF       00014 18796             +
 001936 C3D4C4E2C9404040           18798             +
 00193E 98DF B0D4            000D4 18799             +
 001942 50E0 D000            00000 18802             +
 001946 900C D004/188D       00004 18805             +
 00194C 41D0 D038/0DA0       00038 18807             +
 001952 50F0 D000            00000 18830    01112000           SCPUSH
 USING  *,R10
 001956 D203 D004 B480 00004 00480 18832             +
 00195C 41DD 0008            00008 18833             +
                                   18834    01113000  *
                                   18835    01114000  *                                  SHOW DEBUGGER/DEBUGGEE
 001960 58E0 A6F2/0DEE       02044 18836    01115000           ACALL DBSTATUS
 001966 4110 A851            021A3 18840    01116000           SEGWR '-----'
 00196A 4100 0005            00005 18845             +
 00196E 58F0 B468            00468 18851             +
 001972 58E0 A6AA/0DEE       01FFC 18854             +
                                   18856    01117000  *
                                   18857    01118000  *                                  GO FOR IT
 001978 4110 A798            020EA 18858    01119000           LA    R1,=CL10'STATUS ALL'
 00197C 4100 000A            0000A 18859    01120000           LA    R0,10
 001980 58E0 A766/0DEE       020B8 18860    01121000           ACALL DOMONCMD
                                   18864    01122000
 001986                            18865    01123000           CLEAR TVDBSCNLEN
 001986 D703 B478 B478 00478 00478 18871             +
 00198C 5BD0 A6FE            02050 18872    01124000           SCPOP
 001990 58F0 D000            00000 18874             +
 001994 D203 B480 D004 00480 00004 18875             +
 00199A 18D8/980C D004       00004 18876    01125000           PEND
 DROP   *,R10
 0019A0 58E0 D000/12FF       00000 18892             +
 0019A6 07FE                       18895             +
                                   18896    01126000           DROP  R6
1DBMAIN   Debug: Commands                                                                                                   Page   65
0Current Usings:  (OSFCOMMN,R9) (TVT,R11) (GVT,R12)
0Loc    Object Code    Addr1 Addr2  Stmt Lv Lineno    Source Statement           (Hibal 5, Asmedit 3.3)  HLASM R4.0  2002/06/06 10.05
+___    ______ ____    _____ _____  ____ __ ______    ______ _________
0                                  18901    01128000  *
                                   18902    01129000  *  CMDSC - SHOW CORE
                                   18903    01130000  *
                                   18904    01131000  *
 0019A8 90DF B0D4            000D4 18905    01132000  CMDSC    PROC
 0019AC 58F0 C014/0DEF       00014 18915             +
 0019B2 C3D4C4E2C3404040           18917             +
 0019BA 98DF B0D4            000D4 18918             +
 0019BE 50E0 D000            00000 18921             +
 0019C2 900C D004/188D       00004 18924             +
 0019C8 41D0 D038/0DA0       00038 18926             +
 0019CE 50F0 D000            00000 18949    01133000           SCPUSH
 USING  *,R10
 0019D2 D203 D004 B480 00004 00480 18951             +
 0019D8 41DD 0008            00008 18952             +
                                   18953    01134000
 0019DC 4160 C208            00208 18954    01135000           LA    R6,GVTDVWA
 USING  DVWA,R6                    18955    01136000           USING DVWA,R6
                                   18964    01137000  *
                                   18965    01138000  *                                  REMOVE DECEASED DEBUGER/EE
 0019E0 58E0 A622/0DEE       01FF0 18966    01139000           ACALL CHKDEBUG
                                   18970    01140000  *
                                   18971    01141000  *                                  CHECK DEBUGGEE
 0019E6 58E0 A6EE/0DEE       020BC 18972    01142000           ACALL CHKDBGEE
 0019EC 4780 A038            01A06 18976    01143000           IF    NZ,BEGIN
 0019F0 4110 A602            01FD0 18987  1 01144000             SEGWR 'Task not found.  (may have died)'
 0019F4 4100 0020            00020 18992  1          +
 0019F8 58F0 B468            00468 18998  1          +
 0019FC 58E0 A62E/0DEE       01FFC 19001  1          +
 001A02 47F0 A09A            01A68 19003  1 01145000             B     CSCEXIT
 001A06                            19004    01146000           END
                                   19008    01147000  *
                                   19009    01148000  *                                  NOT AT BREAK
 001A06 9180 B48C      0048C       19010    01149000           IF    ~TVDBFBRK,BEGIN
 001A0A 4710 A072            01A40 19020             +
 001A0E 4110 A7DA            021A8 19025  1 01150000             SEGWR 'Note: not at debug breakpoint'
 001A12 4100 001D            0001D 19030  1          +
 001A16 58F0 B468            00468 19036  1          +
 001A1A 58E0 A62E/0DEE       01FFC 19039  1          +
 001A20 41F0 B46C            0046C 19041  1 01151000             SCTELL TVDBSCNCB
 001A24 58E0 A6F2/0DEE       020C0 19051  1          +
 001A2A 5820 6020            00020 19053  1 01152000             L     R2,DVSYMP
                                   19054  1 01153000  *                                  NO REGS, CURRENT ADDR
 001A2E 1B33                       19055  1 01154000             CLEAR R3
 001A30 1B44                       19059  1 01155000             CLEAR R4
 001A32 58F0 B468            00468 19063  1 01156000             L     R15,TVDBSEGP
 001A36 58E0 A6F6/0DEE       020C4 19064  1 01157000             VCALL SHOWC
 001A3C 47F0 A09A            01A68 19068  1 01158000             B     CSCEXIT
 001A40                            19069    01159000           END
                                   19073    01160000  *
                                   19074    01161000  *                                  IF DEBUGGER AND AT BREAK
 001A40 41F0 B46C            0046C 19075    01162000           SCTELL TVDBSCNCB
 001A44 58E0 A6F2/0DEE       020C0 19085             +
 001A4A 5820 6020            00020 19087    01163000           L     R2,DVSYMP
1DBMAIN   Debug: Commands                                                                                                   Page   66
0Current Usings:  (DVWA,R6) (OSFCOMMN,R9) (*,R10) (TVT,R11) (GVT,R12)
0Loc    Object Code    Addr1 Addr2  Stmt Lv Lineno    Source Statement           (Hibal 5, Asmedit 3.3)  HLASM R4.0  2002/06/06 10.05
+___    ______ ____    _____ _____  ____ __ ______    ______ _________
0001A4E 5850 601C            0001C 19088    01164000           L     R5,DVEPIEP
 USING  EPIE,R5                    19089    01165000           WITH  (EPIE,R5),BEGIN
 001A52 4130 5008            00008 19103  1 01166000             LA    R3,EPIEGPR
 001A56 5840 504C            0004C 19104  1 01167000             GETIA R4,EPIEPSW
 001A5A 4144 0000            00000 19106  1          +
 DROP   EPIE,R5                    19107    01168000           END
 001A5E 58F0 B468            00468 19115    01169000           L     R15,TVDBSEGP
 001A62 58E0 A6F6/0DEE       020C4 19116    01170000           VCALL SHOWC
                                   19120    01171000
 001A68                            19121    01172000  CSCEXIT  LABEL ,
 001A68                            19123    01173000           CLEAR TVDBSCNLEN          CMD DONE, SCAN NO MORE
 001A68 D703 B478 B478 00478 00478 19129             +
 001A6E 5BD0 A682            02050 19130    01174000           SCPOP
 001A72 58F0 D000            00000 19132             +
 001A76 D203 B480 D004 00480 00004 19133             +
 001A7C 18D8/980C D004       00004 19134    01175000           PEND
 DROP   *,R10
 001A82 58E0 D000/12FF       00000 19150             +
 001A88 07FE                       19153             +
 DROP   DVWA,R6                    19154    01176000           DROP  R6
1DBMAIN   Debug: Commands                                                                                                   Page   67
0Current Usings:  (OSFCOMMN,R9) (TVT,R11) (GVT,R12)
0Loc    Object Code    Addr1 Addr2  Stmt Lv Lineno    Source Statement           (Hibal 5, Asmedit 3.3)  HLASM R4.0  2002/06/06 10.05
+___    ______ ____    _____ _____  ____ __ ______    ______ _________
0                                  19162    01178000  *
                                   19163    01179000  *  CMDS9 - Show SVC99 area
                                   19164    01180000  *
                                   19165    01181000  *
 001A8A 90DF B0D4            000D4 19166    01182000  CMDS9    PROC
 001A8E 58F0 C014/0DEF       00014 19176             +
 001A94 C3D4C4E2F9404040           19178             +
 001A9C 98DF B0D4            000D4 19179             +
 001AA0 50E0 D000            00000 19182             +
 001AA4 900C D004/188D       00004 19185             +
 001AAA 41D0 D038/0DA0       00038 19187             +
 001AB0 50F0 D000            00000 19210    01183000           SCPUSH
 USING  *,R10
 001AB4 D203 D004 B480 00004 00480 19212             +
 001ABA 41DD 0008            00008 19213             +
                                   19214    01184000
 001ABE 4160 C208            00208 19215    01185000           LA    R6,GVTDVWA
 USING  DVWA,R6                    19216    01186000           USING DVWA,R6
                                   19225    01187000  *
                                   19226    01188000  *                                  REMOVE DECEASED DEBUGER/EE
 001AC2 58E0 A540/0DEE       01FF0 19227    01189000           ACALL CHKDEBUG
                                   19231    01190000  *
                                   19232    01191000  *                                  CHECK DEBUGGEE
 001AC8 58E0 A60C/0DEE       020BC 19233    01192000           ACALL CHKDBGEE
 001ACE 4780 A038            01AE8 19237    01193000           IF    NZ,BEGIN
 001AD2 4110 A520            01FD0 19248  1 01194000             SEGWR 'Task not found.  (may have died)'
 001AD6 4100 0020            00020 19253  1          +
 001ADA 58F0 B468            00468 19259  1          +
 001ADE 58E0 A54C/0DEE       01FFC 19262  1          +
 001AE4 47F0 A06E            01B1E 19264  1 01195000             B     CS9EXIT
 001AE8                            19265    01196000           END
                                   19269    01197000  *
                                   19270    01198000  *                                  NOT AT BREAK
 001AE8 9180 B48C      0048C       19271    01199000           IF    ~TVDBFBRK,BEGIN
 001AEC 4710 A052            01B02 19281             +
 001AF0 4110 A6F8            021A8 19286  1 01200000             SEGWR 'Note: not at debug breakpoint'
 001AF4 4100 001D            0001D 19291  1          +
 001AF8 58F0 B468            00468 19297  1          +
 001AFC 58E0 A54C/0DEE       01FFC 19300  1          +
 001B02                            19302    01201000           END   ,
                                   19306    01202000
 001B02 41F0 B46C            0046C 19307    01203000           SCTELL TVDBSCNCB
 001B06 58E0 A610/0DEE       020C0 19317             +
 001B0C 58F0 6004            00004 19319    01204000           L     R15,DVERTVTP        ->debugee's TVT
                                   19320    01204100           WITH (TVT,R15),'L R1,TVTDYNBF'   ->Dynamic alloc area
 ** ASMA301W Prior active USING on statement number 13691 overridden by this USING
 ** ASMA435I Record 142 in WYL.GG.SYS.MACLIB(USING) on volume: STR210
 001B10 5810 F128            00128 19335             +
 USING  TVT,R15
 DROP   TVT,R15
 001B14 58F0 B468            00468 19344    01205000           L     R15,TVDBSEGP
 001B18 58E0 A618/0DEE       020C8 19345    01206000           VCALL PRTDYN
                                   19349    01207000
 001B1E                            19350    01208000  CS9EXIT  LABEL ,
1DBMAIN   Debug: Commands                                                                                                   Page   68
0Current Usings:  (DVWA,R6) (OSFCOMMN,R9) (*,R10) (TVT,R11) (GVT,R12)
0Loc    Object Code    Addr1 Addr2  Stmt Lv Lineno    Source Statement           (Hibal 5, Asmedit 3.3)  HLASM R4.0  2002/06/06 10.05
+___    ______ ____    _____ _____  ____ __ ______    ______ _________
0001B1E                            19352    01209000           CLEAR TVDBSCNLEN          CMD DONE, SCAN NO MORE
 001B1E D703 B478 B478 00478 00478 19358             +
 001B24 5BD0 A5A0            02050 19359    01210000           SCPOP
 001B28 58F0 D000            00000 19361             +
 001B2C D203 B480 D004 00480 00004 19362             +
 001B32 18D8/980C D004       00004 19363    01211000           PEND
 DROP   *,R10
 001B38 58E0 D000/12FF       00000 19379             +
 001B3E 07FE                       19382             +
 DROP   DVWA,R6                    19383    01212000           DROP  R6
1DBMAIN   Debug: Commands                                                                                                   Page   69
0Current Usings:  (OSFCOMMN,R9) (TVT,R11) (GVT,R12)
0Loc    Object Code    Addr1 Addr2  Stmt Lv Lineno    Source Statement           (Hibal 5, Asmedit 3.3)  HLASM R4.0  2002/06/06 10.05
+___    ______ ____    _____ _____  ____ __ ______    ______ _________
0                                  19391    01214000  *
                                   19392    01215000  *  CMDDC - DISASSEMBLE CORE
                                   19393    01216000  *
                                   19394    01217000  *
 001B40 90DF B0D4            000D4 19395    01218000  CMDDC    PROC
 001B44 58F0 C014/0DEF       00014 19405             +
 001B4A C3D4C4C4C3404040           19407             +
 001B52 98DF B0D4            000D4 19408             +
 001B56 50E0 D000            00000 19411             +
 001B5A 900C D004/188D       00004 19414             +
 001B60 41D0 D038/0DA0       00038 19416             +
 001B66 50F0 D000            00000 19439    01219000           SCPUSH
 USING  *,R10
 001B6A D203 D004 B480 00004 00480 19441             +
 001B70 41DD 0008            00008 19442             +
                                   19443    01220000
 001B74 4160 C208            00208 19444    01221000           LA    R6,GVTDVWA
 USING  DVWA,R6                    19445    01222000           USING DVWA,R6
                                   19454    01223000  *
                                   19455    01224000  *                                  REMOVE DECEASED DEBUGER/EE
 001B78 58E0 A48A/0DEE       01FF0 19456    01225000           ACALL CHKDEBUG
                                   19460    01226000  *
                                   19461    01227000  *                                  CHECK DEBUGGEE
 001B7E 58E0 A556/0DEE       020BC 19462    01228000           ACALL CHKDBGEE
 001B84 4780 A038            01B9E 19466    01229000           IF    NZ,BEGIN
 001B88 4110 A46A            01FD0 19477  1 01230000             SEGWR 'Task not found.  (may have died)'
 001B8C 4100 0020            00020 19482  1          +
 001B90 58F0 B468            00468 19488  1          +
 001B94 58E0 A496/0DEE       01FFC 19491  1          +
 001B9A 47F0 A09A            01C00 19493  1 01231000             B     CDCEXIT
 001B9E                            19494    01232000           END
                                   19498    01233000  *
                                   19499    01234000  *                                  NOT AT BREAK
 001B9E 9180 B48C      0048C       19500    01235000           IF    ~TVDBFBRK,BEGIN
 001BA2 4710 A072            01BD8 19510             +
 001BA6 4110 A642            021A8 19515  1 01236000             SEGWR 'Note: not at debug breakpoint'
 001BAA 4100 001D            0001D 19520  1          +
 001BAE 58F0 B468            00468 19526  1          +
 001BB2 58E0 A496/0DEE       01FFC 19529  1          +
 001BB8 41F0 B46C            0046C 19531  1 01237000             SCTELL TVDBSCNCB
 001BBC 58E0 A55A/0DEE       020C0 19541  1          +
 001BC2 5820 6020            00020 19543  1 01238000             L     R2,DVSYMP
                                   19544  1 01239000  *                                  NO REGS, CURRENT ADDR
 001BC6 1B33                       19545  1 01240000             CLEAR R3
 001BC8 1B44                       19549  1 01241000             CLEAR R4
 001BCA 58F0 B468            00468 19553  1 01242000             L     R15,TVDBSEGP
 001BCE 58E0 A566/0DEE       020CC 19554  1 01243000             VCALL DISASMC
 001BD4 47F0 A09A            01C00 19558  1 01244000             B     CDCEXIT
 001BD8                            19559    01245000           END
                                   19563    01246000  *
                                   19564    01247000  *                                  IF DEBUGGER AND AT BREAK
 001BD8 41F0 B46C            0046C 19565    01248000           SCTELL TVDBSCNCB
 001BDC 58E0 A55A/0DEE       020C0 19575             +
 001BE2 5820 6020            00020 19577    01249000           L     R2,DVSYMP
1DBMAIN   Debug: Commands                                                                                                   Page   70
0Current Usings:  (DVWA,R6) (OSFCOMMN,R9) (*,R10) (TVT,R11) (GVT,R12)
0Loc    Object Code    Addr1 Addr2  Stmt Lv Lineno    Source Statement           (Hibal 5, Asmedit 3.3)  HLASM R4.0  2002/06/06 10.05
+___    ______ ____    _____ _____  ____ __ ______    ______ _________
0001BE6 5850 601C            0001C 19578    01250000           L     R5,DVEPIEP
 USING  EPIE,R5                    19579    01251000           WITH  (EPIE,R5),BEGIN
 001BEA 4130 5008            00008 19593  1 01252000             LA    R3,EPIEGPR
 001BEE 5840 504C            0004C 19594  1 01253000             GETIA R4,EPIEPSW
 001BF2 4144 0000            00000 19596  1          +
 DROP   EPIE,R5                    19597    01254000           END
 001BF6 58F0 B468            00468 19605    01255000           L     R15,TVDBSEGP
 001BFA 58E0 A566/0DEE       020CC 19606    01256000           VCALL DISASMC
                                   19610    01257000
 001C00                            19611    01258000  CDCEXIT  LABEL ,
 001C00                            19613    01259000           CLEAR TVDBSCNLEN          CMD DONE, SCAN NO MORE
 001C00 D703 B478 B478 00478 00478 19619             +
 001C06 5BD0 A4EA            02050 19620    01260000           SCPOP
 001C0A 58F0 D000            00000 19622             +
 001C0E D203 B480 D004 00480 00004 19623             +
 001C14 18D8/980C D004       00004 19624    01261000           PEND
 DROP   *,R10
 001C1A 58E0 D000/12FF       00000 19640             +
 001C20 07FE                       19643             +
 DROP   DVWA,R6                    19644    01262000           DROP  R6
1DBMAIN   Debug: Commands                                                                                                   Page   71
0Current Usings:  (OSFCOMMN,R9) (TVT,R11) (GVT,R12)
0Loc    Object Code    Addr1 Addr2  Stmt Lv Lineno    Source Statement           (Hibal 5, Asmedit 3.3)  HLASM R4.0  2002/06/06 10.05
+___    ______ ____    _____ _____  ____ __ ______    ______ _________
0                                  19652    01264000  *
                                   19653    01265000  *  CMDSG - SHOW REGS
                                   19654    01266000  *
                                   19655    01267000  *
 001C22 90DF B0D4            000D4 19656    01268000  CMDSG    PROC
 001C26 58F0 C014/0DEF       00014 19666             +
 001C2C C3D4C4E2C7404040           19668             +
 001C34 98DF B0D4            000D4 19669             +
 001C38 50E0 D000            00000 19672             +
 001C3C 900C D004/188D       00004 19675             +
 001C42 41D0 D038/0DA0       00038 19677             +
 001C48 50F0 D000            00000 19700    01269000           SCPUSH
 USING  *,R10
 001C4C D203 D004 B480 00004 00480 19702             +
 001C52 41DD 0008            00008 19703             +
                                   19704    01270000
 001C56 4160 C208            00208 19705    01271000           LA    R6,GVTDVWA
 USING  DVWA,R6                    19706    01272000           USING DVWA,R6
                                   19715    01273000  *
                                   19716    01274000  *                                  REMOVE DECEASED DEBUGER/EE
 001C5A 58E0 A3A8/0DEE       01FF0 19717    01275000           ACALL CHKDEBUG
                                   19721    01276000  *
                                   19722    01277000  *                                  CHECK DEBUGGEE
 001C60 58E0 A474/0DEE       020BC 19723    01278000           ACALL CHKDBGEE
 001C66 4780 A038            01C80 19727    01279000           IF    NZ,BEGIN
 001C6A 4110 A388            01FD0 19738  1 01280000             SEGWR 'Task not found.  (may have died)'
 001C6E 4100 0020            00020 19743  1          +
 001C72 58F0 B468            00468 19749  1          +
 001C76 58E0 A3B4/0DEE       01FFC 19752  1          +
 001C7C 47F0 A07E            01CC6 19754  1 01281000             B     CSGEXIT
 001C80                            19755    01282000           END
                                   19759    01283000  *
                                   19760    01284000  *                                  NOT AT BREAK
 001C80 9180 B48C      0048C       19761    01285000           IF    ~TVDBFBRK,BEGIN
 001C84 4710 A056            01C9E 19771             +
 001C88 4110 A57D            021C5 19776  1 01286000             SEGWR 'Command failed.  Not at debug breakpoint.'
 001C8C 4100 0029            00029 19781  1          +
 001C90 58F0 B468            00468 19787  1          +
 001C94 58E0 A3B4/0DEE       01FFC 19790  1          +
 001C9A 47F0 A07E            01CC6 19792  1 01287000             B     CSGEXIT
 001C9E                            19793    01288000           END
                                   19797    01289000  *
                                   19798    01290000  *                                  IF DEBUGGER AND AT BREAK
 001C9E 41F0 B46C            0046C 19799    01291000           SCTELL TVDBSCNCB
 001CA2 58E0 A478/0DEE       020C0 19809             +
 001CA8 5820 6020            00020 19811    01292000           L     R2,DVSYMP
 001CAC 5850 601C            0001C 19812    01293000           L     R5,DVEPIEP
 USING  EPIE,R5                    19813    01294000           WITH  (EPIE,R5),BEGIN
 001CB0 4130 5008            00008 19827  1 01295000             LA    R3,EPIEGPR
 001CB4 5840 504C            0004C 19828  1 01296000             GETIA R4,EPIEPSW
 001CB8 4144 0000            00000 19830  1          +
 DROP   EPIE,R5                    19831    01297000           END
 001CBC 58F0 B468            00468 19839    01298000           L     R15,TVDBSEGP
 001CC0 58E0 A488/0DEE       020D0 19840    01299000           VCALL SHOWG
1DBMAIN   Debug: Commands                                                                                                   Page   72
0Current Usings:  (DVWA,R6) (OSFCOMMN,R9) (*,R10) (TVT,R11) (GVT,R12)
0Loc    Object Code    Addr1 Addr2  Stmt Lv Lineno    Source Statement           (Hibal 5, Asmedit 3.3)  HLASM R4.0  2002/06/06 10.05
+___    ______ ____    _____ _____  ____ __ ______    ______ _________
0                                  19844    01300000
 001CC6                            19845    01301000  CSGEXIT  LABEL ,
 001CC6                            19847    01302000           CLEAR TVDBSCNLEN          CMD DONE, SCAN NO MORE
 001CC6 D703 B478 B478 00478 00478 19853             +
 001CCC 5BD0 A408            02050 19854    01303000           SCPOP
 001CD0 58F0 D000            00000 19856             +
 001CD4 D203 B480 D004 00480 00004 19857             +
 001CDA 18D8/980C D004       00004 19858    01304000           PEND
 DROP   *,R10
 001CE0 58E0 D000/12FF       00000 19874             +
 001CE6 07FE                       19877             +
 DROP   DVWA,R6                    19878    01305000           DROP  R6
1DBMAIN   Debug: Commands                                                                                                   Page   73
0Current Usings:  (OSFCOMMN,R9) (TVT,R11) (GVT,R12)
0Loc    Object Code    Addr1 Addr2  Stmt Lv Lineno    Source Statement           (Hibal 5, Asmedit 3.3)  HLASM R4.0  2002/06/06 10.05
+___    ______ ____    _____ _____  ____ __ ______    ______ _________
0                                  19886    01307000  *
                                   19887    01308000  *  CMDSP - SHOW PSW
                                   19888    01309000  *
                                   19889    01310000  *  NOTE, HEY!:
                                   19890    01311000  *  FOR CONSISTENCY SAKE WE SHOULD PUT SHOWP ROUTINE
                                   19891    01312000  *  IN DEBUG MODULE.   BUT ....
                                   19892    01313000  *  THIS ROUTINE DOES NOT CALL DEBUG MODULE;
                                   19893    01314000  *  WE KNOW PSW SO WE SHOW IT HERE.
                                   19894    01315000  *
                                   19895    01316000  *
 001CE8 90DF B0D4            000D4 19896    01317000  CMDSP    PROC
 001CEC 58F0 C014/0DEF       00014 19906             +
 001CF2 C3D4C4E2D7404040           19908             +
 001CFA 98DF B0D4            000D4 19909             +
 001CFE 50E0 D000            00000 19912             +
 001D02 900C D004/188D       00004 19915             +
 001D08 41D0 D038/0DA0       00038 19917             +
 001D0E 50F0 D000            00000 19940    01318000           SCPUSH
 USING  *,R10
 001D12 D203 D004 B480 00004 00480 19942             +
 001D18 41DD 0008            00008 19943             +
                                   19944    01319000
 001D1C 4160 C208            00208 19945    01320000           LA    R6,GVTDVWA
 USING  DVWA,R6                    19946    01321000           USING DVWA,R6
                                   19955    01322000  *
                                   19956    01323000  *                                  REMOVE DECEASED DEBUGER/EE
 001D20 58E0 A2E2/0DEE       01FF0 19957    01324000           ACALL CHKDEBUG
                                   19961    01325000  *
                                   19962    01326000  *                                  CHECK DEBUGGEE
 001D26 58E0 A3AE/0DEE       020BC 19963    01327000           ACALL CHKDBGEE
 001D2C 4780 A038            01D46 19967    01328000           IF    NZ,BEGIN
 001D30 4110 A2C2            01FD0 19978  1 01329000             SEGWR 'Task not found.  (may have died)'
 001D34 4100 0020            00020 19983  1          +
 001D38 58F0 B468            00468 19989  1          +
 001D3C 58E0 A2EE/0DEE       01FFC 19992  1          +
 001D42 47F0 A0B2            01DC0 19994  1 01330000             B     CSPEXIT
 001D46                            19995    01331000           END
                                   19999    01332000  *
                                   20000    01333000  *                                  NOT AT BREAK
 001D46 9180 B48C      0048C       20001    01334000           IF    ~TVDBFBRK,BEGIN
 001D4A 4710 A056            01D64 20011             +
 001D4E 4110 A4B7            021C5 20016  1 01335000             SEGWR 'Command failed.  Not at debug breakpoint.'
 001D52 4100 0029            00029 20021  1          +
 001D56 58F0 B468            00468 20027  1          +
 001D5A 58E0 A2EE/0DEE       01FFC 20030  1          +
 001D60 47F0 A0B2            01DC0 20032  1 01336000             B     CSPEXIT
 001D64                            20033    01337000           END
                                   20037    01338000  *
                                   20038    01339000  *                                  IF DEBUGGER AND AT BREAK
 001D64 5850 601C            0001C 20039    01340000           L     R5,DVEPIEP
 USING  EPIE,R5                    20040    01341000           WITH  (EPIE,R5),BEGIN
 001D68 4110 A3E6            020F4 20054  1 01342000             SEG   'PSW = '
 001D6C 4100 0006            00006 20058  1          +
 001D70 58F0 B468            00468 20064  1          +
1DBMAIN   Debug: Commands                                                                                                   Page   74
0Current Usings:  (EPIE,R5) (DVWA,R6) (OSFCOMMN,R9) (*,R10) (TVT,R11) (GVT,R12)
0Loc    Object Code    Addr1 Addr2  Stmt Lv Lineno    Source Statement           (Hibal 5, Asmedit 3.3)  HLASM R4.0  2002/06/06 10.05
+___    ______ ____    _____ _____  ____ __ ______    ______ _________
0001D74 58E0 A2EA/0DEE       01FF8 20067  1          +
 001D7A 5830 5048            00048 20069  1 01343000             L     R3,EPIEPSW
 001D7E 1813/4100 0008       00008 20070  1 01344000             SEGHX (R3),8
 001D84 58F0 B468            00468 20087  1          +
 001D88 58E0 A3C6/0DEE       020D4 20090  1          +
 001D8E 4110 A4E0            021EE 20092  1 01345000             SEG   ' '
 001D92 4100 0001            00001 20096  1          +
 001D96 58F0 B468            00468 20102  1          +
 001D9A 58E0 A2EA/0DEE       01FF8 20105  1          +
 001DA0 5830 504C            0004C 20107  1 01346000             L     R3,EPIEPSW+4
 001DA4 1813/4100 0008       00008 20108  1 01347000             SEGHX (R3),8
 001DAA 58F0 B468            00468 20125  1          +
 001DAE 58E0 A3C6/0DEE       020D4 20128  1          +
 001DB4 1B00/58F0 B468       00468 20130  1 01348000             SEGWR
 001DBA 58E0 A2EE/0DEE       01FFC 20150  1          +
 DROP   EPIE,R5                    20152    01349000           END
                                   20160    01350000
 001DC0                            20161    01351000  CSPEXIT  LABEL ,
 001DC0                            20163    01352000           CLEAR TVDBSCNLEN          CMD DONE, SCAN NO MORE
 001DC0 D703 B478 B478 00478 00478 20169             +
 001DC6 5BD0 A342            02050 20170    01353000           SCPOP
 001DCA 58F0 D000            00000 20172             +
 001DCE D203 B480 D004 00480 00004 20173             +
 001DD4 18D8/980C D004       00004 20174    01354000           PEND
 DROP   *,R10
 001DDA 58E0 D000/12FF       00000 20190             +
 001DE0 07FE                       20193             +
 DROP   DVWA,R6                    20194    01355000           DROP  R6
1DBMAIN   Debug: Commands                                                                                                   Page   75
0Current Usings:  (OSFCOMMN,R9) (TVT,R11) (GVT,R12)
0Loc    Object Code    Addr1 Addr2  Stmt Lv Lineno    Source Statement           (Hibal 5, Asmedit 3.3)  HLASM R4.0  2002/06/06 10.05
+___    ______ ____    _____ _____  ____ __ ______    ______ _________
0                                  20202    01357000  *
                                   20203    01358000  *  CMDSA - SHOW ADDRESS
                                   20204    01359000  *
                                   20205    01360000  *
 001DE2 90DF B0D4            000D4 20206    01361000  CMDSA    PROC
 001DE6 58F0 C014/0DEF       00014 20216             +
 001DEC C3D4C4E2C1404040           20218             +
 001DF4 98DF B0D4            000D4 20219             +
 001DF8 50E0 D000            00000 20222             +
 001DFC 900C D004/188D       00004 20225             +
 001E02 41D0 D038/0DA0       00038 20227             +
 001E08 50F0 D000            00000 20250    01362000           SCPUSH
 USING  *,R10
 001E0C D203 D004 B480 00004 00480 20252             +
 001E12 41DD 0008            00008 20253             +
                                   20254    01363000
 001E16 4160 C208            00208 20255    01364000           LA    R6,GVTDVWA
 USING  DVWA,R6                    20256    01365000           USING DVWA,R6
                                   20265    01366000  *
                                   20266    01367000  *                                  REMOVE DECEASED DEBUGER/EE
 001E1A 58E0 A1E8/0DEE       01FF0 20267    01368000           ACALL CHKDEBUG
                                   20271    01369000  *
                                   20272    01370000  *                                  CHECK DEBUGGEE
 001E20 58E0 A2B4/0DEE       020BC 20273    01371000           ACALL CHKDBGEE
 001E26 4780 A038            01E40 20277    01372000           IF    NZ,BEGIN
 001E2A 4110 A1C8            01FD0 20288  1 01373000             SEGWR 'Task not found.  (may have died)'
 001E2E 4100 0020            00020 20293  1          +
 001E32 58F0 B468            00468 20299  1          +
 001E36 58E0 A1F4/0DEE       01FFC 20302  1          +
 001E3C 47F0 A09A            01EA2 20304  1 01374000             B     CSAEXIT
 001E40                            20305    01375000           END
                                   20309    01376000  *
                                   20310    01377000  *                                  NOT AT BREAK
 001E40 9180 B48C      0048C       20311    01378000           IF    ~TVDBFBRK,BEGIN
 001E44 4710 A072            01E7A 20321             +
 001E48 4110 A3A0            021A8 20326  1 01379000             SEGWR 'Note: not at debug breakpoint'
 001E4C 4100 001D            0001D 20331  1          +
 001E50 58F0 B468            00468 20337  1          +
 001E54 58E0 A1F4/0DEE       01FFC 20340  1          +
 001E5A 41F0 B46C            0046C 20342  1 01380000             SCTELL TVDBSCNCB
 001E5E 58E0 A2B8/0DEE       020C0 20352  1          +
 001E64 5820 6020            00020 20354  1 01381000             L     R2,DVSYMP
                                   20355  1 01382000  *                                  NO REGS, CURRENT ADDR
 001E68 1B33                       20356  1 01383000             CLEAR R3
 001E6A 1B44                       20360  1 01384000             CLEAR R4
 001E6C 58F0 B468            00468 20364  1 01385000             L     R15,TVDBSEGP
 001E70 58E0 A2D0/0DEE       020D8 20365  1 01386000             VCALL SHOWA
 001E76 47F0 A09A            01EA2 20369  1 01387000             B     CSAEXIT
 001E7A                            20370    01388000           END
                                   20374    01389000  *
                                   20375    01390000  *                                  IF DEBUGGER AND AT BREAK
 001E7A 41F0 B46C            0046C 20376    01391000           SCTELL TVDBSCNCB
 001E7E 58E0 A2B8/0DEE       020C0 20386             +
 001E84 5820 6020            00020 20388    01392000           L     R2,DVSYMP
1DBMAIN   Debug: Commands                                                                                                   Page   76
0Current Usings:  (DVWA,R6) (OSFCOMMN,R9) (*,R10) (TVT,R11) (GVT,R12)
0Loc    Object Code    Addr1 Addr2  Stmt Lv Lineno    Source Statement           (Hibal 5, Asmedit 3.3)  HLASM R4.0  2002/06/06 10.05
+___    ______ ____    _____ _____  ____ __ ______    ______ _________
0001E88 5850 601C            0001C 20389    01393000           L     R5,DVEPIEP
 USING  EPIE,R5                    20390    01394000           WITH  (EPIE,R5),BEGIN
 001E8C 4130 5008            00008 20404  1 01395000             LA    R3,EPIEGPR
 001E90 5840 504C            0004C 20405  1 01396000             GETIA R4,EPIEPSW
 001E94 4144 0000            00000 20407  1          +
 DROP   EPIE,R5                    20408    01397000           END
 001E98 58F0 B468            00468 20416    01398000           L     R15,TVDBSEGP
 001E9C 58E0 A2D0/0DEE       020D8 20417    01399000           VCALL SHOWA
                                   20421    01400000
 001EA2                            20422    01401000  CSAEXIT  LABEL ,
 001EA2                            20424    01402000           CLEAR TVDBSCNLEN          CMD DONE, SCAN NO MORE
 001EA2 D703 B478 B478 00478 00478 20430             +
 001EA8 5BD0 A248            02050 20431    01403000           SCPOP
 001EAC 58F0 D000            00000 20433             +
 001EB0 D203 B480 D004 00480 00004 20434             +
 001EB6 18D8/980C D004       00004 20435    01404000           PEND
 DROP   *,R10
 001EBC 58E0 D000/12FF       00000 20451             +
 001EC2 07FE                       20454             +
 DROP   DVWA,R6                    20455    01405000           DROP  R6
1DBMAIN   Debug: Commands                                                                                                   Page   77
0Current Usings:  (OSFCOMMN,R9) (TVT,R11) (GVT,R12)
0Loc    Object Code    Addr1 Addr2  Stmt Lv Lineno    Source Statement           (Hibal 5, Asmedit 3.3)  HLASM R4.0  2002/06/06 10.05
+___    ______ ____    _____ _____  ____ __ ______    ______ _________
0                                  20463    01407000  *
                                   20464    01408000  *  CMDSS - SHOW SYMBOLS
                                   20465    01409000  *
                                   20466    01410000  *
 001EC4 90DF B0D4            000D4 20467    01411000  CMDSS    PROC
 001EC8 58F0 C014/0DEF       00014 20477             +
 001ECE C3D4C4E2E2404040           20479             +
 001ED6 98DF B0D4            000D4 20480             +
 001EDA 50E0 D000            00000 20483             +
 001EDE 900C D004/188D       00004 20486             +
 001EE4 41D0 D038/0DA0       00038 20488             +
 001EEA 50F0 D000            00000 20511    01412000           SCPUSH
 USING  *,R10
 001EEE D203 D004 B480 00004 00480 20513             +
 001EF4 41DD 0008            00008 20514             +
                                   20515    01413000
 001EF8 4160 C208            00208 20516    01414000           LA    R6,GVTDVWA
 USING  DVWA,R6                    20517    01415000           USING DVWA,R6
                                   20526    01416000  *
                                   20527    01417000  *                                  REMOVE DECEASED DEBUGER/EE
 001EFC 58E0 A106/0DEE       01FF0 20528    01418000           ACALL CHKDEBUG
                                   20532    01419000  *
                                   20533    01420000  *                                  CHECK DEBUGGEE
 001F02 58E0 A1D2/0DEE       020BC 20534    01421000           ACALL CHKDBGEE
 001F08 4780 A038            01F22 20538    01422000           IF    NZ,BEGIN
 001F0C 4110 A0E6            01FD0 20549  1 01423000             SEGWR 'Task not found.  (may have died)'
 001F10 4100 0020            00020 20554  1          +
 001F14 58F0 B468            00468 20560  1          +
 001F18 58E0 A112/0DEE       01FFC 20563  1          +
 001F1E 47F0 A088            01F72 20565  1 01424000             B     CSSEXIT
 001F22                            20566    01425000           END
                                   20570    01426000  *
                                   20571    01427000  *                                  NOT AT BREAK
 001F22 9180 B48C      0048C       20572    01428000           IF    ~TVDBFBRK,BEGIN
 001F26 4710 A060            01F4A 20582             +
 001F2A 41F0 B46C            0046C 20587  1 01429000             SCTELL TVDBSCNCB
 001F2E 58E0 A1D6/0DEE       020C0 20597  1          +
 001F34 5820 6020            00020 20599  1 01430000             L     R2,DVSYMP
                                   20600  1 01431000  *                                  NO REGS, CURRENT ADDR
 001F38 1B33                       20601  1 01432000             CLEAR R3
 001F3A 1B44                       20605  1 01433000             CLEAR R4
 001F3C 58F0 B468            00468 20609  1 01434000             L     R15,TVDBSEGP
 001F40 58E0 A1F2/0DEE       020DC 20610  1 01435000             VCALL SHOWS
 001F46 47F0 A088            01F72 20614  1 01436000             B     CSSEXIT
 001F4A                            20615    01437000           END
                                   20619    01438000  *
                                   20620    01439000  *                                  IF DEBUGGER AND AT BREAK
 001F4A 41F0 B46C            0046C 20621    01440000           SCTELL TVDBSCNCB
 001F4E 58E0 A1D6/0DEE       020C0 20631             +
 001F54 5820 6020            00020 20633    01441000           L     R2,DVSYMP
 001F58 5850 601C            0001C 20634    01442000           L     R5,DVEPIEP
 USING  EPIE,R5                    20635    01443000           WITH  (EPIE,R5),BEGIN
 001F5C 4130 5008            00008 20649  1 01444000             LA    R3,EPIEGPR
 001F60 5840 504C            0004C 20650  1 01445000             GETIA R4,EPIEPSW
1DBMAIN   Debug: Commands                                                                                                   Page   78
0Current Usings:  (EPIE,R5) (DVWA,R6) (OSFCOMMN,R9) (*,R10) (TVT,R11) (GVT,R12)
0Loc    Object Code    Addr1 Addr2  Stmt Lv Lineno    Source Statement           (Hibal 5, Asmedit 3.3)  HLASM R4.0  2002/06/06 10.05
+___    ______ ____    _____ _____  ____ __ ______    ______ _________
0001F64 4144 0000            00000 20652  1          +
 DROP   EPIE,R5                    20653    01446000           END
 001F68 58F0 B468            00468 20661    01447000           L     R15,TVDBSEGP
 001F6C 58E0 A1F2/0DEE       020DC 20662    01448000           VCALL SHOWS
                                   20666    01449000
 001F72                            20667    01450000  CSSEXIT  LABEL ,
 001F72                            20669    01451000           CLEAR TVDBSCNLEN          CMD DONE, SCAN NO MORE
 001F72 D703 B478 B478 00478 00478 20675             +
 001F78 5BD0 A166            02050 20676    01452000           SCPOP
 001F7C 58F0 D000            00000 20678             +
 001F80 D203 B480 D004 00480 00004 20679             +
 001F86 18D8/980C D004       00004 20680    01453000           PEND
 DROP   *,R10
 001F8C 58E0 D000/12FF       00000 20696             +
 001F92 07FE                       20699             +
 DROP   DVWA,R6                    20700    01454000           DROP  R6
                                   20707    01455000
                                   20708    01456000           QLTORG
1DBMAIN   Debug: Commands                                                                                                   Page   79
0Current Usings:  (OSFCOMMN,R9) (TVT,R11) (GVT,R12)
0Loc    Object Code    Addr1 Addr2  Stmt Lv Lineno    Source Statement           (Hibal 5, Asmedit 3.3)  HLASM R4.0  2002/06/06 10.05
+___    ______ ____    _____ _____  ____ __ ______    ______ _________
0                                  20762    01458000  *
                                   20763    01459000  *  CMDPC - PATCH CORE
                                   20764    01460000  *
                                   20765    01461000  *
 0021F0 90DF B0D4            000D4 20766    01462000  CMDPC    PROC
 0021F4 58F0 C014/0DEF       00014 20776             +
 0021FA C3D4C4D7C3404040           20778             +
 002202 98DF B0D4            000D4 20779             +
 002206 50E0 D000            00000 20782             +
 00220A 900C D004/188D       00004 20785             +
 002210 41D0 D038/0DA0       00038 20787             +
 002216 50F0 D000            00000 20810    01463000           SCPUSH
 USING  *,R10
 00221A D203 D004 B480 00004 00480 20812             +
 002220 41DD 0008            00008 20813             +
                                   20814    01464000
 002224 4160 C208            00208 20815    01465000           LA    R6,GVTDVWA
 USING  DVWA,R6                    20816    01466000           USING DVWA,R6
                                   20825    01467000  *
                                   20826    01468000  *                                  REMOVE DECEASED DEBUGER/EE
 002228 58E0 A272/0DEE       02488 20827    01469000           ACALL CHKDEBUG
                                   20831    01470000  *
                                   20832    01471000  *                                  CHECK DEBUGGEE
 00222E 58E0 A276/0DEE       0248C 20833    01472000           ACALL CHKDBGEE
 002234 4780 A038            0224E 20837    01473000           IF    NZ,BEGIN
 002238 4110 A252            02468 20848  1 01474000             SEGWR 'Task not found.  (may have died)'
 00223C 4100 0020            00020 20853  1          +
 002240 58F0 B468            00468 20859  1          +
 002244 58E0 A27A/0DEE       02490 20862  1          +
 00224A 47F0 A09A            022B0 20864  1 01475000             B     CPCEXIT
 00224E                            20865    01476000           END
                                   20869    01477000  *
                                   20870    01478000  *                                  NOT AT BREAK
 00224E 9180 B48C      0048C       20871    01479000           IF    ~TVDBFBRK,BEGIN
 002252 4710 A072            02288 20881             +
 002256 4110 A292            024A8 20886  1 01480000             SEGWR 'Note: not at debug breakpoint'
 00225A 4100 001D            0001D 20891  1          +
 00225E 58F0 B468            00468 20897  1          +
 002262 58E0 A27A/0DEE       02490 20900  1          +
 002268 41F0 B46C            0046C 20902  1 01481000             SCTELL TVDBSCNCB
 00226C 58E0 A27E/0DEE       02494 20912  1          +
 002272 5820 6020            00020 20914  1 01482000             L     R2,DVSYMP
                                   20915  1 01483000  *                                  NO REGS, CURRENT ADDR
 002276 1B33                       20916  1 01484000             CLEAR R3
 002278 1B44                       20920  1 01485000             CLEAR R4
 00227A 58F0 B468            00468 20924  1 01486000             L     R15,TVDBSEGP
 00227E 58E0 A282/0DEE       02498 20925  1 01487000             VCALL PATCHC
 002284 47F0 A09A            022B0 20929  1 01488000             B     CPCEXIT
 002288                            20930    01489000           END
                                   20934    01490000  *
                                   20935    01491000  *                                  IF DEBUGGER AND AT BREAK
 002288 41F0 B46C            0046C 20936    01492000           SCTELL TVDBSCNCB
 00228C 58E0 A27E/0DEE       02494 20946             +
 002292 5820 6020            00020 20948    01493000           L     R2,DVSYMP
1DBMAIN   Debug: Commands                                                                                                   Page   80
0Current Usings:  (DVWA,R6) (OSFCOMMN,R9) (*,R10) (TVT,R11) (GVT,R12)
0Loc    Object Code    Addr1 Addr2  Stmt Lv Lineno    Source Statement           (Hibal 5, Asmedit 3.3)  HLASM R4.0  2002/06/06 10.05
+___    ______ ____    _____ _____  ____ __ ______    ______ _________
0002296 5850 601C            0001C 20949    01494000           L     R5,DVEPIEP
 USING  EPIE,R5                    20950    01495000           WITH  (EPIE,R5),BEGIN
 00229A 4130 5008            00008 20964  1 01496000             LA    R3,EPIEGPR
 00229E 5840 504C            0004C 20965  1 01497000             GETIA R4,EPIEPSW
 0022A2 4144 0000            00000 20967  1          +
 DROP   EPIE,R5                    20968    01498000           END
 0022A6 58F0 B468            00468 20976    01499000           L     R15,TVDBSEGP
 0022AA 58E0 A282/0DEE       02498 20977    01500000           VCALL PATCHC
                                   20981    01501000
 0022B0                            20982    01502000  CPCEXIT  LABEL ,
 0022B0                            20984    01503000           CLEAR TVDBSCNLEN          CMD DONE, SCAN NO MORE
 0022B0 D703 B478 B478 00478 00478 20990             +
 0022B6 5BD0 A286            0249C 20991    01504000           SCPOP
 0022BA 58F0 D000            00000 20993             +
 0022BE D203 B480 D004 00480 00004 20994             +
 0022C4 18D8/980C D004       00004 20995    01505000           PEND
 DROP   *,R10
 0022CA 58E0 D000/12FF       00000 21011             +
 0022D0 07FE                       21014             +
 DROP   DVWA,R6                    21015    01506000           DROP  R6
1DBMAIN   Debug: Commands                                                                                                   Page   81
0Current Usings:  (OSFCOMMN,R9) (TVT,R11) (GVT,R12)
0Loc    Object Code    Addr1 Addr2  Stmt Lv Lineno    Source Statement           (Hibal 5, Asmedit 3.3)  HLASM R4.0  2002/06/06 10.05
+___    ______ ____    _____ _____  ____ __ ______    ______ _________
0                                  21023    01508000  *
                                   21024    01509000  *  CMDPG - PATCH REGISTER
                                   21025    01510000  *
                                   21026    01511000  *
 0022D2 90DF B0D4            000D4 21027    01512000  CMDPG    PROC
 0022D6 58F0 C014/0DEF       00014 21037             +
 0022DC C3D4C4D7C7404040           21039             +
 0022E4 98DF B0D4            000D4 21040             +
 0022E8 50E0 D000            00000 21043             +
 0022EC 900C D004/188D       00004 21046             +
 0022F2 41D0 D038/0DA0       00038 21048             +
 0022F8 50F0 D000            00000 21071    01513000           SCPUSH
 USING  *,R10
 0022FC D203 D004 B480 00004 00480 21073             +
 002302 41DD 0008            00008 21074             +
                                   21075    01514000
 002306 4160 C208            00208 21076    01515000           LA    R6,GVTDVWA
 USING  DVWA,R6                    21077    01516000           USING DVWA,R6
                                   21086    01517000  *
                                   21087    01518000  *                                  REMOVE DECEASED DEBUGER/EE
 00230A 58E0 A190/0DEE       02488 21088    01519000           ACALL CHKDEBUG
                                   21092    01520000  *
                                   21093    01521000  *                                  CHECK DEBUGGEE
 002310 58E0 A194/0DEE       0248C 21094    01522000           ACALL CHKDBGEE
 002316 4780 A038            02330 21098    01523000           IF    NZ,BEGIN
 00231A 4110 A170            02468 21109  1 01524000             SEGWR 'Task not found.  (may have died)'
 00231E 4100 0020            00020 21114  1          +
 002322 58F0 B468            00468 21120  1          +
 002326 58E0 A198/0DEE       02490 21123  1          +
 00232C 47F0 A07E            02376 21125  1 01525000             B     CPGEXIT
 002330                            21126    01526000           END
                                   21130    01527000  *
                                   21131    01528000  *                                  NOT AT BREAK
 002330 9180 B48C      0048C       21132    01529000           IF    ~TVDBFBRK,BEGIN
 002334 4710 A056            0234E 21142             +
 002338 4110 A1CD            024C5 21147  1 01530000             SEGWR 'Command failed.  Not at debug breakpoint.'
 00233C 4100 0029            00029 21152  1          +
 002340 58F0 B468            00468 21158  1          +
 002344 58E0 A198/0DEE       02490 21161  1          +
 00234A 47F0 A07E            02376 21163  1 01531000             B     CPGEXIT
 00234E                            21164    01532000           END
                                   21168    01533000  *
                                   21169    01534000  *                                  IF DEBUGGER AND AT BREAK
 00234E 41F0 B46C            0046C 21170    01535000           SCTELL TVDBSCNCB
 002352 58E0 A19C/0DEE       02494 21180             +
 002358 5820 6020            00020 21182    01536000           L     R2,DVSYMP
 00235C 5850 601C            0001C 21183    01537000           L     R5,DVEPIEP
 USING  EPIE,R5                    21184    01538000           WITH  (EPIE,R5),BEGIN
 002360 4130 5008            00008 21198  1 01539000             LA    R3,EPIEGPR
 002364 5840 504C            0004C 21199  1 01540000             GETIA R4,EPIEPSW
 002368 4144 0000            00000 21201  1          +
 DROP   EPIE,R5                    21202    01541000           END
 00236C 58F0 B468            00468 21210    01542000           L     R15,TVDBSEGP
 002370 58E0 A1A8/0DEE       024A0 21211    01543000           VCALL PATCHG
1DBMAIN   Debug: Commands                                                                                                   Page   82
0Current Usings:  (DVWA,R6) (OSFCOMMN,R9) (*,R10) (TVT,R11) (GVT,R12)
0Loc    Object Code    Addr1 Addr2  Stmt Lv Lineno    Source Statement           (Hibal 5, Asmedit 3.3)  HLASM R4.0  2002/06/06 10.05
+___    ______ ____    _____ _____  ____ __ ______    ______ _________
0                                  21215    01544000
 002376                            21216    01545000  CPGEXIT  LABEL ,
 002376                            21218    01546000           CLEAR TVDBSCNLEN          CMD DONE, SCAN NO MORE
 002376 D703 B478 B478 00478 00478 21224             +
 00237C 5BD0 A1A4            0249C 21225    01547000           SCPOP
 002380 58F0 D000            00000 21227             +
 002384 D203 B480 D004 00480 00004 21228             +
 00238A 18D8/980C D004       00004 21229    01548000           PEND
 DROP   *,R10
 002390 58E0 D000/12FF       00000 21245             +
 002396 07FE                       21248             +
 DROP   DVWA,R6                    21249    01549000           DROP  R6
1DBMAIN   Debug: Commands                                                                                                   Page   83
0Current Usings:  (OSFCOMMN,R9) (TVT,R11) (GVT,R12)
0Loc    Object Code    Addr1 Addr2  Stmt Lv Lineno    Source Statement           (Hibal 5, Asmedit 3.3)  HLASM R4.0  2002/06/06 10.05
+___    ______ ____    _____ _____  ____ __ ______    ______ _________
0                                  21257    01551000  *
                                   21258    01552000  *  CMDPIA - PATCH INSTRUCTION ADDRESS
                                   21259    01553000  *
                                   21260    01554000  *
 002398 90DF B0D4            000D4 21261    01555000  CMDPIA   PROC
 00239C 58F0 C014/0DEF       00014 21271             +
 0023A2 C3D4C4D7C9C14040           21273             +
 0023AA 98DF B0D4            000D4 21274             +
 0023AE 50E0 D000            00000 21277             +
 0023B2 900C D004/188D       00004 21280             +
 0023B8 41D0 D038/0DA0       00038 21282             +
 0023BE 50F0 D000            00000 21305    01556000           SCPUSH
 USING  *,R10
 0023C2 D203 D004 B480 00004 00480 21307             +
 0023C8 41DD 0008            00008 21308             +
                                   21309    01557000
 0023CC 4160 C208            00208 21310    01558000           LA    R6,GVTDVWA
 USING  DVWA,R6                    21311    01559000           USING DVWA,R6
                                   21320    01560000  *
                                   21321    01561000  *                                  REMOVE DECEASED DEBUGER/EE
 0023D0 58E0 A0CA/0DEE       02488 21322    01562000           ACALL CHKDEBUG
                                   21326    01563000  *
                                   21327    01564000  *                                  CHECK DEBUGGEE
 0023D6 58E0 A0CE/0DEE       0248C 21328    01565000           ACALL CHKDBGEE
 0023DC 4780 A038            023F6 21332    01566000           IF    NZ,BEGIN
 0023E0 4110 A0AA            02468 21343  1 01567000             SEGWR 'Task not found.  (may have died)'
 0023E4 4100 0020            00020 21348  1          +
 0023E8 58F0 B468            00468 21354  1          +
 0023EC 58E0 A0D2/0DEE       02490 21357  1          +
 0023F2 47F0 A082            02440 21359  1 01568000             B     CPIAEXIT
 0023F6                            21360    01569000           END
                                   21364    01570000  *
                                   21365    01571000  *                                  NOT AT BREAK
 0023F6 9180 B48C      0048C       21366    01572000           IF    ~TVDBFBRK,BEGIN
 0023FA 4710 A056            02414 21376             +
 0023FE 4110 A107            024C5 21381  1 01573000             SEGWR 'Command failed.  Not at debug breakpoint.'
 002402 4100 0029            00029 21386  1          +
 002406 58F0 B468            00468 21392  1          +
 00240A 58E0 A0D2/0DEE       02490 21395  1          +
 002410 47F0 A082            02440 21397  1 01574000             B     CPIAEXIT
 002414                            21398    01575000           END
                                   21402    01576000  *
                                   21403    01577000  *                                  IF DEBUGGER AND AT BREAK
 002414 41F0 B46C            0046C 21404    01578000           SCTELL TVDBSCNCB
 002418 58E0 A0D6/0DEE       02494 21414             +
 00241E 5820 6020            00020 21416    01579000           L     R2,DVSYMP
 002422 5850 601C            0001C 21417    01580000           L     R5,DVEPIEP
 USING  EPIE,R5                    21418    01581000           WITH  (EPIE,R5),BEGIN
 002426 4130 5008            00008 21432  1 01582000             LA    R3,EPIEGPR
 00242A 5840 504C            0004C 21433  1 01583000             GETIA R4,EPIEPSW
 00242E 4144 0000            00000 21435  1          +
 DROP   EPIE,R5                    21436    01584000           END
 002432 4150 6000            00000 21444    01585000           LA    R5,DVWA
 002436 58F0 B468            00468 21445    01586000           L     R15,TVDBSEGP
1DBMAIN   Debug: Commands                                                                                                   Page   84
0Current Usings:  (DVWA,R6) (OSFCOMMN,R9) (*,R10) (TVT,R11) (GVT,R12)
0Loc    Object Code    Addr1 Addr2  Stmt Lv Lineno    Source Statement           (Hibal 5, Asmedit 3.3)  HLASM R4.0  2002/06/06 10.05
+___    ______ ____    _____ _____  ____ __ ______    ______ _________
000243A 58E0 A0E6/0DEE       024A4 21446    01587000           VCALL PATCHIA
                                   21450    01588000
 002440                            21451    01589000  CPIAEXIT LABEL ,
 002440                            21453    01590000           CLEAR TVDBSCNLEN          CMD DONE, SCAN NO MORE
 002440 D703 B478 B478 00478 00478 21459             +
 002446 5BD0 A0DE            0249C 21460    01591000           SCPOP
 00244A 58F0 D000            00000 21462             +
 00244E D203 B480 D004 00480 00004 21463             +
 002454 18D8/980C D004       00004 21464    01592000           PEND
 DROP   *,R10
 00245A 58E0 D000/12FF       00000 21480             +
 002460 07FE                       21483             +
 DROP   DVWA,R6                    21484    01593000           DROP  R6
                                   21491    01594000
                                   21492    01595000           QLTORG
1DBMAIN   Debug: Commands                                                                                                   Page   85
0Current Usings:  (OSFCOMMN,R9) (TVT,R11) (GVT,R12)
0Loc    Object Code    Addr1 Addr2  Stmt Lv Lineno    Source Statement           (Hibal 5, Asmedit 3.3)  HLASM R4.0  2002/06/06 10.05
+___    ______ ____    _____ _____  ____ __ ______    ______ _________
0                                  21516    01597000  *
                                   21517    01598000  *  CMDGO - CONTINUE DEBUGGEE PROGRAM
                                   21518    01599000  *
                                   21519    01600000  *
 0024EE 90DF B0D4            000D4 21520    01601000  CMDGO    PROC
 0024F2 58F0 C014/0DEF       00014 21530             +
 0024F8 C3D4C4C7D6404040           21532             +
 002500 98DF B0D4            000D4 21533             +
 002504 50E0 D000            00000 21536             +
 002508 900C D004/188D       00004 21539             +
 00250E 41D0 D038/0DA0       00038 21541             +
 002514 50F0 D000            00000 21564    01602000           SCPUSH
 USING  *,R10
 002518 D203 D004 B480 00004 00480 21566             +
 00251E 41DD 0008            00008 21567             +
                                   21568    01603000
 002522 4160 C208            00208 21569    01604000           LA    R6,GVTDVWA
 USING  DVWA,R6                    21570    01605000           USING DVWA,R6
                                   21579    01606000  *
                                   21580    01607000  *                                  REMOVE DECEASED DEBUGER/EE
 002526 58E0 A4CC/0DEE       029E0 21581    01608000           ACALL CHKDEBUG
                                   21585    01609000  *
                                   21586    01610000  *                                  CHECK DEBUGGEE
 00252C 58E0 A4D0/0DEE       029E4 21587    01611000           ACALL CHKDBGEE
 002532 4780 A038            0254C 21591    01612000           IF    NZ,BEGIN
 002536 4110 A4AC            029C0 21602  1 01613000             SEGWR 'Task not found.  (may have died)'
 00253A 4100 0020            00020 21607  1          +
 00253E 58F0 B468            00468 21613  1          +
 002542 58E0 A4D4/0DEE       029E8 21616  1          +
 002548 47F0 A066            0257A 21618  1 01614000             B     CGOEXIT
 00254C                            21619    01615000           END
                                   21623    01616000  *
                                   21624    01617000  *                                  NOT AT BREAK
 00254C 9180 B48C      0048C       21625    01618000           IF    ~TVDBFBRK,BEGIN
 002550 4710 A056            0256A 21635             +
 002554 4110 A4F4            02A08 21640  1 01619000             SEGWR 'Command failed.  Not at debug breakpoint.'
 002558 4100 0029            00029 21645  1          +
 00255C 58F0 B468            00468 21651  1          +
 002560 58E0 A4D4/0DEE       029E8 21654  1          +
 002566 47F0 A066            0257A 21656  1 01620000             B     CGOEXIT
 00256A                            21657    01621000           END
                                   21661    01622000  *
                                   21662    01623000  *                                  POST DEBUGEE TO CONTINUE
 00256A 4110 6014            00014 21663    01624000           LA    R1,DVEEECB
 00256E 1B00/4110 1000       00000 21664    01625000           POST  (R1),0
 002574 0A02                       21669             +
 002576 947F B48C      0048C       21670    01626000           CLEAR TVDBFBRK
                                   21677    01627000
 00257A                            21678    01628000  CGOEXIT  LABEL ,
 00257A                            21680    01629000           CLEAR TVDBSCNLEN          CMD DONE, SCAN NO MORE
 00257A D703 B478 B478 00478 00478 21686             +
 002580 5BD0 A4D8            029EC 21687    01630000           SCPOP
 002584 58F0 D000            00000 21689             +
 002588 D203 B480 D004 00480 00004 21690             +
1DBMAIN   Debug: Commands                                                                                                   Page   86
0Current Usings:  (DVWA,R6) (OSFCOMMN,R9) (TVT,R11) (GVT,R12)
0Loc    Object Code    Addr1 Addr2  Stmt Lv Lineno    Source Statement           (Hibal 5, Asmedit 3.3)  HLASM R4.0  2002/06/06 10.05
+___    ______ ____    _____ _____  ____ __ ______    ______ _________
000258E 18D8/980C D004       00004 21691    01631000           PEND
 DROP   *,R10
 002594 58E0 D000/12FF       00000 21707             +
 00259A 07FE                       21710             +
 DROP   DVWA,R6                    21711    01632000           DROP  R6
                                   21718    01633000
1DBMAIN   Debug: Commands                                                                                                   Page   87
0Current Usings:  (OSFCOMMN,R9) (TVT,R11) (GVT,R12)
0Loc    Object Code    Addr1 Addr2  Stmt Lv Lineno    Source Statement           (Hibal 5, Asmedit 3.3)  HLASM R4.0  2002/06/06 10.05
+___    ______ ____    _____ _____  ____ __ ______    ______ _________
0                                  21720    01635000  *
                                   21721    01636000  *  CMDGOTO - GOTO NEW ADDRESS
                                   21722    01637000  *
                                   21723    01638000  *  CODE IS SAME AS PIA+GO COMMAND
                                   21724    01639000  *
 00259C 90DF B0D4            000D4 21725    01640000  CMDGOTO  PROC
 0025A0 58F0 C014/0DEF       00014 21735             +
 0025A6 C3D4C4C7D6E3D640           21737             +
 0025AE 98DF B0D4            000D4 21738             +
 0025B2 50E0 D000            00000 21741             +
 0025B6 900C D004/188D       00004 21744             +
 0025BC 41D0 D038/0DA0       00038 21746             +
 0025C2 50F0 D000            00000 21769    01641000           SCPUSH
 USING  *,R10
 0025C6 D203 D004 B480 00004 00480 21771             +
 0025CC 41DD 0008            00008 21772             +
                                   21773    01642000
 0025D0 4160 C208            00208 21774    01643000           LA    R6,GVTDVWA
 USING  DVWA,R6                    21775    01644000           USING DVWA,R6
                                   21784    01645000  *
                                   21785    01646000  *                                  REMOVE DECEASED DEBUGER/EE
 0025D4 58E0 A41E/0DEE       029E0 21786    01647000           ACALL CHKDEBUG
                                   21790    01648000  *
                                   21791    01649000  *                                  CHECK DEBUGGEE
 0025DA 58E0 A422/0DEE       029E4 21792    01650000           ACALL CHKDBGEE
 0025E0 4780 A038            025FA 21796    01651000           IF    NZ,BEGIN
 0025E4 4110 A3FE            029C0 21807  1 01652000             SEGWR 'Task not found.  (may have died)'
 0025E8 4100 0020            00020 21812  1          +
 0025EC 58F0 B468            00468 21818  1          +
 0025F0 58E0 A426/0DEE       029E8 21821  1          +
 0025F6 47F0 A098            0265A 21823  1 01653000             B     CGOTOXIT
 0025FA                            21824    01654000           END
                                   21828    01655000  *
                                   21829    01656000  *                                  NOT AT BREAK
 0025FA 9180 B48C      0048C       21830    01657000           IF    ~TVDBFBRK,BEGIN
 0025FE 4710 A056            02618 21840             +
 002602 4110 A446            02A08 21845  1 01658000             SEGWR 'Command failed.  Not at debug breakpoint.'
 002606 4100 0029            00029 21850  1          +
 00260A 58F0 B468            00468 21856  1          +
 00260E 58E0 A426/0DEE       029E8 21859  1          +
 002614 47F0 A098            0265A 21861  1 01659000             B     CGOTOXIT
 002618                            21862    01660000           END
                                   21866    01661000  *
                                   21867    01662000  *                                  IF DEBUGGER AND AT BREAK
 002618 41F0 B46C            0046C 21868    01663000           SCTELL TVDBSCNCB
 00261C 58E0 A42E/0DEE       029F0 21878             +
 002622 5820 6020            00020 21880    01664000           L     R2,DVSYMP
 002626 5850 601C            0001C 21881    01665000           L     R5,DVEPIEP
 USING  EPIE,R5                    21882    01666000           WITH  (EPIE,R5),BEGIN
 00262A 4130 5008            00008 21896  1 01667000             LA    R3,EPIEGPR
 00262E 5840 504C            0004C 21897  1 01668000             GETIA R4,EPIEPSW
 002632 4144 0000            00000 21899  1          +
 DROP   EPIE,R5                    21900    01669000           END
 002636 4150 6000            00000 21908    01670000           LA    R5,DVWA
1DBMAIN   Debug: Commands                                                                                                   Page   88
0Current Usings:  (DVWA,R6) (OSFCOMMN,R9) (*,R10) (TVT,R11) (GVT,R12)
0Loc    Object Code    Addr1 Addr2  Stmt Lv Lineno    Source Statement           (Hibal 5, Asmedit 3.3)  HLASM R4.0  2002/06/06 10.05
+___    ______ ____    _____ _____  ____ __ ______    ______ _________
000263A 58F0 B468            00468 21909    01671000           L     R15,TVDBSEGP
 00263E 58E0 A432/0DEE       029F4 21910    01672000           VCALL PATCHIA
                                   21914    01673000  *
                                   21915    01674000  *                                  POST DEBUGEE TO CONTINUE
 002644 12FF/4770 A098       0265A 21916    01675000           IF    (R15,Z),BEGIN       IF PATCH ADDRESS OK, GO
 00264A 4110 6014            00014 21930  1 01676000             LA    R1,DVEEECB
 00264E 1B00/4110 1000       00000 21931  1 01677000             POST  (R1),0
 002654 0A02                       21936  1          +
 002656 947F B48C      0048C       21937  1 01678000             CLEAR TVDBFBRK
 00265A                            21944    01679000           END
                                   21948    01680000
 00265A                            21949    01681000  CGOTOXIT LABEL ,
 00265A                            21951    01682000           CLEAR TVDBSCNLEN          CMD DONE, SCAN NO MORE
 00265A D703 B478 B478 00478 00478 21957             +
 002660 5BD0 A42A            029EC 21958    01683000           SCPOP
 002664 58F0 D000            00000 21960             +
 002668 D203 B480 D004 00480 00004 21961             +
 00266E 18D8/980C D004       00004 21962    01684000           PEND
 DROP   *,R10
 002674 58E0 D000/12FF       00000 21978             +
 00267A 07FE                       21981             +
 DROP   DVWA,R6                    21982    01685000           DROP  R6
1DBMAIN   Debug: Commands                                                                                                   Page   89
0Current Usings:  (OSFCOMMN,R9) (TVT,R11) (GVT,R12)
0Loc    Object Code    Addr1 Addr2  Stmt Lv Lineno    Source Statement           (Hibal 5, Asmedit 3.3)  HLASM R4.0  2002/06/06 10.05
+___    ______ ____    _____ _____  ____ __ ______    ______ _________
0                                  21990    01687000  *
                                   21991    01688000  *  CMDST - SET TRAP
                                   21992    01689000  *
                                   21993    01690000  *
 00267C 90DF B0D4            000D4 21994    01691000  CMDST    PROC
 002680 58F0 C014/0DEF       00014 22004             +
 002686 C3D4C4E2E3404040           22006             +
 00268E 98DF B0D4            000D4 22007             +
 002692 50E0 D000            00000 22010             +
 002696 900C D004/188D       00004 22013             +
 00269C 41D0 D038/0DA0       00038 22015             +
 0026A2 50F0 D000            00000 22038    01692000           SCPUSH
 USING  *,R10
 0026A6 D203 D004 B480 00004 00480 22040             +
 0026AC 41DD 0008            00008 22041             +
                                   22042    01693000
 0026B0 4160 C208            00208 22043    01694000           LA    R6,GVTDVWA
 USING  DVWA,R6                    22044    01695000           USING DVWA,R6
                                   22053    01696000  *
                                   22054    01697000  *                                  REMOVE DECEASED DEBUGER/EE
 0026B4 58E0 A33E/0DEE       029E0 22055    01698000           ACALL CHKDEBUG
                                   22059    01699000  *
                                   22060    01700000  *                                  CHECK DEBUGGEE
 0026BA 58E0 A342/0DEE       029E4 22061    01701000           ACALL CHKDBGEE
 0026C0 4780 A038            026DA 22065    01702000           IF    NZ,BEGIN
 0026C4 4110 A31E            029C0 22076  1 01703000             SEGWR 'Task not found.  (may have died)'
 0026C8 4100 0020            00020 22081  1          +
 0026CC 58F0 B468            00468 22087  1          +
 0026D0 58E0 A346/0DEE       029E8 22090  1          +
 0026D6 47F0 A090            02732 22092  1 01704000             B     CSTEXIT
 0026DA                            22093    01705000           END
                                   22097    01706000  *
                                   22098    01707000  *                                  NOT AT BREAK
 0026DA 9180 B48C      0048C       22099    01708000           IF    ~TVDBFBRK,BEGIN
 0026DE 4710 A064            02706 22109             +
 0026E2 41F0 B46C            0046C 22114  1 01709000             SCTELL TVDBSCNCB
 0026E6 58E0 A34E/0DEE       029F0 22124  1          +
 0026EC 5820 6020            00020 22126  1 01710000             L     R2,DVSYMP
                                   22127  1 01711000  *                                  NO REGS, CURRENT ADDR
 0026F0 1B33                       22128  1 01712000             CLEAR R3
 0026F2 1B44                       22132  1 01713000             CLEAR R4
 0026F4 4150 6000            00000 22136  1 01714000             LA    R5,DVWA
 0026F8 58F0 B468            00468 22137  1 01715000             L     R15,TVDBSEGP
 0026FC 58E0 A356/0DEE       029F8 22138  1 01716000             VCALL SETT
 002702 47F0 A090            02732 22142  1 01717000             B     CSTEXIT
 002706                            22143    01718000           END
                                   22147    01719000  *
                                   22148    01720000  *                                  IF DEBUGGER AND AT BREAK
 002706 41F0 B46C            0046C 22149    01721000           SCTELL TVDBSCNCB
 00270A 58E0 A34E/0DEE       029F0 22159             +
 002710 5820 6020            00020 22161    01722000           L     R2,DVSYMP
 002714 5850 601C            0001C 22162    01723000           L     R5,DVEPIEP
 USING  EPIE,R5                    22163    01724000           WITH  (EPIE,R5),BEGIN
 002718 4130 5008            00008 22177  1 01725000             LA    R3,EPIEGPR
1DBMAIN   Debug: Commands                                                                                                   Page   90
0Current Usings:  (EPIE,R5) (DVWA,R6) (OSFCOMMN,R9) (*,R10) (TVT,R11) (GVT,R12)
0Loc    Object Code    Addr1 Addr2  Stmt Lv Lineno    Source Statement           (Hibal 5, Asmedit 3.3)  HLASM R4.0  2002/06/06 10.05
+___    ______ ____    _____ _____  ____ __ ______    ______ _________
000271C 5840 504C            0004C 22178  1 01726000             GETIA R4,EPIEPSW
 002720 4144 0000            00000 22180  1          +
 DROP   EPIE,R5                    22181    01727000           END
 002724 4150 6000            00000 22189    01728000           LA    R5,DVWA
 002728 58F0 B468            00468 22190    01729000           L     R15,TVDBSEGP
 00272C 58E0 A356/0DEE       029F8 22191    01730000           VCALL SETT
                                   22195    01731000
 002732                            22196    01732000  CSTEXIT  LABEL ,
 002732                            22198    01733000           CLEAR TVDBSCNLEN          CMD DONE, SCAN NO MORE
 002732 D703 B478 B478 00478 00478 22204             +
 002738 5BD0 A34A            029EC 22205    01734000           SCPOP
 00273C 58F0 D000            00000 22207             +
 002740 D203 B480 D004 00480 00004 22208             +
 002746 18D8/980C D004       00004 22209    01735000           PEND
 DROP   *,R10
 00274C 58E0 D000/12FF       00000 22225             +
 002752 07FE                       22228             +
 DROP   DVWA,R6                    22229    01736000           DROP  R6
                                   22236    01737000
1DBMAIN   Debug: Commands                                                                                                   Page   91
0Current Usings:  (OSFCOMMN,R9) (TVT,R11) (GVT,R12)
0Loc    Object Code    Addr1 Addr2  Stmt Lv Lineno    Source Statement           (Hibal 5, Asmedit 3.3)  HLASM R4.0  2002/06/06 10.05
+___    ______ ____    _____ _____  ____ __ ______    ______ _________
0                                  22238    01739000  *
                                   22239    01740000  *  CMDSTS - SHOW TRAPS SET
                                   22240    01741000  *
                                   22241    01742000  *
 002754 90DF B0D4            000D4 22242    01743000  CMDSTS   PROC
 002758 58F0 C014/0DEF       00014 22252             +
 00275E C3D4C4E2E3E24040           22254             +
 002766 98DF B0D4            000D4 22255             +
 00276A 50E0 D000            00000 22258             +
 00276E 900C D004/188D       00004 22261             +
 002774 41D0 D038/0DA0       00038 22263             +
 00277A 50F0 D000            00000 22286    01744000           SCPUSH
 USING  *,R10
 00277E D203 D004 B480 00004 00480 22288             +
 002784 41DD 0008            00008 22289             +
                                   22290    01745000
 002788 4160 C208            00208 22291    01746000           LA    R6,GVTDVWA
 USING  DVWA,R6                    22292    01747000           USING DVWA,R6
                                   22301    01748000  *
                                   22302    01749000  *                                  REMOVE DECEASED DEBUGER/EE
 00278C 58E0 A266/0DEE       029E0 22303    01750000           ACALL CHKDEBUG
                                   22307    01751000  *
                                   22308    01752000  *                                  CHECK DEBUGGEE
 002792 58E0 A26A/0DEE       029E4 22309    01753000           ACALL CHKDBGEE
 002798 4780 A038            027B2 22313    01754000           IF    NZ,BEGIN
 00279C 4110 A246            029C0 22324  1 01755000             SEGWR 'Task not found.  (may have died)'
 0027A0 4100 0020            00020 22329  1          +
 0027A4 58F0 B468            00468 22335  1          +
 0027A8 58E0 A26E/0DEE       029E8 22338  1          +
 0027AE 47F0 A090            0280A 22340  1 01756000             B     CSTSEXIT
 0027B2                            22341    01757000           END
                                   22345    01758000  *
                                   22346    01759000  *                                  NOT AT BREAK
 0027B2 9180 B48C      0048C       22347    01760000           IF    ~TVDBFBRK,BEGIN
 0027B6 4710 A064            027DE 22357             +
 0027BA 41F0 B46C            0046C 22362  1 01761000             SCTELL TVDBSCNCB
 0027BE 58E0 A276/0DEE       029F0 22372  1          +
 0027C4 5820 6020            00020 22374  1 01762000             L     R2,DVSYMP
                                   22375  1 01763000  *                                  NO REGS, CURRENT ADDR
 0027C8 1B33                       22376  1 01764000             CLEAR R3
 0027CA 1B44                       22380  1 01765000             CLEAR R4
 0027CC 4150 6000            00000 22384  1 01766000             LA    R5,DVWA
 0027D0 58F0 B468            00468 22385  1 01767000             L     R15,TVDBSEGP
 0027D4 58E0 A282/0DEE       029FC 22386  1 01768000             VCALL SHOWTS
 0027DA 47F0 A090            0280A 22390  1 01769000             B     CSTSEXIT
 0027DE                            22391    01770000           END
                                   22395    01771000  *
                                   22396    01772000  *                                  IF DEBUGGER AND AT BREAK
 0027DE 41F0 B46C            0046C 22397    01773000           SCTELL TVDBSCNCB
 0027E2 58E0 A276/0DEE       029F0 22407             +
 0027E8 5820 6020            00020 22409    01774000           L     R2,DVSYMP
 0027EC 5850 601C            0001C 22410    01775000           L     R5,DVEPIEP
 USING  EPIE,R5                    22411    01776000           WITH  (EPIE,R5),BEGIN
 0027F0 4130 5008            00008 22425  1 01777000             LA    R3,EPIEGPR
1DBMAIN   Debug: Commands                                                                                                   Page   92
0Current Usings:  (EPIE,R5) (DVWA,R6) (OSFCOMMN,R9) (*,R10) (TVT,R11) (GVT,R12)
0Loc    Object Code    Addr1 Addr2  Stmt Lv Lineno    Source Statement           (Hibal 5, Asmedit 3.3)  HLASM R4.0  2002/06/06 10.05
+___    ______ ____    _____ _____  ____ __ ______    ______ _________
00027F4 5840 504C            0004C 22426  1 01778000             GETIA R4,EPIEPSW
 0027F8 4144 0000            00000 22428  1          +
 DROP   EPIE,R5                    22429    01779000           END
 0027FC 4150 6000            00000 22437    01780000           LA    R5,DVWA
 002800 58F0 B468            00468 22438    01781000           L     R15,TVDBSEGP
 002804 58E0 A282/0DEE       029FC 22439    01782000           VCALL SHOWTS
                                   22443    01783000
 00280A                            22444    01784000  CSTSEXIT LABEL ,
 00280A                            22446    01785000           CLEAR TVDBSCNLEN          CMD DONE, SCAN NO MORE
 00280A D703 B478 B478 00478 00478 22452             +
 002810 5BD0 A272            029EC 22453    01786000           SCPOP
 002814 58F0 D000            00000 22455             +
 002818 D203 B480 D004 00480 00004 22456             +
 00281E 18D8/980C D004       00004 22457    01787000           PEND
 DROP   *,R10
 002824 58E0 D000/12FF       00000 22473             +
 00282A 07FE                       22476             +
 DROP   DVWA,R6                    22477    01788000           DROP  R6
                                   22484    01789000
1DBMAIN   Debug: Commands                                                                                                   Page   93
0Current Usings:  (OSFCOMMN,R9) (TVT,R11) (GVT,R12)
0Loc    Object Code    Addr1 Addr2  Stmt Lv Lineno    Source Statement           (Hibal 5, Asmedit 3.3)  HLASM R4.0  2002/06/06 10.05
+___    ______ ____    _____ _____  ____ __ ______    ______ _________
0                                  22486    01791000  *
                                   22487    01792000  *  CMDCT - CLEAR TRAP
                                   22488    01793000  *
                                   22489    01794000  *
 00282C 90DF B0D4            000D4 22490    01795000  CMDCT    PROC
 002830 58F0 C014/0DEF       00014 22500             +
 002836 C3D4C4C3E3404040           22502             +
 00283E 98DF B0D4            000D4 22503             +
 002842 50E0 D000            00000 22506             +
 002846 900C D004/188D       00004 22509             +
 00284C 41D0 D038/0DA0       00038 22511             +
 002852 50F0 D000            00000 22534    01796000           SCPUSH
 USING  *,R10
 002856 D203 D004 B480 00004 00480 22536             +
 00285C 41DD 0008            00008 22537             +
                                   22538    01797000
 002860 4160 C208            00208 22539    01798000           LA    R6,GVTDVWA
 USING  DVWA,R6                    22540    01799000           USING DVWA,R6
                                   22549    01800000  *
                                   22550    01801000  *                                  REMOVE DECEASED DEBUGER/EE
 002864 58E0 A18E/0DEE       029E0 22551    01802000           ACALL CHKDEBUG
                                   22555    01803000  *
                                   22556    01804000  *                                  CHECK DEBUGGEE
 00286A 58E0 A192/0DEE       029E4 22557    01805000           ACALL CHKDBGEE
 002870 4780 A038            0288A 22561    01806000           IF    NZ,BEGIN
 002874 4110 A16E            029C0 22572  1 01807000             SEGWR 'Task not found.  (may have died)'
 002878 4100 0020            00020 22577  1          +
 00287C 58F0 B468            00468 22583  1          +
 002880 58E0 A196/0DEE       029E8 22586  1          +
 002886 47F0 A090            028E2 22588  1 01808000             B     CCTEXIT
 00288A                            22589    01809000           END
                                   22593    01810000  *
                                   22594    01811000  *                                  NOT AT BREAK
 00288A 9180 B48C      0048C       22595    01812000           IF    ~TVDBFBRK,BEGIN
 00288E 4710 A064            028B6 22605             +
 002892 41F0 B46C            0046C 22610  1 01813000             SCTELL TVDBSCNCB
 002896 58E0 A19E/0DEE       029F0 22620  1          +
 00289C 5820 6020            00020 22622  1 01814000             L     R2,DVSYMP
                                   22623  1 01815000  *                                  NO REGS, CURRENT ADDR
 0028A0 1B33                       22624  1 01816000             CLEAR R3
 0028A2 1B44                       22628  1 01817000             CLEAR R4
 0028A4 4150 6000            00000 22632  1 01818000             LA    R5,DVWA
 0028A8 58F0 B468            00468 22633  1 01819000             L     R15,TVDBSEGP
 0028AC 58E0 A1AE/0DEE       02A00 22634  1 01820000             VCALL CLEART
 0028B2 47F0 A090            028E2 22638  1 01821000             B     CCTEXIT
 0028B6                            22639    01822000           END
                                   22643    01823000  *
                                   22644    01824000  *                                  IF DEBUGGER AND AT BREAK
 0028B6 41F0 B46C            0046C 22645    01825000           SCTELL TVDBSCNCB
 0028BA 58E0 A19E/0DEE       029F0 22655             +
 0028C0 5820 6020            00020 22657    01826000           L     R2,DVSYMP
 0028C4 5850 601C            0001C 22658    01827000           L     R5,DVEPIEP
 USING  EPIE,R5                    22659    01828000           WITH  (EPIE,R5),BEGIN
 0028C8 4130 5008            00008 22673  1 01829000             LA    R3,EPIEGPR
1DBMAIN   Debug: Commands                                                                                                   Page   94
0Current Usings:  (EPIE,R5) (DVWA,R6) (OSFCOMMN,R9) (*,R10) (TVT,R11) (GVT,R12)
0Loc    Object Code    Addr1 Addr2  Stmt Lv Lineno    Source Statement           (Hibal 5, Asmedit 3.3)  HLASM R4.0  2002/06/06 10.05
+___    ______ ____    _____ _____  ____ __ ______    ______ _________
00028CC 5840 504C            0004C 22674  1 01830000             GETIA R4,EPIEPSW
 0028D0 4144 0000            00000 22676  1          +
 DROP   EPIE,R5                    22677    01831000           END
 0028D4 4150 6000            00000 22685    01832000           LA    R5,DVWA
 0028D8 58F0 B468            00468 22686    01833000           L     R15,TVDBSEGP
 0028DC 58E0 A1AE/0DEE       02A00 22687    01834000           VCALL CLEART
                                   22691    01835000
 0028E2                            22692    01836000  CCTEXIT LABEL ,
 0028E2                            22694    01837000           CLEAR TVDBSCNLEN          CMD DONE, SCAN NO MORE
 0028E2 D703 B478 B478 00478 00478 22700             +
 0028E8 5BD0 A19A            029EC 22701    01838000           SCPOP
 0028EC 58F0 D000            00000 22703             +
 0028F0 D203 B480 D004 00480 00004 22704             +
 0028F6 18D8/980C D004       00004 22705    01839000           PEND
 DROP   *,R10
 0028FC 58E0 D000/12FF       00000 22721             +
 002902 07FE                       22724             +
 DROP   DVWA,R6                    22725    01840000           DROP  R6
                                   22732    01841000
1DBMAIN   Debug: Commands                                                                                                   Page   95
0Current Usings:  (OSFCOMMN,R9) (TVT,R11) (GVT,R12)
0Loc    Object Code    Addr1 Addr2  Stmt Lv Lineno    Source Statement           (Hibal 5, Asmedit 3.3)  HLASM R4.0  2002/06/06 10.05
+___    ______ ____    _____ _____  ____ __ ______    ______ _________
0                                  22734    01843000  *
                                   22735    01844000  *  CMDCTS - CLEAR TRAPS SET
                                   22736    01845000  *
                                   22737    01846000  *
 002904 90DF B0D4            000D4 22738    01847000  CMDCTS   PROC
 002908 58F0 C014/0DEF       00014 22748             +
 00290E C3D4C4C3E3E24040           22750             +
 002916 98DF B0D4            000D4 22751             +
 00291A 50E0 D000            00000 22754             +
 00291E 900C D004/188D       00004 22757             +
 002924 41D0 D038/0DA0       00038 22759             +
 00292A 50F0 D000            00000 22782    01848000           SCPUSH
 USING  *,R10
 00292E D203 D004 B480 00004 00480 22784             +
 002934 41DD 0008            00008 22785             +
                                   22786    01849000
 002938 4160 C208            00208 22787    01850000           LA    R6,GVTDVWA
 USING  DVWA,R6                    22788    01851000           USING DVWA,R6
                                   22797    01852000  *
                                   22798    01853000  *                                  REMOVE DECEASED DEBUGER/EE
 00293C 58E0 A0B6/0DEE       029E0 22799    01854000           ACALL CHKDEBUG
                                   22803    01855000  *
                                   22804    01856000  *        COMMENT                   CHECK DEBUGGEE
                                   22805    01857000  *        ACALL CHKDBGEE
                                   22806    01858000  *        IF    NZ,BEGIN
                                   22807    01859000  *        SEGWR 'Task not found.  (may have died)'
                                   22808    01860000  *        B     CCTSEXIT
                                   22809    01861000  *        END
                                   22810    01862000  *
                                   22811    01863000  *                                  NOT AT BREAK
 002942 9180 B48C      0048C       22812    01864000           IF    ~TVDBFBRK,BEGIN
 002946 4710 A044            0296E 22822             +
 00294A 41F0 B46C            0046C 22827  1 01865000             SCTELL TVDBSCNCB
 00294E 58E0 A0C6/0DEE       029F0 22837  1          +
 002954 5820 6020            00020 22839  1 01866000             L     R2,DVSYMP
                                   22840  1 01867000  *                                  NO REGS, CURRENT ADDR
 002958 1B33                       22841  1 01868000             CLEAR R3
 00295A 1B44                       22845  1 01869000             CLEAR R4
 00295C 4150 6000            00000 22849  1 01870000             LA    R5,DVWA
 002960 58F0 B468            00468 22850  1 01871000             L     R15,TVDBSEGP
 002964 58E0 A0DA/0DEE       02A04 22851  1 01872000             VCALL CLEARTS
 00296A 47F0 A070            0299A 22855  1 01873000             B     CCTSEXIT
 00296E                            22856    01874000           END
                                   22860    01875000  *
                                   22861    01876000  *                                  IF DEBUGGER AND AT BREAK
 00296E 41F0 B46C            0046C 22862    01877000           SCTELL TVDBSCNCB
 002972 58E0 A0C6/0DEE       029F0 22872             +
 002978 5820 6020            00020 22874    01878000           L     R2,DVSYMP
 00297C 5850 601C            0001C 22875    01879000           L     R5,DVEPIEP
 USING  EPIE,R5                    22876    01880000           WITH  (EPIE,R5),BEGIN
 002980 4130 5008            00008 22890  1 01881000             LA    R3,EPIEGPR
 002984 5840 504C            0004C 22891  1 01882000             GETIA R4,EPIEPSW
 002988 4144 0000            00000 22893  1          +
 DROP   EPIE,R5                    22894    01883000           END
1DBMAIN   Debug: Commands                                                                                                   Page   96
0Current Usings:  (DVWA,R6) (OSFCOMMN,R9) (*,R10) (TVT,R11) (GVT,R12)
0Loc    Object Code    Addr1 Addr2  Stmt Lv Lineno    Source Statement           (Hibal 5, Asmedit 3.3)  HLASM R4.0  2002/06/06 10.05
+___    ______ ____    _____ _____  ____ __ ______    ______ _________
000298C 4150 6000            00000 22902    01884000           LA    R5,DVWA
 002990 58F0 B468            00468 22903    01885000           L     R15,TVDBSEGP
 002994 58E0 A0DA/0DEE       02A04 22904    01886000           VCALL CLEARTS
                                   22908    01887000
 00299A                            22909    01888000  CCTSEXIT LABEL ,
 00299A                            22911    01889000           CLEAR TVDBSCNLEN          CMD DONE, SCAN NO MORE
 00299A D703 B478 B478 00478 00478 22917             +
 0029A0 5BD0 A0C2            029EC 22918    01890000           SCPOP
 0029A4 58F0 D000            00000 22920             +
 0029A8 D203 B480 D004 00480 00004 22921             +
 0029AE 18D8/980C D004       00004 22922    01891000           PEND
 DROP   *,R10
 0029B4 58E0 D000/12FF       00000 22938             +
 0029BA 07FE                       22941             +
 DROP   DVWA,R6                    22942    01892000           DROP  R6
                                   22949    01893000
                                   22950    01894000           QLTORG
1DBMAIN   Debug: Commands                                                                                                   Page   97
0Current Usings:  (OSFCOMMN,R9) (TVT,R11) (GVT,R12)
0Loc    Object Code    Addr1 Addr2  Stmt Lv Lineno    Source Statement           (Hibal 5, Asmedit 3.3)  HLASM R4.0  2002/06/06 10.05
+___    ______ ____    _____ _____  ____ __ ______    ______ _________
0                                  22975    01896000  ¿þþþþþþþþþþþþþþþþþþþþþþþþþþþþþþþþþþþþþþþþþþþþþþþþþþþþþþþþþþþþþþþþþþþþþÜ
                                   22976    01897000  Ÿ                                                                     Ÿ
                                   22977    01898000  Ÿ        Pass command to monitor.                                     Ÿ
                                   22978    01899000  Ÿ                                                                     Ÿ
                                                      ¾þþþþþþþþþþþþþþþþþþþþþþþþþþþþþþþþþþþþþþþþþþþþþþþþþþþþþþþþþþþþþþþþþþþþþ»
0002A32 90DF B0D4            000D4 22979    01900000  MONPASS  PROC
 002A36 58F0 C014/0DEF       00014 22989             +
 002A3C D4D6D5D7C1E2E240           22991             +
 002A44 98DF B0D4            000D4 22992             +
 002A48 50E0 D000            00000 22995             +
 002A4C 900C D004/188D       00004 22998             +
 002A52 41D0 D038/0DA0       00038 23000             +
 002A58 50F0 D000            00000 23023    01901000           SCPUSH ,                  R15 must stay the same! ha!
 USING  *,R10
 002A5C D203 D004 B480 00004 00480 23025             +
 002A62 41DD 0008            00008 23026             +
                                   23027    01902000  *
                                   23028    01903000  *                                  GET MONITOR COMMAND
 002A66 1821                       23029    01904000           LR    R2,R1               START OF CMD
 002A68 41F0 B46C            0046C 23030    01905000           SCTELL TVDBSCNCB
 002A6C 58E0 A318/0DEE       02D70 23040             +
 002A72 1A01                       23042    01906000           AR    R0,R1               END OF CMD
 002A74 1812                       23043    01907000           LR    R1,R2               R1,R0 - ENTIRE CMD LOC LEN
 002A76 1B01                       23044    01908000           SR    R0,R1
                                   23045    01909000
 002A78 58E0 A31C/0DEE       02D74 23046    01910000           ACALL DOMONCMD
                                   23050    01911000
 002A7E                            23051    01912000           CLEAR  TVDBSCNLEN         Stop scan
 002A7E D703 B478 B478 00478 00478 23057             +
 002A84 5BD0 A320            02D78 23058    01913000           SCPOP
 002A88 58F0 D000            00000 23060             +
 002A8C D203 B480 D004 00480 00004 23061             +
 002A92 18D8/980C D004       00004 23062    01914000           PEND
 DROP   *,R10
 002A98 58E0 D000/12FF       00000 23078             +
 002A9E 07FE                       23081             +
1DBMAIN   Debug: Commands                                                                                                   Page   98
0Current Usings:  (OSFCOMMN,R9) (TVT,R11) (GVT,R12)
0Loc    Object Code    Addr1 Addr2  Stmt Lv Lineno    Source Statement           (Hibal 5, Asmedit 3.3)  HLASM R4.0  2002/06/06 10.05
+___    ______ ____    _____ _____  ____ __ ______    ______ _________
0                                  23083    01916000  ¿þþþþþþþþþþþþþþþþþþþþþþþþþþþþþþþþþþþþþþþþþþþþþþþþþþþþþþþþþþþþþþþþþþþþþÜ
                                   23084    01917000  Ÿ                                                                     Ÿ
                                   23085    01918000  Ÿ  MONCMD - pass comand to monitor                                    Ÿ
                                   23086    01919000  Ÿ                                                                     Ÿ
                                   23087    01920000  Ÿ                                                                     Ÿ
                                                      ¾þþþþþþþþþþþþþþþþþþþþþþþþþþþþþþþþþþþþþþþþþþþþþþþþþþþþþþþþþþþþþþþþþþþþþ»
0002AA0 90DF B0D4            000D4 23088    01921000  MONCMD   PROC
 002AA4 58F0 C014/0DEF       00014 23098             +
 002AAA D4D6D5C3D4C44040           23100             +
 002AB2 98DF B0D4            000D4 23101             +
 002AB6 50E0 D000            00000 23104             +
 002ABA 900C D004/188D       00004 23107             +
 002AC0 41D0 D038/0DA0       00038 23109             +
 002AC6 50F0 D000            00000 23132    01922000           SCPUSH
 USING  *,R10
 002ACA D203 D004 B480 00004 00480 23134             +
 002AD0 41DD 0008            00008 23135             +
                                   23136    01923000  *
                                   23137    01924000  *                                  GET MONITOR COMMAND
 002AD4 41F0 B46C            0046C 23138    01925000           SCTELL TVDBSCNCB
 002AD8 58E0 A2AA/0DEE       02D70 23148             +
                                   23150    01926000
 002ADE 58E0 A2AE/0DEE       02D74 23151    01927000           ACALL DOMONCMD
                                   23155    01928000
 002AE4                            23156    01929000           CLEAR TVDBSCNLEN          Stop scan
 002AE4 D703 B478 B478 00478 00478 23162             +
 002AEA 5BD0 A2B2            02D78 23163    01930000           SCPOP
 002AEE 58F0 D000            00000 23165             +
 002AF2 D203 B480 D004 00480 00004 23166             +
 002AF8 18D8/980C D004       00004 23167    01931000           PEND
 DROP   *,R10
 002AFE 58E0 D000/12FF       00000 23183             +
 002B04 07FE                       23186             +
1DBMAIN   Debug: Commands                                                                                                   Page   99
0Current Usings:  (OSFCOMMN,R9) (TVT,R11) (GVT,R12)
0Loc    Object Code    Addr1 Addr2  Stmt Lv Lineno    Source Statement           (Hibal 5, Asmedit 3.3)  HLASM R4.0  2002/06/06 10.05
+___    ______ ____    _____ _____  ____ __ ______    ______ _________
0                                  23188    01933000  *
                                   23189    01934000  *  PROCESS MONITOR COMMAND REQUEST
                                   23190    01935000  *
                                   23191    01936000  *  ON ENTRY:
                                   23192    01937000  *    R1,R0 - CMD LOC LENGTH
                                   23193    01938000  *
                                   23194    01939000  *
 000000                00000 00008 23195    01940000  MCWA     RECORD BEGIN
 000000                            23203  1 01941000  MCLOC      DS    A
 000004                            23204  1 01942000  MCLEN      DS    F
 000008                00008 00008 23205    01943000           END
                                   23214    01944000  CMDBUFLN EQU   8*1024
                                   23215    01945000  *
                                   23216    01946000  *
 002B06 90DF B0D4            000D4 23217    01947000  DOMONCMD PROC  MCWA
 002B0A 58F0 C014/0DEF       00014 23228             +
 002B10 C4D6D4D6D5C3D4C4           23230             +
 002B18 98DF B0D4            000D4 23231             +
 002B1C 50E0 D000            00000 23234             +
 002B20 900C D004/188D       00004 23237             +
 002B26 41D0 D040/0DA0       00040 23240             +
 002B2C 5000 803C            00004 23272    01948000           ST    R0,MCLEN
 USING  *,R10
 USING  MCWA-(4+52),R8
 002B30 5010 8038            00000 23273    01949000           ST    R1,MCLOC
                                   23274    01950000  *
                                   23275    01951000  *                                  GET BUFFER FOR CMD/RESPONSE
 002B34                            23276    01952000           IF    (TVTRSPLN,NZ),BEGIN
 002B34 D603 B0C0 B0C0 000C0 000C0 23286             +
 002B3A 4780 A022            02B4E 23287             +
 002B3E 5810 B0BC            000BC 23292  1 01953000             L     R1,TVTRSPBF
 002B42 58E0 A250/0DEE       02D7C 23293  1 01954000             VCALL FREECORE
 002B48                            23297  1 01955000             CLEAR TVTRSPLN
 002B48 D703 B0C0 B0C0 000C0 000C0 23303  1          +
 002B4E                            23304    01956000           END
 002B4E 5800 A254            02D80 23308    01957000           L     R0,=A(CMDBUFLN)
 002B52 58E0 A258/0DEE       02D84 23309    01958000           VCALL GETCORE
 002B58 5010 B0BC            000BC 23313    01959000           ST    R1,TVTRSPBF
 002B5C 5000 B0C0            000C0 23314    01960000           ST    R0,TVTRSPLN
                                   23315    01961000  *
                                   23316    01962000  *                                  MOVE COMMAND INTO BUFFER
 002B60 5820 B0BC            000BC 23317    01963000           L     R2,TVTRSPBF
 002B64 4120 2004            00004 23318    01964000           LA    R2,@R2+4
 002B68 5830 803C            00004 23319    01965000           L     R3,MCLEN
 002B6C 5930 A25C            02D88 23320    01966000           CEIL  R3,256
 002B70 47D0 A04C            02B78 23329             +
 002B74 5830 A25C            02D88 23334             +
 002B78 5840 8038            00000 23339    01967000           L     R4,MCLOC
 002B7C 1853                       23340    01968000           LR    R5,R3
 002B7E 1803                       23341    01969000           LR    R0,R3
 002B80 0E24                       23342    01970000           MVCL  R2,R4
 002B82 5820 B0BC            000BC 23343    01971000           L     R2,TVTRSPBF
 002B86 5000 2000            00000 23344    01972000           ST    R0,@R2
                                   23345    01973000  *
1DBMAIN   Debug: Commands                                                                                                   Page  100
0Current Usings:  (MCWA-(4+52),R8) (OSFCOMMN,R9) (*,R10) (TVT,R11) (GVT,R12)
0Loc    Object Code    Addr1 Addr2  Stmt Lv Lineno    Source Statement           (Hibal 5, Asmedit 3.3)  HLASM R4.0  2002/06/06 10.05
+___    ______ ____    _____ _____  ____ __ ______    ______ _________
0                                  23346    01974000  *                                  TELL MONITOR WE HAVE CMD
 002B8A                            23347    01975000           CLEAR TVTMONCM            CLEAR COMPLETION ECB
 002B8A D703 B0B8 B0B8 000B8 000B8 23353             +
 002B90 9680 B0A0      000A0       23354    01976000           SET   TVTFPOST
 002B94 9620 B0A0      000A0       23360    01977000           SET   TVTFCMD
 002B98 5810 C084            00084 23366    01978000           L     R1,GVTECBPT
 002B9C 1B00/4110 1000       00000 23367    01979000           POST  (R1),0              POST MONITOR
 002BA2 0A02                       23372             +
 002BA4 4110 B0B8            000B8 23373    01980000           LA    R1,TVTMONCM
 002BA8 4100 0001            00001 23374    01981000           WAIT  ECB=(R1)            WAIT FOR RESPONSE
 002BAC 4110 1000/0A01       00000 23378             +
                                   23380    01982000  *
                                   23381    01983000  *                                  PUMP THRU RESPONSE BUFFER
 002BB2 5840 B0BC            000BC 23382    01984000           L     R4,TVTRSPBF         R4 - BUFFER NDX
 002BB6 5850 4000            00000 23383    01985000           L     R5,@R4              R5 - END OF BUFFER
 002BBA 1A54                       23384    01986000           AR    R5,R4
 002BBC 4144 0004            00004 23385    01987000           LA    R4,4(R4)
 002BC0 1945/47B0 A0BE       02BEA 23386    01988000           WHILE (R4,LT,R5),BEGIN
 002BC6 1B00                       23403  1 01989000             CLEAR R0
 002BC8 4300 4000            00000 23407  1 01990000             IC    R0,@R4
 002BCC 4114 0001            00001 23408  1 01991000             LA    R1,1(R4)
 002BD0 58F0 B468            00468 23409  1 01992000             SEGWR (R1),(R0)
 002BD4 58E0 A260/0DEE       02D8C 23429  1          +
 002BDA 1B00                       23431  1 01993000             CLEAR R0
 002BDC 4300 4000            00000 23435  1 01994000             IC    R0,@R4
 002BE0 1A40                       23436  1 01995000             AR    R4,R0
 002BE2 5E40 A264            02D90 23437  1 01996000             INCR  R4
 002BE6 47F0 A094            02BC0 23440    01997000           END
                                   23445    01998000  *
                                   23446    01999000  *                                  FREE BUFFER
 002BEA                            23447    02000000           IF    (TVTRSPLN,NZ),BEGIN
 002BEA D603 B0C0 B0C0 000C0 000C0 23457             +
 002BF0 4780 A0D8            02C04 23458             +
 002BF4 5810 B0BC            000BC 23463  1 02001000             L     R1,TVTRSPBF
 002BF8 58E0 A250/0DEE       02D7C 23464  1 02002000             VCALL FREECORE
 002BFE                            23468  1 02003000             CLEAR TVTRSPLN
 002BFE D703 B0C0 B0C0 000C0 000C0 23474  1          +
 002C04                            23475    02004000           END
                                   23479    02005000
 002C04 18D8/980C D004       00004 23480    02006000           PEND
 DROP   MCWA-(4+52),R8
 DROP   *,R10
 002C0A 58E0 D000/12FF       00000 23501             +
 002C10 07FE                       23504             +
1DBMAIN   Debug: Commands                                                                                                   Page  101
0Current Usings:  (OSFCOMMN,R9) (TVT,R11) (GVT,R12)
0Loc    Object Code    Addr1 Addr2  Stmt Lv Lineno    Source Statement           (Hibal 5, Asmedit 3.3)  HLASM R4.0  2002/06/06 10.05
+___    ______ ____    _____ _____  ____ __ ______    ______ _________
0                                  23506    02008000  ¿þþþþþþþþþþþþþþþþþþþþþþþþþþþþþþþþþþþþþþþþþþþþþþþþþþþþþþþþþþþþþþþþþþþþþÜ
                                   23507    02009000  Ÿ                                                                     Ÿ
                                   23508    02010000  Ÿ        Unrecognized command.                                        Ÿ
                                   23509    02011000  Ÿ                                                                     Ÿ
                                                      ¾þþþþþþþþþþþþþþþþþþþþþþþþþþþþþþþþþþþþþþþþþþþþþþþþþþþþþþþþþþþþþþþþþþþþþ»
0002C12 90DF B0D4            000D4 23510    02012000  BADCMD   PROC
 002C16 58F0 C014/0DEF       00014 23520             +
 002C1C C2C1C4C3D4C44040           23522             +
 002C24 98DF B0D4            000D4 23523             +
 002C28 50E0 D000            00000 23526             +
 002C2C 900C D004/188D       00004 23529             +
 002C32 41D0 D038/0DA0       00038 23531             +
 002C38 50F0 D000            00000 23554    02013000           SCPUSH ,                  R15 must stay the same! ha!
 USING  *,R10
 002C3C D203 D004 B480 00004 00480 23556             +
 002C42 41DD 0008            00008 23557             +
 002C46 58F0 B468            00468 23558    02014000           SEG  (R1),(R0)
 002C4A 58E0 A15C/0DEE       02D94 23577             +
 002C50 4110 A164            02D9C 23579    02015000           SEGWR ': unrecognized command.'
 002C54 4100 0017            00017 23584             +
 002C58 58F0 B468            00468 23590             +
 002C5C 58E0 A154/0DEE       02D8C 23593             +
 002C62                            23595    02016000           CLEAR  TVDBSCNLEN         Stop scan
 002C62 D703 B478 B478 00478 00478 23601             +
 002C68 5BD0 A140            02D78 23602    02017000           SCPOP
 002C6C 58F0 D000            00000 23604             +
 002C70 D203 B480 D004 00480 00004 23605             +
 002C76 18D8/980C D004       00004 23606    02018000           PEND
 DROP   *,R10
 002C7C 58E0 D000/12FF       00000 23622             +
 002C82 07FE                       23625             +
                                   23626    02019000
 002C84 90DF B0D4            000D4 23627    02020000  INVALID  PROC
 002C88 58F0 C014/0DEF       00014 23637             +
 002C8E C9D5E5C1D3C9C440           23639             +
 002C96 98DF B0D4            000D4 23640             +
 002C9A 50E0 D000            00000 23643             +
 002C9E 900C D004/188D       00004 23646             +
 002CA4 41D0 D038/0DA0       00038 23648             +
 002CAA 50F0 D000            00000 23671    02021000           SCPUSH ,                  R15 must stay the same! ha!
 USING  *,R10
 002CAE D203 D004 B480 00004 00480 23673             +
 002CB4 41DD 0008            00008 23674             +
 002CB8 58F0 B468            00468 23675    02022000           SEGT  (R1),(R0)
 002CBC 58E0 A0EE/0DEE       02D98 23695             +
 002CC2 4110 A109            02DB3 23697    02023000           SEG   ': invalid option.'
 002CC6 4100 0011            00011 23701             +
 002CCA 58F0 B468            00468 23707             +
 002CCE 58E0 A0EA/0DEE       02D94 23710             +
 002CD4                            23712    02024000           CLEAR  TVDBSCNLEN         Stop scan
 002CD4 D703 B478 B478 00478 00478 23718             +
 002CDA 5BD0 A0CE            02D78 23719    02025000           SCPOP
 002CDE 58F0 D000            00000 23721             +
1DBMAIN   Debug: Commands                                                                                                   Page  102
0Current Usings:  (OSFCOMMN,R9) (*,R10) (TVT,R11) (GVT,R12)
0Loc    Object Code    Addr1 Addr2  Stmt Lv Lineno    Source Statement           (Hibal 5, Asmedit 3.3)  HLASM R4.0  2002/06/06 10.05
+___    ______ ____    _____ _____  ____ __ ______    ______ _________
0002CE2 D203 B480 D004 00480 00004 23722             +
 002CE8 18D8/980C D004       00004 23723    02026000           PEND
 DROP   *,R10
 002CEE 58E0 D000/12FF       00000 23739             +
 002CF4 07FE                       23742             +
                                   23743    02027000
 002CF6 90DF B0D4            000D4 23744    02028000  NOTDEBUG PROC
 002CFA 58F0 C014/0DEF       00014 23754             +
 002D00 D5D6E3C4C5C2E4C7           23756             +
 002D08 98DF B0D4            000D4 23757             +
 002D0C 50E0 D000            00000 23760             +
 002D10 900C D004/188D       00004 23763             +
 002D16 41D0 D038/0DA0       00038 23765             +
 002D1C 50F0 D000            00000 23788    02029000           SCPUSH ,
 USING  *,R10
 002D20 D203 D004 B480 00004 00480 23790             +
 002D26 41DD 0008            00008 23791             +
 002D2A 4110 A0A8            02DC4 23792    02030000           SEGWR 'You must be debugger to issue this command.'
 002D2E 4100 002B            0002B 23797             +
 002D32 58F0 B468            00468 23803             +
 002D36 58E0 A070/0DEE       02D8C 23806             +
 002D3C 4110 A0D3            02DEF 23808    02031000           SEGWR 'Type HELP for more information.'
 002D40 4100 001F            0001F 23813             +
 002D44 58F0 B468            00468 23819             +
 002D48 58E0 A070/0DEE       02D8C 23822             +
 002D4E                            23824    02032000           CLEAR  TVDBSCNLEN
 002D4E D703 B478 B478 00478 00478 23830             +
 002D54 5BD0 A05C            02D78 23831    02033000           SCPOP
 002D58 58F0 D000            00000 23833             +
 002D5C D203 B480 D004 00480 00004 23834             +
 002D62 18D8/980C D004       00004 23835    02034000           PEND
 DROP   *,R10
 002D68 58E0 D000/12FF       00000 23851             +
 002D6E 07FE                       23854             +
                                   23855    02035000           QLTORG
1DBMAIN   Debug: Commands                                                                                                   Page  103
0Current Usings:  (OSFCOMMN,R9) (TVT,R11) (GVT,R12)
0Loc    Object Code    Addr1 Addr2  Stmt Lv Lineno    Source Statement           (Hibal 5, Asmedit 3.3)  HLASM R4.0  2002/06/06 10.05
+___    ______ ____    _____ _____  ____ __ ______    ______ _________
0                                  23883    02037000  *
                                   23884    02038000  *  DBSTATUS - SHOW DEBUG STATUS
                                   23885    02039000  *
                                   23886    02040000  *  4 POSSIBILITIES
                                   23887    02041000  *        NO DEBUGGER, NO DEBUGGEE
                                   23888    02042000  *        NO DEBUGGER, DEBUGEE
                                   23889    02043000  *        DEBUGGER, NO DEBUGGEE
                                   23890    02044000  *        DEBUGGER, DEBUGGEE
                                   23891    02045000  *
                                   23892    02046000  *
 002E0E 90DF B0D4            000D4 23893    02047000  DBSTATUS PROC
 002E12 58F0 C014/0DEF       00014 23903             +
 002E18 C4C2E2E3C1E3E4E2           23905             +
 002E20 98DF B0D4            000D4 23906             +
 002E24 50E0 D000            00000 23909             +
 002E28 900C D004/188D       00004 23912             +
 002E2E 41D0 D038/0DA0       00038 23914             +
 002E34 4160 C208            00208 23937    02048000           LA    R6,GVTDVWA
 USING  *,R10
 USING  DVWA,R6                    23938    02049000           USING DVWA,R6
                                   23947    02050000  *
                                   23948    02051000  *
 002E38                            23949    02052000           IF    ((DVERTCBP,Z),AND,(DVEETCBP,Z)),BEGIN
 002E38 D603 6000 6000 00000 00000 23961             +
 002E3E 4770 A02A            02E5E 23962             +
 002E42 D603 6008 6008 00008 00008 23974             +
 002E48 4770 A02A            02E5E 23975             +
 002E4C 4110 AC4C            03A80 23980  1 02053000             SEGWR 'No debugging session active.'
 002E50 4100 001C            0001C 23985  1          +
 002E54 58F0 B468            00468 23991  1          +
 002E58 58E0 AC68/0DEE       03A9C 23994  1          +
 002E5E                            23996    02054000           END
                                   24000    02055000  *
                                   24001    02056000  *
 002E5E                            24002    02057000           IF    ((DVERTCBP,Z),AND,(DVEETCBP,NZ)),BEGIN
 002E5E D603 6000 6000 00000 00000 24014             +
 002E64 4770 A056            02E8A 24015             +
 002E68 D603 6008 6008 00008 00008 24027             +
 002E6E 4780 A056            02E8A 24028             +
 002E72 58E0 AC6C/0DEE       03AA0 24033  1 02058000             ACALL SEGDBEE
 002E78 4110 AD66            03B9A 24037  1 02059000             SEGWR ' is waiting to be debugged.'
 002E7C 4100 001B            0001B 24042  1          +
 002E80 58F0 B468            00468 24048  1          +
 002E84 58E0 AC68/0DEE       03A9C 24051  1          +
 002E8A                            24053    02060000           END
                                   24057    02061000  *
                                   24058    02062000  *
 002E8A                            24059    02063000           IF    ((DVERTCBP,NZ),AND,(DVEETCBP,Z)),BEGIN
 002E8A D603 6000 6000 00000 00000 24071             +
 002E90 4780 A082            02EB6 24072             +
 002E94 D603 6008 6008 00008 00008 24084             +
 002E9A 4770 A082            02EB6 24085             +
 002E9E 58E0 AC70/0DEE       03AA4 24090  1 02064000             ACALL SEGDBER
 002EA4 4110 ACF8            03B2C 24094  1 02065000             SEGWR ' debugging deceased task. '
1DBMAIN   Debug: Commands                                                                                                   Page  104
0Current Usings:  (DVWA,R6) (OSFCOMMN,R9) (*,R10) (TVT,R11) (GVT,R12)
0Loc    Object Code    Addr1 Addr2  Stmt Lv Lineno    Source Statement           (Hibal 5, Asmedit 3.3)  HLASM R4.0  2002/06/06 10.05
+___    ______ ____    _____ _____  ____ __ ______    ______ _________
0002EA8 4100 001A            0001A 24099  1          +
 002EAC 58F0 B468            00468 24105  1          +
 002EB0 58E0 AC68/0DEE       03A9C 24108  1          +
 002EB6                            24110    02066000           END
                                   24114    02067000  *
                                   24115    02068000  *
 002EB6                            24116    02069000           IF    ((DVERTCBP,NZ),AND,(DVEETCBP,NZ)),BEGIN
 002EB6 D603 6000 6000 00000 00000 24128             +
 002EBC 4780 A0C0            02EF4 24129             +
 002EC0 D603 6008 6008 00008 00008 24141             +
 002EC6 4780 A0C0            02EF4 24142             +
 002ECA 58E0 AC70/0DEE       03AA4 24147  1 02070000             ACALL SEGDBER
 002ED0 4110 AD12            03B46 24151  1 02071000             SEG   ' is debugging '
 002ED4 4100 000E            0000E 24155  1          +
 002ED8 58F0 B468            00468 24161  1          +
 002EDC 58E0 AC74/0DEE       03AA8 24164  1          +
 002EE2 58E0 AC6C/0DEE       03AA0 24166  1 02072000             ACALL SEGDBEE
 002EE8 1B00/58F0 B468       00468 24170  1 02073000             SEGWR
 002EEE 58E0 AC68/0DEE       03A9C 24190  1          +
 002EF4                            24192    02074000           END
                                   24196    02075000
 002EF4 18D8/980C D004       00004 24197    02076000           PEND
 DROP   *,R10
 002EFA 58E0 D000/12FF       00000 24213             +
 002F00 07FE                       24216             +
1DBMAIN   Debug: Commands                                                                                                   Page  105
0Current Usings:  (DVWA,R6) (OSFCOMMN,R9) (TVT,R11) (GVT,R12)
0Loc    Object Code    Addr1 Addr2  Stmt Lv Lineno    Source Statement           (Hibal 5, Asmedit 3.3)  HLASM R4.0  2002/06/06 10.05
+___    ______ ____    _____ _____  ____ __ ______    ______ _________
0                                  24218    02078000  *
                                   24219    02079000  *  SEGDBER - SEG DEBUGGER NAME
                                   24220    02080000  *
                                   24221    02081000  *
 002F02 90DF B0D4            000D4 24222    02082000  SEGDBER  PROC  ,
 002F06 58F0 C014/0DEF       00014 24232             +
 002F0C E2C5C7C4C2C5D940           24234             +
 002F14 98DF B0D4            000D4 24235             +
 002F18 50E0 D000            00000 24238             +
 002F1C 900C D004/188D       00004 24241             +
 002F22 41D0 D038/0DA0       00038 24243             +
 002F28 4160 C208            00208 24266    02083000           LA    R6,GVTDVWA
 USING  *,R10
                                   24267    02084000           USING DVWA,R6
                                   24269    02085000  *
                                   24270    02086000  *                                  FIND DEBUGGER TVT
 002F2C 5810 6000            00000 24271    02087000           L     R1,DVERTCBP
 002F30 58E0 AB84/0DEE       03AAC 24272    02088000           ACALL GETTVT
 002F36 4780 A024            02F4C 24276    02089000           IF    NZ,BEGIN
 002F3A 4110 AC8D            03BB5 24287  1 02090000             SEG   '*** (deceased task)'
 002F3E 4100 0013            00013 24291  1          +
 002F42 58F0 B468            00468 24297  1          +
 002F46 58E0 AB80/0DEE       03AA8 24300  1          +
 002F4C                            24302    02091000           END
 002F4C A028           02F4C 02F38 24306    02092000           ELSE  BEGIN
 002F4C 47F0 A0A0            02FC8 24311             +
 002F50 1851                       24317  1 02093000             LR    R5,R1
 002F52 4110 5014            00014 24318  1 02094000             WITH  (TVT,R5),'SETMSG TVTNAME'
 DROP   TVT,R11
 USING  TVT,R5
 002F56 4100 0008            00008 24354  1          +
 ** ASMA301W Prior active USING on statement number 24335 overridden by this USING
 ** ASMA435I Record 142 in WYL.GG.SYS.MACLIB(USING) on volume: STR210
 002F5A 58F0 B468            00468 24372  1 02095000             SEGT  (R1),(R0)
 USING  TVT,R11
 DROP   TVT,R5
 002F5E 58E0 AB88/0DEE       03AB0 24392  1          +
 002F64 5810 5160            00160 24394  1 02096000             WITH  (TVT,R5),'L  R1,TVTACCT'
 DROP   TVT,R11
 USING  TVT,R5
 ** ASMA301W Prior active USING on statement number 24411 overridden by this USING
 ** ASMA435I Record 142 in WYL.GG.SYS.MACLIB(USING) on volume: STR210
 002F68 1211/4780 A0A0       02FC8 24435  1 02097000             IF    (R1,NZ),BEGIN
 USING  TVT,R11
 DROP   TVT,R5
 002F6E 4110 AC2C            03B54 24449  2 02098000               SEG   ' ('
 002F72 4100 0002            00002 24453  2          +
 002F76 58F0 B468            00468 24459  2          +
 002F7A 58E0 AB80/0DEE       03AA8 24462  2          +
 002F80 4110 5163            00163 24464  2 02099000               WITH  (TVT,R5),'SETMSG TVTGROUP'
 DROP   TVT,R11
 USING  TVT,R5
 002F84 4100 0002            00002 24500  2          +
 ** ASMA301W Prior active USING on statement number 24481 overridden by this USING
1DBMAIN   Debug: Commands                                                                                                   Page  106
0Current Usings:  (TVT,R5) (DVWA,R6) (OSFCOMMN,R9) (*,R10) (GVT,R12)
0Loc    Object Code    Addr1 Addr2  Stmt Lv Lineno    Source Statement           (Hibal 5, Asmedit 3.3)  HLASM R4.0  2002/06/06 10.05
+___    ______ ____    _____ _____  ____ __ ______    ______ _________
0** ASMA435I Record 142 in WYL.GG.SYS.MACLIB(USING) on volume: STR210
 002F88 58F0 B468            00468 24518  2 02100000               SEG   (R1),(R0)
 USING  TVT,R11
 DROP   TVT,R5
 002F8C 58E0 AB80/0DEE       03AA8 24537  2          +
 002F92 4110 ACA0            03BC8 24539  2 02101000               SEG   '.'
 002F96 4100 0001            00001 24543  2          +
 002F9A 58F0 B468            00468 24549  2          +
 002F9E 58E0 AB80/0DEE       03AA8 24552  2          +
 002FA4 4110 5160            00160 24554  2 02102000               WITH  (TVT,R5),'SETMSG TVTUSER'
 DROP   TVT,R11
 USING  TVT,R5
 002FA8 4100 0003            00003 24590  2          +
 ** ASMA301W Prior active USING on statement number 24571 overridden by this USING
 ** ASMA435I Record 142 in WYL.GG.SYS.MACLIB(USING) on volume: STR210
 002FAC 58F0 B468            00468 24608  2 02103000               SEG   (R1),(R0)
 USING  TVT,R11
 DROP   TVT,R5
 002FB0 58E0 AB80/0DEE       03AA8 24627  2          +
 002FB6 4110 ACA1            03BC9 24629  2 02104000               SEG   ')'
 002FBA 4100 0001            00001 24633  2          +
 002FBE 58F0 B468            00468 24639  2          +
 002FC2 58E0 AB80/0DEE       03AA8 24642  2          +
 002FC8                            24644  1 02105000             END
 002FC8                            24648    02106000           END
                                   24652    02107000
 002FC8 18D8/980C D004       00004 24653    02108000           PEND
 DROP   *,R10
 002FCE 58E0 D000/12FF       00000 24669             +
 002FD4 07FE                       24672             +
 DROP   DVWA,R6                    24673    02109000           DROP  R6
1DBMAIN   Debug: Commands                                                                                                   Page  107
0Current Usings:  (OSFCOMMN,R9) (TVT,R11) (GVT,R12)
0Loc    Object Code    Addr1 Addr2  Stmt Lv Lineno    Source Statement           (Hibal 5, Asmedit 3.3)  HLASM R4.0  2002/06/06 10.05
+___    ______ ____    _____ _____  ____ __ ______    ______ _________
0                                  24681    02111000  *
                                   24682    02112000  *  SEGDBEE - SEG DEBUGGER NAME
                                   24683    02113000  *
                                   24684    02114000  *
 002FD6 90DF B0D4            000D4 24685    02115000  SEGDBEE  PROC  ,
 002FDA 58F0 C014/0DEF       00014 24695             +
 002FE0 E2C5C7C4C2C5C540           24697             +
 002FE8 98DF B0D4            000D4 24698             +
 002FEC 50E0 D000            00000 24701             +
 002FF0 900C D004/188D       00004 24704             +
 002FF6 41D0 D038/0DA0       00038 24706             +
 002FFC 4160 C208            00208 24729    02116000           LA    R6,GVTDVWA
 USING  *,R10
 USING  DVWA,R6                    24730    02117000           USING DVWA,R6
                                   24739    02118000  *
                                   24740    02119000  *                                  FIND DEBUGGEE TVT
 003000 5810 6008            00008 24741    02120000           L     R1,DVEETCBP
 003004 58E0 AAB0/0DEE       03AAC 24742    02121000           ACALL GETTVT
 00300A 4780 A024            03020 24746    02122000           IF    NZ,BEGIN
 00300E 4110 ABB9            03BB5 24757  1 02123000             SEG   '*** (deceased task)'
 003012 4100 0013            00013 24761  1          +
 003016 58F0 B468            00468 24767  1          +
 00301A 58E0 AAAC/0DEE       03AA8 24770  1          +
 003020                            24772    02124000           END
 003020 A028           03020 0300C 24776    02125000           ELSE  BEGIN
 003020 47F0 A03C            03038 24781             +
 003024 1851                       24787  1 02126000             LR    R5,R1
 003026 4110 5014            00014 24788  1 02127000             WITH  (TVT,R5),'SETMSG TVTNAME '
 DROP   TVT,R11
 USING  TVT,R5
 00302A 4100 0008            00008 24824  1          +
 ** ASMA301W Prior active USING on statement number 24805 overridden by this USING
 ** ASMA435I Record 142 in WYL.GG.SYS.MACLIB(USING) on volume: STR210
 00302E 58F0 B468            00468 24842  1 02128000             SEGT  (R1),(R0)
 USING  TVT,R11
 DROP   TVT,R5
 003032 58E0 AAB4/0DEE       03AB0 24862  1          +
 003038                            24864    02129000           END
                                   24868    02130000
 003038 18D8/980C D004       00004 24869    02131000           PEND
 DROP   *,R10
 00303E 58E0 D000/12FF       00000 24885             +
 003044 07FE                       24888             +
 DROP   DVWA,R6                    24889    02132000           DROP  R6
1DBMAIN   Debug: Commands                                                                                                   Page  108
0Current Usings:  (OSFCOMMN,R9) (TVT,R11) (GVT,R12)
0Loc    Object Code    Addr1 Addr2  Stmt Lv Lineno    Source Statement           (Hibal 5, Asmedit 3.3)  HLASM R4.0  2002/06/06 10.05
+___    ______ ____    _____ _____  ____ __ ______    ______ _________
0                                  24897    02134000  *
                                   24898    02135000  *
                                   24899    02136000  *        CHKDEBUG - CHECK DEBUGGER AND DEBUGGEE
                                   24900    02137000  *
                                   24901    02138000  *   WE MAKE SURE THAT DEBUGGER AND DEBUGGEE ARE STILL ALIVE.
                                   24902    02139000  *   IF THEY ARE NOT (IE. THEY DIED), THEN WE CLEAR THE
                                   24903    02140000  *   DEBUG WORK AREA.
                                   24904    02141000  *
                                   24905    02142000  *   NOTE:
                                   24906    02143000  *   IF THE DEBUGGEE DIED.  WE TRY TO OWN THE DEBUG WORK AREA
                                   24907    02144000  *   SO WE CAN CLEAN UP SOME DEBUG WORK AREA FIELDS.  WE GIVE
                                   24908    02145000  *   BACK THE DEBUG WORK AREA WHEN WE ARE DONE.  OH YEAH!
                                   24909    02146000  *
                                   24910    02147000  *   NOTE:
                                   24911    02148000  *   TO RESTART A BAD DEBUG SITUATION, STOP DEBUGGER/DEBUGGEE
                                   24912    02149000  *   THEN EXECUTE DEBUG COMMAND.
                                   24913    02150000  *
                                   24914    02151000  *   PROBLEM:
                                   24915    02152000  *   IF WE ARE NOT DEBUGGER, IE. DEBUGGER DIED. WE CANNOT AX
                                   24916    02153000  *   ANY DEBUGGEE THAT DIED.  HOW DO WE REMOVE DEAD DEBUGGEE
                                   24917    02154000  *   IN MULTI TASK ENVIRONMENT. IF WE BECOME DEBUGGER WE MAY
                                   24918    02155000  *   NOT BE ALLOWED TO UNBECOME DEBUGGER.
                                   24919    02156000  *
 003046 90DF B0D4            000D4 24920    02157000  CHKDEBUG PROC
 00304A 58F0 C014/0DEF       00014 24930             +
 003050 C3C8D2C4C5C2E4C7           24932             +
 003058 98DF B0D4            000D4 24933             +
 00305C 50E0 D000            00000 24936             +
 003060 900C D004/188D       00004 24939             +
 003066 41D0 D038/0DA0       00038 24941             +
 00306C 4160 C208            00208 24964    02158000           LA    R6,GVTDVWA
 USING  *,R10
 USING  DVWA,R6                    24965    02159000           USING DVWA,R6
                                   24974    02160000  *
                                   24975    02161000  *                                  CHECK DEBUGGER
 003070 5810 6000            00000 24976    02162000           L     R1,DVERTCBP
 003074 1211/4780 A026       03092 24977    02163000           IF    ((R1,NZ),AND,(R1,NE,TVTTCBP)),BEGIN
 00307A 5910 B098            00098 25001             +
 00307E 4780 A026            03092 25002             +
 003082 58E0 AA48/0DEE       03AB4 25007  1 02164000             ACALL CHKTCB
 003088 4780 A026            03092 25011  1 02165000             IF    NZ,BEGIN            IF NO DEBUGGER, CLEAR TCBP
 00308C 1B22                       25022  2 02166000               CLEAR R2
 00308E BA12 6000            00000 25026  2 02167000               CS    R1,R2,DVERTCBP
 003092                            25027  1 02168000             END
 003092                            25031    02169000           END
                                   25035    02170000  *
                                   25036    02171000  *                                  CHECK DEBUGGEE
 003092 5810 6008            00008 25037    02172000           L     R1,DVEETCBP
 003096 1211/4780 A094       03100 25038    02173000           IF    (R1,NZ),BEGIN       IF DEBUGGEE POINTER, BUT
 00309C 58E0 AA48/0DEE       03AB4 25052  1 02174000             ACALL CHKTCB
 0030A2 4780 A094            03100 25056  1 02175000             IF    NZ,BEGIN            IF NO DEBUGGEE, CLEAR TCB
 0030A6 58E0 AA4C/0DEE       03AB8 25067  2 02176000               ACALL CHKDBGER
 0030AC 4770 A094            03100 25071  2 02177000               IF    Z,BEGIN             IF WE ARE DEBUGGER
 0030B0 1821                       25082  3 02178000                 LR    R2,R1
1DBMAIN   Debug: Commands                                                                                                   Page  109
0Current Usings:  (DVWA,R6) (OSFCOMMN,R9) (*,R10) (TVT,R11) (GVT,R12)
0Loc    Object Code    Addr1 Addr2  Stmt Lv Lineno    Source Statement           (Hibal 5, Asmedit 3.3)  HLASM R4.0  2002/06/06 10.05
+___    ______ ____    _____ _____  ____ __ ______    ______ _________
00030B2 5830 600C            0000C 25083  3 02179000                 L     R3,DVEEACTV
 0030B6 1B44                       25084  3 02180000                 CLEAR R4
 0030B8 1B55                       25088  3 02181000                 CLEAR R5
 0030BA BB24 6008            00008 25092  3 02182000                 CDS   R2,R4,DVEETCBP
 0030BE 4770 A094            03100 25093  3 02183000                 IF    Z,BEGIN             IF WE CAN DEACTIVATE DEBUGGEE
 0030C2 1B11                       25104  4 02184000                   CLEAR R1
 0030C4 5820 B098            00098 25108  4 02185000                   L     R2,TVTTCBP
 0030C8 BA12 6008            00008 25109  4 02186000                   CS    R1,R2,DVEETCBP
 0030CC 4770 A094            03100 25110  4 02187000                   IF    Z,BEGIN             IF WE CAN OWN DEBUGEE
                                   25121  5 02188000  *                                  CLEAR MANY DEBUG FIELDS
 0030D0                            25122  5 02189000                     CLEAR DVEEACTV
 0030D0 D703 600C 600C 0000C 0000C 25128  5          +
 0030D6                            25129  5 02190000                     CLEAR DVERECB
 0030D6 D703 6010 6010 00010 00010 25135  5          +
 0030DC                            25136  5 02191000                     CLEAR DVEEECB
 0030DC D703 6014 6014 00014 00014 25142  5          +
 0030E2 947F 6018      00018       25143  5 02192000                     CLEAR DVFNEWIA
 0030E6 94BF 6018      00018       25150  5 02193000                     CLEAR DVFIRUPT
 0030EA                            25157  5 02194000                     CLEAR DVEPIEP
 0030EA D703 601C 601C 0001C 0001C 25163  5          +
 0030F0                            25164  5 02195000                     CLEAR DVSYMP
 0030F0 D703 6020 6020 00020 00020 25170  5          +
 0030F6 5810 B098            00098 25171  5 02196000                     L     R1,TVTTCBP          GIVE UP DEBUG AREA OWNERSHIP
 0030FA 1B22                       25172  5 02197000                     CLEAR R2
 0030FC BA12 6008            00008 25176  5 02198000                     CS    R1,R2,DVEETCBP
 003100                            25177  4 02199000                   END
 003100                            25181  3 02200000                 END
 003100                            25185  2 02201000               END
 003100                            25189  1 02202000             END
 003100                            25193    02203000           END
                                   25197    02204000
 003100 18D8/980C D004       00004 25198    02205000           PEND
 DROP   *,R10
 003106 58E0 D000/12FF       00000 25214             +
 00310C 07FE                       25217             +
1DBMAIN   Debug: Commands                                                                                                   Page  110
0Current Usings:  (DVWA,R6) (OSFCOMMN,R9) (TVT,R11) (GVT,R12)
0Loc    Object Code    Addr1 Addr2  Stmt Lv Lineno    Source Statement           (Hibal 5, Asmedit 3.3)  HLASM R4.0  2002/06/06 10.05
+___    ______ ____    _____ _____  ____ __ ______    ______ _________
0                                  25219    02207000  *
                                   25220    02208000  *
                                   25221    02209000  *  CHKTCB - CHECK IF TCB IS VALID
                                   25222    02210000  *
                                   25223    02211000  *  WE LOOK THRU TVT CHAIN
                                   25224    02212000  *
                                   25225    02213000  *  ON ENTRY:
                                   25226    02214000  *        R1 - TASK TCB PTR
                                   25227    02215000  *
                                   25228    02216000  *  ON EXIT:
                                   25229    02217000  *        R15=ZERO, TASK OK;
                                   25230    02218000  *        R15=NZ TASK DOES NOT EXIST OR TASK DIED
                                   25231    02219000  *
                                   25232    02220000  *
 00310E 90DF B0D4            000D4 25233    02221000  CHKTCB   PROC
 003112 58F0 C014/0DEF       00014 25243             +
 003118 C3C8D2E3C3C24040           25245             +
 003120 98DF B0D4            000D4 25246             +
 003124 50E0 D000            00000 25249             +
 003128 900C D004/188D       00004 25252             +
 00312E 41D0 D038/0DA0       00038 25254             +
 USING  *,R10                      25277    02222000           WITH  (TVT,R2)
 DROP   TVT,R11
 USING  TVT,R2
 003134 5820 C06C            0006C 25298    02223000           L     R2,GVTTVTQH
 003138 5820 2008            00008 25299    02224000           L     R2,TVTLINK          TVT PTR
                                   25300    02225000  *                                  LOOP THROUGH ALL TVT'S
 00313C 1222/4780 A01E       03152 25301    02226000           WHILE ((R2,NZ),AND,(R1,NE,TVTTCBP)),BEGIN
 003142 5910 2098            00098 25327             +
 003146 4780 A01E            03152 25328             +
 00314A 5820 2008            00008 25333  1 02227000             L     R2,TVTLINK
 00314E 47F0 A008            0313C 25334    02228000           END
 003152 1222/4780 A026       0315A 25339    02229000           IF    (R2,NZ),BEGIN       IF FOUND
 003158 1BFF                       25353  1 02230000             CLEAR R15
 00315A                            25357    02231000           END
 00315A A02A           0315A 03156 25361    02232000           ELSE  BEGIN               TASK NOT FOUND
 00315A 47F0 A02E            03162 25366             +
 00315E 41F0 0004            00004 25372  1 02233000             LA    R15,4
 003162                            25373    02234000           END
                                   25377    02235000           PEND
 ** ASMA301W Prior active USING on statement number 25294 overridden by this USING
 ** ASMA435I Record 142 in WYL.GG.SYS.MACLIB(USING) on volume: STR210
 003162 18D8/980C D004       00004 25401             +
 USING  TVT,R11
 DROP   TVT,R2
 DROP   *,R10
 003168 58E0 D000/12FF       00000 25407             +
 00316E 07FE                       25410             +
1DBMAIN   Debug: Commands                                                                                                   Page  111
0Current Usings:  (DVWA,R6) (OSFCOMMN,R9) (TVT,R11) (GVT,R12)
0Loc    Object Code    Addr1 Addr2  Stmt Lv Lineno    Source Statement           (Hibal 5, Asmedit 3.3)  HLASM R4.0  2002/06/06 10.05
+___    ______ ____    _____ _____  ____ __ ______    ______ _________
0                                  25412    02237000  *
                                   25413    02238000  *
                                   25414    02239000  *  GETTVT - GET TVT POINTER FOR THIS TCB
                                   25415    02240000  *
                                   25416    02241000  *  WE LOOK THRU TVT CHAIN
                                   25417    02242000  *
                                   25418    02243000  *  ON ENTRY:
                                   25419    02244000  *        R1 - TASK TCB PTR
                                   25420    02245000  *
                                   25421    02246000  *  ON EXIT:
                                   25422    02247000  *        R1 - TVT POINTER, IF R15=0
                                   25423    02248000  *        R15=ZERO, TASK OK;
                                   25424    02249000  *        R15=NZ TASK DOES NOT EXIST OR TASK DIED
                                   25425    02250000  *
                                   25426    02251000  *
 003170 90DF B0D4            000D4 25427    02252000  GETTVT   PROC
 003174 58F0 C014/0DEF       00014 25437             +
 00317A C7C5E3E3E5E34040           25439             +
 003182 98DF B0D4            000D4 25440             +
 003186 50E0 D000            00000 25443             +
 00318A 900C D004/188D       00004 25446             +
 003190 41D0 D038/0DA0       00038 25448             +
 USING  *,R10                      25471    02253000           WITH  (TVT,R2)
 DROP   TVT,R11
 USING  TVT,R2
 003196 5820 C06C            0006C 25492    02254000           L     R2,GVTTVTQH
 00319A 5820 2008            00008 25493    02255000           L     R2,TVTLINK          TVT PTR
                                   25494    02256000  *                                  LOOP THROUGH ALL TVT'S
 00319E 1222/4780 A01E       031B4 25495    02257000           WHILE ((R2,NZ),AND,(R1,NE,TVTTCBP)),BEGIN
 0031A4 5910 2098            00098 25521             +
 0031A8 4780 A01E            031B4 25522             +
 0031AC 5820 2008            00008 25527  1 02258000             L     R2,TVTLINK
 0031B0 47F0 A008            0319E 25528    02259000           END
 0031B4 1222/4780 A02E       031C4 25533    02260000           IF    (R2,NZ),BEGIN       IF FOUND
 0031BA 4110 2000            00000 25547  1 02261000             LA    R1,TVT
 0031BE 5018 0008            00008 25548  1 02262000             PRETURN (R1)
 0031C2 1BFF                       25550  1 02263000             CLEAR R15
 0031C4                            25554    02264000           END
 0031C4 A032           031C4 031B8 25558    02265000           ELSE  BEGIN               TASK NOT FOUND
 0031C4 47F0 A036            031CC 25563             +
 0031C8 41F0 0004            00004 25569  1 02266000             LA    R15,4
 0031CC                            25570    02267000           END
                                   25574    02268000           PEND
 ** ASMA301W Prior active USING on statement number 25488 overridden by this USING
 ** ASMA435I Record 142 in WYL.GG.SYS.MACLIB(USING) on volume: STR210
 0031CC 18D8/980C D004       00004 25598             +
 USING  TVT,R11
 DROP   TVT,R2
 DROP   *,R10
 0031D2 58E0 D000/12FF       00000 25604             +
 0031D8 07FE                       25607             +
1DBMAIN   Debug: Commands                                                                                                   Page  112
0Current Usings:  (DVWA,R6) (OSFCOMMN,R9) (TVT,R11) (GVT,R12)
0Loc    Object Code    Addr1 Addr2  Stmt Lv Lineno    Source Statement           (Hibal 5, Asmedit 3.3)  HLASM R4.0  2002/06/06 10.05
+___    ______ ____    _____ _____  ____ __ ______    ______ _________
0                                  25609    02270000  *
                                   25610    02271000  *
                                   25611    02272000  *  FINDTVT - CHECK IF TASK IS AROUND
                                   25612    02273000  *
                                   25613    02274000  *  WE LOOK THRU TVT CHAIN
                                   25614    02275000  *
                                   25615    02276000  *  ON ENTRY:
                                   25616    02277000  *        R1 - TASK NAME
                                   25617    02278000  *
                                   25618    02279000  *  ON EXIT:
                                   25619    02280000  *        R1 - TVT POINTER IF R15=0
                                   25620    02281000  *        R15=ZERO, TASK OK;
                                   25621    02282000  *        R15=NZ TASK DOES NOT EXIST OR TASK DIED
                                   25622    02283000  *
                                   25623    02284000  *
 0031DA 90DF B0D4            000D4 25624    02285000  FINDTVT  PROC
 0031DE 58F0 C014/0DEF       00014 25634             +
 0031E4 C6C9D5C4E3E5E340           25636             +
 0031EC 98DF B0D4            000D4 25637             +
 0031F0 50E0 D000            00000 25640             +
 0031F4 900C D004/188D       00004 25643             +
 0031FA 41D0 D038/0DA0       00038 25645             +
 USING  *,R10                      25668    02286000           WITH  (TVT,R2)
 DROP   TVT,R11
 USING  TVT,R2
 003200 5820 C06C            0006C 25689    02287000           L     R2,GVTTVTQH
 003204 5820 2008            00008 25690    02288000           L     R2,TVTLINK          TVT PTR
                                   25691    02289000  *                                  LOOP THROUGH ALL TVT'S
 003208 1222/4780 A020       03220 25692    02290000           WHILE ((R2,NZ),AND,(@R1,NE,TVTNAME)),BEGIN
 00320E D507 2014 1000 00014 00000 25718             +
 003214 4780 A020            03220 25719             +
 003218 5820 2008            00008 25724  1 02291000             L     R2,TVTLINK
 00321C 47F0 A008            03208 25725    02292000           END
 003220 1222/4780 A02E       0322E 25730    02293000           IF    (R2,NZ),BEGIN       IF FOUND
 003226 1812                       25744  1 02294000             LR    R1,R2
 003228 5018 0008            00008 25745  1 02295000             PRETURN R1
 00322C 1BFF                       25747  1 02296000             CLEAR R15
 00322E                            25751    02297000           END
 00322E A032           0322E 03224 25755    02298000           ELSE  BEGIN               TASK NOT FOUND
 00322E 47F0 A036            03236 25760             +
 003232 41F0 0004            00004 25766  1 02299000             LA    R15,4
 003236                            25767    02300000           END
                                   25771    02301000           PEND
 ** ASMA301W Prior active USING on statement number 25685 overridden by this USING
 ** ASMA435I Record 142 in WYL.GG.SYS.MACLIB(USING) on volume: STR210
 003236 18D8/980C D004       00004 25795             +
 USING  TVT,R11
 DROP   TVT,R2
 DROP   *,R10
 00323C 58E0 D000/12FF       00000 25801             +
 003242 07FE                       25804             +
1DBMAIN   Debug: Commands                                                                                                   Page  113
0Current Usings:  (DVWA,R6) (OSFCOMMN,R9) (TVT,R11) (GVT,R12)
0Loc    Object Code    Addr1 Addr2  Stmt Lv Lineno    Source Statement           (Hibal 5, Asmedit 3.3)  HLASM R4.0  2002/06/06 10.05
+___    ______ ____    _____ _____  ____ __ ______    ______ _________
0                                  25806    02303000  *
                                   25807    02304000  *
                                   25808    02305000  *  FINDTCB - CHECK IF TASK IS AROUND
                                   25809    02306000  *
                                   25810    02307000  *  WE LOOK THRU TVT CHAIN
                                   25811    02308000  *
                                   25812    02309000  *  ON ENTRY:
                                   25813    02310000  *        R1 - TASK NAME
                                   25814    02311000  *
                                   25815    02312000  *  ON EXIT:
                                   25816    02313000  *        R1 - TCB POINTER IF R15=0
                                   25817    02314000  *        R15=ZERO, TASK OK;
                                   25818    02315000  *        R15=NZ TASK DOES NOT EXIST OR TASK DIED
                                   25819    02316000  *
                                   25820    02317000  *
 003244 90DF B0D4            000D4 25821    02318000  FINDTCB  PROC
 003248 58F0 C014/0DEF       00014 25831             +
 00324E C6C9D5C4E3C3C240           25833             +
 003256 98DF B0D4            000D4 25834             +
 00325A 50E0 D000            00000 25837             +
 00325E 900C D004/188D       00004 25840             +
 003264 41D0 D038/0DA0       00038 25842             +
 USING  *,R10                      25865    02319000           WITH  (TVT,R2)
 DROP   TVT,R11
 USING  TVT,R2
 00326A 5820 C06C            0006C 25886    02320000           L     R2,GVTTVTQH
 00326E 5820 2008            00008 25887    02321000           L     R2,TVTLINK          TVT PTR
                                   25888    02322000  *                                  LOOP THROUGH ALL TVT'S
 003272 1222/4780 A020       0328A 25889    02323000           WHILE ((R2,NZ),AND,(@R1,NE,TVTNAME)),BEGIN
 003278 D507 2014 1000 00014 00000 25915             +
 00327E 4780 A020            0328A 25916             +
 003282 5820 2008            00008 25921  1 02324000             L     R2,TVTLINK
 003286 47F0 A008            03272 25922    02325000           END
 00328A 1222/4780 A030       0329A 25927    02326000           IF    (R2,NZ),BEGIN       IF FOUND
 003290 5810 2098            00098 25941  1 02327000             L     R1,TVTTCBP
 003294 5018 0008            00008 25942  1 02328000             PRETURN R1
 003298 1BFF                       25944  1 02329000             CLEAR R15
 00329A                            25948    02330000           END
 00329A A034           0329A 0328E 25952    02331000           ELSE  BEGIN               TASK NOT FOUND
 00329A 47F0 A038            032A2 25957             +
 00329E 41F0 0004            00004 25963  1 02332000             LA    R15,4
 0032A2                            25964    02333000           END
                                   25968    02334000           PEND
 ** ASMA301W Prior active USING on statement number 25882 overridden by this USING
 ** ASMA435I Record 142 in WYL.GG.SYS.MACLIB(USING) on volume: STR210
 0032A2 18D8/980C D004       00004 25992             +
 USING  TVT,R11
 DROP   TVT,R2
 DROP   *,R10
 0032A8 58E0 D000/12FF       00000 25998             +
 0032AE 07FE                       26001             +
1DBMAIN   Debug: Commands                                                                                                   Page  114
0Current Usings:  (DVWA,R6) (OSFCOMMN,R9) (TVT,R11) (GVT,R12)
0Loc    Object Code    Addr1 Addr2  Stmt Lv Lineno    Source Statement           (Hibal 5, Asmedit 3.3)  HLASM R4.0  2002/06/06 10.05
+___    ______ ____    _____ _____  ____ __ ______    ______ _________
0                                  26003    02336000  *
                                   26004    02337000  *  CHKDBGER - CHECK IF WE ARE DEBUGGER
                                   26005    02338000  *
                                   26006    02339000  *  ON EXIT:
                                   26007    02340000  *     R15=0, WE ARE DEBUGGER TASK
                                   26008    02341000  *     R15=NZ, NO WE ARE NOT DEBUGGER TASK
                                   26009    02342000  *
 0032B0 90DF B0D4            000D4 26010    02343000  CHKDBGER PROC
 0032B4 58F0 C014/0DEF       00014 26020             +
 0032BA C3C8D2C4C2C7C5D9           26022             +
 0032C2 98DF B0D4            000D4 26023             +
 0032C6 50E0 D000            00000 26026             +
 0032CA 900C D004/188D       00004 26029             +
 0032D0 41D0 D038/0DA0       00038 26031             +
 0032D6 4160 C208            00208 26054    02344000           LA    R6,GVTDVWA
 USING  *,R10
                                   26055    02345000           USING DVWA,R6
                                   26057    02346000
 0032DA                            26058    02347000           IF    (TVTTCBP,EQ,DVERTCBP),BEGIN
 0032DA D503 B098 6000 00098 00000 26070             +
 0032E0 4770 A010            032E6 26071             +
 0032E4 1BFF                       26076  1 02348000             CLEAR R15
 0032E6                            26080    02349000           END
 0032E6 A014           032E6 032E2 26084    02350000           ELSE  BEGIN
 0032E6 47F0 A018            032EE 26089             +
 0032EA 41F0 0004            00004 26095  1 02351000             LA    R15,4
 0032EE                            26096    02352000           END
                                   26100    02353000
 0032EE 18D8/980C D004       00004 26101    02354000           PEND
 DROP   *,R10
 0032F4 58E0 D000/12FF       00000 26117             +
 0032FA 07FE                       26120             +
 DROP   DVWA,R6                    26121    02355000           DROP  R6
1DBMAIN   Debug: Commands                                                                                                   Page  115
0Current Usings:  (OSFCOMMN,R9) (TVT,R11) (GVT,R12)
0Loc    Object Code    Addr1 Addr2  Stmt Lv Lineno    Source Statement           (Hibal 5, Asmedit 3.3)  HLASM R4.0  2002/06/06 10.05
+___    ______ ____    _____ _____  ____ __ ______    ______ _________
0                                  26129    02357000  *
                                   26130    02358000  *   SETDBGER - SET THIS TASK AS DEBUGGER
                                   26131    02359000  *
                                   26132    02360000  *   ON EXIT:
                                   26133    02361000  *      R15=0, SUCCESS WE ARE NOW DEBUGGER TASK
                                   26134    02362000  *      R15=NZ, UNABLE TO BECOME DEBUGGER
                                   26135    02363000  *
                                   26136    02364000  *
 0032FC 90DF B0D4            000D4 26137    02365000  SETDBGER PROC  ,
 003300 58F0 C014/0DEF       00014 26147             +
 003306 E2C5E3C4C2C7C5D9           26149             +
 00330E 98DF B0D4            000D4 26150             +
 003312 50E0 D000            00000 26153             +
 003316 900C D004/188D       00004 26156             +
 00331C 41D0 D038/0DA0       00038 26158             +
 003322 4160 C208            00208 26181    02366000           LA    R6,GVTDVWA
 USING  *,R10
 USING  DVWA,R6                    26182    02367000           USING DVWA,R6
                                   26191    02368000
 003326 1B11                       26192    02369000           CLEAR R1
 003328 5820 B098            00098 26196    02370000           L     R2,TVTTCBP
 00332C BA12 6000            00000 26197    02371000           CS    R1,R2,DVERTCBP
 003330 4770 A014            03336 26198    02372000           IF    Z,BEGIN
 003334 1BFF                       26209  1 02373000             CLEAR R15
 003336                            26213    02374000           END
 003336 A018           03336 03332 26217    02375000           ELSE  BEGIN
 003336 47F0 A01C            0333E 26222             +
 00333A 41F0 0004            00004 26228  1 02376000             LA    R15,4
 00333E                            26229    02377000           END
                                   26233    02378000
 00333E 18D8/980C D004       00004 26234    02379000           PEND
 DROP   *,R10
 003344 58E0 D000/12FF       00000 26250             +
 00334A 07FE                       26253             +
 DROP   DVWA,R6                    26254    02380000           DROP  R6
1DBMAIN   Debug: Commands                                                                                                   Page  116
0Current Usings:  (OSFCOMMN,R9) (TVT,R11) (GVT,R12)
0Loc    Object Code    Addr1 Addr2  Stmt Lv Lineno    Source Statement           (Hibal 5, Asmedit 3.3)  HLASM R4.0  2002/06/06 10.05
+___    ______ ____    _____ _____  ____ __ ______    ______ _________
0                                  26262    02382000  *
                                   26263    02383000  *  CHKDBGEE - CHECK IF A DEBUGGEE EXISTS
                                   26264    02384000  *
                                   26265    02385000  *  ON EXIT:
                                   26266    02386000  *     R15=0, DEBUGGEE TASK EXISTS
                                   26267    02387000  *     R15=NZ, NO DEBUGGEE TASK FOUND. (MAY HAVE DIED)
                                   26268    02388000  *
                                   26269    02389000  *  NOTE/CAUTION!:
                                   26270    02390000  *  WE ASSUME THAT CHKDEBUG IS CALLED PRIOR TO THIS ROUTINE.
                                   26271    02391000  *  CHKDEBUG VALIDITY CHECKS THE DEBUGBEE TCB.  HERE WE
                                   26272    02392000  *  JUST CHECK FOR NON-ZERO DEBUGGEE TCB.
                                   26273    02393000  *
                                   26274    02394000  *
 00334C 90DF B0D4            000D4 26275    02395000  CHKDBGEE PROC
 003350 58F0 C014/0DEF       00014 26285             +
 003356 C3C8D2C4C2C7C5C5           26287             +
 00335E 98DF B0D4            000D4 26288             +
 003362 50E0 D000            00000 26291             +
 003366 900C D004/188D       00004 26294             +
 00336C 41D0 D038/0DA0       00038 26296             +
 003372 4160 C208            00208 26319    02396000           LA    R6,GVTDVWA
 USING  *,R10
 USING  DVWA,R6                    26320    02397000           USING DVWA,R6
                                   26329    02398000
 003376                            26330    02399000           IF    (DVEETCBP,NZ),BEGIN
 003376 D603 6008 6008 00008 00008 26340             +
 00337C 4780 A010            03382 26341             +
 003380 1BFF                       26346  1 02400000             CLEAR R15
 003382                            26350    02401000           END
 003382 A014           03382 0337E 26354    02402000           ELSE  BEGIN
 003382 47F0 A018            0338A 26359             +
 003386 41F0 0004            00004 26365  1 02403000             LA    R15,4
 00338A                            26366    02404000           END
                                   26370    02405000
 00338A 18D8/980C D004       00004 26371    02406000           PEND
 DROP   *,R10
 003390 58E0 D000/12FF       00000 26387             +
 003396 07FE                       26390             +
 DROP   DVWA,R6                    26391    02407000           DROP  R6
1DBMAIN   Debug: Commands                                                                                                   Page  117
0Current Usings:  (OSFCOMMN,R9) (TVT,R11) (GVT,R12)
0Loc    Object Code    Addr1 Addr2  Stmt Lv Lineno    Source Statement           (Hibal 5, Asmedit 3.3)  HLASM R4.0  2002/06/06 10.05
+___    ______ ____    _____ _____  ____ __ ______    ______ _________
0                                  26399    02409000  *
                                   26400    02410000  *   SETDBGEE - SET THIS TASK AS DEBUGGER
                                   26401    02411000  *
                                   26402    02412000  *   ON ENTRY:
                                   26403    02413000  *      R1 - NEW DEBUGGEE TCB POINTER
                                   26404    02414000  *
                                   26405    02415000  *   ON EXIT:
                                   26406    02416000  *      R15=0, SUCCESS, NEW DEBUGGEE TASK SET
                                   26407    02417000  *      R15=NZ, UNABLE TO SET DEBUGGEE
                                   26408    02418000  *
                                   26409    02419000  *   NOTE:
                                   26410    02420000  *   WE ALSO REINITIALIZE DEBUG AREA FIELDS
                                   26411    02421000  *   SO WE MUST OWN DEBUG AREA AND THEN FREE IT.
                                   26412    02422000  *
 000000                00000 00004 26413    02423000  SDBEEWA  RECORD BEGIN
 000000                            26421  1 02424000  SDBEETCB   DS    F
 000004                00004 00004 26422    02425000           END
                                   26431    02426000  *
                                   26432    02427000  *
 003398 90DF B0D4            000D4 26433    02428000  SETDBGEE PROC  SDBEEWA
 00339C 58F0 C014/0DEF       00014 26444             +
 0033A2 E2C5E3C4C2C7C5C5           26446             +
 0033AA 98DF B0D4            000D4 26447             +
 0033AE 50E0 D000            00000 26450             +
 0033B2 900C D004/188D       00004 26453             +
 0033B8 41D0 D03C/0DA0       0003C 26456             +
 0033BE 4160 C208            00208 26488    02429000           LA    R6,GVTDVWA
 USING  *,R10
 USING  SDBEEWA-(4+52),R8
 USING  DVWA,R6                    26489    02430000           USING DVWA,R6
                                   26498    02431000  *
                                   26499    02432000  *                                  SAVE NEW DEBUGGEE TCB PTR
 0033C2 5010 8038            00000 26500    02433000           ST    R1,SDBEETCB
                                   26501    02434000  *
                                   26502    02435000  *                                  WE MUST BE DEBUGGER TO DO THIS
 0033C6 58E0 A6FA/0DEE       03AB8 26503    02436000           ACALL CHKDBGER
 0033CC 4770 A07C            0343A 26507    02437000           IF    Z,BEGIN
                                   26518  1 02438000  *
                                   26519  1 02439000  *                                  IF THIS DEBUGGEE ALREADY SET
                                   26520  1 02440000  *                                  AND WAITING, WE ARE DONE
 0033D0 5810 8038            00000 26521  1 02441000             L     R1,SDBEETCB
 0033D4 5910 6008            00008 26522  1 02442000             IF    ((R1,EQ,DVEETCBP),AND,(R1,EQ,DVEEACTV)),BEGIN
 0033D8 4770 A02C            033EA 26536  1          +
 0033DC 5910 600C            0000C 26549  1          +
 0033E0 4770 A02C            033EA 26550  1          +
 0033E4 1BFF                       26555  2 02443000               CLEAR R15
 0033E6 47F0 A080            0343E 26559  2 02444000               B     STEEEXIT
 0033EA                            26560  1 02445000             END
                                   26564  1 02446000  *
                                   26565  1 02447000  *                                  TRY TO OWN DEBUG WORK AREA
 0033EA 5820 6008            00008 26566  1 02448000             L     R2,DVEETCBP
 0033EE 1B33                       26567  1 02449000             CLEAR R3
 0033F0 5840 B098            00098 26571  1 02450000             L     R4,TVTTCBP
 0033F4 1B55                       26572  1 02451000             CLEAR R5
1DBMAIN   Debug: Commands                                                                                                   Page  118
0Current Usings:  (DVWA,R6) (SDBEEWA-(4+52),R8) (OSFCOMMN,R9) (*,R10) (TVT,R11) (GVT,R12)
0Loc    Object Code    Addr1 Addr2  Stmt Lv Lineno    Source Statement           (Hibal 5, Asmedit 3.3)  HLASM R4.0  2002/06/06 10.05
+___    ______ ____    _____ _____  ____ __ ______    ______ _________
00033F6 BB24 6008            00008 26576  1 02452000             CDS   R2,R4,DVEETCBP
 0033FA 4770 A07C            0343A 26577  1 02453000             IF    Z,BEGIN             WE OWN DEBUG AREA
                                   26588  2 02454000  *                                  CLEAR MANY DEBUG FIELDS
 0033FE                            26589  2 02455000               CLEAR DVEEACTV
 0033FE D703 600C 600C 0000C 0000C 26595  2          +
 003404                            26596  2 02456000               CLEAR DVERECB
 003404 D703 6010 6010 00010 00010 26602  2          +
 00340A                            26603  2 02457000               CLEAR DVEEECB
 00340A D703 6014 6014 00014 00014 26609  2          +
 003410 947F 6018      00018       26610  2 02458000               CLEAR DVFNEWIA
 003414 94BF 6018      00018       26617  2 02459000               CLEAR DVFIRUPT
 003418                            26624  2 02460000               CLEAR DVEPIEP
 003418 D703 601C 601C 0001C 0001C 26630  2          +
 00341E                            26631  2 02461000               CLEAR DVSYMP
 00341E D703 6020 6020 00020 00020 26637  2          +
 003424 5810 B098            00098 26638  2 02462000               L     R1,TVTTCBP
 003428 5820 8038            00000 26639  2 02463000               L     R2,SDBEETCB
 00342C BA12 6008            00008 26640  2 02464000               CS    R1,R2,DVEETCBP
 003430 4770 A07C            0343A 26641  2 02465000               IF    Z,BEGIN             NEW DEBUGGEE SET OK, EXIT
 003434 1BFF                       26652  3 02466000                 CLEAR R15
 003436 47F0 A080            0343E 26656  3 02467000                 B     STEEEXIT
 00343A                            26657  2 02468000               END
 00343A                            26661  1 02469000             END
 00343A                            26665    02470000           END
                                   26669    02471000  *
                                   26670    02472000  *                                  UNABLE TO SET
 00343A 41F0 0004            00004 26671    02473000           LA    R15,4
                                   26672    02474000
 00343E                            26673    02475000  STEEEXIT LABEL ,
 00343E 18D8/980C D004       00004 26675    02476000           PEND
 DROP   SDBEEWA-(4+52),R8
 DROP   *,R10
 003444 58E0 D000/12FF       00000 26696             +
 00344A 07FE                       26699             +
 DROP   DVWA,R6                    26700    02477000           DROP  R6
1DBMAIN   Debug: Commands                                                                                                   Page  119
0Current Usings:  (OSFCOMMN,R9) (TVT,R11) (GVT,R12)
0Loc    Object Code    Addr1 Addr2  Stmt Lv Lineno    Source Statement           (Hibal 5, Asmedit 3.3)  HLASM R4.0  2002/06/06 10.05
+___    ______ ____    _____ _____  ____ __ ______    ______ _________
0                                  26708    02479000  *
                                   26709    02480000  *  SETMON
                                   26710    02481000  *
                                   26711    02482000  *  SET MONITOR MODE INFO
                                   26712    02483000  *
                                   26713    02484000  *
 00344C 90DF B0D4            000D4 26714    02485000  SETMON   PROC  ,
 003450 58F0 C014/0DEF       00014 26724             +
 003456 E2C5E3D4D6D54040           26726             +
 00345E 98DF B0D4            000D4 26727             +
 003462 50E0 D000            00000 26730             +
 003466 900C D004/188D       00004 26733             +
 00346C 41D0 D038/0DA0       00038 26735             +
 USING  *,R10                      26758    02486000  *
                                   26759    02487000  *                                  SET MONITOR ECB TABLE
 003472 58E0 A64A/0DEE       03ABC 26760    02488000           ACALL SETMECBL
                                   26764    02489000
 003478 18D8/980C D004       00004 26765    02490000           PEND
 DROP   *,R10
 00347E 58E0 D000/12FF       00000 26781             +
 003484 07FE                       26784             +
1DBMAIN   Debug: Commands                                                                                                   Page  120
0Current Usings:  (OSFCOMMN,R9) (TVT,R11) (GVT,R12)
0Loc    Object Code    Addr1 Addr2  Stmt Lv Lineno    Source Statement           (Hibal 5, Asmedit 3.3)  HLASM R4.0  2002/06/06 10.05
+___    ______ ____    _____ _____  ____ __ ______    ______ _________
0                                  26786    02492000  *
                                   26787    02493000  *  SETDEBUG
                                   26788    02494000  *
                                   26789    02495000  *  SET DEBUG MODE INFO
                                   26790    02496000  *
                                   26791    02497000  *
 003486 90DF B0D4            000D4 26792    02498000  SETDEBUG PROC  ,
 00348A 58F0 C014/0DEF       00014 26802             +
 003490 E2C5E3C4C5C2E4C7           26804             +
 003498 98DF B0D4            000D4 26805             +
 00349C 50E0 D000            00000 26808             +
 0034A0 900C D004/188D       00004 26811             +
 0034A6 41D0 D038/0DA0       00038 26813             +
 USING  *,R10                      26836    02499000  *
                                   26837    02500000  *                                  WE MUST BE DEBUGGER !
 0034AC 58E0 A60C/0DEE       03AB8 26838    02501000           ACALL CHKDBGER
 0034B2 4780 A020            034CC 26842    02502000           IF    NZ,BEGIN
 0034B6 4110 A71E            03BCA 26853  1 02503000             SEGWR 'Logic error.  We need to be DEBUGGER!'
 0034BA 4100 0025            00025 26858  1          +
 0034BE 58F0 B468            00468 26864  1          +
 0034C2 58E0 A5F0/0DEE       03A9C 26867  1          +
 0034C8 47F0 A04C            034F8 26869  1 02504000             B     SETDBXIT
 0034CC                            26870    02505000           END
                                   26874    02506000  *
                                   26875    02507000  *                                  SET DEBUG ECB TABLE
 0034CC 58E0 A614/0DEE       03AC0 26876    02508000           ACALL SETDECBL
                                   26880    02509000  *
                                   26881    02510000  *                                  MAKE SURE SYMP INFO CORRECT
 0034D2 4160 C208            00208 26882    02511000           LA    R6,GVTDVWA
 USING  DVWA,R6                    26883    02512000           USING DVWA,R6
 0034D6 5810 6008            00008 26892    02513000           L     R1,DVEETCBP
 0034DA 1211/4780 A04C       034F8 26893    02514000           IF    (R1,NZ),BEGIN
 0034E0 58E0 A600/0DEE       03AAC 26907  1 02515000             ACALL GETTVT
                                   26911  1 02516000  *        IF    Z,BEGIN
 0034E6 12FF/4770 A04C       034F8 26912  1 02517000             IF    (R15,Z),BEGIN
 0034EC 5010 6004            00004 26926  2 02518000               ST    R1,DVERTVTP
 0034F0 5810 10E0            000E0 26927  2 02518100               WITH  (TVT,R1),' L R1,TVTSYMTB '
 DROP   TVT,R11
 USING  TVT,R1
 ** ASMA301W Prior active USING on statement number 26944 overridden by this USING
 ** ASMA435I Record 142 in WYL.GG.SYS.MACLIB(USING) on volume: STR210
 0034F4 5010 6020            00020 26968  2 02519000               ST    R1,DVSYMP
 USING  TVT,R11
 DROP   TVT,R1
 0034F8                            26969  1 02520000             END
 0034F8                            26973    02521000           END
 DROP   DVWA,R6                    26977    02522000           DROP  R6
                                   26984    02523000
 0034F8                            26985    02524000  SETDBXIT LABEL ,
 0034F8 18D8/980C D004       00004 26987    02525000           PEND
 DROP   *,R10
 0034FE 58E0 D000/12FF       00000 27003             +
 003504 07FE                       27006             +
1DBMAIN   Debug: Commands                                                                                                   Page  121
0Current Usings:  (OSFCOMMN,R9) (TVT,R11) (GVT,R12)
0Loc    Object Code    Addr1 Addr2  Stmt Lv Lineno    Source Statement           (Hibal 5, Asmedit 3.3)  HLASM R4.0  2002/06/06 10.05
+___    ______ ____    _____ _____  ____ __ ______    ______ _________
0                                  27008    02527000  *
                                   27009    02528000  *  INIT (CLEAR) ALL ECBS IN ECBLIST
                                   27010    02529000  *
                                   27011    02530000  *
 003506 90DF B0D4            000D4 27012    02531000  INITECBS PROC  ,
 00350A 58F0 C014/0DEF       00014 27022             +
 003510 C9D5C9E3C5C3C2E2           27024             +
 003518 98DF B0D4            000D4 27025             +
 00351C 50E0 D000            00000 27028             +
 003520 900C D004/188D       00004 27031             +
 003526 41D0 D038/0DA0       00038 27033             +
 USING  *,R10                      27056    02532000  *
                                   27057    02533000  *                                  LOOP THRU ECB LIST
 00352C 4140 B420            00420 27058    02534000           LA    R4,TVTDECBL
 003530 5820 4000            00000 27059    02535000           L     R2,@R4
 003534 1B00                       27060    02536000           CLEAR R0
 003536 1222/4780 A020       0354C 27064    02537000           WHILE (R2,NZ),BEGIN
 00353C 5000 2000            00000 27080  1 02538000             ST    R0,@R2
 003540 4144 0004            00004 27081  1 02539000             LA    R4,4(R4)
 003544 5820 4000            00000 27082  1 02540000             L     R2,@R4
 003548 47F0 A00A            03536 27083    02541000           END
                                   27088    02542000
 00354C 18D8/980C D004       00004 27089    02543000           PEND
 DROP   *,R10
 003552 58E0 D000/12FF       00000 27105             +
 003558 07FE                       27108             +
1DBMAIN   Debug: Commands                                                                                                   Page  122
0Current Usings:  (OSFCOMMN,R9) (TVT,R11) (GVT,R12)
0Loc    Object Code    Addr1 Addr2  Stmt Lv Lineno    Source Statement           (Hibal 5, Asmedit 3.3)  HLASM R4.0  2002/06/06 10.05
+___    ______ ____    _____ _____  ____ __ ______    ______ _________
0                                  27110    02545000  *
                                   27111    02546000  *
                                   27112    02547000  *  SET MONITOR ECBLIST
                                   27113    02548000  *
                                   27114    02549000  *
 00355A 90DF B0D4            000D4 27115    02550000  SETMECBL PROC
 00355E 58F0 C014/0DEF       00014 27125             +
 003564 E2C5E3D4C5C3C2D3           27127             +
 00356C 98DF B0D4            000D4 27128             +
 003570 50E0 D000            00000 27131             +
 003574 900C D004/188D       00004 27134             +
 00357A 41D0 D038/0DA0       00038 27136             +
 USING  *,R10                      27159    02551000  *
 003580 4160 C208            00208 27160    02552000           LA    R6,GVTDVWA
 USING  DVWA,R6                    27161    02553000           USING DVWA,R6
                                   27170    02554000
 003584 9501 B400      00400       27171    02555000           IF    TVTFMONEL,BEGIN     IF MONITOR EVENTS SET
 003588 4770 A00C            0358C 27181             +
                                   27186  1 02556000  *                                  DO NOTHING
 00358C                            27187    02557000           END
                                   27191    02558000  *
                                   27192    02559000  *                                  IF NOT MONITOR EVENTS,
                                   27193    02560000  *                                  RESET EVENTS TABLE TO MONITOR
 00358C A010           0358C 0358A 27194    02561000           ELSE  BEGIN
 00358C 47F0 A04E            035CE 27199             +
 003590 9201 B400      00400       27205  1 02562000             SET   TVTFMONEL
 003594                            27211  1 02563000             CLEAR TVTDECBL
 003594 D71F B420 B420 00420 00420 27217  1          +
 00359A 4140 B420            00420 27218  1 02564000             LA    R4,TVTDECBL         R4 - ECB LIST NDX
                                   27219  1 02565000  *
                                   27220  1 02566000  *                                  PATH
 00359E 4120 B404            00404 27221  1 02567000             LA    R2,TVTPATHECB
 0035A2 5020 B410            00410 27222  1 02568000             ST    R2,TVTPATHPTR
 0035A6 5020 4000            00000 27223  1 02569000             ST    R2,@R4
 0035AA 4144 0004            00004 27224  1 02570000             LA    R4,4(R4)
                                   27225  1 02571000  *
                                   27226  1 02572000  *                                  TIMER
 0035AE 4120 B408            00408 27227  1 02573000             LA    R2,TVTTIMRECB
 0035B2 5020 B414            00414 27228  1 02574000             ST    R2,TVTTIMRPTR
 0035B6 5020 4000            00000 27229  1 02575000             ST    R2,@R4
 0035BA 4144 0004            00004 27230  1 02576000             LA    R4,4(R4)
                                   27231  1 02577000  *
                                   27232  1 02578000  *        COMMENT                   NO DEBUG WAIT IF MONITOR
                                   27233  1 02579000  *        COMMENT                   DEBUG
                                   27234  1 02580000  *        LA    R2,DVERECB
                                   27235  1 02581000  *        ST    R2,TVTDBUGPTR
                                   27236  1 02582000  *        ST    R2,@R4
                                   27237  1 02583000  *        LA    R4,4(R4)
                                   27238  1 02584000  *
                                   27239  1 02585000  *                                  MONITOR STOP
 0035BE 4120 B40C            0040C 27240  1 02586000             LA    R2,TVTSTOPECB
 0035C2 5020 B41C            0041C 27241  1 02587000             ST    R2,TVTSTOPPTR
 0035C6 5620 A544            03AC4 27242  1 02588000             O     R2,=X'80000000'     LAST ONE IN LIST
 0035CA 5020 4000            00000 27243  1 02589000             ST    R2,@R4
1DBMAIN   Debug: Commands                                                                                                   Page  123
0Current Usings:  (DVWA,R6) (OSFCOMMN,R9) (*,R10) (TVT,R11) (GVT,R12)
0Loc    Object Code    Addr1 Addr2  Stmt Lv Lineno    Source Statement           (Hibal 5, Asmedit 3.3)  HLASM R4.0  2002/06/06 10.05
+___    ______ ____    _____ _____  ____ __ ______    ______ _________
0                                  27244  1 02590000
 0035CE                            27245    02591000           END
                                   27249    02592000
 0035CE 18D8/980C D004       00004 27250    02593000           PEND
 DROP   *,R10
 0035D4 58E0 D000/12FF       00000 27266             +
 0035DA 07FE                       27269             +
 DROP   DVWA,R6                    27270    02594000           DROP  R6
1DBMAIN   Debug: Commands                                                                                                   Page  124
0Current Usings:  (OSFCOMMN,R9) (TVT,R11) (GVT,R12)
0Loc    Object Code    Addr1 Addr2  Stmt Lv Lineno    Source Statement           (Hibal 5, Asmedit 3.3)  HLASM R4.0  2002/06/06 10.05
+___    ______ ____    _____ _____  ____ __ ______    ______ _________
0                                  27278    02596000  *
                                   27279    02597000  *
                                   27280    02598000  *  SET DEBUG ECBLIST
                                   27281    02599000  *
                                   27282    02600000  *
 0035DC 90DF B0D4            000D4 27283    02601000  SETDECBL PROC
 0035E0 58F0 C014/0DEF       00014 27293             +
 0035E6 E2C5E3C4C5C3C2D3           27295             +
 0035EE 98DF B0D4            000D4 27296             +
 0035F2 50E0 D000            00000 27299             +
 0035F6 900C D004/188D       00004 27302             +
 0035FC 41D0 D038/0DA0       00038 27304             +
 USING  *,R10                      27327    02602000  *
 003602 4160 C208            00208 27328    02603000           LA    R6,GVTDVWA
 USING  DVWA,R6                    27329    02604000           USING DVWA,R6
                                   27338    02605000
 003606 9502 B400      00400       27339    02606000           IF    TVTFDBEL,BEGIN      IF MONITOR EVENTS SET
 00360A 4770 A00C            0360E 27349             +
                                   27354  1 02607000  *                                  DO NOTHING
 00360E                            27355    02608000           END
                                   27359    02609000  *
                                   27360    02610000  *                                  IF NOT MONITOR EVENTS,
                                   27361    02611000  *                                  RESET EVENTS TABLE TO MONITOR
 00360E A010           0360E 0360C 27362    02612000           ELSE  BEGIN
 00360E 47F0 A05E            03660 27367             +
 003612 9202 B400      00400       27373  1 02613000             SET   TVTFDBEL
 003616                            27379  1 02614000             CLEAR TVTDECBL
 003616 D71F B420 B420 00420 00420 27385  1          +
 00361C 4140 B420            00420 27386  1 02615000             LA    R4,TVTDECBL         R4 - ECB LIST NDX
                                   27387  1 02616000  *
                                   27388  1 02617000  *                                  PATH
 003620 4120 B404            00404 27389  1 02618000             LA    R2,TVTPATHECB
 003624 5020 B410            00410 27390  1 02619000             ST    R2,TVTPATHPTR
 003628 5020 4000            00000 27391  1 02620000             ST    R2,@R4
 00362C 4144 0004            00004 27392  1 02621000             LA    R4,4(R4)
                                   27393  1 02622000  *
                                   27394  1 02623000  *                                  TIMER
 003630 4120 B408            00408 27395  1 02624000             LA    R2,TVTTIMRECB
 003634 5020 B414            00414 27396  1 02625000             ST    R2,TVTTIMRPTR
 003638 5020 4000            00000 27397  1 02626000             ST    R2,@R4
 00363C 4144 0004            00004 27398  1 02627000             LA    R4,4(R4)
                                   27399  1 02628000  *
                                   27400  1 02629000  *                                  DEBUG
 003640 4120 6010            00010 27401  1 02630000             LA    R2,DVERECB
 003644 5020 B418            00418 27402  1 02631000             ST    R2,TVTDBUGPTR
 003648 5020 4000            00000 27403  1 02632000             ST    R2,@R4
 00364C 4144 0004            00004 27404  1 02633000             LA    R4,4(R4)
                                   27405  1 02634000  *
                                   27406  1 02635000  *                                  MONITOR STOP
 003650 4120 B40C            0040C 27407  1 02636000             LA    R2,TVTSTOPECB
 003654 5020 B41C            0041C 27408  1 02637000             ST    R2,TVTSTOPPTR
 003658 5620 A4C2            03AC4 27409  1 02638000             O     R2,=X'80000000'     LAST ONE IN LIST
 00365C 5020 4000            00000 27410  1 02639000             ST    R2,@R4
                                   27411  1 02640000
1DBMAIN   Debug: Commands                                                                                                   Page  125
0Current Usings:  (DVWA,R6) (OSFCOMMN,R9) (*,R10) (TVT,R11) (GVT,R12)
0Loc    Object Code    Addr1 Addr2  Stmt Lv Lineno    Source Statement           (Hibal 5, Asmedit 3.3)  HLASM R4.0  2002/06/06 10.05
+___    ______ ____    _____ _____  ____ __ ______    ______ _________
0003660                            27412    02641000           END
                                   27416    02642000
 003660 18D8/980C D004       00004 27417    02643000           PEND
 DROP   *,R10
 003666 58E0 D000/12FF       00000 27433             +
 00366C 07FE                       27436             +
 DROP   DVWA,R6                    27437    02644000           DROP  R6
1DBMAIN   Wings: Process post of monitor ECB                                                                                Page  126
0Current Usings:  (OSFCOMMN,R9) (TVT,R11) (GVT,R12)
0Loc    Object Code    Addr1 Addr2  Stmt Lv Lineno    Source Statement           (Hibal 5, Asmedit 3.3)  HLASM R4.0  2002/06/06 10.05
+___    ______ ____    _____ _____  ____ __ ______    ______ _________
0                                  27445    02646000  ¿þþþþþþþþþþþþþþþþþþþþþþþþþþþþþþþþþþþþþþþþþþþþþþþþþþþþþþþþþþþþþþþþþþþþþÜ
                                   27446    02647000  Ÿ                                                                     Ÿ
                                   27447    02648000  Ÿ   Process monitor post action required                              Ÿ
                                   27448    02649000  Ÿ                                                                     Ÿ
                                   27449    02650000  Ÿ     Process monitor request based on the setting of TVT flags.      Ÿ
                                   27450    02651000  Ÿ                                                                     Ÿ
                                   27451    02652000  Ÿ                                                                     Ÿ
                                                      ¾þþþþþþþþþþþþþþþþþþþþþþþþþþþþþþþþþþþþþþþþþþþþþþþþþþþþþþþþþþþþþþþþþþþþþ»
-00366E 90DF B0D4            000D4 27453    02654000  MONPOST  PROC  ,
 003672 58F0 C014/0DEF       00014 27463             +
 003678 D4D6D5D7D6E2E340           27465             +
 003680 98DF B0D4            000D4 27466             +
 003684 50E0 D000            00000 27469             +
 003688 900C D004/188D       00004 27472             +
 00368E 41D0 D038/0DA0       00038 27474             +
 003694 9180 B0A1      000A1       27497    02655000           IF    TVTFSTOP,BEGIN      Process stop request from monitor
 USING  *,R10
 003698 47E0 A02A            036BE 27507             +
 00369C 9640 B09C      0009C       27512  1 02656000             SET   TVTFQUISCE          Set task quisce flag
 003BEF 7F             03BEF 03E18 27518  1 02657000             CLEAR TVTFSTOP,MODE=LOCKED,REF=TVT
 0036A0 41F0 0001/111F       00001 27538  1          +
 0036A6 89F0 0002            00002 27540  1          +
 0036AA 44F0 A55C            03BF0 27542  1          +
 003BF0 BF10 A55B            03BEF 27549  1          +
 0036AE 58F0 B0A0/180F       000A0 27557  1          +
 0036B4 1401/BAF0 B0A0       000A0 27559  1          +
 0036BA 4770 A01E            036B2 27562  1          +
 0036BE                            27563    02658000           END   ,
 0036BE 1B00/4110 B0B4       000B4 27567    02659000           POST  TVTECBCM,0          Post monitor request processed
 0036C4 0A02                       27572             +
 0036C6 18D8/980C D004       00004 27573    02660000           PEND  ,
 DROP   *,R10
 0036CC 58E0 D000/12FF       00000 27589             +
 0036D2 07FE                       27592             +
1DBMAIN   Wings: Startup periodic timer                                                                                     Page  127
0Current Usings:  (OSFCOMMN,R9) (TVT,R11) (GVT,R12)
0Loc    Object Code    Addr1 Addr2  Stmt Lv Lineno    Source Statement           (Hibal 5, Asmedit 3.3)  HLASM R4.0  2002/06/06 10.05
+___    ______ ____    _____ _____  ____ __ ______    ______ _________
0                                  27594    02662000  ¿þþþþþþþþþþþþþþþþþþþþþþþþþþþþþþþþþþþþþþþþþþþþþþþþþþþþþþþþþþþþþþþþþþþþþÜ
                                   27595    02663000  Ÿ                                                                     Ÿ
                                   27596    02664000  Ÿ   Start periodic timer                                              Ÿ
                                   27597    02665000  Ÿ                                                                     Ÿ
                                   27598    02666000  Ÿ      The purpose of the timer is to wake-up occasionally to         Ÿ
                                   27599    02667000  Ÿ      avoid 522 wait abend conditions.  Also on each timer           Ÿ
                                   27600    02668000  Ÿ      fire some global tables are processed to released older        Ÿ
                                   27601    02669000  Ÿ      entries.                                                       Ÿ
                                   27602    02670000  Ÿ                                                                     Ÿ
                                                      ¾þþþþþþþþþþþþþþþþþþþþþþþþþþþþþþþþþþþþþþþþþþþþþþþþþþþþþþþþþþþþþþþþþþþþþ»
-0036D4 90DF B0D4            000D4 27604    02672000  SETTIMER PROC  ,
 0036D8 58F0 C014/0DEF       00014 27614             +
 0036DE E2C5E3E3C9D4C5D9           27616             +
 0036E6 98DF B0D4            000D4 27617             +
 0036EA 50E0 D000            00000 27620             +
 0036EE 900C D004/188D       00004 27623             +
 0036F4 41D0 D038/0DA0       00038 27625             +
 0036FA 182D/41D0 D018       00018 27648    02673000           XPUSH ,,L'STIMERL,PTR=R2  Stack space of stimer parameters
 USING  *,R10
 003700 5810 A3CE            03AC8 27651    02674000           L     R1,=A(STIMERL)        address of stimerm parameter list
 003704 D217 2000 1000 00000 00000 27652    02675000           MVC   0(L'STIMERL,R2),0(R1)   set parameter list
 00370A 50B0 D000/183D       00000 27653    02676000           XPUSH R11,,PTR=R3               set user parameter
 003710 41D0 D004            00004 27656             +
 003714 58F0 A3D2            03ACC 27657    02677000           L     R15,=A(TIMREXIT)            address of exit routine
                                   27658    02678000C          STIMERM SET,BINTVL=TVTWTIME,EXIT=TIMREXIT,PARM=(R3),
 003718 1812                                02679000                 WAIT=NO,ID=TVTSTMID,MF=(E,(R2))
 00371A D717 1000 1000 00000 00000 27662             +
 003720 9213 1000      00000       27663             +
 003724 9201 1003      00003       27664             +
 003728 41F0 B0E8            000E8 27665             +
 00372C 50F0 1004            00004 27666             +
 003730 41F0 B0E4            000E4 27667             +
 003734 50F0 1008            00008 27668             +
 003738 41F0 A096            03790 27669             +
 00373C 50F0 100C            0000C 27670             +
 003740 D203 1010 3000 00010 00000 27671             +
 003746 4100 0004            00004 27672             +
 00374A 8900 0018/0A2F       00018 27673             +
 003750 12FF/4780 A070       0376A 27675    02680000           IF    (R15,NZ),'FAIL "Bad STIMERM call"'
 003756 FEDC10                     27692  1          +
 003759 C2818440E2E3C9D4           27693             +
 00376A 90DF B0D4            000D4 27699    02681000           PTRACE TIMEROK            Trace timer set
 00376E 58F0 C014/0DEF       00014 27702             +
 003774 E3C9D4C5D9D6D240           27704             +
 00377C 98DF B0D4            000D4 27705             +
 003780 18D2                       27706    02682000           XPOP  PTR=R2              Release stack space
 003782 18D8/980C D004       00004 27708    02683000           PEND  ,
 DROP   *,R10
 003788 58E0 D000/12FF       00000 27724             +
 00378E 07FE                       27727             +
1DBMAIN   Wings: Startup periodic timer                                                                                     Page  128
0Current Usings:  (OSFCOMMN,R9) (TVT,R11) (GVT,R12)
0Loc    Object Code    Addr1 Addr2  Stmt Lv Lineno    Source Statement           (Hibal 5, Asmedit 3.3)  HLASM R4.0  2002/06/06 10.05
+___    ______ ____    _____ _____  ____ __ ______    ______ _________
0
                                   27729    02685000  ¿þþþþþþþþþþþþþþþþþþþþþþþþþþþþþþþþþþþþþþþþþþþþþþþþþþþþþþþþþþþþþþþþþþþþþÜ
                                   27730    02686000  Ÿ                                                                     Ÿ
                                   27731    02687000  Ÿ   STIMERM exit routine (Called from OS and runs as an IRB).         Ÿ
                                   27732    02688000  Ÿ     Post main task and return.                                      Ÿ
                                   27733    02689000  Ÿ                                                                     Ÿ
                                                      ¾þþþþþþþþþþþþþþþþþþþþþþþþþþþþþþþþþþþþþþþþþþþþþþþþþþþþþþþþþþþþþþþþþþþþþ»
0USING  TIMREXIT,R15               27735    02691000  TIMREXIT WITH  (TIMREXIT,R15),BEGIN
 003790 58B0 1004            00004 27750  1 02692000             L     R11,@R1+4           Retreive address of TVT table
 003794 1B00/4110 B408       00408 27751  1 02693000             POST  TVTTIMRECB,0        Post timer ECB
 00379A 0A02                       27756  1          +
 00379C 07FE                       27757  1 02694000             BR    R14                 Return to OS
 DROP   TIMREXIT,R15               27758    02695000           END
1DBMAIN   Wings: Seg control routine for batch report                                                                       Page  129
0Current Usings:  (OSFCOMMN,R9) (TVT,R11) (GVT,R12)
0Loc    Object Code    Addr1 Addr2  Stmt Lv Lineno    Source Statement           (Hibal 5, Asmedit 3.3)  HLASM R4.0  2002/06/06 10.05
+___    ______ ____    _____ _____  ____ __ ______    ______ _________
0                                  27767    02697000  ¿þþþþþþþþþþþþþþþþþþþþþþþþþþþþþþþþþþþþþþþþþþþþþþþþþþþþþþþþþþþþþþþþþþþþþÜ
                                   27768    02698000  Ÿ                                                                     Ÿ
                                   27769    02699000  Ÿ  WINGS: OSFILE seg control routine                                  Ÿ
                                   27770    02700000  Ÿ                                                                     Ÿ
                                   27771    02701000  Ÿ                                                                     Ÿ
                                                      ¾þþþþþþþþþþþþþþþþþþþþþþþþþþþþþþþþþþþþþþþþþþþþþþþþþþþþþþþþþþþþþþþþþþþþþ»
-00379E 50E0 D000            00000 27773    02703000  OSFPSEG  PROC  ,TRACE=NO
 0037A2 900C D004/188D       00004 27785             +
 0037A8 41D0 D038/0DA0       00038 27787             +
 0037AE 182F                       27810    02704000           LR    R2,R15              Save segcb address
 USING  *,R10
 USING  SEGCB,R2                   27811    02705000           WITH  (SEGCB,R2),BEGIN    Addressability to SEGCB
 0037B0 9502 2000      00000       27825  1 02706000             IF    SEGCBWR,BEGIN       Seg write request
 0037B4 4770 A040            037EE 27835  1          +
 0037B8 58E0 A322/0DEE       03AD0 27840  2 02707000               VCALL AMODE24             Enter 24-bit addressing mode
 0037BE 1820                       27844  2 02708000               LR    R2,R0               Save length
 0037C0 1831                       27845  2 02709000               LR    R3,R1               Save address
 0037C2 5B30 A326            03AD4 27846  2 02710000               S     R3,=A(4)            Decrement for vbs header
 0037C6 D703 3000 3000 00000 00000 27847  2 02711000               XC    @R3(4),@R3          Clear VBS header
 0037CC 5A00 A326            03AD4 27848  2 02712000               A     R0,=A(4)            Adjust for VBS header
 0037D0 4000 3000            00000 27849  2 02713000               STH   R0,@R3              Plug VBS length
 0037D4 4110 B5D0/1803       005D0 27850  2 02714000               PUT   OSFDCBPR,(R3)       Write to report file
 0037DA 1FFF/BFF7 1031       00031 27854  2          +
 0037E0 05EF                       27856  2          +
 0037E2 1302                       27857  2 02715000               LCR   R0,R2               Complement bytes written
 0037E4 5008 0004            00004 27858  2 02716000               PRETURN (R0)              Return bytes written
 0037E8 58E0 A32A/0DEE       03AD8 27860  2 02717000               VCALL AMODE31             Set 31-bit addressing mode
 0037EE                            27864  1 02718000             END   ,
 DROP   SEGCB,R2                   27868    02719000           END   ,
 0037EE 18D8/980C D004       00004 27876    02720000           PEND  ,
 DROP   *,R10
 0037F4 58E0 D000/12FF       00000 27892             +
 0037FA 07FE                       27895             +
1DBMAIN   Wings: SETPATH - Requeue path control                                                                             Page  130
0Current Usings:  (OSFCOMMN,R9) (TVT,R11) (GVT,R12)
0Loc    Object Code    Addr1 Addr2  Stmt Lv Lineno    Source Statement           (Hibal 5, Asmedit 3.3)  HLASM R4.0  2002/06/06 10.05
+___    ______ ____    _____ _____  ____ __ ______    ______ _________
0                                  27897    02722000  ¿þþþþþþþþþþþþþþþþþþþþþþþþþþþþþþþþþþþþþþþþþþþþþþþþþþþþþþþþþþþþþþþþþþþþþÜ
                                   27898    02723000  Ÿ                                                                     Ÿ
                                   27899    02724000  Ÿ  SETPATH - REQUEUE PATH CONTROL                                     Ÿ
                                   27900    02725000  Ÿ                                                                     Ÿ
                                   27901    02726000  Ÿ        1.    Close previous path control block in any               Ÿ
                                   27902    02727000  Ÿ        2.    Allocate a new path control block                      Ÿ
                                   27903    02728000  Ÿ        3.    Open path for processing                               Ÿ
                                   27904    02729000  Ÿ        4.    Initialize SEG control buffer                          Ÿ
                                   27905    02730000  Ÿ        5.    Queue path ECB to events table                         Ÿ
                                   27906    02731000  Ÿ                                                                     Ÿ
                                                      ¾þþþþþþþþþþþþþþþþþþþþþþþþþþþþþþþþþþþþþþþþþþþþþþþþþþþþþþþþþþþþþþþþþþþþþ»
-0037FC 90DF B0D4            000D4 27908    02733000  SETPATH  PROC  ,
 003800 58F0 C014/0DEF       00014 27918             +
 003806 E2C5E3D7C1E3C840           27920             +
 00380E 98DF B0D4            000D4 27921             +
 003812 50E0 D000            00000 27924             +
 003816 900C D004/188D       00004 27927             +
 00381C 41D0 D038/0DA0       00038 27929             +
 003822 5800 B498            00498 27952    02734000           L     R0,TVTUPATH         Load address of upath block
 USING  *,R10
 003826 1200/4780 A064       03886 27953    02735000           IF    (R0,NZ),BEGIN       Release old upath control block
 00382C 41F0 B0E0            000E0 27967  1 02736000             DELSYM NAME='UPATH',LOC=(R0)  Delete symbol from table
 003830 4110 A256            03A78 27981  1          +
 003834 58E0 A2BA/0DEE       03ADC 27987  1          +
 00383A 5810 B498            00498 27989  1 02737000             L     R1,TVTUPATH         Set UPATH pointer
 00383E 58E0 A2BE/0DEE       03AE0 27990  1 02738000             VCALL PATHCLS             Close path
 003844 4110 0001            00001 27994  1 02739000             INCR  R1,TVTCNTPCLOSE     COUNT PATH CLOSE
 003848 5E10 B1D4            001D4 27998  1          +
 00384C 5010 B1D4            001D4 27999  1          +
 003850 9104 B09E      0009E       28000  1 02740000             IF    TVTREPT,BEGIN       Log path close
 003854 47E0 A064            03886 28010  1          +
 003858 41F0 B548            00548 28015  2 02741000               LA    R15,OSFSCB          Addres of report segcb
 00385C 4110 A2C2            03AE4 28016  2 02742000               SEG   'Path closed.',,OSFSCB
 003860 4100 000C            0000C 28020  2          +
 003864 41F0 B548            00548 28028  2          +
 003868 58E0 A286/0DEE       03AA8 28031  2          +
 00386E 1B00/41F0 B548       00548 28033  2 02743000               SEGWR ,                   Write path closed message
 003874 58E0 A27A/0DEE       03A9C 28055  2          +
 00387A 1B00/41F0 B548       00548 28057  2 02744000               SEGWR ,                   Blank line for neatness
 003880 58E0 A27A/0DEE       03A9C 28079  2          +
 003886                            28081  1 02745000             END   ,
 003886                            28085    02746000           END   ,
0003886 58E0 A2CE/0DEE       03AF0 28090    02748000           VCALL PATHALLO            Allocate new path control block
 00388C 5010 B498            00498 28094    02749000           ST    R1,TVTUPATH         Save path pointer
 003890 1821                       28095    02750000           LR    R2,R1               Copy address of path pointer
 003892 183D/41D0 D010       00010 28096    02751000           XPUSH ,,16,PTR=R3             Get stack space
 003898 18F3                       28099    02752000           ADDSYM ENTRY=(R3),NAME='UPATH',LOC=(R2),LEN=256
 00389A D207 F000 A256 00000 03A78 28105             +
 0038A0 5020 F008            00008 28107             +
 0038A4 4110 0100            00100 28114             +
 0038A8 5010 F00C            0000C 28115             +
1DBMAIN   Wings: SETPATH - Requeue path control                                                                             Page  131
0Current Usings:  (OSFCOMMN,R9) (*,R10) (TVT,R11) (GVT,R12)
0Loc    Object Code    Addr1 Addr2  Stmt Lv Lineno    Source Statement           (Hibal 5, Asmedit 3.3)  HLASM R4.0  2002/06/06 10.05
+___    ______ ____    _____ _____  ____ __ ______    ______ _________
00038AC 4110 B0E0            000E0 28122             +
 0038B0 58E0 A2D2/0DEE       03AF4 28125             +
 0038B6 18D3                       28127    02753000           XPOP  PTR=R3                  Pop stack work area
 USING  UPATH,R2                   28129    02754000           WITH  (UPATH,R2),BEGIN    Addressability to UPATH
 0038B8 4110 B404            00404 28143  1 02755000             LA    R1,TVTPATHECB       Switch default path ecb
 0038BC 5010 2074            00074 28144  1 02756000             ST    R1,UPATECB          Save pointer in path block
 0038C0 D207 2054 B4A8 00054 004A8 28145  1 02757000             MVC   UPATMY,TVTPATHN     Initialize path name
 0038C6 D203 2070 A2D6 00070 03AF8 28146  1 02758000             MVC   UPATPASS,=C'DBUG'   Debugger path type
 0038CC 1812                       28147  1 02759000             LR    R1,R2               Move pointer to upath
 0038CE 58E0 A2DA/0DEE       03AFC 28148  1 02760000             VCALL PATHOPEN            Open path
 DROP   UPATH,R2                   28152    02761000           END   ,
 0038D4 4130 B50C            0050C 28160    02762000           LA    R3,TVTSCB           Address of segment control bufr
 0038D8 5840 B49C            0049C 28161    02763000           L     R4,TVTPATBF         Get address of segment buffer
 0038DC 4140 4010            00010 28162    02764000           LA    R4,@R4+16           Skip past WINGS header
 0038E0 5850 A2DE            03B00 28163    02765000           L     R5,=A(16384-16)     Load length of segment buffer
 USING  SEGCB,R3                   28164    02766000           WITH  (SEGCB,R3),BEGIN    Seg buffer addressability
 0038E4 1814/1805/18F3             28178  1 02767000             SEGINIT (R4),(R5),(R3),RTNTYPE=V,RTN=PATHSEG,ERR=PATHERR
 0038EA 58E0 A2E2/0DEE       03B04 28199  1          +
 0038F0 5800 A2E6            03B08 28201  1          +
 0038F4 5810 A2EA/18F3       03B0C 28202  1          +
 0038FA 58E0 A2EE/0DEE       03B10 28211  1          +
 003900 5820 B498            00498 28213  1 02768000             L     R2,TVTUPATH         Address of upath control block
 003904 5020 B544            00544 28214  1 02769000             ST    R2,TVTSCBUSR        Save upath pointer to upath
 DROP   SEGCB,R3                   28215    02770000           END   ,
 003908 18D8/980C D004       00004 28223    02771000           PEND  ,
 DROP   *,R10
 00390E 58E0 D000/12FF       00000 28239             +
 003914 07FE                       28242             +
1DBMAIN   Wings: Process error recovery stack                                                                               Page  132
0Current Usings:  (OSFCOMMN,R9) (TVT,R11) (GVT,R12)
0Loc    Object Code    Addr1 Addr2  Stmt Lv Lineno    Source Statement           (Hibal 5, Asmedit 3.3)  HLASM R4.0  2002/06/06 10.05
+___    ______ ____    _____ _____  ____ __ ______    ______ _________
0                                  28244    02774000  ¿þþþþþþþþþþþþþþþþþþþþþþþþþþþþþþþþþþþþþþþþþþþþþþþþþþþþþþþþþþþþþþþþþþþþþÜ
                                   28245    02775000  Ÿ                                                                     Ÿ
                                   28246    02776000  Ÿ  RECOVERY - PROCESS THE ERROR RECOVERY STACK                        Ÿ
                                   28247    02777000  Ÿ                                                                     Ÿ
                                                      ¾þþþþþþþþþþþþþþþþþþþþþþþþþþþþþþþþþþþþþþþþþþþþþþþþþþþþþþþþþþþþþþþþþþþþþ»
0003916 90DF B0D4            000D4 28249    02779000  RECOVERY PROC  ,
 00391A 58F0 C014/0DEF       00014 28259             +
 003920 D9C5C3D6E5C5D9E8           28261             +
 003928 98DF B0D4            000D4 28262             +
 00392C 50E0 D000            00000 28265             +
 003930 900C D004/188D       00004 28268             +
 003936 41D0 D038/0DA0       00038 28270             +
 USING  *,R10                      28293    02780000           IF    (TVTRLAST,NE,-1),BEGIN
 00393C D503 A1D8 B1BC 03B14 001BC 28305             +
 003942 4780 A026            03962 28306             +
 003946 FEDC18                     28311  1 02781000             FAIL  'RECOVERY STACK OVERFLOW!'
 003949 D9C5C3D6E5C5D9E8           28314  1          +
 003962                            28316    02782000           END   ,
 003962 5820 B178            00178 28320    02783000           L     R2,TVTRCYST         Load index to recovery stack
 003966 1B33                       28321    02784000           CLEAR R3                  Zero work register to stack clear
 003968 1222/4780 A044       03980 28325    02785000           WHILE (R2,NZ),BEGIN       Call each recovery routine
 00396E 58E2 B178            00178 28341  1 02786000             L     RAR,TVTRCYST(R2)    Load address of recovery routine
 003972 5032 B178            00178 28342  1 02787000             ST    R3,TVTRCYST(R2)     Clear recovery routine address
 003976 05EE                       28343  1 02788000             BALR  RAR,RAR             Enter recovery routine (AMODE!)
 003978 5B20 A198            03AD4 28344  1 02789000             S     R2,=A(4)            Decrement stack index
 00397C 47F0 A02C            03968 28345    02790000           END   ,
 003980                            28350    02791000           CLEAR TVTRCYST            Clear recovery stack index
 003980 D703 B178 B178 00178 00178 28356             +
 003986 18D8/980C D004       00004 28357    02792000           PEND  ,
 DROP   *,R10
 00398C 58E0 D000/12FF       00000 28373             +
 003992 07FE                       28376             +
1DBMAIN   Wings: PATHERR: Cleanup after SCOM error in PATH                                                                  Page  133
0Current Usings:  (OSFCOMMN,R9) (TVT,R11) (GVT,R12)
0Loc    Object Code    Addr1 Addr2  Stmt Lv Lineno    Source Statement           (Hibal 5, Asmedit 3.3)  HLASM R4.0  2002/06/06 10.05
+___    ______ ____    _____ _____  ____ __ ______    ______ _________
0                                  28378    02794000  ¿þþþþþþþþþþþþþþþþþþþþþþþþþþþþþþþþþþþþþþþþþþþþþþþþþþþþþþþþþþþþþþþþþþþþþÜ
                                   28379    02795000  Ÿ                                                                     Ÿ
                                   28380    02796000  Ÿ  PATHERR - Process buffer full condition from path write            Ÿ
                                   28381    02797000  Ÿ                                                                     Ÿ
                                   28382    02798000  Ÿ        This routine is entered from the PATH routines when an       Ÿ
                                   28383    02799000  Ÿ        error return code is encountered on the SCOM path write      Ÿ
                                   28384    02800000  Ÿ        request.  The only error processed currently is a SUZAN      Ÿ
                                   28385    02801000  Ÿ        client buffer full condition.                                Ÿ
                                   28386    02802000  Ÿ                                                                     Ÿ
                                   28387    02803000  Ÿ  On Entry:   R15 contains the address of the SEGCB                  Ÿ
                                   28388    02804000  Ÿ              R1  contains the SCOM return code                      Ÿ
                                   28389    02805000  Ÿ                                                                     Ÿ
                                   28390    02806000  Ÿ  On Exit:    R15=0 - Recovery successful, attempt to resend         Ÿ
                                   28391    02807000  Ÿ              R15=NZ - Abort (Actually we just don't return)         Ÿ
                                   28392    02808000  Ÿ                                                                     Ÿ
                                                      ¾þþþþþþþþþþþþþþþþþþþþþþþþþþþþþþþþþþþþþþþþþþþþþþþþþþþþþþþþþþþþþþþþþþþþþ»
-003994 90DF B0D4            000D4 28394    02810000  PATHERR  PROC  ,
 003998 58F0 C014/0DEF       00014 28404             +
 00399E D7C1E3C8C5D9D940           28406             +
 0039A6 98DF B0D4            000D4 28407             +
 0039AA 50E0 D000            00000 28410             +
 0039AE 900C D004/188D       00004 28413             +
 0039B4 41D0 D038/0DA0       00038 28415             +
 0039BA 5890 A15E            03B18 28438    02811000           L     R9,=A(OSFCOMMN)
 USING  *,R10
 0039BE 182F                       28439    02812000           LR    R2,R15              Move segcb address
 USING  SEGCB,R2                   28440    02813000           WITH  (SEGCB,R2),BEGIN    Addressability to segcb
 0039C0 5830 2038            00038 28454  1 02814000             L     R3,SEGCBUSR         Address of upath control block
 USING  UPATH,R3                   28455  1 02815000             WITH  (UPATH,R3),BEGIN    Addressability to upath cb
 0039C4 5910 A162            03B1C 28469  2 02816000               IF    (R1,EQ,UPATRBAF),BEGIN Client buffer is full
 0039C8 4770 A026            039E0 28481  2          +
 0039CC 5840 3074            00074 28486  3 02817000                 L     R4,UPATECB          Load address of ucb
 0039D0 D703 4000 4000 00000 00000 28487  3 02818000                 XC    @R4(4),@R4          Clear ecb for wait
 0039D6 4100 0001            00001 28488  3 02819000                 WAIT  ECB=(R4)            Wait for buffer to empty
 0039DA 4110 4000/0A01       00000 28492  3          +
 0039E0                            28494  2 02820000               END   ,
 0039E0 A02A           039E0 039CA 28498  2 02821000               ELSEIF (R1,EQ,UPATRNOP),BEGIN CLIENT HAS GONE AWAY
 0039E0 47F0 A062            03A1C 28504  2          +
 0039E4 5910 A166            03B20 28518  2          +
 0039E8 4770 A062            03A1C 28519  2          +
 0039EC 41F0 B548            00548 28524  3 02822000                 SEGCLR OSFSCB             CLEAR REPORT SEGCB
 0039F0 58E0 A16A/0DEE       03B24 28535  3          +
 0039F6 4110 A19C            03B56 28537  3 02823000                 SEG   'CURRENT PARTNER HAS LEFT THE ROOM.'
 0039FA 4100 0022            00022 28541  3          +
 0039FE 41F0 B548            00548 28549  3          +
 003A02 58E0 A0EE/0DEE       03AA8 28552  3          +
 003A08 1B00/41F0 B548       00548 28554  3 02824000                 SEGWR ,
 003A0E 58E0 A0E2/0DEE       03A9C 28576  3          +
 003A14 9620 B4D0      004D0       28578  3 02825000                 SET   TPATERR             INDICATE PATH RE-QUEUE
 003A18 47F0 92FE            0082E 28584  3 02826000                 B     CMDCLEAN            ABORT CURRENT COMMAND
 003A1C                            28585  2 02827000               END   ,
 003A1C A066           03A1C 039EA 28589  2 02828000               ELSE  BEGIN
1DBMAIN   Wings: PATHERR: Cleanup after SCOM error in PATH                                                                  Page  134
0Current Usings:  (SEGCB,R2) (UPATH,R3) (OSFCOMMN,R9) (*,R10) (TVT,R11) (GVT,R12)
0Loc    Object Code    Addr1 Addr2  Stmt Lv Lineno    Source Statement           (Hibal 5, Asmedit 3.3)  HLASM R4.0  2002/06/06 10.05
+___    ______ ____    _____ _____  ____ __ ______    ______ _________
0003A1C 47F0 A0AE            03A68 28594  2          +
 003A20 1841                       28600  3 02829000                 LR    R4,R1               SAVE RETURN CODE
 003A22 4110 A1BE            03B78 28601  3 02830000                 SEG   'UNEXPECTED SCOM SEND RETURN CODE ('
 003A26 4100 0022            00022 28605  3          +
 003A2A 41F0 B548            00548 28613  3          +
 003A2E 58E0 A0EE/0DEE       03AA8 28616  3          +
 003A34 1814/1B00                  28618  3 02831000                 SEGDC (R4)
 003A38 41F0 B548            00548 28634  3          +
 003A3C 58E0 A16E/0DEE       03B28 28637  3          +
 003A42 4110 A20F            03BC9 28639  3 02832000                 SEG   ')'
 003A46 4100 0001            00001 28643  3          +
 003A4A 41F0 B548            00548 28651  3          +
 003A4E 58E0 A0EE/0DEE       03AA8 28654  3          +
 003A54 1B00/41F0 B548       00548 28656  3 02833000                 SEGWR ,
 003A5A 58E0 A0E2/0DEE       03A9C 28678  3          +
 003A60 9620 B4D0      004D0       28680  3 02834000                 SET   TPATERR
 003A64 47F0 92FE            0082E 28686  3 02835000                 B     CMDCLEAN
 003A68                            28687  2 02836000               END   ,
 DROP   UPATH,R3                   28691  1 02837000             END   ,
 DROP   SEGCB,R2                   28699    02838000           END   ,
 003A68 1BFF                       28707    02839000           CLEAR R15                 Indicate error has been recovered
 003A6A 18D8/980C D004       00004 28711    02840000           PEND  ,
 DROP   *,R10
 003A70 58E0 D000/12FF       00000 28727             +
 003A76 07FE                       28730             +
0003A78                            28732    02842000           LTORG ,
 003A78 E4D7C1E3C8404040           28734                             =CL8'UPATH'
 003A80 D59640848582A487           28735                             =C'No debugging session active.'
 003A9C 00000000                   28736                             =V(SEGWR)
 003AA0 00002FD6                   28737                             =A(SEGDBEE)
 003AA4 00002F02                   28738                             =A(SEGDBER)
 003AA8 00000000                   28739                             =V(SEG)
 003AAC 00003170                   28740                             =A(GETTVT)
 003AB0 00000000                   28741                             =V(SEGT)
 003AB4 0000310E                   28742                             =A(CHKTCB)
 003AB8 000032B0                   28743                             =A(CHKDBGER)
 003ABC 0000355A                   28744                             =A(SETMECBL)
 003AC0 000035DC                   28745                             =A(SETDECBL)
 003AC4 80000000                   28746                             =X'80000000'
 003AC8 00003D88                   28747                             =A(STIMERL)
 003ACC 00003790                   28748                             =A(TIMREXIT)
 003AD0 00000000                   28749                             =V(AMODE24)
 003AD4 00000004                   28750                             =A(4)
 003AD8 00000000                   28751                             =V(AMODE31)
 003ADC 00000000                   28752                             =V(DELSYM)
 003AE0 00000000                   28753                             =V(PATHCLS)
 003AE4 D781A38840839396           28754                             =C'Path closed.'
 003AF0 00000000                   28755                             =V(PATHALLO)
 003AF4 00000000                   28756                             =V(ADDSYM)
 003AF8 C4C2E4C7                   28757                             =C'DBUG'
 003AFC 00000000                   28758                             =V(PATHOPEN)
 003B00 00003FF0                   28759                             =A(16384-16)
 003B04 00000000                   28760                             =V(SEGINIT)
1DBMAIN   Wings: PATHERR: Cleanup after SCOM error in PATH                                                                  Page  135
0Current Usings:  (OSFCOMMN,R9) (TVT,R11) (GVT,R12)
0Loc    Object Code    Addr1 Addr2  Stmt Lv Lineno    Source Statement           (Hibal 5, Asmedit 3.3)  HLASM R4.0  2002/06/06 10.05
+___    ______ ____    _____ _____  ____ __ ______    ______ _________
0003B08 00000000                   28761                             =V(PATHSEG)
 003B0C 00003994                   28762                             =A(PATHERR)
 003B10 00000000                   28763                             =V(SEGINITR)
 003B14 FFFFFFFF                   28764                             =AL4(-1)
 003B18 00000530                   28765                             =A(OSFCOMMN)
 003B1C 0000000C                   28766                             =A(UPATRBAF)
 003B20 00000010                   28767                             =A(UPATRNOP)
 003B24 00000000                   28768                             =V(SEGCLR)
 003B28 00000000                   28769                             =V(SEGDC)
 003B2C 40848582A4878789           28770                             =C' debugging deceased task. '
 003B46 4089A240848582A4           28771                             =C' is debugging '
 003B54 404D                       28772                             =C' ('
 003B56 C3E4D9D9C5D5E340           28773                             =C'CURRENT PARTNER HAS LEFT THE ROOM.'
 003B78 E4D5C5E7D7C5C3E3           28774                             =C'UNEXPECTED SCOM SEND RETURN CODE ('
 003B9A 4089A240A68189A3           28775                             =C' is waiting to be debugged.'
 003BB5 5C5C5C404D848583           28776                             =C'*** (deceased task)'
 003BC8 4B                         28777                             =C'.'
 003BC9 5D                         28778                             =C')'
 003BCA D396878983408599           28779                             =C'Logic error.  We need to be DEBUGGER!'
1DBMAIN   Wings: SCANPARM- Scan initialization parameters                                                                   Page  136
0Current Usings:  (OSFCOMMN,R9) (TVT,R11) (GVT,R12)
0Loc    Object Code    Addr1 Addr2  Stmt Lv Lineno    Source Statement           (Hibal 5, Asmedit 3.3)  HLASM R4.0  2002/06/06 10.05
+___    ______ ____    _____ _____  ____ __ ______    ______ _________
0                                  28784    02844000  ¿þþþþþþþþþþþþþþþþþþþþþþþþþþþþþþþþþþþþþþþþþþþþþþþþþþþþþþþþþþþþþþþþþþþþþÜ
                                   28785    02845000  Ÿ                                                                     Ÿ
                                   28786    02846000  Ÿ   SCANPARM-- Routine to process parameters.                         Ÿ
                                   28787    02847000  Ÿ                                                                     Ÿ
                                   28788    02848000  Ÿ     On entry:                                                       Ÿ
                                   28789    02849000  Ÿ       R1      Contains pointer to EXEC parameters                   Ÿ
                                   28790    02850000  Ÿ                                                                     Ÿ
                                   28791    02851000  Ÿ  On exit:    TVT fields have been initialized                       Ÿ
                                   28792    02852000  Ÿ                                                                     Ÿ
                                   28793    02853000  Ÿ                                                                     Ÿ
                                                      ¾þþþþþþþþþþþþþþþþþþþþþþþþþþþþþþþþþþþþþþþþþþþþþþþþþþþþþþþþþþþþþþþþþþþþþ»
0003BF4 90DF B0D4            000D4 28795    02855000  SCANPARM PROC  ,
 003BF8 58F0 C014/0DEF       00014 28805             +
 003BFE E2C3C1D5D7C1D9D4           28807             +
 003C06 98DF B0D4            000D4 28808             +
 003C0A 50E0 D000            00000 28811             +
 003C0E 900C D004/188D       00004 28814             +
 003C14 41D0 D038/0DA0       00038 28816             +
 003C1A 5820 1000            00000 28839    02856000           L     R2,@R1              POINT TO EXEC PARAMETER POINTER
 USING  *,R10
 003C1E 4800 2000            00000 28840    02857000           LH    R0,@R2                LOAD LENGTH OF PARAMETERS
 003C22 4110 2002            00002 28841    02858000           LA    R1,@R2+2                POINT TO START OF PARAMETERS
 003C26 41F0 B4E4            004E4 28842    02859000           SCINIT (R1),(R0),TVTSCNCB       INITIALIZE SCANNER
 003C2A 58E0 A0CE/0DEE       03CE8 28860             +
 003C30 4110 A0B8            03CD2 28862    02860000           SCAN  PARMPRT,TVTSCNCB            SCAN EXEC PARAMETERS
 003C34 41F0 B4E4            004E4 28876             +
 003C38 58E0 A0D2/0DEE       03CEC 28879             +
 003C3E 18D8/980C D004       00004 28881    02861000           PEND  ,
 DROP   *,R10
 003C44 58E0 D000/12FF       00000 28897             +
 003C4A 07FE                       28900             +
-003C4C 90DF B0D4            000D4 28902    02863000  SCEPATH  PROC  ,
 003C50 58F0 C014/0DEF       00014 28912             +
 003C56 E2C3C5D7C1E3C840           28914             +
 003C5E 98DF B0D4            000D4 28915             +
 003C62 50E0 D000            00000 28918             +
 003C66 900C D004/188D       00004 28921             +
 003C6C 41D0 D038/0DA0       00038 28923             +
 003C72 1200/47D0 A01C       03C8E 28946    02864000           IF    ((R0,P),AND,(R0,LE,8)),BEGIN
 USING  *,R10
 003C78 5900 A07E            03CF0 28970             +
 003C7C 4730 A01C            03C8E 28971             +
 003C80 D207 B4A8 C0E0 004A8 000E0 28976  1 02865000             MVC   TVTPATHN,GVTBLANK   BLANK OUT CURRENT PATH NAME
 003C86 1820                       28977  1 02866000             LR    R2,R0                 COPY LENGTH OF NEW PATH NAME
 003C88 0620/4420 A082       03CF4 28978  1 02867000             DEX   R2,'MVC TVTPATHN(0),@R1'      MOVE IN NEW PATH NAME
 003CF4 D200 B4A8 1000 004A8 00000 28989  1          +
 003C8E                            28997    02868000           END   ,
 003C8E 18D8/980C D004       00004 29001    02869000           PEND  ,
 DROP   *,R10
 003C94 58E0 D000/12FF       00000 29017             +
 003C9A 07FE                       29020             +
1DBMAIN   Wings: SCANPARM- Scan initialization parameters                                                                   Page  137
0Current Usings:  (OSFCOMMN,R9) (TVT,R11) (GVT,R12)
0Loc    Object Code    Addr1 Addr2  Stmt Lv Lineno    Source Statement           (Hibal 5, Asmedit 3.3)  HLASM R4.0  2002/06/06 10.05
+___    ______ ____    _____ _____  ____ __ ______    ______ _________
0003C9C 90DF B0D4            000D4 29022    02871000  SCETMR   PROC  ,
 003CA0 58F0 C014/0DEF       00014 29032             +
 003CA6 E2C3C5E3D4D94040           29034             +
 003CAE 98DF B0D4            000D4 29035             +
 003CB2 50E0 D000            00000 29038             +
 003CB6 900C D004/188D       00004 29041             +
 003CBC 41D0 D038/0DA0       00038 29043             +
 003CC2 18D8/980C D004       00004 29066    02872000           PEND  ,
 USING  *,R10
 DROP   *,R10
 003CC8 58E0 D000/12FF       00000 29082             +
 003CCE 07FE                       29085             +
0003CD0                            29087    02874000  SCANERR  LABEL ,
 003CD0 07FE                       29089    02875000           SCRTN (R15)               RETURN TO SCANNER
0                                  29096    02877000           ¿þþþþþþþþþþþþþþþþþþþþþþþþþÜ
                                   29097    02878000           Ÿ  Parm file scan table.  Ÿ
                                   29098    02879000           ¾þþþþþþþþþþþþþþþþþþþþþþþþþ»
 003CD2                            29099    02880000  PARMPRT  SCKW  PATH,SCEPATH,(A,P)
 003CD2 8B003C4CD7C1E3C8           29100             +
 003CDA                            29101    02881000           SCKW  TIMER,SCETMR,(A,P,PI)
 003CDA AC003C9CE3C9D4C5           29102             +
 003CE3 FF003CD0                   29103    02882000           SCKW  ,SCANERR
1DBMAIN   Wings: SCANPARM- Scan initialization parameters                                                                   Page  138
0Current Usings:  (OSFCOMMN,R9) (TVT,R11) (GVT,R12)
0Loc    Object Code    Addr1 Addr2  Stmt Lv Lineno    Source Statement           (Hibal 5, Asmedit 3.3)  HLASM R4.0  2002/06/06 10.05
+___    ______ ____    _____ _____  ____ __ ______    ______ _________
0003CE8                            29106    02884000           LTORG ,
 003CE8 00000000                   29108                             =V(SCINIT)
 003CEC 00000000                   29109                             =V(SCAN)
 003CF0 00000008       03CFA 03E18 29110                             =A(8)
 003CFA 90DF B0D4            000D4 29114    02885000  XPRTCMD  XPROC ,
 003CFE 58F0 C014/0DEF       00014 29126             +
 003D04 E7D7D9E3C3D4C440           29128             +
 003D0C 98DF B0D4            000D4 29129             +
 003D10 50E0 D000            00000 29132             +
 003D14 900C D004/188D       00004 29135             +
 003D1A 41D0 D038/0DA0       00038 29137             +
 003D20 1BFF                       29160    02886000           CLEAR R15
 USING  *,R10
 003D22 18D8/980C D004       00004 29164    02887000           PEND  ,
 DROP   *,R10
 003D28 58E0 D000/12FF       00000 29180             +
 003D2E 07FE                       29183             +
1DBMAIN   Wings: Disk I/O support: estae exit                                                                               Page  139
0Current Usings:  (OSFCOMMN,R9) (TVT,R11) (GVT,R12)
0Loc    Object Code    Addr1 Addr2  Stmt Lv Lineno    Source Statement           (Hibal 5, Asmedit 3.3)  HLASM R4.0  2002/06/06 10.05
+___    ______ ____    _____ _____  ____ __ ______    ______ _________
0                                  29185    02889000  ¿þþþþþþþþþþþþþþþþþþþþþþþþþþþþþþþþþþþþþþþþþþþþþþþþþþþþþþþþþþþþþþþþþþþþþÜ
                                   29186    02890000  Ÿ                                                                     Ÿ
                                   29187    02891000  Ÿ   ESTAE EXIT                                                        Ÿ
                                   29188    02892000  Ÿ                                                                     Ÿ
                                   29189    02893000  Ÿ                                                                     Ÿ
                                                      ¾þþþþþþþþþþþþþþþþþþþþþþþþþþþþþþþþþþþþþþþþþþþþþþþþþþþþþþþþþþþþþþþþþþþþþ»
0003D30                            29191    02895000  OSFESTAE LABEL ,
 USING  OSFESTAE,R15               29193    02896000           USING OSFESTAE,R15        Declare esate routine base
 003D30 5900 F050            03D80 29202    02897000           IF    (R0,EQ,12),BEGIN    Insufficient memory to get sdwa
 003D34 4770 F00C            03D3C 29214             +
 003D38 1BFF                       29219  1 02898000             CLEAR R15                 Indicate continue abending
 003D3A 07FE                       29223  1 02899000             BR    R14                 Return to rtm2
 003D3C                            29224    02900000           END   ,
-003D3C 90EC D00C            0000C 29229    02902000           STM   R14,R12,@R13+12     Save initial registers
 003D40 5890 F048            03D78 29230    02903000           L     BRR,OSFESTC         Load initial base
 DROP   OSFESTAE,R15               29231    02904000           DROP  R15                 Release initial basing
 003D44 0DA0                       29238    02905000           BASE  ,                   Declare estae addressability
 USING  *,R10
 003D46 1821                       29252    02906000           LR    R2,R1               Set sdwa address
 USING  SDWA,R2                    29253    02907000           USING SDWA,R2             Declare sdwa addressability
 003D48 58B0 2000            00000 29262    02908000           L     TVTR,SDWAPARM       Load address of tvt from estae
 003D4C 58C0 B090            00090 29263    02909000           L     GVTR,TVTGVTP        Load address of gvt from tvt
 003D50 5880 B0F4            000F4 29264    02910000           L     WAR,TVTESTAK        Set estae stack address
 003D54 50D0 8000            00000 29265    02911000           ST    R13,@WAR            Save vs save area address
 003D58 4180 8004            00004 29266    02912000           LA    WAR,@WAR+4          Push stack pointer
 003D5C 18D8                       29267    02913000           LR    SPR,WAR             Reset to our stack
 003D5E 9610 B09E      0009E       29268    02914000           SET   TVTFABND            Set abending if not already
 DROP   SDWA,R2                    29274    02915000           DROP  R2
 003D62 5BD0 A03E            03D84 29281    02916000           S     SPR,=A(4)           Retrieve estae save area address
 003D66 58D0 D000            00000 29282    02917000           L     R13,@R13            Restore estae save area address
 003D6A 0700/1812      03D6C 03D6A 29283    02918000           SETRP WKAREA=(R2),REGS=(14,12),RC=0
 003D6C 9200 10FC      000FC       29290             +
 003D70 98EC D00C/07FE       0000C 29292             +
 003D76 0000
 003D78 00000530                   29294    02919000  OSFESTC  DC    A(OSFCOMMN)         Address of common routines
 DROP   GVT,R12                    29295    02920000           DROP  ,                   Release all addressability
 DROP   TVT,R11
 DROP   *,R10
 DROP   OSFCOMMN,R9
 003D80                            29340    02921000           LTORG ,
 003D80 0000000C                   29342                             =A(12)
 003D84 00000004       03D88 03E18 29343                             =A(4)
1DBMAIN   Wings: OSFILE - Prototype control blocks                                                                          Page  140
0Loc    Object Code    Addr1 Addr2  Stmt Lv Lineno    Source Statement           (Hibal 5, Asmedit 3.3)  HLASM R4.0  2002/06/06 10.05
+___    ______ ____    _____ _____  ____ __ ______    ______ _________
0                                  29348    02923000  ¿þþþþþþþþþþþþþþþþþþþþþþþþþþþþþþþþþþþþþþþþþþþþþþþþþþþþþþþþþþþþþþþþþþþþþÜ
                                   29349    02924000  Ÿ                                                                     Ÿ
                                   29350    02925000  Ÿ   DEFINE PROTOTYPE CONTROL BLOCKS                                   Ÿ
                                   29351    02926000  Ÿ                                                                     Ÿ
                                                      ¾þþþþþþþþþþþþþþþþþþþþþþþþþþþþþþþþþþþþþþþþþþþþþþþþþþþþþþþþþþþþþþþþþþþþþ»
0                                  29354    02929000           ECBLIST TYPE=MODEL,CSECT=DBMAIN
0                                  29356    02931000  STIMERM  STIMERM SET,MF=L
                                   29357             +*        MACDATE = 08/19/88                                           *
 003D88 0000000000000000           29358    01-STIME +STIMERM  DC    XL24'00'           REMOTE STIMERM SET PARM LIST
                                   29359    02932000  STIMERL  EQU   STIMERM,*-STIMERM,C'C'
0                                  29361    02934000  MODSETZM MODESET KEY=ZERO,MF=L
                                   29362             +* MACDATE Y-3 81030                                                @D1A
 003DA0                            29363    01-MODES +MODSETZM DS    0F
 003DA0 00000030                   29364    01-MODES +         DC    B'00000000000000000000000000110000'
                                   29365    02935000  MODSETPM MODESET KEY=NZERO,MF=L
                                   29366             +* MACDATE Y-3 81030                                                @D1A
 003DA4                            29367    01-MODES +MODSETPM DS    0F
 003DA4 00000020                   29368    01-MODES +         DC    B'00000000000000000000000000100000'
-003DA8                            29371    02938000  DCBPS    DCB   DDNAME=DUMMY,MACRF=(GM,PM),RECFM=VBS,DSORG=PS
 003DA8 0000000000000000           29378             +
 003DB8 00000000/00                29379             +
 003DBD 000001/0000                29382             +
 003DC2 4000/00000001              29384             +
 003DC8 00/000001/58               29387             +
 003DCD 000000                     29390             +
 003DD0 C4E4D4D4E8404040           29392             +
 003DD8 02/00/5050/00              29393             +
 003DDD 000001                     29398             +
 003DE0 00000001/0000              29399             +
 003DE6 0000/00000000              29401             +
 003DEC 00000001                   29403             +
 003DF0 00000001                   29405             +
 003DF4 00000001/0000              29406             +
 003DFA 0000/00/000001             29408             +
 003E00 00000000                   29411             +
 003E04 00000001                   29412             +
                                   29413    02939000  DCBPSLEN EQU   *-DCBPS             DEFINE QSAM PROTOTYPE LENGTH
1DBMAIN   WINGS: FINAL LITERALS AND SYMBOL DEFINITIONS                                                                      Page  141
0Loc    Object Code    Addr1 Addr2  Stmt Lv Lineno    Source Statement           (Hibal 5, Asmedit 3.3)  HLASM R4.0  2002/06/06 10.05
+___    ______ ____    _____ _____  ____ __ ______    ______ _________
0                                  29416    02942000  ¿þþþþþþþþþþþþþþþþþþþþþþþþþþþþþþþþþþþþþþþþþþþþþþþþþþþþþþþþþþþþþþþþþþþþþÜ
                                   29417    02943000  Ÿ                                                                     Ÿ
                                   29418    02944000  Ÿ  DEFINE LAST LITERAL POOL AND MODULE CSECT LENGTH                   Ÿ
                                   29419    02945000  Ÿ                                                                     Ÿ
                                                      ¾þþþþþþþþþþþþþþþþþþþþþþþþþþþþþþþþþþþþþþþþþþþþþþþþþþþþþþþþþþþþþþþþþþþþþ»
-003E08                03E08 03E18 29421    02947000           LTORG ,
-003E08                            29427    02949000           DC    0D'0'               FORCE OUT TO DOUBLE-WORD
 003E08 C4C2D4C1C9D54040           29428    02950000  SYMDBM   DC    CL8'DBMAIN',A(DBMAIN),A(DBMAINX-DBMAIN)
                                   29429    02951000  DBMAINX  EQU   *                   DEFINE LAST ADDRESS OF DBMAIN
 003E18                03E18 03E18 29430    02952000           END   .

1DBMAIN   Macro and Copy Code Source Summary                                                                                Page  142
- Con Source                                        Volume    Members                        HLASM R4.0  2002/06/06 10.05
0     PRIMARY INPUT                                           BOMB     CPROC    CSECT    DROP     END      EX
                                                              GETIA    LTORG    POP      PRINT    PUSH     SCPOP
                                                              SCPUSH   START    USING
   L1 WYL.GA.MCL.WINGS.MACLIB                       STR211    ADDSYM   CMDVECT  DELSYM   DVWA     DYNADD   DYNCALL
                                                              DYNINIT  DYNTABLE ECBLIST  FAIL     GVT      LCLDBWA  PROC
                                                              PTRACE   REG      SCAN     SCANCB   SCINIT   SCKW
                                                              SCRTN    SCTELL   SYMTAB   TPENTRY  TRCENTRY TVT
                                                              TVTDBM   UPATH    WINGSHDR XCALL    XPOP     XPROC
                                                              XPUSH
   L2 WYL.GG.SYS.MACLIB                             STR210    $BC      $BFLKUP  $BV      $CCLKUP  $CRS     $CSS     $L
                                                              $LA      $LBLAD   $LEXP    $LOR     $NIL     $REL
                                                              $RGLKUP  $USLKUP  ACALL    BASE     BEGIN    CEIL
                                                              CLEAR    CSECT    DATA     DEFCC    DEX      DROP     ELSE
                                                              ELSEIF   END      EX       EXIT     FLAG     GEN
                                                              HIBAL    IDENT    IF       INCR     LABEL    LCM      LOOP
                                                              LS       LT       LTORG    L2       PEND     POP
                                                              PRETURN  PRINT    PUSH     QLTORG   RECORD   REGS     SET
                                                              SETMSG   START    SYSLR    UNTIL    USING    VCALL
                                                              WHILE    WITH
   L3 SYS3.IS.MACLIB                                SYSA03    DEFINE   SEG      SEGB     SEGCB    SEGCLR   SEGDC
                                                              SEGDEF   SEGHX    SEGINIT  SEGLD    SEGT     SEGWR
                                                              SYSDEFN
   L4 SYS3.MACLIB                                   SYSA03    HASPSERV PATH
   L5 SYS1.MACLIB                                   OS02AD    CLOSE    CVT      DCB      DCBD     ESTAE    FREEMAIN
                                                              FREEPOOL GETMAIN  IEFJFCBN IEFSJDKY IEFTIOT1 IEFUCBOB
                                                              IEFZB4D0 IEFZB4D2 IEZDEB   IHAASCB  IHAEPIE  IHASDWA
                                                              IHAVRA   IHBINNRA IHBRDWRS IHB01    IKJTCB   MODESET  OPEN
                                                              POST     PUT      READ     RETURN   SETRP    SPLEVEL
                                                              STIMERM  SYSSTATE WAIT     WTO
   L6 SYS1.MODGEN                                   OS02AD    IECDUCBC IECDUCBD IECDUCBE IECDUCBG IECDUCBT IECDUCBU
                                                              IHADVCT  IOSDUCBC

1DBMAIN   Using Map                                                                                                         Page  143
-                                                                                            HLASM R4.0  2002/06/06 10.05
   Stmt  -----Location----- Action ----------------Using----------------- Reg Max    Last  Label and Using Text
           Count      Id           Type          Value    Range     Id        Disp   Stmt
0   941  00000000  00000001 USING  ORDINARY    00000000 00001000 FFFFFFF0  15 014   16295  @R15,15
    945  00000000  00000001 USING  ORDINARY    00000000 00001000 FFFFFFF1  14 000          @R14,14
    949  00000000  00000001 USING  ORDINARY    00000000 00001000 FFFFFFF2  13 00C   29282  @R13,13
    953  00000000  00000001 USING  ORDINARY    00000000 00001000 FFFFFFF3  12 000          @R12,12
    957  00000000  00000001 USING  ORDINARY    00000000 00001000 FFFFFFF4  11 000          @R11,11
    961  00000000  00000001 USING  ORDINARY    00000000 00001000 FFFFFFF5  10 000          @R10,10
    965  00000000  00000001 USING  ORDINARY    00000000 00001000 FFFFFFF6   9 000          @R9,9
    969  00000000  00000001 USING  ORDINARY    00000000 00001000 FFFFFFF7   8 000          @R8,8
    973  00000000  00000001 USING  ORDINARY    00000000 00001000 FFFFFFF8   7 000          @R7,7
    977  00000000  00000001 USING  ORDINARY    00000000 00001000 FFFFFFF9   6 004   14110  @R6,6
    981  00000000  00000001 USING  ORDINARY    00000000 00001000 FFFFFFFA   5 000          @R5,5
    985  00000000  00000001 USING  ORDINARY    00000000 00001000 FFFFFFFB   4 010   28487  @R4,4
    989  00000000  00000001 USING  ORDINARY    00000000 00001000 FFFFFFFC   3 018   27849  @R3,3
    993  00000000  00000001 USING  ORDINARY    00000000 00001000 FFFFFFFD   2 000   14638  @R2,2
    997  00000000  00000001 USING  ORDINARY    00000000 00001000 FFFFFFFE   1 000          @R1,1
   1001  00000000  00000001 USING  ORDINARY    00000000 00001000 FFFFFFFF   0 000          @R0,0
   1002  00000000  00000001 DROP                                            0              0
  13682  00000000  00000001 USING  ORDINARY    00000000 00001000 FFFFFFC3  12 208   28976  GVT,GVTR
  13691  00000000  00000001 USING  ORDINARY    00000000 00001000 FFFFFFBC  11 5D0   24297  TVT,TVTR
  13706  00000006  00000001 USING  ORDINARY    00000000 00001000 00000001  10 52C   14818  STARTUP,BR
  13719  0000000E  00000001 USING  ORDINARY    00000530 00001000 00000001   9 3E4   28686  OSFCOMMN,BRR
  13922  000000EE  00000001 USING  ORDINARY    00000000 00001000 FFFFFFEF   1 000   13928  CVT,R1
  13935  000000F2  00000001 USING  ORDINARY    00000000 00001000 FFFFFFFE   1 006   25915  @R1,1
  15041  00000618  00000001 USING  ORDINARY    00000000 00001000 FFFFFFF5  10 000          @R10,10
  15457  0000079C  00000001 USING  ORDINARY    0000079C 00001000 00000001  10 148   15516  $$$68B,10
  15471  0000079C  00000001 USING  ORDINARY    FFFFFFC8 00001000 FFFFFFBB   8 038   15488  SETESTL-(4+52),R8
  15545  00000820  00000001 USING  ORDINARY    00000000 00001000 FFFFFFF7   8 000          @R8,8
  15550  00000820  00000001 USING  ORDINARY    00000000 00001000 FFFFFFF5  10 000          @R10,10
  15608  00000854  00000001 USING  ORDINARY    00000854 00001000 00000001  10 098   15698  $$$72B,10
  15716  000008A2  00000001 USING  ORDINARY    00000000 00001000 FFFFFFF5  10 000          @R10,10
  15804  00000948  00000001 USING  ORDINARY    00000948 00001000 00000001  10 3DC   16337  $$$78B,10
  15823  0000094C  00000001 USING  ORDINARY    00000000 00001000 FFFFFFC2   2 088   16072  UPATH,R2
  15984  00000A06  00000001 USING  ORDINARY    00000000 00001000 FFFFFFEF   5 130   15990  CVT,R5
  15997  00000A0A  00000001 USING  ORDINARY    00000000 00001000 FFFFFFFA   5 000          @R5,5
  16349  00000B44  00000001 USING  ORDINARY    00000000 00001000 FFFFFFFD   2 004   23344  @R2,2
  16357  00000B44  00000001 USING  ORDINARY    00000000 00001000 FFFFFFF5  10 000          @R10,10
  16440  00000BDE  00000001 USING  ORDINARY    00000BDE 00001000 00000001  10 134   16732  $$$101B,10
  16457  00000BE2  00000001 USING  ORDINARY    00000000 00001000 FFFFFFC5   6 020   16748  DVWA,R6
  16515  00000BFC  00000001 USING  ORDINARY    00000000 00001000 FFFFFFC7   5 050   16678  EPIE,R5
  16756  00000CCA  00000001 USING  ORDINARY    00000000 00001000 FFFFFFF5  10 000          @R10,10
  16775  00000CD8  00000001 USING  ORDINARY    00000000 00001000 FFFFFFFA   5 000          @R5,5
  16782  00000CD8  00000001 USING  ORDINARY    00000000 00001000 FFFFFFF9   6 000          @R6,6
  16864  00000D72  00000001 USING  ORDINARY    00000D72 00001000 00000001  10 2E0   17144  $$$109B,10
  17152  00000E40  00000001 USING  ORDINARY    00000000 00001000 FFFFFFF5  10 000          @R10,10
  17371  0000108A  00000001 USING  ORDINARY    0000108A 00001000 00000001  10 589   17746  $$$116B,10
  17755  00001238  00000001 USING  ORDINARY    00000000 00001000 FFFFFFF5  10 000          @R10,10
  17805  0000126C  00000001 USING  ORDINARY    0000126C 00001000 00000001  10 110   17826  $$$119B,10
  17835  0000128E  00000001 USING  ORDINARY    00000000 00001000 FFFFFFF5  10 000          @R10,10
  17925  00001670  00000001 USING  ORDINARY    00001670 00001000 00000001  10 ADD   18398  $$$122B,10
  18407  000017E6  00000001 USING  ORDINARY    00000000 00001000 FFFFFFF5  10 000          @R10,10
  18471  0000181A  00000001 USING  ORDINARY    0000181A 00001000 00000001  10 958   18651  $$$134B,10
  18493  0000182C  00000001 USING  ORDINARY    00000000 00001000 FFFFFFC5   6 008   18639  DVWA,R6
  18660  000018C2  00000001 USING  ORDINARY    00000000 00001000 FFFFFFF5  10 000          @R10,10
1DBMAIN   Using Map                                                                                                         Page  144
  18679  000018D0  00000001 USING  ORDINARY    00000000 00001000 FFFFFFF9   6 000          @R6,6
  18721  000018F6  00000001 USING  ORDINARY    000018F6 00001000 00000001  10 75A   18749  $$$139B,10
  18758  0000191E  00000001 USING  ORDINARY    00000000 00001000 FFFFFFF5  10 000          @R10,10
  18821  00001952  00000001 USING  ORDINARY    00001952 00001000 00000001  10 851   18873  $$$142B,10
  18882  0000199A  00000001 USING  ORDINARY    00000000 00001000 FFFFFFF5  10 000          @R10,10
  18940  000019CE  00000001 USING  ORDINARY    000019CE 00001000 00000001  10 7DA   19131  $$$145B,10
  18962  000019E0  00000001 USING  ORDINARY    00000000 00001000 FFFFFFC5   6 020   19088  DVWA,R6
  19098  00001A52  00000001 USING  ORDINARY    00000000 00001000 FFFFFFC7   5 04C   19105  EPIE,R5
  19113  00001A5E  00000001 USING  ORDINARY    00000000 00001000 FFFFFFFA   5 000          @R5,5
  19140  00001A7C  00000001 USING  ORDINARY    00000000 00001000 FFFFFFF5  10 000          @R10,10
  19159  00001A8A  00000001 USING  ORDINARY    00000000 00001000 FFFFFFF9   6 000          @R6,6
  19201  00001AB0  00000001 USING  ORDINARY    00001AB0 00001000 00000001  10 6F8   19360  $$$150B,10
  19223  00001AC2  00000001 USING  ORDINARY    00000000 00001000 FFFFFFC5   6 004   19319  DVWA,R6
  19329  00001B10  00000001 USING  ORDINARY    00000000 00001000 FFFFFFBC  15 128   19335  TVT,R15
  19342  00001B14  00000001 USING  ORDINARY    00000000 00001000 FFFFFFF0  15 000          @R15,15
  19369  00001B32  00000001 USING  ORDINARY    00000000 00001000 FFFFFFF5  10 000          @R10,10
  19388  00001B40  00000001 USING  ORDINARY    00000000 00001000 FFFFFFF9   6 000          @R6,6
  19430  00001B66  00000001 USING  ORDINARY    00001B66 00001000 00000001  10 642   19621  $$$155B,10
  19452  00001B78  00000001 USING  ORDINARY    00000000 00001000 FFFFFFC5   6 020   19578  DVWA,R6
  19588  00001BEA  00000001 USING  ORDINARY    00000000 00001000 FFFFFFC7   5 04C   19595  EPIE,R5
  19603  00001BF6  00000001 USING  ORDINARY    00000000 00001000 FFFFFFFA   5 000          @R5,5
  19630  00001C14  00000001 USING  ORDINARY    00000000 00001000 FFFFFFF5  10 000          @R10,10
  19649  00001C22  00000001 USING  ORDINARY    00000000 00001000 FFFFFFF9   6 000          @R6,6
  19691  00001C48  00000001 USING  ORDINARY    00001C48 00001000 00000001  10 57D   19855  $$$160B,10
  19713  00001C5A  00000001 USING  ORDINARY    00000000 00001000 FFFFFFC5   6 020   19812  DVWA,R6
  19822  00001CB0  00000001 USING  ORDINARY    00000000 00001000 FFFFFFC7   5 04C   19829  EPIE,R5
  19837  00001CBC  00000001 USING  ORDINARY    00000000 00001000 FFFFFFFA   5 000          @R5,5
  19864  00001CDA  00000001 USING  ORDINARY    00000000 00001000 FFFFFFF5  10 000          @R10,10
  19883  00001CE8  00000001 USING  ORDINARY    00000000 00001000 FFFFFFF9   6 000          @R6,6
  19931  00001D0E  00000001 USING  ORDINARY    00001D0E 00001000 00000001  10 4E0   20171  $$$165B,10
  19953  00001D20  00000001 USING  ORDINARY    00000000 00001000 FFFFFFC5   6 01C   20039  DVWA,R6
  20049  00001D68  00000001 USING  ORDINARY    00000000 00001000 FFFFFFC7   5 04C   20107  EPIE,R5
  20158  00001DC0  00000001 USING  ORDINARY    00000000 00001000 FFFFFFFA   5 000          @R5,5
  20180  00001DD4  00000001 USING  ORDINARY    00000000 00001000 FFFFFFF5  10 000          @R10,10
  20199  00001DE2  00000001 USING  ORDINARY    00000000 00001000 FFFFFFF9   6 000          @R6,6
  20241  00001E08  00000001 USING  ORDINARY    00001E08 00001000 00000001  10 3A0   20432  $$$170B,10
  20263  00001E1A  00000001 USING  ORDINARY    00000000 00001000 FFFFFFC5   6 020   20389  DVWA,R6
  20399  00001E8C  00000001 USING  ORDINARY    00000000 00001000 FFFFFFC7   5 04C   20406  EPIE,R5
  20414  00001E98  00000001 USING  ORDINARY    00000000 00001000 FFFFFFFA   5 000          @R5,5
  20441  00001EB6  00000001 USING  ORDINARY    00000000 00001000 FFFFFFF5  10 000          @R10,10
  20460  00001EC4  00000001 USING  ORDINARY    00000000 00001000 FFFFFFF9   6 000          @R6,6
  20502  00001EEA  00000001 USING  ORDINARY    00001EEA 00001000 00000001  10 1F2   20677  $$$175B,10
  20524  00001EFC  00000001 USING  ORDINARY    00000000 00001000 FFFFFFC5   6 020   20634  DVWA,R6
  20644  00001F5C  00000001 USING  ORDINARY    00000000 00001000 FFFFFFC7   5 04C   20651  EPIE,R5
  20659  00001F68  00000001 USING  ORDINARY    00000000 00001000 FFFFFFFA   5 000          @R5,5
  20686  00001F86  00000001 USING  ORDINARY    00000000 00001000 FFFFFFF5  10 000          @R10,10
  20705  00001F94  00000001 USING  ORDINARY    00000000 00001000 FFFFFFF9   6 000          @R6,6
  20801  00002216  00000001 USING  ORDINARY    00002216 00001000 00000001  10 292   20992  $$$180B,10
  20823  00002228  00000001 USING  ORDINARY    00000000 00001000 FFFFFFC5   6 020   20949  DVWA,R6
  20959  0000229A  00000001 USING  ORDINARY    00000000 00001000 FFFFFFC7   5 04C   20966  EPIE,R5
  20974  000022A6  00000001 USING  ORDINARY    00000000 00001000 FFFFFFFA   5 000          @R5,5
  21001  000022C4  00000001 USING  ORDINARY    00000000 00001000 FFFFFFF5  10 000          @R10,10
  21020  000022D2  00000001 USING  ORDINARY    00000000 00001000 FFFFFFF9   6 000          @R6,6
  21062  000022F8  00000001 USING  ORDINARY    000022F8 00001000 00000001  10 1CD   21226  $$$185B,10
  21084  0000230A  00000001 USING  ORDINARY    00000000 00001000 FFFFFFC5   6 020   21183  DVWA,R6
  21193  00002360  00000001 USING  ORDINARY    00000000 00001000 FFFFFFC7   5 04C   21200  EPIE,R5
  21208  0000236C  00000001 USING  ORDINARY    00000000 00001000 FFFFFFFA   5 000          @R5,5
  21235  0000238A  00000001 USING  ORDINARY    00000000 00001000 FFFFFFF5  10 000          @R10,10
  21254  00002398  00000001 USING  ORDINARY    00000000 00001000 FFFFFFF9   6 000          @R6,6
1DBMAIN   Using Map                                                                                                         Page  145
  21296  000023BE  00000001 USING  ORDINARY    000023BE 00001000 00000001  10 107   21461  $$$190B,10
  21318  000023D0  00000001 USING  ORDINARY    00000000 00001000 FFFFFFC5   6 020   21444  DVWA,R6
  21427  00002426  00000001 USING  ORDINARY    00000000 00001000 FFFFFFC7   5 04C   21434  EPIE,R5
  21442  00002432  00000001 USING  ORDINARY    00000000 00001000 FFFFFFFA   5 000          @R5,5
  21470  00002454  00000001 USING  ORDINARY    00000000 00001000 FFFFFFF5  10 000          @R10,10
  21489  00002462  00000001 USING  ORDINARY    00000000 00001000 FFFFFFF9   6 000          @R6,6
  21555  00002514  00000001 USING  ORDINARY    00002514 00001000 00000001  10 4F4   21688  $$$195B,10
  21577  00002526  00000001 USING  ORDINARY    00000000 00001000 FFFFFFC5   6 014   21663  DVWA,R6
  21697  0000258E  00000001 USING  ORDINARY    00000000 00001000 FFFFFFF5  10 000          @R10,10
  21716  0000259C  00000001 USING  ORDINARY    00000000 00001000 FFFFFFF9   6 000          @R6,6
  21760  000025C2  00000001 USING  ORDINARY    000025C2 00001000 00000001  10 446   21959  $$$200B,10
  21782  000025D4  00000001 USING  ORDINARY    00000000 00001000 FFFFFFC5   6 020   21930  DVWA,R6
  21891  0000262A  00000001 USING  ORDINARY    00000000 00001000 FFFFFFC7   5 04C   21898  EPIE,R5
  21906  00002636  00000001 USING  ORDINARY    00000000 00001000 FFFFFFFA   5 000          @R5,5
  21968  0000266E  00000001 USING  ORDINARY    00000000 00001000 FFFFFFF5  10 000          @R10,10
  21987  0000267C  00000001 USING  ORDINARY    00000000 00001000 FFFFFFF9   6 000          @R6,6
  22029  000026A2  00000001 USING  ORDINARY    000026A2 00001000 00000001  10 356   22206  $$$206B,10
  22051  000026B4  00000001 USING  ORDINARY    00000000 00001000 FFFFFFC5   6 020   22189  DVWA,R6
  22172  00002718  00000001 USING  ORDINARY    00000000 00001000 FFFFFFC7   5 04C   22179  EPIE,R5
  22187  00002724  00000001 USING  ORDINARY    00000000 00001000 FFFFFFFA   5 000          @R5,5
  22215  00002746  00000001 USING  ORDINARY    00000000 00001000 FFFFFFF5  10 000          @R10,10
  22234  00002754  00000001 USING  ORDINARY    00000000 00001000 FFFFFFF9   6 000          @R6,6
  22277  0000277A  00000001 USING  ORDINARY    0000277A 00001000 00000001  10 282   22454  $$$211B,10
  22299  0000278C  00000001 USING  ORDINARY    00000000 00001000 FFFFFFC5   6 020   22437  DVWA,R6
  22420  000027F0  00000001 USING  ORDINARY    00000000 00001000 FFFFFFC7   5 04C   22427  EPIE,R5
  22435  000027FC  00000001 USING  ORDINARY    00000000 00001000 FFFFFFFA   5 000          @R5,5
  22463  0000281E  00000001 USING  ORDINARY    00000000 00001000 FFFFFFF5  10 000          @R10,10
  22482  0000282C  00000001 USING  ORDINARY    00000000 00001000 FFFFFFF9   6 000          @R6,6
  22525  00002852  00000001 USING  ORDINARY    00002852 00001000 00000001  10 1AE   22702  $$$216B,10
  22547  00002864  00000001 USING  ORDINARY    00000000 00001000 FFFFFFC5   6 020   22685  DVWA,R6
  22668  000028C8  00000001 USING  ORDINARY    00000000 00001000 FFFFFFC7   5 04C   22675  EPIE,R5
  22683  000028D4  00000001 USING  ORDINARY    00000000 00001000 FFFFFFFA   5 000          @R5,5
  22711  000028F6  00000001 USING  ORDINARY    00000000 00001000 FFFFFFF5  10 000          @R10,10
  22730  00002904  00000001 USING  ORDINARY    00000000 00001000 FFFFFFF9   6 000          @R6,6
  22773  0000292A  00000001 USING  ORDINARY    0000292A 00001000 00000001  10 0DA   22919  $$$221B,10
  22795  0000293C  00000001 USING  ORDINARY    00000000 00001000 FFFFFFC5   6 020   22902  DVWA,R6
  22885  00002980  00000001 USING  ORDINARY    00000000 00001000 FFFFFFC7   5 04C   22892  EPIE,R5
  22900  0000298C  00000001 USING  ORDINARY    00000000 00001000 FFFFFFFA   5 000          @R5,5
  22928  000029AE  00000001 USING  ORDINARY    00000000 00001000 FFFFFFF5  10 000          @R10,10
  22947  000029BC  00000001 USING  ORDINARY    00000000 00001000 FFFFFFF9   6 000          @R6,6
  23014  00002A58  00000001 USING  ORDINARY    00002A58 00001000 00000001  10 320   23059  $$$225B,10
  23068  00002A92  00000001 USING  ORDINARY    00000000 00001000 FFFFFFF5  10 000          @R10,10
  23123  00002AC6  00000001 USING  ORDINARY    00002AC6 00001000 00000001  10 2B2   23164  $$$228B,10
  23173  00002AF8  00000001 USING  ORDINARY    00000000 00001000 FFFFFFF5  10 000          @R10,10
  23254  00002B2C  00000001 USING  ORDINARY    00002B2C 00001000 00000001  10 264   23466  $$$231B,10
  23268  00002B2C  00000001 USING  ORDINARY    FFFFFFC8 00001000 FFFFFFBA   8 03C   23339  MCWA-(4+52),R8
  23486  00002C04  00000001 USING  ORDINARY    00000000 00001000 FFFFFFF7   8 000          @R8,8
  23491  00002C04  00000001 USING  ORDINARY    00000000 00001000 FFFFFFF5  10 000          @R10,10
  23545  00002C38  00000001 USING  ORDINARY    00002C38 00001000 00000001  10 164   23603  $$$239B,10
  23612  00002C76  00000001 USING  ORDINARY    00000000 00001000 FFFFFFF5  10 000          @R10,10
  23662  00002CAA  00000001 USING  ORDINARY    00002CAA 00001000 00000001  10 109   23720  $$$242B,10
  23729  00002CE8  00000001 USING  ORDINARY    00000000 00001000 FFFFFFF5  10 000          @R10,10
  23779  00002D1C  00000001 USING  ORDINARY    00002D1C 00001000 00000001  10 0D3   23832  $$$245B,10
  23841  00002D62  00000001 USING  ORDINARY    00000000 00001000 FFFFFFF5  10 000          @R10,10
  23928  00002E34  00000001 USING  ORDINARY    00002E34 00001000 00000001  10 D66   24190  $$$248B,10
  23945  00002E38  00000001 USING  ORDINARY    00000000 00001000 FFFFFFC5   6 008   24271  DVWA,R6
  24203  00002EF4  00000001 USING  ORDINARY    00000000 00001000 FFFFFFF5  10 000          @R10,10
  24257  00002F28  00000001 USING  ORDINARY    00002F28 00001000 00000001  10 CA1   24642  $$$259B,10
  24332  00002F52  00000001 USING  ORDINARY    00000000 00001000 FFFFFFF4  11 000          @R11,11
1DBMAIN   Using Map                                                                                                         Page  146
  24335  00002F52  00000001 USING  ORDINARY    00000000 00001000 FFFFFFBC   5 014   24349  TVT,R5
  24365  00002F5A  00000001 USING  ORDINARY    00000000 00001000 FFFFFFBC  11 468   24389  TVT,11
  24370  00002F5A  00000001 USING  ORDINARY    00000000 00001000 FFFFFFFA   5 000          @R5,5
  24408  00002F64  00000001 USING  ORDINARY    00000000 00001000 FFFFFFF4  11 000          @R11,11
  24411  00002F64  00000001 USING  ORDINARY    00000000 00001000 FFFFFFBC   5 160   24417  TVT,R5
  24428  00002F68  00000001 USING  ORDINARY    00000000 00001000 FFFFFFBC  11 468   24459  TVT,11
  24433  00002F68  00000001 USING  ORDINARY    00000000 00001000 FFFFFFFA   5 000          @R5,5
  24478  00002F80  00000001 USING  ORDINARY    00000000 00001000 FFFFFFF4  11 000          @R11,11
  24481  00002F80  00000001 USING  ORDINARY    00000000 00001000 FFFFFFBC   5 163   24495  TVT,R5
  24511  00002F88  00000001 USING  ORDINARY    00000000 00001000 FFFFFFBC  11 468   24549  TVT,11
  24516  00002F88  00000001 USING  ORDINARY    00000000 00001000 FFFFFFFA   5 000          @R5,5
  24568  00002FA4  00000001 USING  ORDINARY    00000000 00001000 FFFFFFF4  11 000          @R11,11
  24571  00002FA4  00000001 USING  ORDINARY    00000000 00001000 FFFFFFBC   5 160   24585  TVT,R5
  24601  00002FAC  00000001 USING  ORDINARY    00000000 00001000 FFFFFFBC  11 468   24767  TVT,11
  24606  00002FAC  00000001 USING  ORDINARY    00000000 00001000 FFFFFFFA   5 000          @R5,5
  24659  00002FC8  00000001 USING  ORDINARY    00000000 00001000 FFFFFFF5  10 000          @R10,10
  24678  00002FD6  00000001 USING  ORDINARY    00000000 00001000 FFFFFFF9   6 000          @R6,6
  24720  00002FFC  00000001 USING  ORDINARY    00002FFC 00001000 00000001  10 BB9   24862  $$$265B,10
  24737  00003000  00000001 USING  ORDINARY    00000000 00001000 FFFFFFC5   6 008   24741  DVWA,R6
  24802  00003026  00000001 USING  ORDINARY    00000000 00001000 FFFFFFF4  11 000          @R11,11
  24805  00003026  00000001 USING  ORDINARY    00000000 00001000 FFFFFFBC   5 014   24819  TVT,R5
  24835  0000302E  00000001 USING  ORDINARY    00000000 00001000 FFFFFFBC  11 468   25171  TVT,11
  24840  0000302E  00000001 USING  ORDINARY    00000000 00001000 FFFFFFFA   5 000          @R5,5
  24875  00003038  00000001 USING  ORDINARY    00000000 00001000 FFFFFFF5  10 000          @R10,10
  24894  00003046  00000001 USING  ORDINARY    00000000 00001000 FFFFFFF9   6 000          @R6,6
  24955  0000306C  00000001 USING  ORDINARY    0000306C 00001000 00000001  10 A4C   25116  $$$270B,10
  24972  00003070  00000001 USING  ORDINARY    00000000 00001000 FFFFFFC5   6 020   26070  DVWA,R6
  25204  00003100  00000001 USING  ORDINARY    00000000 00001000 FFFFFFF5  10 000          @R10,10
  25268  00003134  00000001 USING  ORDINARY    00003134 00001000 00000001  10 02E   25366  $$$281B,10
  25291  00003134  00000001 USING  ORDINARY    00000000 00001000 FFFFFFF4  11 000          @R11,11
  25294  00003134  00000001 USING  ORDINARY    00000000 00001000 FFFFFFBC   2 098   25333  TVT,R2
  25387  00003162  00000001 USING  ORDINARY    00000000 00001000 FFFFFFBC  11 000          TVT,11
  25392  00003162  00000001 USING  ORDINARY    00000000 00001000 FFFFFFFD   2 000          @R2,2
  25397  00003162  00000001 USING  ORDINARY    00000000 00001000 FFFFFFF5  10 000          @R10,10
  25462  00003196  00000001 USING  ORDINARY    00003196 00001000 00000001  10 036   25563  $$$289B,10
  25485  00003196  00000001 USING  ORDINARY    00000000 00001000 FFFFFFF4  11 000          @R11,11
  25488  00003196  00000001 USING  ORDINARY    00000000 00001000 FFFFFFBC   2 098   25547  TVT,R2
  25584  000031CC  00000001 USING  ORDINARY    00000000 00001000 FFFFFFBC  11 000          TVT,11
  25589  000031CC  00000001 USING  ORDINARY    00000000 00001000 FFFFFFFD   2 000          @R2,2
  25594  000031CC  00000001 USING  ORDINARY    00000000 00001000 FFFFFFF5  10 000          @R10,10
  25659  00003200  00000001 USING  ORDINARY    00003200 00001000 00000001  10 036   25760  $$$297B,10
  25682  00003200  00000001 USING  ORDINARY    00000000 00001000 FFFFFFF4  11 000          @R11,11
  25685  00003200  00000001 USING  ORDINARY    00000000 00001000 FFFFFFBC   2 014   25724  TVT,R2
  25781  00003236  00000001 USING  ORDINARY    00000000 00001000 FFFFFFBC  11 000          TVT,11
  25786  00003236  00000001 USING  ORDINARY    00000000 00001000 FFFFFFFD   2 000          @R2,2
  25791  00003236  00000001 USING  ORDINARY    00000000 00001000 FFFFFFF5  10 000          @R10,10
  25856  0000326A  00000001 USING  ORDINARY    0000326A 00001000 00000001  10 038   25957  $$$305B,10
  25879  0000326A  00000001 USING  ORDINARY    00000000 00001000 FFFFFFF4  11 000          @R11,11
  25882  0000326A  00000001 USING  ORDINARY    00000000 00001000 FFFFFFBC   2 098   25941  TVT,R2
  25978  000032A2  00000001 USING  ORDINARY    00000000 00001000 FFFFFFBC  11 468   26864  TVT,11
  25983  000032A2  00000001 USING  ORDINARY    00000000 00001000 FFFFFFFD   2 000   27080  @R2,2
  25988  000032A2  00000001 USING  ORDINARY    00000000 00001000 FFFFFFF5  10 000          @R10,10
  26045  000032D6  00000001 USING  ORDINARY    000032D6 00001000 00000001  10 018   26089  $$$313B,10
  26107  000032EE  00000001 USING  ORDINARY    00000000 00001000 FFFFFFF5  10 000          @R10,10
  26126  000032FC  00000001 USING  ORDINARY    00000000 00001000 FFFFFFF9   6 000          @R6,6
  26172  00003322  00000001 USING  ORDINARY    00003322 00001000 00000001  10 01C   26222  $$$318B,10
  26189  00003326  00000001 USING  ORDINARY    00000000 00001000 FFFFFFC5   6 000   26197  DVWA,R6
  26240  0000333E  00000001 USING  ORDINARY    00000000 00001000 FFFFFFF5  10 000          @R10,10
  26259  0000334C  00000001 USING  ORDINARY    00000000 00001000 FFFFFFF9   6 000          @R6,6
1DBMAIN   Using Map                                                                                                         Page  147
  26310  00003372  00000001 USING  ORDINARY    00003372 00001000 00000001  10 018   26359  $$$323B,10
  26327  00003376  00000001 USING  ORDINARY    00000000 00001000 FFFFFFC5   6 008   26340  DVWA,R6
  26377  0000338A  00000001 USING  ORDINARY    00000000 00001000 FFFFFFF5  10 000          @R10,10
  26396  00003398  00000001 USING  ORDINARY    00000000 00001000 FFFFFFF9   6 000          @R6,6
  26470  000033BE  00000001 USING  ORDINARY    000033BE 00001000 00000001  10 6FA   26656  $$$328B,10
  26484  000033BE  00000001 USING  ORDINARY    FFFFFFC8 00001000 FFFFFFB9   8 038   26639  SDBEEWA-(4+52),R8
  26496  000033C2  00000001 USING  ORDINARY    00000000 00001000 FFFFFFC5   6 020   26640  DVWA,R6
  26681  0000343E  00000001 USING  ORDINARY    00000000 00001000 FFFFFFF7   8 004   29266  @R8,8
  26686  0000343E  00000001 USING  ORDINARY    00000000 00001000 FFFFFFF5  10 000          @R10,10
  26705  0000344C  00000001 USING  ORDINARY    00000000 00001000 FFFFFFF9   6 000          @R6,6
  26749  00003472  00000001 USING  ORDINARY    00003472 00001000 00000001  10 64A   26762  $$$336B,10
  26771  00003478  00000001 USING  ORDINARY    00000000 00001000 FFFFFFF5  10 000          @R10,10
  26827  000034AC  00000001 USING  ORDINARY    000034AC 00001000 00000001  10 71E   26921  $$$339B,10
  26890  000034D6  00000001 USING  ORDINARY    00000000 00001000 FFFFFFC5   6 020   26968  DVWA,R6
  26941  000034F0  00000001 USING  ORDINARY    00000000 00001000 FFFFFFF4  11 000          @R11,11
  26944  000034F0  00000001 USING  ORDINARY    00000000 00001000 FFFFFFBC   1 0E0   26950  TVT,R1
  26961  000034F4  00000001 USING  ORDINARY    00000000 00001000 FFFFFFBC  11 5D0   29273  TVT,11
  26966  000034F4  00000001 USING  ORDINARY    00000000 00001000 FFFFFFFE   1 004   28989  @R1,1
  26982  000034F8  00000001 USING  ORDINARY    00000000 00001000 FFFFFFF9   6 000          @R6,6
  26993  000034F8  00000001 USING  ORDINARY    00000000 00001000 FFFFFFF5  10 000          @R10,10
  27047  0000352C  00000001 USING  ORDINARY    0000352C 00001000 00000001  10 020   27086  $$$345B,10
  27095  0000354C  00000001 USING  ORDINARY    00000000 00001000 FFFFFFF5  10 000          @R10,10
  27150  00003580  00000001 USING  ORDINARY    00003580 00001000 00000001  10 544   27242  $$$350B,10
  27168  00003584  00000001 USING  ORDINARY    00000000 00001000 FFFFFFC5   6 000          DVWA,R6
  27256  000035CE  00000001 USING  ORDINARY    00000000 00001000 FFFFFFF5  10 000          @R10,10
  27275  000035DC  00000001 USING  ORDINARY    00000000 00001000 FFFFFFF9   6 000          @R6,6
  27318  00003602  00000001 USING  ORDINARY    00003602 00001000 00000001  10 4C2   27409  $$$355B,10
  27336  00003606  00000001 USING  ORDINARY    00000000 00001000 FFFFFFC5   6 010   27401  DVWA,R6
  27423  00003660  00000001 USING  ORDINARY    00000000 00001000 FFFFFFF5  10 000          @R10,10
  27442  0000366E  00000001 USING  ORDINARY    00000000 00001000 FFFFFFF9   6 000          @R6,6
  27488  00003694  00000001 USING  ORDINARY    00003694 00001000 00000001  10 55C   27562  $$$360B,10
  27579  000036C6  00000001 USING  ORDINARY    00000000 00001000 FFFFFFF5  10 000          @R10,10
  27639  000036FA  00000001 USING  ORDINARY    000036FA 00001000 00000001  10 3D2   27684  $$$366B,10
  27714  00003782  00000001 USING  ORDINARY    00000000 00001000 FFFFFFF5  10 000          @R10,10
  27744  00003790  00000001 USING  ORDINARY    00003790 00001000 00000001  15 000          TIMREXIT,R15
  27764  0000379E  00000001 USING  ORDINARY    00000000 00001000 FFFFFFF0  15 000          @R15,15
  27801  000037AE  00000001 USING  ORDINARY    000037AE 00001000 00000001  10 32A   27862  $$$371B,10
  27820  000037B0  00000001 USING  ORDINARY    00000000 00001000 FFFFFFBE   2 000   27834  SEGCB,R2
  27874  000037EE  00000001 USING  ORDINARY    00000000 00001000 FFFFFFFD   2 000          @R2,2
  27882  000037EE  00000001 USING  ORDINARY    00000000 00001000 FFFFFFF5  10 000          @R10,10
  27943  00003822  00000001 USING  ORDINARY    00003822 00001000 00000001  10 2EE   28211  $$$375B,10
  28138  000038B8  00000001 USING  ORDINARY    00000000 00001000 FFFFFFC2   2 074   28146  UPATH,R2
  28158  000038D4  00000001 USING  ORDINARY    00000000 00001000 FFFFFFFD   2 000          @R2,2
  28173  000038E4  00000001 USING  ORDINARY    00000000 00001000 FFFFFFBE   3 000          SEGCB,R3
  28221  00003908  00000001 USING  ORDINARY    00000000 00001000 FFFFFFFC   3 000          @R3,3
  28229  00003908  00000001 USING  ORDINARY    00000000 00001000 FFFFFFF5  10 000          @R10,10
  28284  0000393C  00000001 USING  ORDINARY    0000393C 00001000 00000001  10 1D8   28348  $$$380B,10
  28363  00003986  00000001 USING  ORDINARY    00000000 00001000 FFFFFFF5  10 000          @R10,10
  28429  000039BA  00000001 USING  ORDINARY    000039BA 00001000 00000001  10 20F   28678  $$$387B,10
  28449  000039C0  00000001 USING  ORDINARY    00000000 00001000 FFFFFFBE   2 038   28454  SEGCB,R2
  28464  000039C4  00000001 USING  ORDINARY    00000000 00001000 FFFFFFC2   3 074   28486  UPATH,R3
  28697  00003A68  00000001 USING  ORDINARY    00000000 00001000 FFFFFFFC   3 000          @R3,3
  28705  00003A68  00000001 USING  ORDINARY    00000000 00001000 FFFFFFFD   2 002   28841  @R2,2
  28717  00003A6A  00000001 USING  ORDINARY    00000000 00001000 FFFFFFF5  10 000          @R10,10
  28830  00003C1A  00000001 USING  ORDINARY    00003C1A 00001000 00000001  10 0D2   28879  $$$394B,10
  28887  00003C3E  00000001 USING  ORDINARY    00000000 00001000 FFFFFFF5  10 000          @R10,10
  28937  00003C72  00000001 USING  ORDINARY    00003C72 00001000 00000001  10 082   28982  $$$397B,10
  29007  00003C8E  00000001 USING  ORDINARY    00000000 00001000 FFFFFFF5  10 000          @R10,10
  29057  00003CC2  00000001 USING  ORDINARY    00003CC2 00001000 00000001  10 000          $$$404B,10
1DBMAIN   Using Map                                                                                                         Page  148
  29072  00003CC2  00000001 USING  ORDINARY    00000000 00001000 FFFFFFF5  10 000          @R10,10
  29151  00003D20  00000001 USING  ORDINARY    00003D20 00001000 00000001  10 000          $$$407B,10
  29170  00003D22  00000001 USING  ORDINARY    00000000 00001000 FFFFFFF5  10 000          @R10,10
  29200  00003D30  00000001 USING  ORDINARY    00003D30 00001000 00000001  15 050   29230  OSFESTAE,R15
  29236  00003D44  00000001 USING  ORDINARY    00000000 00001000 FFFFFFF0  15 000          @R15,15
  29250  00003D46  00000001 USING  ORDINARY    00003D46 00001000 00000001  10 03E   29281  $$$410B,10
  29260  00003D48  00000001 USING  ORDINARY    00000000 00001000 FFFFFFEB   2 000   29262  SDWA,R2
  29279  00003D62  00000001 USING  ORDINARY    00000000 00001000 FFFFFFFD   2 000          @R2,2
  29305  00003D7C  00000001 USING  ORDINARY    00000000 00001000 FFFFFFF3  12 000          @R12,12
  29310  00003D7C  00000001 USING  ORDINARY    00000000 00001000 FFFFFFF4  11 000          @R11,11
  29315  00003D7C  00000001 USING  ORDINARY    00000000 00001000 FFFFFFF5  10 000          @R10,10
  29320  00003D7C  00000001 USING  ORDINARY    00000000 00001000 FFFFFFF6   9 000          @R9,9

1         General Purpose Register Cross Reference                                                                          Page  149
- Register  References (M=modified, B=branch, U=USING, D=DROP, N=index)                      HLASM R4.0  2002/06/06 10.05
0    0(0)     1001U  1002D 13697  13736M 13796M 13822M 13828M 13847M 13872M 13878M 13889M 14030M 14057M 14058  14342M
             14401M 14402  14459M 14460  14466M 14574M 14591M 14591  14638  14671M 14943M 14944  14964M 14969M 14973M
             14976M 15013M 15016M 15059  15079M 15096M 15114M 15129M 15138M 15138  15171M 15192M 15248M 15265M 15279M
             15312M 15329M 15346M 15440  15482M 15489  15498M 15558M 15592  15724M 15788  15832M 15832  15833M 15959M
             15960M 15962  15973M 15990M 15999  16069M 16070M 16072  16103  16105  16107M 16109M 16133M 16134M 16197M
             16227M 16244M 16268M 16268  16365M 16424  16517M 16554M 16587M 16587  16621M 16647M 16664M 16697M 16697
             16721M 16764M 16848  16876  16965M 16965  16992M 17080M 17080  17107M 17135M 17160M 17355  17390M 17406M
             17422M 17438M 17454M 17470M 17486M 17502M 17518M 17534M 17550M 17566M 17582M 17598M 17614M 17630M 17646M
             17662M 17678M 17694M 17710M 17726M 17763M 17789  17843M 17909  17973M 17973  18000M 18026M 18026  18037M
             18077M 18115M 18141M 18163M 18163  18216M 18262M 18288M 18310M 18310  18356M 18415M 18455  18523M 18539M
             18594M 18610M 18668M 18705  18766M 18805  18845M 18859M 18890M 18924  18992M 19030M 19148M 19185  19253M
             19291M 19377M 19414  19482M 19520M 19638M 19675  19743M 19781M 19872M 19915  19983M 20021M 20058M 20081M
             20096M 20119M 20141M 20141  20188M 20225  20293M 20331M 20449M 20486  20554M 20694M 20785  20853M 20891M
             21009M 21046  21114M 21152M 21243M 21280  21348M 21386M 21478M 21539  21607M 21645M 21667M 21667  21705M
             21744  21812M 21850M 21934M 21934  21976M 22013  22081M 22223M 22261  22329M 22471M 22509  22577M 22719M
             22757  22936M 22998  23042M 23044M 23076M 23107  23181M 23237  23272  23308M 23314  23341M 23344  23370M
             23370  23377M 23406M 23406  23407M 23434M 23434  23435M 23436  23499M 23529  23584M 23620M 23646  23701M
             23737M 23763  23797M 23813M 23849M 23912  23985M 24042M 24099M 24155M 24181M 24181  24211M 24241  24291M
             24354M 24453M 24500M 24543M 24590M 24633M 24667M 24704  24761M 24824M 24883M 24939  25212M 25252  25405M
             25446  25602M 25643  25799M 25840  25996M 26029  26115M 26156  26248M 26294  26385M 26453  26694M 26733
             26779M 26811  26858M 27001M 27031  27063M 27063  27080  27103M 27134  27264M 27302  27431M 27472  27558M
             27559M 27561  27570M 27570  27587M 27623  27672M 27673M 27722M 27754M 27754  27785  27844  27848M 27849
             27853M 27857M 27859  27890M 27927  27952M 27961M 27961  28020M 28044M 28044  28068M 28068  28190M 28201M
             28237M 28268  28371M 28413  28491M 28541M 28565M 28565  28605M 28626M 28626  28643M 28667M 28667  28725M
             28814  28840M 28895M 28921  28956M 28956  28970  28977  29015M 29041  29080M 29135  29178M 29213  29229
             29292M
     1(1)      997U 13697  13708  13738M 13738  13760  13761  13798M 13798  13821  13822  13823M 13828M 13849M 13849
             13871  13873M 13878M 13896M 13912M 13922U 13928M 13935U 14001M 14003M 14005M 14016M 14016  14018  14032M
             14032  14055  14056  14057N 14059  14071M 14072  14093M 14110M 14138M 14138  14162M 14163  14170M 14190M
             14191  14198M 14215M 14232M 14249M 14266M 14283M 14300M 14317M 14337M 14386M 14387  14394M 14408M 14427M
             14465  14471  14576M 14577M 14577  14592M 14643M 14643N 14941M 14942N 14944N 14945N 14949M 14950  14953
             14959  14961M 14961  14962M 14964M 14965M 14965  14968M 14968  14969  14970M 14974M 14975M 14979M 14979
             15014M 15019M 15033M 15059  15078M 15095M 15113M 15129M 15170M 15191M 15247M 15264M 15278M 15311M 15328M
             15345M 15440  15488M 15489N 15490  15491  15492  15493  15494  15495  15496  15497  15497  15516M 15558M
             15592  15724M 15788  15915M 15916M 15917  15940M 15950M 15960  15964M 16050M 16060M 16070  16074M 16106
             16108M 16109M 16131M 16132M 16170M 16171  16172M 16178  16196M 16220M 16243M 16322M 16365M 16424  16519M
             16520M 16520N 16553M 16568M 16569M 16569N 16620M 16640M 16663M 16678M 16679M 16679N 16720M 16764M 16848
             16877  16942M 16991M 17057M 17106M 17134M 17160M 17355  17389M 17405M 17421M 17437M 17453M 17469M 17485M
             17501M 17517M 17533M 17549M 17565M 17581M 17597M 17613M 17629M 17645M 17661M 17677M 17693M 17709M 17725M
             17763M 17789  17843M 17909  17950M 17950  17999M 18036M 18055M 18076M 18095M 18114M 18136M 18215M 18242M
             18261M 18283M 18355M 18415M 18455  18522M 18538M 18557M 18593M 18609M 18668M 18705  18766M 18805  18844M
             18858M 18890M 18924  18991M 19029M 19148M 19185  19252M 19290M 19335M 19377M 19414  19481M 19519M 19638M
             19675  19742M 19780M 19872M 19915  19982M 20020M 20057M 20074M 20095M 20112M 20188M 20225  20292M 20330M
             20449M 20486  20553M 20694M 20785  20852M 20890M 21009M 21046  21113M 21151M 21243M 21280  21347M 21385M
             21478M 21539  21606M 21644M 21663M 21668M 21668  21705M 21744  21811M 21849M 21930M 21935M 21935  21976M
             22013  22080M 22223M 22261  22328M 22471M 22509  22576M 22719M 22757  22936M 22998  23029  23042  23043M
             23044  23076M 23107  23181M 23237  23273  23292M 23313  23366M 23371M 23371  23373M 23378M 23378  23408M
             23463M 23499M 23529  23583M 23620M 23646  23700M 23737M 23763  23796M 23812M 23849M 23912  23984M 24041M
             24098M 24154M 24211M 24241  24271M 24290M 24317  24349M 24417M 24443M 24443  24452M 24495M 24542M 24585M
             24632M 24667M 24704  24741M 24760M 24787  24819M 24883M 24939  24976M 24987M 24987  25001  25026M 25037M
             25046M 25046  25082  25107M 25107  25109M 25171M 25176M 25212M 25252  25327  25405M 25446  25521  25547M
             25549  25602M 25643  25744M 25746  25799M 25840  25941M 25943  25996M 26029  26115M 26156  26195M 26195
             26197M 26248M 26294  26385M 26453  26500  26521M 26535  26549  26638M 26640M 26694M 26733  26779M 26811
             26857M 26892M 26901M 26901  26926  26944U 26950M 26966U 26968  27001M 27031  27103M 27134  27264M 27302
             27431M 27472  27539M 27549M 27559  27571M 27587M 27623  27651M 27652  27661M 27662  27662  27663  27664
1         General Purpose Register Cross Reference                                                                          Page  150
             27666  27668  27670  27671  27722M 27755M 27785  27845  27852M 27855  27890M 27927  27981M 27989M 27997M
             27998M 27999  28019M 28094  28095  28114M 28115  28122M 28143M 28144  28147M 28185M 28202M 28237M 28268
             28371M 28413  28480  28492M 28518  28540M 28600  28604M 28622M 28642M 28725M 28814  28841M 28869M 28895M
             28921  29015M 29041  29080M 29135  29178M 29229  29252  29289M 29290  29292M
     2(2)      993U 13697  13837M 13847  13873  14020M 14059M 14064M 14148M 14155  14180  14323  14367M 14379  14593M
             14594M 14594N 14614M 14614  14636  14644M 14645M 14645N 14654M 14665M 14665  14671  14684  14725  14759
             14793  14808M 14938M 15033M 15440  15558M 15592  15724M 15788  15813M 15823U 15964  16074  16103M 16108
             16133  16349U 16365M 16424  16570M 16680M 16764M 16848  17160M 17355  17763M 17789  17843M 17909  18415M
             18455  18564M 18577M 18668M 18705  18766M 18805  18890M 18924  19053M 19087M 19148M 19185  19377M 19414
             19543M 19577M 19638M 19675  19811M 19872M 19915  20188M 20225  20354M 20388M 20449M 20486  20599M 20633M
             20694M 20785  20914M 20948M 21009M 21046  21182M 21243M 21280  21416M 21478M 21539  21705M 21744  21880M
             21976M 22013  22126M 22161M 22223M 22261  22374M 22409M 22471M 22509  22622M 22657M 22719M 22757  22839M
             22874M 22936M 22998  23029M 23043  23076M 23107  23181M 23237  23317M 23318M 23342M 23343M 23499M 23529
             23620M 23646  23737M 23763  23849M 23912  24211M 24241  24667M 24704  24883M 24939  25025M 25025  25026
             25082M 25092M 25108M 25109  25175M 25175  25176  25212M 25252  25294U 25298M 25299M 25313M 25313  25333M
             25347M 25347  25392U 25405M 25446  25488U 25492M 25493M 25507M 25507  25527M 25541M 25541  25589U 25602M
             25643  25685U 25689M 25690M 25704M 25704  25724M 25738M 25738  25744  25786U 25799M 25840  25882U 25886M
             25887M 25901M 25901  25921M 25935M 25935  25983U 25996M 26029  26115M 26156  26196M 26197  26248M 26294
             26385M 26453  26566M 26576M 26639M 26640  26694M 26733  26779M 26811  27001M 27031  27059M 27074M 27074
             27082M 27103M 27134  27221M 27222  27223  27227M 27228  27229  27240M 27241  27242M 27243  27264M 27302
             27389M 27390  27391  27395M 27396  27397  27401M 27402  27403  27407M 27408  27409M 27410  27431M 27472
             27587M 27623  27649M 27652  27661  27707  27722M 27785  27810M 27820U 27844M 27857  27874U 27890M 27927
             28095M 28107  28138U 28147  28158U 28213M 28214  28237M 28268  28320M 28335M 28335  28341N 28342N 28344M
             28371M 28413  28439M 28449U 28705U 28725M 28814  28839M 28895M 28921  28977M 28980M 28982  29015M 29041
             29080M 29135  29178M 29229  29252M 29260U 29279U 29289  29292M
     3(3)      989U 13697  13709M 13968  14019M 14020M 14030  14057  14064M 14369M 14376  14400  14620M 14621M 14630M
             14630  14990M 15033M 15440  15558M 15592  15724M 15788  16104M 16107  16220  16365M 16424  16634M 16635M
             16640  16764M 16848  17160M 17355  17763M 17789  17843M 17909  18415M 18455  18568M 18568  18577M 18668M
             18705  18766M 18805  18890M 18924  19058M 19058  19103M 19148M 19185  19377M 19414  19548M 19548  19593M
             19638M 19675  19827M 19872M 19915  20069M 20074  20107M 20112  20188M 20225  20359M 20359  20404M 20449M
             20486  20604M 20604  20649M 20694M 20785  20919M 20919  20964M 21009M 21046  21198M 21243M 21280  21432M
             21478M 21539  21705M 21744  21896M 21976M 22013  22131M 22131  22177M 22223M 22261  22379M 22379  22425M
             22471M 22509  22627M 22627  22673M 22719M 22757  22844M 22844  22890M 22936M 22998  23076M 23107  23181M
             23237  23319M 23322  23334M 23340  23341  23342M 23499M 23529  23620M 23646  23737M 23763  23849M 23912
             24211M 24241  24667M 24704  24883M 24939  25083M 25092M 25212M 25252  25405M 25446  25602M 25643  25799M
             25840  25996M 26029  26115M 26156  26248M 26294  26385M 26453  26570M 26570  26576M 26694M 26733  26779M
             26811  27001M 27031  27103M 27134  27264M 27302  27431M 27472  27587M 27623  27655M 27671  27722M 27785
             27845M 27846M 27853  27890M 27927  28097M 28104  28128  28160M 28173U 28196  28208  28221U 28237M 28268
             28324M 28324  28342  28371M 28413  28454M 28464U 28697U 28725M 28814  28895M 28921  29015M 29041  29080M
             29135  29178M 29229  29292M
     4(4)      985U 13697  14596M 14637M 14637N 14653M 14807M 14807N 14991M 15025  15033M 15440  15558M 15592  15724M
             15788  16365M 16424  16764M 16848  17160M 17355  17763M 17789  17843M 17909  18415M 18455  18572M 18572
             18577  18668M 18705  18766M 18805  18890M 18924  19062M 19062  19105M 19106M 19106N 19148M 19185  19377M
             19414  19552M 19552  19595M 19596M 19596N 19638M 19675  19829M 19830M 19830N 19872M 19915  20188M 20225
             20363M 20363  20406M 20407M 20407N 20449M 20486  20608M 20608  20651M 20652M 20652N 20694M 20785  20923M
             20923  20966M 20967M 20967N 21009M 21046  21200M 21201M 21201N 21243M 21280  21434M 21435M 21435N 21478M
             21539  21705M 21744  21898M 21899M 21899N 21976M 22013  22135M 22135  22179M 22180M 22180N 22223M 22261
             22383M 22383  22427M 22428M 22428N 22471M 22509  22631M 22631  22675M 22676M 22676N 22719M 22757  22848M
             22848  22892M 22893M 22893N 22936M 22998  23076M 23107  23181M 23237  23339M 23342M 23382M 23384  23385M
             23385N 23397  23408N 23436M 23439M 23499M 23529  23620M 23646  23737M 23763  23849M 23912  24211M 24241
             24667M 24704  24883M 24939  25087M 25087  25092  25212M 25252  25405M 25446  25602M 25643  25799M 25840
             25996M 26029  26115M 26156  26248M 26294  26385M 26453  26571M 26576  26694M 26733  26779M 26811  27001M
             27031  27058M 27081M 27081N 27103M 27134  27218M 27224M 27224N 27230M 27230N 27264M 27302  27386M 27392M
             27392N 27398M 27398N 27404M 27404N 27431M 27472  27587M 27623  27722M 27785  27890M 27927  28161M 28162M
             28185  28237M 28268  28371M 28413  28486M 28492  28600M 28622  28725M 28814  28895M 28921  29015M 29041
             29080M 29135  29178M 29229  29292M
     5(5)      981U 13697  14460M 14466  15033M 15440  15558M 15592  15724M 15788  15974M 15984U 15997U 16365M 16424
             16507M 16515U 16764M 16775U 16848  17160M 17355  17763M 17789  17843M 17909  18415M 18455  18576M 18576
             18577  18668M 18705  18766M 18805  18890M 18924  19088M 19098U 19113U 19148M 19185  19377M 19414  19578M
1         General Purpose Register Cross Reference                                                                          Page  151
             19588U 19603U 19638M 19675  19812M 19822U 19837U 19872M 19915  20039M 20049U 20158U 20188M 20225  20389M
             20399U 20414U 20449M 20486  20634M 20644U 20659U 20694M 20785  20949M 20959U 20974U 21009M 21046  21183M
             21193U 21208U 21243M 21280  21417M 21427U 21442U 21444M 21478M 21539  21705M 21744  21881M 21891U 21906U
             21908M 21976M 22013  22136M 22162M 22172U 22187U 22189M 22223M 22261  22384M 22410M 22420U 22435U 22437M
             22471M 22509  22632M 22658M 22668U 22683U 22685M 22719M 22757  22849M 22875M 22885U 22900U 22902M 22936M
             22998  23076M 23107  23181M 23237  23340M 23342M 23383M 23384M 23397  23499M 23529  23620M 23646  23737M
             23763  23849M 23912  24211M 24241  24317M 24335U 24370U 24411U 24433U 24481U 24516U 24571U 24606U 24667M
             24704  24787M 24805U 24840U 24883M 24939  25091M 25091  25092  25212M 25252  25405M 25446  25602M 25643
             25799M 25840  25996M 26029  26115M 26156  26248M 26294  26385M 26453  26575M 26575  26576  26694M 26733
             26779M 26811  27001M 27031  27103M 27134  27264M 27302  27431M 27472  27587M 27623  27722M 27785  27890M
             27927  28163M 28190  28237M 28268  28371M 28413  28725M 28814  28895M 28921  29015M 29041  29080M 29135
             29178M 29229  29292M
     6(6)      977U 13697  13708M 13959M 14093  15033M 15440  15558M 15592  15724M 15788  16365M 16424  16449M 16457U
             16764M 16782U 16848  17160M 17355  17763M 17789  17843M 17909  18415M 18455  18485M 18493U 18668M 18679U
             18705  18766M 18805  18890M 18924  18954M 18962U 19148M 19159U 19185  19215M 19223U 19377M 19388U 19414
             19444M 19452U 19638M 19649U 19675  19705M 19713U 19872M 19883U 19915  19945M 19953U 20188M 20199U 20225
             20255M 20263U 20449M 20460U 20486  20516M 20524U 20694M 20705U 20785  20815M 20823U 21009M 21020U 21046
             21076M 21084U 21243M 21254U 21280  21310M 21318U 21478M 21489U 21539  21569M 21577U 21705M 21716U 21744
             21774M 21782U 21976M 21987U 22013  22043M 22051U 22223M 22234U 22261  22291M 22299U 22471M 22482U 22509
             22539M 22547U 22719M 22730U 22757  22787M 22795U 22936M 22947U 22998  23076M 23107  23181M 23237  23499M
             23529  23620M 23646  23737M 23763  23849M 23912  23937M 23945U 24211M 24241  24266M 24667M 24678U 24704
             24729M 24737U 24883M 24894U 24939  24964M 24972U 25212M 25252  25405M 25446  25602M 25643  25799M 25840
             25996M 26029  26054M 26115M 26126U 26156  26181M 26189U 26248M 26259U 26294  26319M 26327U 26385M 26396U
             26453  26488M 26496U 26694M 26705U 26733  26779M 26811  26882M 26890U 26982U 27001M 27031  27103M 27134
             27160M 27168U 27264M 27275U 27302  27328M 27336U 27431M 27442U 27472  27587M 27623  27722M 27785  27890M
             27927  28237M 28268  28371M 28413  28725M 28814  28895M 28921  29015M 29041  29080M 29135  29178M 29229
             29292M
     7(7)      973U 13697  15033M 15440  15558M 15592  15724M 15788  16365M 16424  16764M 16848  17160M 17355  17763M
             17789  17843M 17909  18415M 18455  18668M 18705  18766M 18805  18890M 18924  19148M 19185  19377M 19414
             19638M 19675  19872M 19915  20188M 20225  20449M 20486  20694M 20785  21009M 21046  21243M 21280  21478M
             21539  21705M 21744  21976M 22013  22223M 22261  22471M 22509  22719M 22757  22936M 22998  23076M 23107
             23181M 23237  23499M 23529  23620M 23646  23737M 23763  23849M 23912  24211M 24241  24667M 24704  24883M
             24939  25212M 25252  25405M 25446  25602M 25643  25799M 25840  25996M 26029  26115M 26156  26248M 26294
             26385M 26453  26694M 26733  26779M 26811  27001M 27031  27103M 27134  27264M 27302  27431M 27472  27587M
             27623  27722M 27785  27890M 27927  28237M 28268  28371M 28413  28725M 28814  28895M 28921  29015M 29041
             29080M 29135  29178M 29229  29292M
     8(8)      969U 13697  13761M 15033M 15440  15442M 15471U 15545U 15554  15558M 15592  15593M 15688M 15689M 15689
             15720  15724M 15788  15789M 16361  16365M 16424  16425M 16760  16764M 16848  16849M 16874  17156  17160M
             17355  17356M 17759  17763M 17789  17790M 17839  17843M 17909  17910M 18411  18415M 18455  18456M 18664
             18668M 18705  18706M 18762  18766M 18805  18806M 18886  18890M 18924  18925M 19144  19148M 19185  19186M
             19373  19377M 19414  19415M 19634  19638M 19675  19676M 19868  19872M 19915  19916M 20184  20188M 20225
             20226M 20445  20449M 20486  20487M 20690  20694M 20785  20786M 21005  21009M 21046  21047M 21239  21243M
             21280  21281M 21474  21478M 21539  21540M 21701  21705M 21744  21745M 21972  21976M 22013  22014M 22219
             22223M 22261  22262M 22467  22471M 22509  22510M 22715  22719M 22757  22758M 22932  22936M 22998  22999M
             23072  23076M 23107  23108M 23177  23181M 23237  23239M 23268U 23486U 23495  23499M 23529  23530M 23616
             23620M 23646  23647M 23733  23737M 23763  23764M 23845  23849M 23912  23913M 24207  24211M 24241  24242M
             24663  24667M 24704  24705M 24879  24883M 24939  24940M 25208  25212M 25252  25253M 25401  25405M 25446
             25447M 25549N 25598  25602M 25643  25644M 25746N 25795  25799M 25840  25841M 25943N 25992  25996M 26029
             26030M 26111  26115M 26156  26157M 26244  26248M 26294  26295M 26381  26385M 26453  26455M 26484U 26681U
             26690  26694M 26733  26734M 26775  26779M 26811  26812M 26997  27001M 27031  27032M 27099  27103M 27134
             27135M 27260  27264M 27302  27303M 27427  27431M 27472  27473M 27583  27587M 27623  27624M 27718  27722M
             27785  27786M 27859N 27886  27890M 27927  27928M 28233  28237M 28268  28269M 28367  28371M 28413  28414M
             28721  28725M 28814  28815M 28891  28895M 28921  28922M 29011  29015M 29041  29042M 29076  29080M 29135
             29136M 29174  29178M 29229  29264M 29266M 29267  29292M
     9(9)      965U 13697  13711M 13719U 15033M 15440  15558M 15592  15724M 15788  16365M 16424  16764M 16848  17160M
             17355  17763M 17789  17843M 17909  18415M 18455  18668M 18705  18766M 18805  18890M 18924  19148M 19185
             19377M 19414  19638M 19675  19872M 19915  20188M 20225  20449M 20486  20694M 20785  21009M 21046  21243M
             21280  21478M 21539  21705M 21744  21976M 22013  22223M 22261  22471M 22509  22719M 22757  22936M 22998
             23076M 23107  23181M 23237  23499M 23529  23620M 23646  23737M 23763  23849M 23912  24211M 24241  24667M
1         General Purpose Register Cross Reference                                                                          Page  152
             24704  24883M 24939  25212M 25252  25405M 25446  25602M 25643  25799M 25840  25996M 26029  26115M 26156
             26248M 26294  26385M 26453  26694M 26733  26779M 26811  27001M 27031  27103M 27134  27264M 27302  27431M
             27472  27587M 27623  27722M 27785  27890M 27927  28237M 28268  28371M 28413  28438M 28725M 28814  28895M
             28921  29015M 29041  29080M 29135  29178M 29229  29230M 29292M 29320U
    10(A)      961U 13697  13698M 13706U 15033M 15041U 15440  15446M 15457U 15550U 15558M 15592  15597M 15608U 15716U
             15724M 15788  15793M 15804U 16357U 16365M 16424  16429M 16440U 16756U 16764M 16848  16853M 16864U 17152U
             17160M 17355  17360M 17371U 17755U 17763M 17789  17794M 17805U 17835U 17843M 17909  17914M 17925U 18407U
             18415M 18455  18460M 18471U 18660U 18668M 18705  18710M 18721U 18758U 18766M 18805  18810M 18821U 18882U
             18890M 18924  18929M 18940U 19140U 19148M 19185  19190M 19201U 19369U 19377M 19414  19419M 19430U 19630U
             19638M 19675  19680M 19691U 19864U 19872M 19915  19920M 19931U 20180U 20188M 20225  20230M 20241U 20441U
             20449M 20486  20491M 20502U 20686U 20694M 20785  20790M 20801U 21001U 21009M 21046  21051M 21062U 21235U
             21243M 21280  21285M 21296U 21470U 21478M 21539  21544M 21555U 21697U 21705M 21744  21749M 21760U 21968U
             21976M 22013  22018M 22029U 22215U 22223M 22261  22266M 22277U 22463U 22471M 22509  22514M 22525U 22711U
             22719M 22757  22762M 22773U 22928U 22936M 22998  23003M 23014U 23068U 23076M 23107  23112M 23123U 23173U
             23181M 23237  23243M 23254U 23491U 23499M 23529  23534M 23545U 23612U 23620M 23646  23651M 23662U 23729U
             23737M 23763  23768M 23779U 23841U 23849M 23912  23917M 23928U 24203U 24211M 24241  24246M 24257U 24659U
             24667M 24704  24709M 24720U 24875U 24883M 24939  24944M 24955U 25204U 25212M 25252  25257M 25268U 25397U
             25405M 25446  25451M 25462U 25594U 25602M 25643  25648M 25659U 25791U 25799M 25840  25845M 25856U 25988U
             25996M 26029  26034M 26045U 26107U 26115M 26156  26161M 26172U 26240U 26248M 26294  26299M 26310U 26377U
             26385M 26453  26459M 26470U 26686U 26694M 26733  26738M 26749U 26771U 26779M 26811  26816M 26827U 26993U
             27001M 27031  27036M 27047U 27095U 27103M 27134  27139M 27150U 27256U 27264M 27302  27307M 27318U 27423U
             27431M 27472  27477M 27488U 27579U 27587M 27623  27628M 27639U 27714U 27722M 27785  27790M 27801U 27882U
             27890M 27927  27932M 27943U 28229U 28237M 28268  28273M 28284U 28363U 28371M 28413  28418M 28429U 28717U
             28725M 28814  28819M 28830U 28887U 28895M 28921  28926M 28937U 29007U 29015M 29041  29046M 29057U 29072U
             29080M 29135  29140M 29151U 29170U 29178M 29229  29240M 29250U 29292M 29315U
    11(B)      957U  1769B  1770B 13691U 13697  13785M 13785  13871M 13872  13956M 13957M 13957N 14075  14079  14158
             14528  14532  14692  14696  14909  14913  15019  15033M 15053  15057  15225  15229  15430  15434  15440
             15492  15534  15538  15558M 15582  15586  15592  15724M 15778  15782  15788  15836  15840  15859  15863
             15900  15904  16023  16027  16081  16085  16329  16333  16365M 16414  16418  16424  16764M 16838  16842
             16848  17160M 17345  17349  17355  17763M 17779  17783  17789  17843M 17899  17903  17909  18415M 18445
             18449  18455  18668M 18695  18699  18705  18766M 18795  18799  18805  18890M 18914  18918  18924  19148M
             19175  19179  19185  19377M 19404  19408  19414  19638M 19665  19669  19675  19872M 19905  19909  19915
             20188M 20215  20219  20225  20449M 20476  20480  20486  20694M 20775  20779  20785  21009M 21036  21040
             21046  21243M 21270  21274  21280  21478M 21529  21533  21539  21705M 21734  21738  21744  21976M 22003
             22007  22013  22223M 22251  22255  22261  22471M 22499  22503  22509  22719M 22747  22751  22757  22936M
             22988  22992  22998  23076M 23097  23101  23107  23181M 23227  23231  23237  23499M 23519  23523  23529
             23620M 23636  23640  23646  23737M 23753  23757  23763  23849M 23902  23906  23912  24211M 24231  24235
             24241  24332U 24365U 24408U 24428U 24478U 24511U 24568U 24601U 24667M 24694  24698  24704  24802U 24835U
             24883M 24929  24933  24939  25212M 25242  25246  25252  25291U 25387U 25405M 25436  25440  25446  25485U
             25584U 25602M 25633  25637  25643  25682U 25781U 25799M 25830  25834  25840  25879U 25978U 25996M 26019
             26023  26029  26115M 26146  26150  26156  26248M 26284  26288  26294  26385M 26443  26447  26453  26694M
             26723  26727  26733  26779M 26801  26805  26811  26941U 26961U 27001M 27021  27025  27031  27103M 27124
             27128  27134  27264M 27292  27296  27302  27431M 27462  27466  27472  27587M 27613  27617  27623  27654
             27701  27705  27722M 27750M 27785  27890M 27917  27921  27927  28237M 28258  28262  28268  28371M 28403
             28407  28413  28725M 28804  28808  28814  28895M 28911  28915  28921  29015M 29031  29035  29041  29080M
             29125  29129  29135  29178M 29229  29262M 29292M 29310U
    12(C)      953U 13682U 13697  13781M 13781  13821M 13880  13958M 14076  14183  14529  14693  14910  15014  15033M
             15054  15226  15431  15440  15535  15558M 15583  15592  15724M 15779  15788  15837  15860  15901  16024
             16082  16330  16365M 16415  16424  16764M 16839  16848  17160M 17346  17355  17763M 17780  17789  17843M
             17900  17909  18415M 18446  18455  18668M 18696  18705  18766M 18796  18805  18890M 18915  18924  19148M
             19176  19185  19377M 19405  19414  19638M 19666  19675  19872M 19906  19915  20188M 20216  20225  20449M
             20477  20486  20694M 20776  20785  21009M 21037  21046  21243M 21271  21280  21478M 21530  21539  21705M
             21735  21744  21976M 22004  22013  22223M 22252  22261  22471M 22500  22509  22719M 22748  22757  22936M
             22989  22998  23076M 23098  23107  23181M 23228  23237  23499M 23520  23529  23620M 23637  23646  23737M
             23754  23763  23849M 23903  23912  24211M 24232  24241  24667M 24695  24704  24883M 24930  24939  25212M
             25243  25252  25405M 25437  25446  25602M 25634  25643  25799M 25831  25840  25996M 26020  26029  26115M
             26147  26156  26248M 26285  26294  26385M 26444  26453  26694M 26724  26733  26779M 26802  26811  27001M
             27022  27031  27103M 27125  27134  27264M 27293  27302  27431M 27463  27472  27587M 27614  27623  27702
             27722M 27785  27890M 27918  27927  28237M 28259  28268  28371M 28404  28413  28725M 28805  28814  28895M
1         General Purpose Register Cross Reference                                                                          Page  153
             28912  28921  29015M 29032  29041  29080M 29126  29135  29178M 29229  29263M 29292M 29305U
    13(D)      949U 13709  13760M 13896  14075  14079M 14148  14149M 14149  14323M 14369  14370M 14370  14400M 14408
             14409M 14409  14424M 14427  14428M 14428  14442M 14528  14532M 14692  14696M 14909  14913M 15053  15057M
             15059  15060M 15060  15128M 15129  15225  15229M 15430  15434M 15437  15440  15442  15443M 15443  15534
             15538M 15554M 15558  15560  15582  15586M 15589  15592  15593  15594M 15594  15720M 15724  15726  15778
             15782M 15785  15788  15789  15790M 15790  15836  15840M 15859  15863M 15900  15904M 16023  16027M 16081
             16085M 16329  16333M 16361M 16365  16367  16414  16418M 16421  16424  16425  16426M 16426  16760M 16764
             16766  16838  16842M 16845  16848  16849  16850M 16850  17156M 17160  17162  17345  17349M 17352  17355
             17356  17357M 17357  17383M 17383N 17746M 17759M 17763  17765  17779  17783M 17786  17789  17790  17791M
             17791  17817M 17817N 17826M 17839M 17843  17845  17899  17903M 17906  17909  17910  17911M 17911  17937M
             17937N 18398M 18411M 18415  18417  18445  18449M 18452  18455  18456  18457M 18457  18483M 18483N 18651M
             18664M 18668  18670  18695  18699M 18702  18705  18706  18707M 18707  18733M 18733N 18749M 18762M 18766
             18768  18795  18799M 18802  18805  18806  18807M 18807  18833M 18833N 18873M 18886M 18890  18892  18914
             18918M 18921  18924  18925  18926M 18926  18952M 18952N 19131M 19144M 19148  19150  19175  19179M 19182
             19185  19186  19187M 19187  19213M 19213N 19360M 19373M 19377  19379  19404  19408M 19411  19414  19415
             19416M 19416  19442M 19442N 19621M 19634M 19638  19640  19665  19669M 19672  19675  19676  19677M 19677
             19703M 19703N 19855M 19868M 19872  19874  19905  19909M 19912  19915  19916  19917M 19917  19943M 19943N
             20171M 20184M 20188  20190  20215  20219M 20222  20225  20226  20227M 20227  20253M 20253N 20432M 20445M
             20449  20451  20476  20480M 20483  20486  20487  20488M 20488  20514M 20514N 20677M 20690M 20694  20696
             20775  20779M 20782  20785  20786  20787M 20787  20813M 20813N 20992M 21005M 21009  21011  21036  21040M
             21043  21046  21047  21048M 21048  21074M 21074N 21226M 21239M 21243  21245  21270  21274M 21277  21280
             21281  21282M 21282  21308M 21308N 21461M 21474M 21478  21480  21529  21533M 21536  21539  21540  21541M
             21541  21567M 21567N 21688M 21701M 21705  21707  21734  21738M 21741  21744  21745  21746M 21746  21772M
             21772N 21959M 21972M 21976  21978  22003  22007M 22010  22013  22014  22015M 22015  22041M 22041N 22206M
             22219M 22223  22225  22251  22255M 22258  22261  22262  22263M 22263  22289M 22289N 22454M 22467M 22471
             22473  22499  22503M 22506  22509  22510  22511M 22511  22537M 22537N 22702M 22715M 22719  22721  22747
             22751M 22754  22757  22758  22759M 22759  22785M 22785N 22919M 22932M 22936  22938  22988  22992M 22995
             22998  22999  23000M 23000  23026M 23026N 23059M 23072M 23076  23078  23097  23101M 23104  23107  23108
             23109M 23109  23135M 23135N 23164M 23177M 23181  23183  23227  23231M 23234  23237  23239  23240M 23240
             23495M 23499  23501  23519  23523M 23526  23529  23530  23531M 23531  23557M 23557N 23603M 23616M 23620
             23622  23636  23640M 23643  23646  23647  23648M 23648  23674M 23674N 23720M 23733M 23737  23739  23753
             23757M 23760  23763  23764  23765M 23765  23791M 23791N 23832M 23845M 23849  23851  23902  23906M 23909
             23912  23913  23914M 23914  24207M 24211  24213  24231  24235M 24238  24241  24242  24243M 24243  24663M
             24667  24669  24694  24698M 24701  24704  24705  24706M 24706  24879M 24883  24885  24929  24933M 24936
             24939  24940  24941M 24941  25208M 25212  25214  25242  25246M 25249  25252  25253  25254M 25254  25401M
             25405  25407  25436  25440M 25443  25446  25447  25448M 25448  25598M 25602  25604  25633  25637M 25640
             25643  25644  25645M 25645  25795M 25799  25801  25830  25834M 25837  25840  25841  25842M 25842  25992M
             25996  25998  26019  26023M 26026  26029  26030  26031M 26031  26111M 26115  26117  26146  26150M 26153
             26156  26157  26158M 26158  26244M 26248  26250  26284  26288M 26291  26294  26295  26296M 26296  26381M
             26385  26387  26443  26447M 26450  26453  26455  26456M 26456  26690M 26694  26696  26723  26727M 26730
             26733  26734  26735M 26735  26775M 26779  26781  26801  26805M 26808  26811  26812  26813M 26813  26997M
             27001  27003  27021  27025M 27028  27031  27032  27033M 27033  27099M 27103  27105  27124  27128M 27131
             27134  27135  27136M 27136  27260M 27264  27266  27292  27296M 27299  27302  27303  27304M 27304  27427M
             27431  27433  27462  27466M 27469  27472  27473  27474M 27474  27583M 27587  27589  27613  27617M 27620
             27623  27624  27625M 27625  27649  27650M 27650  27654  27655  27656M 27656  27701  27705M 27707M 27718M
             27722  27724  27782  27785  27786  27787M 27787  27886M 27890  27892  27917  27921M 27924  27927  27928
             27929M 27929  28097  28098M 28098  28128M 28233M 28237  28239  28258  28262M 28265  28268  28269  28270M
             28270  28367M 28371  28373  28403  28407M 28410  28413  28414  28415M 28415  28721M 28725  28727  28804
             28808M 28811  28814  28815  28816M 28816  28891M 28895  28897  28911  28915M 28918  28921  28922  28923M
             28923  29011M 29015  29017  29031  29035M 29038  29041  29042  29043M 29043  29076M 29080  29082  29125
             29129M 29132  29135  29136  29137M 29137  29174M 29178  29180  29265  29267M 29281M 29282M 29292
    14(E)      945U 13697  13828M 13878M 14064M 14075  14077M 14079M 14117M 14118M 14118B 14129M 14130M 14130B 14141M
             14142M 14142B 14173M 14174M 14174B 14201M 14202M 14202B 14218M 14219M 14219B 14235M 14236M 14236B 14252M
             14253M 14253B 14269M 14270M 14270B 14286M 14287M 14287B 14303M 14304M 14304B 14320M 14321M 14321B 14345M
             14346M 14346B 14397M 14398M 14398B 14421M 14422M 14422B 14439M 14440M 14440B 14453M 14454M 14454B 14463M
             14464M 14464B 14469M 14470M 14470B 14477M 14478M 14478B 14484M 14485M 14485B 14505M 14506M 14506B 14509M
             14510M 14510B 14528  14530M 14532M 14692  14694M 14696M 14699M 14700M 14700B 14733M 14734M 14734B 14767M
             14768M 14768B 14801M 14802M 14802B 14909  14911M 14913M 14936M 14937M 14937B 14942M 14945  14954M 14955M
             14955  14960M 14960  14963M 14964  14983M 14984M 14984B 15032M 15034B 15053  15055M 15057M 15072M 15073M
1         General Purpose Register Cross Reference                                                                          Page  154
             15073B 15090M 15091M 15091B 15107M 15108M 15108B 15125M 15126M 15126B 15165M 15166M 15166B 15182M 15183M
             15183B 15203M 15204M 15204B 15225  15227M 15229M 15241M 15242M 15242B 15259M 15260M 15260B 15276M 15277M
             15277B 15282M 15283M 15283B 15305M 15306M 15306B 15323M 15324M 15324B 15340M 15341M 15341B 15357M 15358M
             15358B 15430  15432M 15434M 15437  15534  15536M 15538M 15560M 15563B 15582  15584M 15586M 15589  15645M
             15646M 15646B 15657M 15658M 15658B 15726M 15729B 15778  15780M 15782M 15785  15836  15838M 15840M 15859
             15861M 15863M 15873M 15874M 15874B 15900  15902M 15904M 15967M 15968M 15968B 16023  16025M 16027M 16077M
             16078M 16078B 16081  16083M 16085M 16106M 16109M 16118M 16135M 16135B 16139M 16139  16190M 16191M 16191B
             16208M 16209M 16209B 16238M 16239M 16239B 16255M 16256M 16256B 16279M 16280M 16280B 16313M 16313  16325M
             16326M 16326B 16329  16331M 16333M 16367M 16370B 16414  16416M 16418M 16421  16464M 16465M 16465B 16523M
             16524M 16524B 16565M 16566M 16566B 16574M 16575M 16575B 16598M 16599M 16599B 16632M 16633M 16633B 16658M
             16659M 16659B 16675M 16676M 16676B 16684M 16685M 16685B 16708M 16709M 16709B 16732M 16733M 16733B 16766M
             16769B 16838  16840M 16842M 16845  16892M 16893M 16893B 16898M 16899M 16899B 16913M 16914M 16914B 16933M
             16934M 16934B 16952M 16953M 16953B 16985M 16986M 16986B 17001M 17002M 17002B 17028M 17029M 17029B 17048M
             17049M 17049B 17067M 17068M 17068B 17100M 17101M 17101B 17116M 17117M 17117B 17144M 17145M 17145B 17162M
             17165B 17345  17347M 17349M 17352  17399M 17400M 17400B 17415M 17416M 17416B 17431M 17432M 17432B 17447M
             17448M 17448B 17463M 17464M 17464B 17479M 17480M 17480B 17495M 17496M 17496B 17511M 17512M 17512B 17527M
             17528M 17528B 17543M 17544M 17544B 17559M 17560M 17560B 17575M 17576M 17576B 17591M 17592M 17592B 17607M
             17608M 17608B 17623M 17624M 17624B 17639M 17640M 17640B 17655M 17656M 17656B 17671M 17672M 17672B 17687M
             17688M 17688B 17703M 17704M 17704B 17719M 17720M 17720B 17735M 17736M 17736B 17765M 17768B 17779  17781M
             17783M 17786  17845M 17848B 17899  17901M 17903M 17906  17942M 17943M 17943B 17960M 17961M 17961B 17993M
             17994M 17994B 18009M 18010M 18010B 18046M 18047M 18047B 18086M 18087M 18087B 18098M 18099M 18099B 18124M
             18125M 18125B 18150M 18151M 18151B 18172M 18173M 18173B 18183M 18184M 18184B 18198M 18199M 18199B 18225M
             18226M 18226B 18229M 18230M 18230B 18245M 18246M 18246B 18271M 18272M 18272B 18297M 18298M 18298B 18319M
             18320M 18320B 18338M 18339M 18339B 18365M 18366M 18366B 18379M 18380M 18380B 18385M 18386M 18386B 18417M
             18420B 18445  18447M 18449M 18452  18499M 18500M 18500B 18532M 18533M 18533B 18548M 18549M 18549B 18560M
             18561M 18561B 18603M 18604M 18604B 18619M 18620M 18620B 18629M 18630M 18630B 18670M 18673B 18695  18697M
             18699M 18702  18738M 18739M 18739B 18768M 18771B 18795  18797M 18799M 18802  18838M 18839M 18839B 18854M
             18855M 18855B 18862M 18863M 18863B 18892M 18895B 18914  18916M 18918M 18921  18968M 18969M 18969B 18974M
             18975M 18975B 19001M 19002M 19002B 19039M 19040M 19040B 19051M 19052M 19052B 19066M 19067M 19067B 19085M
             19086M 19086B 19118M 19119M 19119B 19150M 19153B 19175  19177M 19179M 19182  19229M 19230M 19230B 19235M
             19236M 19236B 19262M 19263M 19263B 19300M 19301M 19301B 19317M 19318M 19318B 19347M 19348M 19348B 19379M
             19382B 19404  19406M 19408M 19411  19458M 19459M 19459B 19464M 19465M 19465B 19491M 19492M 19492B 19529M
             19530M 19530B 19541M 19542M 19542B 19556M 19557M 19557B 19575M 19576M 19576B 19608M 19609M 19609B 19640M
             19643B 19665  19667M 19669M 19672  19719M 19720M 19720B 19725M 19726M 19726B 19752M 19753M 19753B 19790M
             19791M 19791B 19809M 19810M 19810B 19842M 19843M 19843B 19874M 19877B 19905  19907M 19909M 19912  19959M
             19960M 19960B 19965M 19966M 19966B 19992M 19993M 19993B 20030M 20031M 20031B 20067M 20068M 20068B 20090M
             20091M 20091B 20105M 20106M 20106B 20128M 20129M 20129B 20150M 20151M 20151B 20190M 20193B 20215  20217M
             20219M 20222  20269M 20270M 20270B 20275M 20276M 20276B 20302M 20303M 20303B 20340M 20341M 20341B 20352M
             20353M 20353B 20367M 20368M 20368B 20386M 20387M 20387B 20419M 20420M 20420B 20451M 20454B 20476  20478M
             20480M 20483  20530M 20531M 20531B 20536M 20537M 20537B 20563M 20564M 20564B 20597M 20598M 20598B 20612M
             20613M 20613B 20631M 20632M 20632B 20664M 20665M 20665B 20696M 20699B 20775  20777M 20779M 20782  20829M
             20830M 20830B 20835M 20836M 20836B 20862M 20863M 20863B 20900M 20901M 20901B 20912M 20913M 20913B 20927M
             20928M 20928B 20946M 20947M 20947B 20979M 20980M 20980B 21011M 21014B 21036  21038M 21040M 21043  21090M
             21091M 21091B 21096M 21097M 21097B 21123M 21124M 21124B 21161M 21162M 21162B 21180M 21181M 21181B 21213M
             21214M 21214B 21245M 21248B 21270  21272M 21274M 21277  21324M 21325M 21325B 21330M 21331M 21331B 21357M
             21358M 21358B 21395M 21396M 21396B 21414M 21415M 21415B 21448M 21449M 21449B 21480M 21483B 21529  21531M
             21533M 21536  21583M 21584M 21584B 21589M 21590M 21590B 21616M 21617M 21617B 21654M 21655M 21655B 21707M
             21710B 21734  21736M 21738M 21741  21788M 21789M 21789B 21794M 21795M 21795B 21821M 21822M 21822B 21859M
             21860M 21860B 21878M 21879M 21879B 21912M 21913M 21913B 21978M 21981B 22003  22005M 22007M 22010  22057M
             22058M 22058B 22063M 22064M 22064B 22090M 22091M 22091B 22124M 22125M 22125B 22140M 22141M 22141B 22159M
             22160M 22160B 22193M 22194M 22194B 22225M 22228B 22251  22253M 22255M 22258  22305M 22306M 22306B 22311M
             22312M 22312B 22338M 22339M 22339B 22372M 22373M 22373B 22388M 22389M 22389B 22407M 22408M 22408B 22441M
             22442M 22442B 22473M 22476B 22499  22501M 22503M 22506  22553M 22554M 22554B 22559M 22560M 22560B 22586M
             22587M 22587B 22620M 22621M 22621B 22636M 22637M 22637B 22655M 22656M 22656B 22689M 22690M 22690B 22721M
             22724B 22747  22749M 22751M 22754  22801M 22802M 22802B 22837M 22838M 22838B 22853M 22854M 22854B 22872M
             22873M 22873B 22906M 22907M 22907B 22938M 22941B 22988  22990M 22992M 22995  23040M 23041M 23041B 23048M
             23049M 23049B 23078M 23081B 23097  23099M 23101M 23104  23148M 23149M 23149B 23153M 23154M 23154B 23183M
             23186B 23227  23229M 23231M 23234  23295M 23296M 23296B 23311M 23312M 23312B 23429M 23430M 23430B 23466M
             23467M 23467B 23501M 23504B 23519  23521M 23523M 23526  23577M 23578M 23578B 23593M 23594M 23594B 23622M
1         General Purpose Register Cross Reference                                                                          Page  155
             23625B 23636  23638M 23640M 23643  23695M 23696M 23696B 23710M 23711M 23711B 23739M 23742B 23753  23755M
             23757M 23760  23806M 23807M 23807B 23822M 23823M 23823B 23851M 23854B 23902  23904M 23906M 23909  23994M
             23995M 23995B 24035M 24036M 24036B 24051M 24052M 24052B 24092M 24093M 24093B 24108M 24109M 24109B 24149M
             24150M 24150B 24164M 24165M 24165B 24168M 24169M 24169B 24190M 24191M 24191B 24213M 24216B 24231  24233M
             24235M 24238  24274M 24275M 24275B 24300M 24301M 24301B 24392M 24393M 24393B 24462M 24463M 24463B 24537M
             24538M 24538B 24552M 24553M 24553B 24627M 24628M 24628B 24642M 24643M 24643B 24669M 24672B 24694  24696M
             24698M 24701  24744M 24745M 24745B 24770M 24771M 24771B 24862M 24863M 24863B 24885M 24888B 24929  24931M
             24933M 24936  25009M 25010M 25010B 25054M 25055M 25055B 25069M 25070M 25070B 25214M 25217B 25242  25244M
             25246M 25249  25407M 25410B 25436  25438M 25440M 25443  25604M 25607B 25633  25635M 25637M 25640  25801M
             25804B 25830  25832M 25834M 25837  25998M 26001B 26019  26021M 26023M 26026  26117M 26120B 26146  26148M
             26150M 26153  26250M 26253B 26284  26286M 26288M 26291  26387M 26390B 26443  26445M 26447M 26450  26505M
             26506M 26506B 26696M 26699B 26723  26725M 26727M 26730  26762M 26763M 26763B 26781M 26784B 26801  26803M
             26805M 26808  26840M 26841M 26841B 26867M 26868M 26868B 26878M 26879M 26879B 26909M 26910M 26910B 27003M
             27006B 27021  27023M 27025M 27028  27105M 27108B 27124  27126M 27128M 27131  27266M 27269B 27292  27294M
             27296M 27299  27433M 27436B 27462  27464M 27466M 27469  27589M 27592B 27613  27615M 27617M 27620  27701
             27703M 27705M 27724M 27727B 27757B 27782  27842M 27843M 27843B 27856M 27862M 27863M 27863B 27892M 27895B
             27917  27919M 27921M 27924  27987M 27988M 27988B 27992M 27993M 27993B 28031M 28032M 28032B 28055M 28056M
             28056B 28079M 28080M 28080B 28092M 28093M 28093B 28125M 28126M 28126B 28150M 28151M 28151B 28199M 28200M
             28200B 28211M 28212M 28212B 28239M 28242B 28258  28260M 28262M 28265  28341M 28343M 28343B 28373M 28376B
             28403  28405M 28407M 28410  28535M 28536M 28536B 28552M 28553M 28553B 28576M 28577M 28577B 28616M 28617M
             28617B 28637M 28638M 28638B 28654M 28655M 28655B 28678M 28679M 28679B 28727M 28730B 28804  28806M 28808M
             28811  28860M 28861M 28861B 28879M 28880M 28880B 28897M 28900B 28911  28913M 28915M 28918  29017M 29020B
             29031  29033M 29035M 29038  29082M 29085B 29094B 29125  29127M 29129M 29132  29180M 29183B 29223B 29229
             29292M 29293B
    15(F)      941U  2231M  2231  13697  13698  13737M 13748M 13748  13754M 13797M 13808M 13808  13814M 13827M 13827
             13828M 13848M 13859M 13859  13865M 13877M 13877  13878M 13900M 13900  14015M 14031M 14042M 14042  14063M
             14063  14064M 14075  14076M 14077B 14079M 14155M 14156  14158  14163  14180M 14181  14183  14191  14208M
             14225M 14242M 14259M 14276M 14293M 14310M 14355M 14355  14376M 14377  14379  14387  14418M 14436M 14450M
             14528  14529M 14530B 14532M 14692  14693M 14694B 14696M 14909  14910M 14911B 14913M 14952M 14952  14953M
             14954  14957  14962  14963  14966  14970  15025M 15053  15054M 15055B 15057M 15069M 15087M 15104M 15122M
             15162M 15179M 15200M 15225  15226M 15227B 15229M 15238M 15256M 15273M 15302M 15320M 15337M 15354M 15430
             15431M 15432B 15434M 15508M 15508  15534  15535M 15536B 15538M 15562M 15562  15582  15583M 15584B 15586M
             15728M 15728  15778  15779M 15780B 15782M 15836  15837M 15838B 15840M 15859  15860M 15861B 15863M 15900
             15901M 15902B 15904M 15939M 15940  15941M 15943  15958M 15959  15962M 16023  16024M 16025B 16027M 16049M
             16050  16051M 16053  16068M 16069  16072M 16081  16082M 16083B 16085M 16097M 16097  16105M 16109M 16111M
             16163M 16163  16187M 16205M 16235M 16252M 16276M 16295M 16329  16330M 16331B 16333M 16369M 16369  16414
             16415M 16416B 16418M 16562M 16571M 16595M 16629M 16655M 16672M 16681M 16705M 16729M 16768M 16768  16838
             16839M 16840B 16842M 16878M 16879  16885M 16886M 16887  16930M 16949M 16982M 16998M 17045M 17064M 17097M
             17113M 17141M 17164M 17164  17345  17346M 17347B 17349M 17381  17396M 17412M 17428M 17444M 17460M 17476M
             17492M 17508M 17524M 17540M 17556M 17572M 17588M 17604M 17620M 17636M 17652M 17668M 17684M 17700M 17716M
             17732M 17747M 17767M 17767  17779  17780M 17781B 17783M 17815  17827M 17847M 17847  17899  17900M 17901B
             17903M 17935  17957M 17990M 18006M 18043M 18083M 18121M 18147M 18169M 18222M 18268M 18294M 18316M 18362M
             18399M 18419M 18419  18445  18446M 18447B 18449M 18481  18529M 18545M 18600M 18616M 18652M 18672M 18672
             18695  18696M 18697B 18699M 18731  18750M 18770M 18770  18795  18796M 18797B 18799M 18831  18851M 18874M
             18894M 18894  18914  18915M 18916B 18918M 18950  18998M 19036M 19048M 19063M 19082M 19115M 19132M 19152M
             19152  19175  19176M 19177B 19179M 19211  19259M 19297M 19314M 19319M 19329U 19342U 19344M 19361M 19381M
             19381  19404  19405M 19406B 19408M 19440  19488M 19526M 19538M 19553M 19572M 19605M 19622M 19642M 19642
             19665  19666M 19667B 19669M 19701  19749M 19787M 19806M 19839M 19856M 19876M 19876  19905  19906M 19907B
             19909M 19941  19989M 20027M 20064M 20087M 20102M 20125M 20147M 20172M 20192M 20192  20215  20216M 20217B
             20219M 20251  20299M 20337M 20349M 20364M 20383M 20416M 20433M 20453M 20453  20476  20477M 20478B 20480M
             20512  20560M 20594M 20609M 20628M 20661M 20678M 20698M 20698  20775  20776M 20777B 20779M 20811  20859M
             20897M 20909M 20924M 20943M 20976M 20993M 21013M 21013  21036  21037M 21038B 21040M 21072  21120M 21158M
             21177M 21210M 21227M 21247M 21247  21270  21271M 21272B 21274M 21306  21354M 21392M 21411M 21445M 21462M
             21482M 21482  21529  21530M 21531B 21533M 21565  21613M 21651M 21689M 21709M 21709  21734  21735M 21736B
             21738M 21770  21818M 21856M 21875M 21909M 21924M 21924  21960M 21980M 21980  22003  22004M 22005B 22007M
             22039  22087M 22121M 22137M 22156M 22190M 22207M 22227M 22227  22251  22252M 22253B 22255M 22287  22335M
             22369M 22385M 22404M 22438M 22455M 22475M 22475  22499  22500M 22501B 22503M 22535  22583M 22617M 22633M
             22652M 22686M 22703M 22723M 22723  22747  22748M 22749B 22751M 22783  22834M 22850M 22869M 22903M 22920M
             22940M 22940  22988  22989M 22990B 22992M 23024  23037M 23060M 23080M 23080  23097  23098M 23099B 23101M
1         General Purpose Register Cross Reference                                                                          Page  156
             23133  23145M 23165M 23185M 23185  23227  23228M 23229B 23231M 23426M 23503M 23503  23519  23520M 23521B
             23523M 23555  23574M 23590M 23604M 23624M 23624  23636  23637M 23638B 23640M 23672  23692M 23707M 23721M
             23741M 23741  23753  23754M 23755B 23757M 23789  23803M 23819M 23833M 23853M 23853  23902  23903M 23904B
             23906M 23991M 24048M 24105M 24161M 24187M 24215M 24215  24231  24232M 24233B 24235M 24297M 24389M 24459M
             24534M 24549M 24624M 24639M 24671M 24671  24694  24695M 24696B 24698M 24767M 24859M 24887M 24887  24929
             24930M 24931B 24933M 25216M 25216  25242  25243M 25244B 25246M 25356M 25356  25372M 25409M 25409  25436
             25437M 25438B 25440M 25553M 25553  25569M 25606M 25606  25633  25634M 25635B 25637M 25750M 25750  25766M
             25803M 25803  25830  25831M 25832B 25834M 25947M 25947  25963M 26000M 26000  26019  26020M 26021B 26023M
             26079M 26079  26095M 26119M 26119  26146  26147M 26148B 26150M 26212M 26212  26228M 26252M 26252  26284
             26285M 26286B 26288M 26349M 26349  26365M 26389M 26389  26443  26444M 26445B 26447M 26558M 26558  26655M
             26655  26671M 26698M 26698  26723  26724M 26725B 26727M 26783M 26783  26801  26802M 26803B 26805M 26864M
             26920M 26920  27005M 27005  27021  27022M 27023B 27025M 27107M 27107  27124  27125M 27126B 27128M 27268M
             27268  27292  27293M 27294B 27296M 27435M 27435  27462  27463M 27464B 27466M 27538M 27539  27540M 27542
             27557M 27558  27561M 27591M 27591  27613  27614M 27615B 27617M 27657M 27665M 27666  27667M 27668  27669M
             27670  27683M 27683  27701  27702M 27703B 27705M 27726M 27726  27744U 27764U 27810  27854M 27854  27855M
             27856B 27894M 27894  27917  27918M 27919B 27921M 27974M 28015M 28028M 28052M 28076M 28104M 28105  28107
             28115  28196M 28208M 28241M 28241  28258  28259M 28260B 28262M 28375M 28375  28403  28404M 28405B 28407M
             28439  28532M 28549M 28573M 28613M 28634M 28651M 28675M 28710M 28710  28729M 28729  28804  28805M 28806B
             28808M 28857M 28876M 28899M 28899  28911  28912M 28913B 28915M 29019M 29019  29031  29032M 29033B 29035M
             29084M 29084  29125  29126M 29127B 29129M 29163M 29163  29182M 29182  29200U 29222M 29222  29229  29236U
             29292M

1DBMAIN   Diagnostic Cross Reference and Assembler Summary                                                                  Page  157
-                                                                                            HLASM R4.0  2002/06/06 10.05
0Statements Flagged
0    19329(L2:USING,142), 24365(L2:USING,142), 24428(L2:USING,142), 24511(L2:USING,142), 24601(L2:USING,142),
     24835(L2:USING,142), 25387(L2:USING,142), 25584(L2:USING,142), 25781(L2:USING,142), 25978(L2:USING,142),
     26961(L2:USING,142)

      11 Statements Flagged in this Assembly        4 was Highest Severity Code
0HIGH LEVEL ASSEMBLER, 5696-234, RELEASE 4.0, PTF UQ57391
0SYSTEM: OS/390 02.10.00            JOBNAME: WIN#DBMA    STEPNAME: ASM        PROCSTEP: ASM
0Datasets Allocated for this Assembly
  Con DDname   Dataset Name                                 Volume  Member
   P1 SYSIN    SYS02157.T100539.RA000.WIN#DBMA.SYSIN.H01
   L1 SYSLIB   WYL.GA.MCL.WINGS.MACLIB                      STR211
   L2          WYL.GG.SYS.MACLIB                            STR210
   L3          SYS3.IS.MACLIB                               SYSA03
   L4          SYS3.MACLIB                                  SYSA03
   L5          SYS1.MACLIB                                  OS02AD
   L6          SYS1.MODGEN                                  OS02AD
   L7          SYS4.MACLIB                                  SYSA04
      SYSLIN   WYL.GA.MCL.WINGS.OBJECT                      STR203  DBMAIN
      SYSPRINT SYS02157.T100539.RA000.WIN#DBMA.PRINT.H01    SCR001
      SYSTERM  GA$MCL.WIN#DBMA.JOB01159.D0000102.?

    9452K allocated to Buffer Pool,         6918K would be required for this to be an In-Storage Assembly
    2958 Primary Input Records Read        35282 Library Records Read                  0 Work File Reads
       0 ASMAOPT Records Read              11112 Primary Print Records Written         0 Work File Writes
     383 Punch Records Written                 0 ADATA Records Written
0Assembly Start Time: 10.05.40 Stop Time: 10.05.45 Processor Time: 00.00.02.3216
 Return Code 004
