1         High Level Assembler Option Summary                   (PTF UQ57391)                                               Page    1
-                                                                                            HLASM R4.0  2002/06/06 10.06
0  No Overriding ASMAOPT Parameters
   Overriding Parameters-  TERM,RENT,NOXREF,NODXREF,LINECOUNT(32767),NORLD,USING(WARN(11))
   No Process Statements


   Options for this Assembly
0  NOADATA
     ALIGN
   NOASA
     BATCH
     CODEPAGE(047C)
   NOCOMPAT
   NODBCS
   NODECK
 3 NODXREF
     ESD
   NOEXIT
     FLAG(0,ALIGN,CONT,NOIMPLEN,NOPAGE0,PUSH,RECORD,NOSUBSTR,USING0)
   NOFOLD
   NOGOFF
   NOINFO
     LANGUAGE(EN)
   NOLIBMAC
 3   LINECOUNT(32767)
     LIST(121)
     MXREF(SOURCE)
     OBJECT
     OPTABLE(UNI,NOLIST)
   NOPCONTROL
   NOPESTOP
   NOPROFILE
   NORA2
 3   RENT
 3 NORLD
     RXREF
     SIZE(MAX)
     SYSPARM()
 3   TERM(WIDE)
   NOTEST
     THREAD
   NOTRANSLATE
 3   USING(NOLIMIT,MAP,WARN(11))
 3 NOXREF

   No Overriding DD Names

1DEBUG    External Symbol Dictionary                                                                                        Page    2
-Symbol   Type   Id     Address  Length     LD ID  Flags Alias-of                            HLASM R4.0  2002/06/06 10.06
0DEBUG     SD 00000001 00000000 00003810             00
 SHOWC     LD          00000018           00000001
 SHOWG     LD          000001F2           00000001
 SCINIT    ER 00000002
 SEGWR     ER 00000003
 SCAN      ER 00000004
 SEG       ER 00000005
 DISASMC   LD          00000436           00000001
 SHOWA     LD          00000522           00000001
 SHOWS     LD          00000608           00000001
 PATCHC    LD          000006B4           00000001
 SEGDC     ER 00000006
 SEGHX     ER 00000007
 SEGT      ER 00000008
 DEQSTR    ER 00000009
 HEXSTR    ER 0000000A
 PATCHG    LD          00000B08           00000001
 PATCHIA   LD          00000C24           00000001
 SETT      LD          00000D3A           00000001
 SHOWTS    LD          00000FE4           00000001
 CLEART    LD          000010F2           00000001
 CLEARTS   LD          000012AC           00000001
 SEGSYMAD  LD          0000135C           00000001
 SCTELL    ER 0000000B
 XTB       ER 0000000C
 DTB       ER 0000000D
 BTX       ER 0000000E
 SEGCOL    ER 0000000F
 FINDTRAP  LD          000033E8           00000001
 SYMDEBUG  LD          000037F8           00000001

1DEBUG    Debugging stuff                                                                                                   Page    3
0Loc    Object Code    Addr1 Addr2  Stmt Lv Lineno    Source Statement                    (Asmedit 3.3)  HLASM R4.0  2002/06/06 10.06
+___    ______ ____    _____ _____  ____ __ ______    ______ _________
0                                      2    00002000  ********************************************************************
                                       3    00003000  *** %%Module: wings asm debug;                                    *
                                       4    00004000  ********************************************************************
                                       5    00005000  ***                                                                *
                                       6    00006000  ***                                                                *
                                       7    00007000  ***  WINGS -- DEBUG stuff                                          *
                                       8    00008000  ***                                                                *
                                       9    00009000  ***    This module contains code to process debugging commands.    *
                                      10    00010000  ***    Current code in progress.                                   *
                                      11    00011000  ***                                                                *
                                      12    00012000  ***    Created, 11/28/90, CH                                       *
                                      13    00013000  ***                                                                *
                                      14    00014000  ***                                                                *
                                      15    00015000  ***  Modifications:                                                *
                                      16    00016000  ***    11/01/91  CH   Initial version.                             *
                                      17    00017000  ***                                                                *
                                      18    00018000  ***                                                                *
                                      19    00019000  ***                                                                *
                                      20    00020000  ********************************************************************
                                      21    00021000  DEBUG    HIBAL ASSOC=YES
                                    1005    00022000           REGS  FSR,,,,,,,BR,WAR,,,TVTR,(GVTR,LSR),SPR,RAR
                                    1115    00023000
                                    1116    00024000           SYSDEFN
                                    1117    00025000
 000000                00000 0003C  1118    00026000  SEGCB    RECORD 'SEGCB'
 000000 00                          1128  1 03-SEGCB +$$$SEGCB0   DS   0F
 SEGCBCOD.SEGCBSEG 01 EQ
 SEGCBCOD.SEGCBWR  02 EQ
 SEGCBCOD.SEGCBCLR 03 EQ
 SEGCBCOD.SEGCBSPP 04 EQ
 SEGCBCOD.SEGCBOVF 05 EQ
 SEGCBCOD.SEGCBCR  06 EQ
 SEGCBCOD.SEGCBMAR 07 EQ
 000001 00                          1203  1 03-SEGCB +           DC    X'00'               Reserved
 000002 0000                              1          +
 000004 00000000                    1204  1 03-SEGCB +SEGCBMAXF   DC   A(0)                Maximum buffer length
 000008 00000000                    1205  1 03-SEGCB +SEGCBMRKF   DC   A(0)                Length at last mark
 00000C 00000000                    1206  1 03-SEGCB +SEGCBLENF   DC   A(0)                Current length
 000010 00000000                    1207  1 03-SEGCB +SEGCBINDF   DC   A(0)                Overflow/indent count
 000014 00000000                    1208  1 03-SEGCB +SEGCBERR   DC    A(0)                Address of error recovery routine
 000018 0000000000000000            1209  1 03-SEGCB +           DC    2F'0'               Reserved
 000020 00000000                    1210  1 03-SEGCB +SEGCBLOC   DC    A(0)                Location of buffer
 000024 00000000                    1211  1 03-SEGCB +SEGCBRTN   DC    A(0)                Processing routine
 000028 0000000000000000            1212  1 03-SEGCB +           DC    4F'0'               Reserved
 000038 00000000       0003C 0003C  1213    03-SEGCB +SEGCBUSR DC    A(0)                USER field
                                    1223    00027000  *
 000000                00000 00008  1224    00028000  SUX      RECORD BEGIN              Seg User Extension (^SEGCBUSR)
 000000 00                          1232  1 00029000  SUXFLAG    FLAG
 SUXFLAG.SUXFNOSTA 80 ONES          1236  1 00030000             FLAG  SUXFNOSTAMP         - No timestamp
 000001                             1241  1 00031000  SUXCC      DS    C                   Next CC char to use
 000004                             1242  1 00032000  SUXDCBP    DS    A                   DCB ptr
 000008                00008 00008  1243    00033000           END
                                    1252    00034000  *
1DEBUG    Wings work areas                                                                                                  Page    4
0Loc    Object Code    Addr1 Addr2  Stmt Lv Lineno    Source Statement           (Hibal 5, Asmedit 3.3)  HLASM R4.0  2002/06/06 10.06
+___    ______ ____    _____ _____  ____ __ ______    ______ _________
0                                   1255    00037000           COPY  TPENTRY             TRAP ENTRY
                                    1256=   00001000 =¿þþþþþþþþþþþþþþþþþþþþþþþþþþþþþþþþþþþþþþþþþþþþþþþþþþþþþþþþþþþþþþþþþþþþþÜ
                                    1257=   00002000 =Ÿ                                                                     Ÿ
                                    1258=   00003000 =Ÿ  TRAP ENTRY                                                         Ÿ
                                    1259=   00004000 =Ÿ                                                                     Ÿ
                                    1260=   00005000 =Ÿ                                                                     Ÿ
                                    1261=   00006000 =Ÿ  NOTE:                                                              Ÿ
                                    1262=   00007000 =Ÿ  BECAUSE WE MAY BE DEBUGGING SHARED CODE (EXECUTED BY OTHER         Ÿ
                                    1263=   00008000 =Ÿ  SUBTASKS) WE NEVER DELETE TRAP ENTRIES.  WE MERELY MARK THEM       Ÿ
                                    1264=   00009000 =Ÿ  AS OFF.  WE ALLOW A TOTAL OF TPMAXCNT TRAPS.  CLEARED TRAPS        Ÿ
                                    1265=   00010000 =Ÿ  STILL COUNT.                                                       Ÿ
                                    1266=   00011000 =Ÿ                                                                     Ÿ
                                                      ¾þþþþþþþþþþþþþþþþþþþþþþþþþþþþþþþþþþþþþþþþþþþþþþþþþþþþþþþþþþþþþþþþþþþþþ»
0                                   1267    00012000 =TPMAXCNT EQU   128
                                    1268    00013000 =TRAPCODE EQU   X'00A9'             TRAP OPCODE, CAUSES 0C1
                                    1269    00014000 =
 000000                00000 00008  1270    00015000 =TPENTRY  RECORD BEGIN
 000000                             1278  1 00016000 =TPADDR     DS    F
 000004                             1279  1 00017000 =TPOPCODE   DS    H
 000006 00                          1280  1 00018000 =TPFLAG1    FLAG
 TPFLAG1.TPFOFF    80 ONES          1284  1 00019000 =           FLAG  TPFOFF              TRAP NOT ACTIVE
 000007 00                          1289  1 00020000 =TPFLAG2    FLAG
 000008                             1293  1 00021000 =TPNEXT     DS    0F
 000008                00008 00008  1294    00022000 =         END
1DEBUG    Wings work areas                                                                                                  Page    5
0Loc    Object Code    Addr1 Addr2  Stmt Lv Lineno    Source Statement           (Hibal 5, Asmedit 3.3)  HLASM R4.0  2002/06/06 10.06
+___    ______ ____    _____ _____  ____ __ ______    ______ _________
0                                   1304    00039000           COPY  DVWA                GLOBAL DEBUG AREA
                                    1305=   00001000 =¿þþþþþþþþþþþþþþþþþþþþþþþþþþþþþþþþþþþþþþþþþþþþþþþþþþþþþþþþþþþþþþþþþþþþþÜ
                                    1306=   00002000 =Ÿ                                                                     Ÿ
                                    1307=   00003000 =Ÿ  DVWA - debug work area                                             Ÿ
                                    1308=   00004000 =Ÿ                                                                     Ÿ
                                    1309=   00004500 =Ÿ  Revised 1994/06/06 mcl                                             Ÿ
                                    1310=   00005000 =Ÿ                                                                     Ÿ
                                    1311=   00006000 =Ÿ  notes:                                                             Ÿ
                                    1312=   00007000 =Ÿ  work area should be initialized to zero by monitor.                Ÿ
                                    1313=   00008000 =Ÿ  debugger and debuggee should re-initialize fields                  Ÿ
                                    1314=   00009000 =Ÿ  they control as is appropriate. (in case there has                 Ÿ
                                    1315=   00010000 =Ÿ  been previous debugging session, now cleared.)                     Ÿ
                                    1316=   00011000 =Ÿ                                                                     Ÿ
                                    1317=   00012000 =Ÿ  We must be careful about multi-processor environment.              Ÿ
                                    1318=   00013000 =Ÿ  Lock rules are complicated.  A simpler rules would                 Ÿ
                                    1319=   00014000 =Ÿ  be nice, but for now they are:                                     Ÿ
                                    1320=   00015000 =Ÿ                                                                     Ÿ
                                    1321=   00016000 =Ÿ  Simple rules are:                                                  Ÿ
                                    1322=   00017000 =Ÿ  DebuggER must obtain DBERTCBP lock (R).  Debugger can              Ÿ
                                    1323=   00018000 =Ÿ  change all fields that belong to debugger.  Debugger               Ÿ
                                    1324=   00019000 =Ÿ  can set DebuggEE at any time, unless DebuggEE is                   Ÿ
                                    1325=   00020000 =Ÿ  locked (E).  Debuggee can change any debuggEE fields               Ÿ
                                    1326=   00021000 =Ÿ  while it holds Debuggee lock (E).                                  Ÿ
                                    1327=   00022000 =Ÿ                                                                     Ÿ
                                    1328=   00023000 =Ÿ  A bit more complex is that if there is no debuggee,                Ÿ
                                    1329=   00024000 =Ÿ  any task can jump in and become the debuggee by setting            Ÿ
                                    1330=   00025000 =Ÿ  itself as the DVEETCBP and obtaining the debuggEE lock (E).        Ÿ
                                    1331=   00026000 =Ÿ                                                                     Ÿ
                                    1332=   00027000 =Ÿ  Also note that either Debugger/Debuggee can set the SYMBOL         Ÿ
                                    1333=   00028000 =Ÿ  Table pointer if it owns the respective lock, they should          Ÿ
                                    1334=   00029000 =Ÿ  be setting it to the same thing.  Also POST/WAIT stuff is          Ÿ
                                    1335=   00030000 =Ÿ  shared between Debugger/Debuggee in a obvious fashion.             Ÿ
                                    1336=   00031000 =Ÿ                                                                     Ÿ
                                    1337=   00032000 =Ÿ  notes:                                                             Ÿ
                                    1338=   00033000 =Ÿ    [cs] - compare and swap field                                    Ÿ
                                    1339=   00034000 =Ÿ    [cds] - compare and swap double fields                           Ÿ
                                    1340=   00035000 =Ÿ                                                                     Ÿ
                                    1341=   00036000 =Ÿ    R   - debuggeR lock                                              Ÿ
                                    1342=   00037000 =Ÿ          this lock may be obtained by any debuger [cs]              Ÿ
                                    1343=   00038000 =Ÿ    E   - debuggeE lock                                              Ÿ
                                    1344=   00039000 =Ÿ          this lock may be obtained only by debuggee [cds]           Ÿ
                                    1345=   00040000 =Ÿ    r   - may be set by debuger (owner of R)                         Ÿ
                                    1346=   00041000 =Ÿ    e   - may be set by debugee (owner of E)                         Ÿ
                                    1347=   00042000 =Ÿ  x r   - may be set by debugger (owner of R); also if               Ÿ
                                    1348=   00043000 =Ÿ          no debugger/debuggee it may be set by any subtask          Ÿ
                                    1349=   00044000 =Ÿ          needing to be debugged                                     Ÿ
                                    1350=   00045000 =Ÿ                                                                     Ÿ
                                                      ¾þþþþþþþþþþþþþþþþþþþþþþþþþþþþþþþþþþþþþþþþþþþþþþþþþþþþþþþþþþþþþþþþþþþþþ»
0000000                00000 00434  1351    00046000 =DVWA     RECORD BEGIN
 000000                             1359  1 00047000 =DVERTCBP   DS    F                 R CURRENT DEBUGGER TCB PTR  [cs]
 000004                             1360  1 00048000 =DVERTVTP   DS    A                   Current debuggee TVT PTR
 000008                             1361  1 00049000 =DSALIGN    DS    0D                  ALIGN ON DWORD FOR CDS
 000008                             1362  1 00050000 =DVEETCBP   DS    F               x r CURRENT DEBUGGEE TCB PTR  [cds]
 00000C                             1363  1 00051000 =DVEEACTV   DS    F                 E DEBUGEE ACTIVE (TCB PTR)  [cds !]
 000010                             1364  1 00052000 =DVERECB    DS    F               r,e POST BY DEBUGGEE, POST TO BREAK
1DEBUG    Wings work areas                                                                                                  Page    6
0Loc    Object Code    Addr1 Addr2  Stmt Lv Lineno    Source Statement           (Hibal 5, Asmedit 3.3)  HLASM R4.0  2002/06/06 10.06
+___    ______ ____    _____ _____  ____ __ ______    ______ _________
0000014                             1365  1 00053000 =DVEEECB    DS    F               r,e POST BY DEBUGGER, POST BREAK DONE
 000018 00                          1366  1 00054000 =DVFLAGS    FLAG  ,
 DVFLAGS.DVFNEWIA  80 ONES          1370  1 00055000 =           FLAG  DVFNEWIA          r NEW IA SET WITH PIA INSTRUCTION
 DVFLAGS.DVFIRUPT  40 ONES          1375  1 00056000 =           FLAG  DVFIRUPT          e INTERRUPT, NOT TRAP
 00001C                             1380  1 00057000 =DVEPIEP    DS    F                 e EPIE PTR
 000020                             1381  1 00058000 =DVSYMP     DS    F               r,e SYMBOL TABLE PTR
                                    1382  1 00059000 =*                                r TRAP AREA (next line)
 000024                             1383  1 00060000 =DVTRAPS    DS    XL(L'TPENTRY*(TPMAXCNT+2))
 000434                00434 00434  1384    00061000 =         END
1DEBUG    Wings work areas                                                                                                  Page    7
0Loc    Object Code    Addr1 Addr2  Stmt Lv Lineno    Source Statement           (Hibal 5, Asmedit 3.3)  HLASM R4.0  2002/06/06 10.06
+___    ______ ____    _____ _____  ____ __ ______    ______ _________
0                                   1394    00041000           COPY  LCLDBWA             LOCAL (ESPIE) DEBUG AREA
                                    1395=   00001000 =¿þþþþþþþþþþþþþþþþþþþþþþþþþþþþþþþþþþþþþþþþþþþþþþþþþþþþþþþþþþþþþþþþþþþþþÜ
                                    1396=   00002000 =Ÿ                                                                     Ÿ
                                    1397=   00003000 =Ÿ  LCLDBWA - local work area for espie routine                        Ÿ
                                    1398=   00004000 =Ÿ                                                                     Ÿ
                                    1399=   00005000 =Ÿ                                                                     Ÿ
                                    1400=   00006000 =Ÿ  NOTE: LDBBKPP may not be set, BKWA may need to be loaded           Ÿ
                                    1401=   00007000 =Ÿ      in another (global) manner. Work in progress.                  Ÿ
                                    1402=   00008000 =Ÿ                                                                     Ÿ
                                                      ¾þþþþþþþþþþþþþþþþþþþþþþþþþþþþþþþþþþþþþþþþþþþþþþþþþþþþþþþþþþþþþþþþþþþþþ»
0000000                00000 00168  1403    00009000 =LCLDBWA  RECORD BEGIN
 000000                             1411  1 00010000 =LDBTCBP    DS    F                   TCB ADDRESS
 000004                             1412  1 00011000 =LDBEPIEP   DS    F                   EPIE PTR
 000008                             1413  1 00012000 =LDBDVWAP   DS    F                   GLOBAL DEBUG WORK AREA PTR
 00000C                             1414  1 00012100 =LDBSYMP    DS    F                   SYMBOL TABLE POINTER
 000010 00                          1415  1 00012200 =LDBFLAGS   FLAG  ,
 LDBFLAGS.LDBFNEWI 80 ONES          1419  1 00012300 =           FLAG  LDBFNEWIA           NEW INSTRUCTION ADDRESS
 000014                             1424  1 00012400 =           DS    0F                  ALIGNMENT
 000014                             1425  1 00013000 =LDBINST1   DS    XL6                 INSTR EXECUTION AREA1 (CURR)
 00001A                             1426  1 00014000 =LDBINST2   DS    XL6                 INSTR EXECUTION AREA2 (CONT)
 000020                             1427  1 00015000 =LDBCURR    DS    A                   CURRENT INSTR ADDR (AS IN PIE)
 000024                             1428  1 00016000 =LDBNEXT    DS    A                   NEXT INSTR (AS TO CONTINUE)
 000028                             1429  1 00017000 =LDBSREGS   DS    16F                 SAVE REGS (0-15)
 000068                             1430  1 00018000 =LDBSTACK   DS    XL256               SPIE STACK AREA (SMALL)
 000168                00168 00168  1431    00019000 =         END
                                    1440    00042000  *
 000000                00000 03810  1441    00043000           PUSH  DSECTS              Common DSECTS
                                    1941    00052000
                                    1942    00053000           COPY  SYMTAB
                                    1943=   00001000 =¿þþþþþþþþþþþþþþþþþþþþþþþþþþþþþþþþþþþþþþþþþþþþþþþþþþþþþþþþþþþþþþþþþþþþþÜ
                                    1944=   00001010 =Ÿ                                                                     Ÿ
                                    1945=   00001020 =Ÿ   Define format of dynamic symbol table                             Ÿ
                                    1946=   00001030 =Ÿ                                                                     Ÿ
                                                      ¾þþþþþþþþþþþþþþþþþþþþþþþþþþþþþþþþþþþþþþþþþþþþþþþþþþþþþþþþþþþþþþþþþþþþþ»
-000000                00000 00014  1948    00001100 =SYMENTRY RECORD BEGIN
 000000 00000000                    1956  1 00008000 =SYMNEXT    DC    A(0)                Pointer to next symbol or (null)
 000004 D5C1D4C540404040            1957  1 00009000 =SYMNAME    DC    CL8'NAME'           Symbol name (ebcdic)
 00000C 00000000                    1958  1 00010000 =SYMLOC     DC    A(0)                Symbol starting location
 000010 00000000                    1959  1 00011000 =SYMLEN     DC    A(0)                Symbol length
 000014                00014 00014  1960    00013000 =         END
                                    1969    00054000  *
 000000                00000 00054  1970    00055000  EPIE     RECORD BEGIN
 000000                             1978  1 00056000  EPIEID     DS    F                   'EPIE' ID
 000004                             1979  1 00057000  EPIEPARM   DS    F                   USER SUPPLIED PARM LIST
 000008                             1980  1 00058000  EPIEREGS   DS    16F                 USER REGESTERS AT INTERRUPTION
 000048                             1981  1 00059000  EPIEPSW    DS    2F                  USER PSW AT INTERRUPTION
                                    1982  1 00060000  EPIECC     EQU   EPIEPSW+1,1         PSW CC
                                    1983  1 00061000  EPIEIA     EQU   EPIEPSW+4,4         PSW INSTRUCTION ADDRESS
 000050                             1984  1 00062000  EPIEILC    DS    H                   INSTRUCTION LENGTH CODE
 000052                             1985  1 00063000  EPIEIC     DS    H                   INTERRUPTION CODE
                                    1986  1 00064000  * FOLLOWED BY RESERVED FIELDS.
 000054                00054 00054  1987    00065000           END
                                    1996    00066000  *
1DEBUG    Wings work areas                                                                                                  Page    8
0Current Usings:  (GVT,R12)
0Loc    Object Code    Addr1 Addr2  Stmt Lv Lineno    Source Statement           (Hibal 5, Asmedit 3.3)  HLASM R4.0  2002/06/06 10.06
+___    ______ ____    _____ _____  ____ __ ______    ______ _________
0USING  GVT,R12                     1997    00067000           USING GVT                 Universal assumption
 USING  TVT,R11                     2006    00068000           USING TVT                 Universal assumption
                                    2015    00069000
1DEBUG    Local Macros                                                                                                      Page    9
0Current Usings:  (TVT,R11) (GVT,R12)
0Loc    Object Code    Addr1 Addr2  Stmt Lv Lineno    Source Statement           (Hibal 5, Asmedit 3.3)  HLASM R4.0  2002/06/06 10.06
+___    ______ ____    _____ _____  ____ __ ______    ______ _________
0
0                                   2018    00072000           ¿þþþþþþþþþþþþþþþþþþþþþþþþþþþþþþþþþþþþþþþþþþþþþþþþþþþþÜ
                                    2019    00073000           Ÿ  INSTR MACRO,  CREATES ENTRY IN INSTRUCTION TABLE  Ÿ
                                    2020    00074000           ¾þþþþþþþþþþþþþþþþþþþþþþþþþþþþþþþþþþþþþþþþþþþþþþþþþþþþ»
                                    2021    00075000           MACRO
                                    2022    00076000  &L       INSTR &NAME,&TYPE,&OPCD
                                    2023    00077000  &L       DC    XL1'&OPCD',AL1(L'I&TYPE),CL6'&NAME'
                                    2024    00078000           MEND
                                    2025    00079000  *
                                    2026    00080000  *
 000000                00000 00008  2027    00081000  IRECORD  RECORD BEGIN             INSTRUCTION TABLE ENTRY
 000000                             2035  1 00082000  IOPCD      DS    X
 000001 00                          2036  1 00083000  ITYPE      FLAG  ,
 ITYPE.IRR         80 ONES          2040  1 00084000             FLAG  IRR                RR INSTRUCTION
 ITYPE.IRX         40 ONES          2045  1 00085000             FLAG  IRX                RX INSTRUCTION
 ITYPE.IRS         20 ONES          2050  1 00086000             FLAG  IRS                RS INSTRUCTION
 ITYPE.ISI         10 ONES          2055  1 00087000             FLAG  ISI                SI INSTRUCTION
 ITYPE.ISS         08 ONES          2060  1 00088000             FLAG  ISS                SS INSTRUCTION
 ITYPE.IBCR        04 ONES          2065  1 00089000             FLAG  IBCR               BCR INSTRUCTION
 ITYPE.IBC         02 ONES          2070  1 00090000             FLAG  IBC                BC INSTRUCTION
 ITYPE.IOTHER      01 ONES          2075  1 00091000             FLAG  IOTHER             OTHER INSTRUCTION
 000002                             2080  1 00092000  INAME      DS    CL6                NAME OF INSTRUCTION
                                    2081  1 00093000  INEXT      EQU   *
 000008                00008 00008  2082    00094000           END
                                    2091    00095000  *
                                    2092    00096000  *
                                    2093    00097000           MACRO
                                    2094    00098000  &L       SETIA &RX,&PSW
                                    2095    00099000           N     &RX,=X'7FFFFFFF'
                                    2096    00100000           NC    &PSW+4(4),=X'80000000'
                                    2097    00101000           O     &RX,&PSW+4
                                    2098    00102000           ST    &RX,&PSW+4
                                    2099    00103000           MEND
                                    2100    00104000  *
                                    2101    00105000  *
                                    2102    00106000           MACRO
                                    2103    00107000  &L       SYMNEXT &R1,&R2
                                    2104    00108000  &L       L     &R1,SYMNEXT-SYMENTRY(&R2)
                                    2105    00109000           MEND
                                    2106    00110000
                                    2107    00111000           MACRO
                                    2108    00112000  &L       SYMNAME &R1,&R2
                                    2109    00113000  &L       LA    &R1,SYMNAME-SYMENTRY(&R2)
                                    2110    00114000           MEND
                                    2111    00115000
                                    2112    00116000           MACRO
                                    2113    00117000  &L       SYMADDR &R1,&R2
                                    2114    00118000  &L       L     &R1,SYMLOC-SYMENTRY(&R2)
                                    2115    00119000           MEND
                                    2116    00120000
                                    2117    00121000           MACRO
                                    2118    00122000  &L       SYMLEN  &R1,&R2
                                    2119    00123000  &L       L     &R1,SYMLEN-SYMENTRY(&R2)
1DEBUG    Local Macros                                                                                                      Page   10
0Current Usings:  (TVT,R11) (GVT,R12)
0Loc    Object Code    Addr1 Addr2  Stmt Lv Lineno    Source Statement           (Hibal 5, Asmedit 3.3)  HLASM R4.0  2002/06/06 10.06
+___    ______ ____    _____ _____  ____ __ ______    ______ _________
0                                   2120    00124000           MEND
                                    2121    00125000
                                    2122    00126000           MACRO
                                    2123    00127000  &L       SCANSTOP &DUMMY
                                    2124    00128000  &L       CLEAR DBSCNLEN
                                    2125    00129000           MEND
                                    2126    00130000  *
                                    2127    00131000  * ADJUSTMENT FOR OLD SCANNER, IT SCANS PAST 1 TRAILING BLANK
                                    2128    00132000  *
                                    2129    00133000           MACRO
                                    2130    00134000  &L       SCNR1FIX &DUMMY
                                    2131    00135000  *        BCTR  R1,0                OLD SCANNER
                                    2132    00136000  &L       BALR  0,0                 NEW SCANNER
                                    2133    00137000           MEND
1DEBUG    Local Macros                                                                                                      Page   11
0Current Usings:  (TVT,R11) (GVT,R12)
0Loc    Object Code    Addr1 Addr2  Stmt Lv Lineno    Source Statement           (Hibal 5, Asmedit 3.3)  HLASM R4.0  2002/06/06 10.06
+___    ______ ____    _____ _____  ____ __ ______    ______ _________
0                                   2135    00139000  *
                                    2136    00140000  *  2 macros to push and pop SCANNER state as expected
                                    2137    00141000  *  by monitors version of the scanner.  We must push
                                    2138    00142000  *  the return address and the scancb pointer (r15).
                                    2139    00143000  *  we do not normally push the loc,len... as we want
                                    2140    00144000  *  that part to continue to increment as stuff is
                                    2141    00145000  *  scanned off.  essentially we just want to be able
                                    2142    00146000  *  to continue a scan in a scan routine.  so ...
                                    2143    00147000  *
                                    2144    00148000  *  NOTE: ARGS TO SCPUSH, SCPOP ARE IGNORED.
                                    2145    00149000  *
                                    2146    00150000  *  NOTE, CAUTION !! AHHHGG !!::
                                    2147    00151000  *  IT IS TRUE THOUGH I CAN NOT BELIEVE IT !!
                                    2148    00152000  *  R15 MUST BE SET TO SCANCB POINTER FOR A ROUTINE
                                    2149    00153000  *  TO RETURN TO THE SCANNER! YUCK.  IT IS PUSHED
                                    2150    00154000  *  AND POPPED BY SCPUSH,SCPOP !!
                                    2151    00155000  *
                                    2152    00156000  *  ** FREE REGISTER R15 **
                                    2153    00157000  *
                                    2154    00158000  *  OPPRESSIVE USAGE BY ORVYL SCANNER IS TERRIBLE.
                                    2155    00159000  *
                                    2156    00160000  *
                                    2157    00161000           MACRO
                                    2158    00162000  &L       SCPUSH &M,&N
                                    2159    00163000  &L       ST    R15,@R13
                                    2160    00164000           MVC   @R13+4(4),DBSCNRA
                                    2161    00165000           LA    R13,8(R13)
                                    2162    00166000           MEND
                                    2163    00167000  *
                                    2164    00168000  *
                                    2165    00169000           MACRO
                                    2166    00170000  &L       SCPOP &M,&N
                                    2167    00171000           S     R13,=A(8)
                                    2168    00172000           L     R15,@R13
                                    2169    00173000           MVC   DBSCNRA,@R13+4
                                    2170    00174000           MEND
                                    2171    00175000
1DEBUG    DEBUG stuff                                                                                                       Page   12
0Current Usings:  (TVT,R11) (GVT,R12)
0Loc    Object Code    Addr1 Addr2  Stmt Lv Lineno    Source Statement           (Hibal 5, Asmedit 3.3)  HLASM R4.0  2002/06/06 10.06
+___    ______ ____    _____ _____  ____ __ ______    ______ _________
0000000                00000 03810  2173    00177000  DEBUG    CSECT
 000000                             2175    00178000           DC    C'DEBUG (&SYSDATE) (&SYSTIME)'
 000000 C4C5C2E4C7404DF0                             +
                                    2176    00179000  *
                                    2177    00180000  *  VARIOUS DEBUG WORK AREAS
                                    2178    00181000  *
 000000                00000 00040  2179    00182000  DBWA     RECORD BEGIN
 000000                             2187  1 00183000  DBCMDLOC   DS    A
 000004                             2188  1 00184000  DBCMDLEN   DS    F
 000008                             2189  1 00185000  DBSEGCB    DS    A
 00000C                             2190  1 00186000  DBSYMS     DS    A
 000010                             2191  1 00187000  DBREGS     DS    A
 000014                             2192  1 00188000  DBCURADR   DS    A
 000018                             2193  1 00189000  DBDVWAP    DS    A
 00001C 00                          2194  1 00190000  DBFLAGS    FLAG  ,
 DBFLAGS.DBFSCNERR 80 ONES          2198  1 00191000             FLAG  DBFSCNERR
 DBFLAGS.DBFASCII  40 ONES          2203  1 00192000             FLAG  DBFASCII
                                    2208  1 00193000
                                    2209  1 00194000             SCANCB PFX=DBSCN
 000020                             2210  1 01-SCANC +DBSCNCB    DS    0F
 000020                             2211  1 01-SCANC +DBSCNVAL   DS    A                       Value returned
 000024                             2212  1 01-SCANC +DBSCNKW    DS    CL8                     Current key word
 00002C                             2213  1 01-SCANC +DBSCNLEN   DS    A                       Length left to scan
 000030                             2214  1 01-SCANC +DBSCNLOC   DS    A                       Next thing to scan
 000034                             2215  1 01-SCANC +DBSCNRA    DS    A                       Return address
 000038                             2216  1 01-SCANC +DBSCNPRT   DS    A                       Routing table address
 00003C                             2217  1 01-SCANC +DBSCNCLT   DS    A                       Scan type
                                    2218  1          +*                                          0 = Normal scan
                                    2219  1          +*                                          4 = Expression isolation
                                    2220  1          +*                                          8 = Expression scan
                                    2221  1 01-SCANC +DBSCNCBL   EQU *-DBSCNCB
 000040                00040 00040  2222    00195000           END
                                    2231    00196000  *
                                    2232    00197000           SEGDEF L:DBSEGCB
                                    2233    00198000
1DEBUG    SC - show core                                                                                                    Page   13
0Current Usings:  (TVT,R11) (GVT,R12)
0Loc    Object Code    Addr1 Addr2  Stmt Lv Lineno    Source Statement           (Hibal 5, Asmedit 3.3)  HLASM R4.0  2002/06/06 10.06
+___    ______ ____    _____ _____  ____ __ ______    ______ _________
0                                   2235    00200000  ¿þþþþþþþþþþþþþþþþþþþþþþþþþþþþþþþþþþþþþþþþþþþþþþþþþþþþþþþþþþþþþþþþþþþþþÜ
                                    2236    00201000  Ÿ                                                                     Ÿ
                                    2237    00202000  Ÿ                                                                     Ÿ
                                    2238    00203000  Ÿ  SC - show core                                                     Ÿ
                                    2239    00204000  Ÿ                                                                     Ÿ
                                    2240    00205000  Ÿ  R1,R0 - command loc, len  (part after pc)                          Ÿ
                                    2241    00206000  Ÿ  R15 - SEGCB                                                        Ÿ
                                    2242    00207000  Ÿ  R2 - symbol table pointer (zero if none)                           Ÿ
                                    2243    00208000  Ÿ  R3 - register area (zero if none)                                  Ÿ
                                    2244    00209000  Ÿ  R4 - current address '*' (zero if none)                            Ÿ
                                    2245    00210000  Ÿ                                                                     Ÿ
                                    2246    00211000  Ÿ                                                                     Ÿ
                                    2247    00212000  Ÿ                                                                     Ÿ
                                                      ¾þþþþþþþþþþþþþþþþþþþþþþþþþþþþþþþþþþþþþþþþþþþþþþþþþþþþþþþþþþþþþþþþþþþþþ»
0000018 90DF B0D4            000D4  2248    00213000  SHOWC    XPROC DBWA
 00001C 58F0 C014/0DEF       00014  2261             +
 000022 E2C8D6E6C3404040            2263             +
 00002A 98DF B0D4            000D4  2264             +
 00002E 50E0 D000            00000  2267             +
 000032 900C D004/188D       00004  2270             +
 000038 41D0 D078/0D70       00078  2273             +
 00003E 4160 8038            00000  2305    00214000           LA    R6,DBWA
 USING  *,R7
 USING  DBWA-(4+52),R8
 USING  DBWA,R6                     2306    00215000           USING DBWA,R6
                                    2315    00216000
 000042                             2316    00217000           CLEAR DBWA
 000042 D73F 6000 6000 00000 00000  2322             +
 000048 5010 6000            00000  2323    00218000           ST    R1,DBCMDLOC
 00004C 5000 6004            00004  2324    00219000           ST    R0,DBCMDLEN
 000050 50F0 6008            00008  2325    00220000           ST    R15,DBSEGCB
 000054 5020 600C            0000C  2326    00221000           ST    R2,DBSYMS
 000058 5030 6010            00010  2327    00222000           ST    R3,DBREGS
 00005C 5040 6014            00014  2328    00223000           ST    R4,DBCURADR
 000060 41F0 6020            00020  2329    00224000           SCINIT (R1),(R0),DBSCNCB
 000064 58E0 7332/0DEE       00370  2347             +
                                    2349    00225000
 00006A 58E0 7336/0DEE       00374  2350    00226000           ACALL EVALXPRN           EVALUATE ADDRESS EXPRESSION
 000070 59F0 733A            00378  2354    00227000           IF    (R15,EQ,4),BEGIN
 000074 4770 7050            0008E  2366             +
 000078 4110 7382            003C0  2371  1 00228000             SEGWR 'Missing address expression.'
 00007C 4100 001B            0001B  2376  1          +
 000080 58F0 6008            00008  2382  1          +
 000084 58E0 733E/0DEE       0037C  2385  1          +
 00008A 47F0 70EA            00128  2387  1 00229000             B     SCEXIT
 00008E                             2388    00230000           END
 00008E 59F0 7342            00380  2392    00231000           IF    (R15,EQ,8),BEGIN
 000092 4770 706E            000AC  2404             +
 000096 4110 739D            003DB  2409  1 00232000             SEGWR 'Invalid address expression.'
 00009A 4100 001B            0001B  2414  1          +
 00009E 58F0 6008            00008  2420  1          +
 0000A2 58E0 733E/0DEE       0037C  2423  1          +
 0000A8 47F0 70EA            00128  2425  1 00233000             B     SCEXIT
1DEBUG    SC - show core                                                                                                    Page   14
0Current Usings:  (DBWA,R6) (*,R7) (DBWA-(4+52),R8) (TVT,R11) (GVT,R12)
0Loc    Object Code    Addr1 Addr2  Stmt Lv Lineno    Source Statement           (Hibal 5, Asmedit 3.3)  HLASM R4.0  2002/06/06 10.06
+___    ______ ____    _____ _____  ____ __ ______    ______ _________
00000AC                             2426    00234000           END
 0000AC 1821                        2430    00235000           LR    R2,R1              R2 - ADDR TO START SHOWING
 0000AE 1841                        2431    00236000           LR    R4,R1              R4 - ADDR TO START SHOWING
                                    2432    00237000
 0000B0 58E0 7336/0DEE       00374  2433    00238000           ACALL EVALXPRN           EVALUATE LENGTH EXPRESSION
 0000B6 59F0 733A            00378  2437    00239000           IF    (R15,EQ,4),' LA R1,64 '     DEFAULT LENGTH IS 64
 0000BA 4770 7084            000C2  2449             +
 0000BE 4110 0040            00040  2455             +
 0000C2 59F0 7342            00380  2460    00240000           IF    (R15,EQ,8),BEGIN
 0000C6 4770 70A2            000E0  2472             +
 0000CA 4110 735E            0039C  2477  1 00241000             SEGWR 'Invalid length expression.'
 0000CE 4100 001A            0001A  2482  1          +
 0000D2 58F0 6008            00008  2488  1          +
 0000D6 58E0 733E/0DEE       0037C  2491  1          +
 0000DC 47F0 70EA            00128  2493  1 00242000             B     SCEXIT
 0000E0                             2494    00243000           END
 0000E0 1831                        2498    00244000           LR    R3,R1              R3 - LENGTH TO DISPLAY
                                    2499    00245000  *
                                    2500    00246000  *                                  SCAN OPTIONS ..
 0000E2 4110 70F8            00136  2501    00247000           SCAN  SCPRT,DBSCNCB
 0000E6 41F0 6020            00020  2515             +
 0000EA 58E0 7346/0DEE       00384  2518             +
 0000F0 47B0 70D6            00114  2520    00248000           IF    NEG,BEGIN
 0000F4 58F0 6008            00008  2531  1 00249000             SEG   (R1),(R0)
 0000F8 58E0 734A/0DEE       00388  2550  1          +
 0000FE 4110 7378            003B6  2552  1 00250000             SEGWR ': invalid.'
 000102 4100 000A            0000A  2557  1          +
 000106 58F0 6008            00008  2563  1          +
 00010A 58E0 733E/0DEE       0037C  2566  1          +
 000110 47F0 70EA            00128  2568  1 00251000             B     SCEXIT
 000114                             2569    00252000           END
 000114 9180 601C      0001C        2573    00253000           IF    DBFSCNERR,SCEXIT
 000118 4710 70EA            00128  2585             +
                                    2591    00254000
 00011C 1812                        2592    00255000           LR    R1,R2              NOW R1,R0 - ADDR, LEN TO SHOW
 00011E 1803                        2593    00256000           LR    R0,R3                    R15 - ADDR TO PRINT
 000120 18F2                        2594    00257000           LR    R15,R2
 000122 58E0 734E/0DEE       0038C  2595    00258000           ACALL DISPCORE           DISPLAY MEMORY
                                    2599    00259000
 000128                             2600    00260000  SCEXIT   LABEL ,
 000128 18D8/980C D004       00004  2602    00261000           PEND
 DROP   DBWA-(4+52),R8
 DROP   *,R7
 00012E 58E0 D000/12FF       00000  2623             +
 000134 07FE                        2626             +
-
-                                   2628    00263000           ¿þþþþþþþþþþþþþþþþþþþþþþþþþþþÜ
                                    2629    00264000           Ÿ  SHOW CORE PRINT OPTIONS  Ÿ
                                    2630    00265000           ¾þþþþþþþþþþþþþþþþþþþþþþþþþþþ»
 000136                             2631    00266000  SCPRT    LABEL ,
1DEBUG    SC - show core                                                                                                    Page   15
0Current Usings:  (DBWA,R6) (TVT,R11) (GVT,R12)
0Loc    Object Code    Addr1 Addr2  Stmt Lv Lineno    Source Statement           (Hibal 5, Asmedit 3.3)  HLASM R4.0  2002/06/06 10.06
+___    ______ ____    _____ _____  ____ __ ______    ______ _________
0000136                             2633    00267000           SCKW  ASCII,SCASCII,A
 000136 0C000144C1E2C3C9            2634             +
 00013F FF00017C                    2635    00268000           SCKW  ,INVALID
                                    2637    00269000
 000144 90DF B0D4            000D4  2638    00270000  SCASCII  PROC
 000148 58F0 C014/0DEF       00014  2648             +
 00014E E2C3C1E2C3C9C940            2650             +
 000156 98DF B0D4            000D4  2651             +
 00015A 50E0 D000            00000  2654             +
 00015E 900C D004/188D       00004  2657             +
 000164 41D0 D038/0D70       00038  2659             +
 00016A 9640 601C      0001C        2682    00271000           SET   DBFASCII            Set ASCII translate flag
 USING  *,R7
 00016E 18D8/980C D004       00004  2688    00272000           PEND
 DROP   *,R7
 000174 58E0 D000/12FF       00000  2704             +
 00017A 07FE                        2707             +
                                    2708    00273000
 00017C 90DF B0D4            000D4  2709    00274000  INVALID  PROC
 000180 58F0 C014/0DEF       00014  2719             +
 000186 C9D5E5C1D3C9C440            2721             +
 00018E 98DF B0D4            000D4  2722             +
 000192 50E0 D000            00000  2725             +
 000196 900C D004/188D       00004  2728             +
 00019C 41D0 D038/0D70       00038  2730             +
 0001A2 50F0 D000            00000  2753    00275000           SCPUSH
 USING  *,R7
 0001A6 D203 D004 6034 00004 00034  2755             +
 0001AC 41DD 0008            00008  2756             +
 0001B0 58F0 6008            00008  2757    00276000           SEG   (R1),(R0)
 0001B4 58E0 71E6/0DEE       00388  2776             +
 0001BA 4110 7214            003B6  2778    00277000           SEGWR ': invalid.'
 0001BE 4100 000A            0000A  2783             +
 0001C2 58F0 6008            00008  2789             +
 0001C6 58E0 71DA/0DEE       0037C  2792             +
 0001CC                             2794    00278000           SCANSTOP                  clear scan len, ie. terminate scan
 0001CC D703 602C 602C 0002C 0002C  2801             +
 0001D2 9680 601C      0001C        2802    00279000           SET   DBFSCNERR
 0001D6 5BD0 71DE            00380  2808    00280000           SCPOP
 0001DA 58F0 D000            00000  2810             +
 0001DE D203 6034 D004 00034 00004  2811             +
 0001E4 18D8/980C D004       00004  2812    00281000           PEND
 DROP   *,R7
 0001EA 58E0 D000/12FF       00000  2828             +
 0001F0 07FE                        2831             +
 DROP   DBWA,R6                     2832    00282000           DROP  R6
1DEBUG    SG - show registers                                                                                               Page   16
0Current Usings:  (TVT,R11) (GVT,R12)
0Loc    Object Code    Addr1 Addr2  Stmt Lv Lineno    Source Statement           (Hibal 5, Asmedit 3.3)  HLASM R4.0  2002/06/06 10.06
+___    ______ ____    _____ _____  ____ __ ______    ______ _________
0                                   2840    00284000  ¿þþþþþþþþþþþþþþþþþþþþþþþþþþþþþþþþþþþþþþþþþþþþþþþþþþþþþþþþþþþþþþþþþþþþþÜ
                                    2841    00285000  Ÿ                                                                     Ÿ
                                    2842    00286000  Ÿ                                                                     Ÿ
                                    2843    00287000  Ÿ  SG - show general purpose registers                                Ÿ
                                    2844    00288000  Ÿ                                                                     Ÿ
                                    2845    00289000  Ÿ  R1,R0 - command loc, len  (part after pc)                          Ÿ
                                    2846    00290000  Ÿ  R15 - SEGCB                                                        Ÿ
                                    2847    00291000  Ÿ  R2 - symbol table pointer (zero if none)                           Ÿ
                                    2848    00292000  Ÿ  R3 - register area (zero if none)                                  Ÿ
                                    2849    00293000  Ÿ  R4 - current address '*' (zero if none)                            Ÿ
                                    2850    00294000  Ÿ                                                                     Ÿ
                                    2851    00295000  Ÿ                                                                     Ÿ
                                                      ¾þþþþþþþþþþþþþþþþþþþþþþþþþþþþþþþþþþþþþþþþþþþþþþþþþþþþþþþþþþþþþþþþþþþþþ»
00001F2 90DF B0D4            000D4  2852    00296000  SHOWG    XPROC DBWA
 0001F6 58F0 C014/0DEF       00014  2865             +
 0001FC E2C8D6E6C7404040            2867             +
 000204 98DF B0D4            000D4  2868             +
 000208 50E0 D000            00000  2871             +
 00020C 900C D004/188D       00004  2874             +
 000212 41D0 D078/0D70       00078  2877             +
 000218 4160 8038            00000  2909    00297000           LA    R6,DBWA
 USING  *,R7
 USING  DBWA-(4+52),R8
 USING  DBWA,R6                     2910    00298000           USING DBWA,R6
                                    2919    00299000
 00021C                             2920    00300000           CLEAR DBWA
 00021C D73F 6000 6000 00000 00000  2926             +
 000222 5010 6000            00000  2927    00301000           ST    R1,DBCMDLOC
 000226 5000 6004            00004  2928    00302000           ST    R0,DBCMDLEN
 00022A 50F0 6008            00008  2929    00303000           ST    R15,DBSEGCB
 00022E 5020 600C            0000C  2930    00304000           ST    R2,DBSYMS
 000232 5030 6010            00010  2931    00305000           ST    R3,DBREGS
 000236 5040 6014            00014  2932    00306000           ST    R4,DBCURADR
 00023A 41F0 6020            00020  2933    00307000           SCINIT (R1),(R0),DBSCNCB
 00023E 58E0 7158/0DEE       00370  2951             +
                                    2953    00308000
 000244                             2954    00309000           IF    (DBREGS,Z),BEGIN
 000244 D603 6010 6010 00010 00010  2964             +
 00024A 4770 704C            00264  2965             +
 00024E 4110 71DE            003F6  2970  1 00310000             SEGWR 'Unable to access register values.'
 000252 4100 0021            00021  2975  1          +
 000256 58F0 6008            00008  2981  1          +
 00025A 58E0 7164/0DEE       0037C  2984  1          +
 000260 47F0 7114            0032C  2986  1 00311000             B     SGEXIT
 000264                             2987    00312000           END
                                    2991    00313000
 000264 58E0 715C/0DEE       00374  2992    00314000           ACALL EVALXPRN           EVALUATE 1ST REG SPECIFICATION
 00026A 59F0 7160            00378  2996    00315000           IF    (R15,EQ,4),BEGIN   IF NO REG SPECIFICATION, ,,,
 00026E 4770 706C            00284  3008             +
 000272 4100 000E            0000E  3013  1 00316000             LA    R0,14                 SHOW REGS 14 THRU 1
 000276 4110 0001            00001  3014  1 00317000             LA    R1,1
 00027A 58E0 7178/0DEE       00390  3015  1 00318000             ACALL DISPREGS              DISPLAY R14 THRU R1
 000280 47F0 7114            0032C  3019  1 00319000             B     SGEXIT
1DEBUG    SG - show registers                                                                                               Page   17
0Current Usings:  (DBWA,R6) (*,R7) (DBWA-(4+52),R8) (TVT,R11) (GVT,R12)
0Loc    Object Code    Addr1 Addr2  Stmt Lv Lineno    Source Statement           (Hibal 5, Asmedit 3.3)  HLASM R4.0  2002/06/06 10.06
+___    ______ ____    _____ _____  ____ __ ______    ______ _________
0000284                             3020    00320000           END
 000284 59F0 7168            00380  3024    00321000           IF    (R15,EQ,8),BEGIN
 000288 4770 708A            002A2  3036             +
 00028C 4110 71FF            00417  3041  1 00322000             SEGWR 'Invalid register specification.'
 000290 4100 001F            0001F  3046  1          +
 000294 58F0 6008            00008  3052  1          +
 000298 58E0 7164/0DEE       0037C  3055  1          +
 00029E 47F0 7114            0032C  3057  1 00323000             B     SGEXIT
 0002A2                             3058    00324000           END
 0002A2 1211/4740 7098       002B0  3062    00325000           IF    ((R1,NEG),OR,(R1,GT,15)),BEGIN
 0002A8 5910 717C            00394  3086             +
 0002AC 47D0 70AE            002C6  3087             +
 0002B0 4110 71FF            00417  3092  1 00326000             SEGWR 'Invalid register specification.'
 0002B4 4100 001F            0001F  3097  1          +
 0002B8 58F0 6008            00008  3103  1          +
 0002BC 58E0 7164/0DEE       0037C  3106  1          +
 0002C2 47F0 7114            0032C  3108  1 00327000             B     SGEXIT
 0002C6                             3109    00328000           END
 0002C6 1821                        3113    00329000           LR    R2,R1              R2 - FIRST REGISTER TO SHOW
                                    3114    00330000
 0002C8 58E0 715C/0DEE       00374  3115    00331000           ACALL EVALXPRN           EVALUATE LAST REG SPECIFICATION
 0002CE 59F0 7160            00378  3119    00332000           IF    (R15,EQ,4),BEGIN
 0002D2 4770 70C0            002D8  3131             +
 0002D6 1812                        3136  1 00333000             LR    R1,R2
 0002D8                             3137    00334000           END
 0002D8 59F0 7168            00380  3141    00335000           IF    (R15,EQ,8),BEGIN
 0002DC 4770 70DE            002F6  3153             +
 0002E0 4110 7128            00340  3158  1 00336000             SEGWR 'Invalid register specification for 2nd register.'
 0002E4 4100 0030            00030  3163  1          +
 0002E8 58F0 6008            00008  3169  1          +
 0002EC 58E0 7164/0DEE       0037C  3172  1          +
 0002F2 47F0 7114            0032C  3174  1 00337000             B     SGEXIT
 0002F6                             3175    00338000           END
 0002F6 1211/4740 70EC       00304  3179    00339000           IF    ((R1,NEG),OR,(R1,GT,15)),BEGIN
 0002FC 5910 717C            00394  3203             +
 000300 47D0 7102            0031A  3204             +
 000304 4110 7128            00340  3209  1 00340000             SEGWR 'Invalid register specification for 2nd register.'
 000308 4100 0030            00030  3214  1          +
 00030C 58F0 6008            00008  3220  1          +
 000310 58E0 7164/0DEE       0037C  3223  1          +
 000316 47F0 7114            0032C  3225  1 00341000             B     SGEXIT
 00031A                             3226    00342000           END
                                    3230    00343000
 00031A 1802                        3231    00344000           LR    R0,R2              NOW R0,R1 - 1ST, LAST REGISTER
                                    3232    00345000
 00031C 58E0 7180/0DEE       00398  3233    00346000           ACALL CKCMDEND
 000322 4770 7114            0032C  3237    00347000           BNZ   SGEXIT
                                    3238    00348000
 000326 58E0 7178/0DEE       00390  3239    00349000           ACALL DISPREGS           DISPLAY REGISTERS
                                    3243    00350000
 00032C                             3244    00351000  SGEXIT   LABEL ,
 00032C 18D8/980C D004       00004  3246    00352000           PEND
 DROP   DBWA-(4+52),R8
 DROP   *,R7
1DEBUG    SG - show registers                                                                                               Page   18
0Current Usings:  (DBWA,R6) (TVT,R11) (GVT,R12)
0Loc    Object Code    Addr1 Addr2  Stmt Lv Lineno    Source Statement           (Hibal 5, Asmedit 3.3)  HLASM R4.0  2002/06/06 10.06
+___    ______ ____    _____ _____  ____ __ ______    ______ _________
0000332 58E0 D000/12FF       00000  3267             +
 000338 07FE                        3270             +
 DROP   DBWA,R6                     3271    00353000           DROP  R6
                                    3278    00354000
                                    3279    00355000           QLTORG
1DEBUG    DISASM - disassemble memory                                                                                       Page   19
0Current Usings:  (TVT,R11) (GVT,R12)
0Loc    Object Code    Addr1 Addr2  Stmt Lv Lineno    Source Statement           (Hibal 5, Asmedit 3.3)  HLASM R4.0  2002/06/06 10.06
+___    ______ ____    _____ _____  ____ __ ______    ______ _________
0                                   3310    00357000  ¿þþþþþþþþþþþþþþþþþþþþþþþþþþþþþþþþþþþþþþþþþþþþþþþþþþþþþþþþþþþþþþþþþþþþþÜ
                                    3311    00358000  Ÿ                                                                     Ÿ
                                    3312    00359000  Ÿ                                                                     Ÿ
                                    3313    00360000  Ÿ   DISASM - disasemble memory into 370 instructions                  Ÿ
                                    3314    00361000  Ÿ                                                                     Ÿ
                                    3315    00362000  Ÿ                                                                     Ÿ
                                    3316    00363000  Ÿ  R1,R0 - command loc, len  (part after pc)                          Ÿ
                                    3317    00364000  Ÿ  R15 - SEGCB                                                        Ÿ
                                    3318    00365000  Ÿ  R2 - symbol table pointer (zero if none)                           Ÿ
                                    3319    00366000  Ÿ  R3 - register area (zero if none)                                  Ÿ
                                    3320    00367000  Ÿ  R4 - current address '*' (zero if none)                            Ÿ
                                    3321    00368000  Ÿ                                                                     Ÿ
                                    3322    00369000  Ÿ                                                                     Ÿ
                                                      ¾þþþþþþþþþþþþþþþþþþþþþþþþþþþþþþþþþþþþþþþþþþþþþþþþþþþþþþþþþþþþþþþþþþþþþ»
0000436 90DF B0D4            000D4  3323    00370000  DISASMC  XPROC DBWA
 00043A 58F0 C014/0DEF       00014  3336             +
 000440 C4C9E2C1E2D4C340            3338             +
 000448 98DF B0D4            000D4  3339             +
 00044C 50E0 D000            00000  3342             +
 000450 900C D004/188D       00004  3345             +
 000456 41D0 D078/0D70       00078  3348             +
 00045C 4160 8038            00000  3380    00371000           LA    R6,DBWA
 USING  *,R7
 USING  DBWA-(4+52),R8
 USING  DBWA,R6                     3381    00372000           USING DBWA,R6
                                    3390    00373000
 000460                             3391    00374000           CLEAR DBWA
 000460 D73F 6000 6000 00000 00000  3397             +
 000466 5010 6000            00000  3398    00375000           ST    R1,DBCMDLOC
 00046A 5000 6004            00004  3399    00376000           ST    R0,DBCMDLEN
 00046E 50F0 6008            00008  3400    00377000           ST    R15,DBSEGCB
 000472 5020 600C            0000C  3401    00378000           ST    R2,DBSYMS
 000476 5030 6010            00010  3402    00379000           ST    R3,DBREGS
 00047A 5040 6014            00014  3403    00380000           ST    R4,DBCURADR
 00047E 41F0 6020            00020  3404    00381000           SCINIT (R1),(R0),DBSCNCB
 000482 58E0 75AC/0DEE       00A08  3422             +
                                    3424    00382000
 000488 58E0 75B0/0DEE       00A0C  3425    00383000           ACALL EVALXPRN           EVALUATE ADDRESS EXPRESSION
 00048E 59F0 75B4            00A10  3429    00384000           IF    (R15,EQ,4),BEGIN
 000492 4770 7050            004AC  3441             +
 000496 4110 7656            00AB2  3446  1 00385000             SEGWR 'Missing address expression.'
 00049A 4100 001B            0001B  3451  1          +
 00049E 58F0 6008            00008  3457  1          +
 0004A2 58E0 75B8/0DEE       00A14  3460  1          +
 0004A8 47F0 70B8            00514  3462  1 00386000             B     DISEXIT
 0004AC                             3463    00387000           END
 0004AC 59F0 75BC            00A18  3467    00388000           IF    (R15,EQ,8),BEGIN
 0004B0 4770 706E            004CA  3479             +
 0004B4 4110 7671            00ACD  3484  1 00389000             SEGWR 'Invalid address expression.'
 0004B8 4100 001B            0001B  3489  1          +
 0004BC 58F0 6008            00008  3495  1          +
 0004C0 58E0 75B8/0DEE       00A14  3498  1          +
 0004C6 47F0 70B8            00514  3500  1 00390000             B     DISEXIT
1DEBUG    DISASM - disassemble memory                                                                                       Page   20
0Current Usings:  (DBWA,R6) (*,R7) (DBWA-(4+52),R8) (TVT,R11) (GVT,R12)
0Loc    Object Code    Addr1 Addr2  Stmt Lv Lineno    Source Statement           (Hibal 5, Asmedit 3.3)  HLASM R4.0  2002/06/06 10.06
+___    ______ ____    _____ _____  ____ __ ______    ______ _________
00004CA                             3501    00391000           END
 0004CA 1821                        3505    00392000           LR    R2,R1              R2 - ADDR TO START SHOWING
                                    3506    00393000
 0004CC 58E0 75B0/0DEE       00A0C  3507    00394000           ACALL EVALXPRN           EVALUATE LENGTH EXPRESSION
 0004D2 59F0 75B4            00A10  3511    00395000           IF    (R15,EQ,4),' LA R1,64 '     DEFAULT LENGTH IS 64
 0004D6 4770 7082            004DE  3523             +
 0004DA 4110 0040            00040  3529             +
 0004DE 59F0 75BC            00A18  3534    00396000           IF    (R15,EQ,8),BEGIN
 0004E2 4770 70A0            004FC  3546             +
 0004E6 4110 7624            00A80  3551  1 00397000             SEGWR 'Invalid length expression.'
 0004EA 4100 001A            0001A  3556  1          +
 0004EE 58F0 6008            00008  3562  1          +
 0004F2 58E0 75B8/0DEE       00A14  3565  1          +
 0004F8 47F0 70B8            00514  3567  1 00398000             B     DISEXIT
 0004FC                             3568    00399000           END
 0004FC 1831                        3572    00400000           LR    R3,R1              R3 - LENGTH TO DISPLAY
                                    3573    00401000
 0004FE 58E0 75C0/0DEE       00A1C  3574    00402000           ACALL CKCMDEND
 000504 4770 70B8            00514  3578    00403000           BNZ   DISEXIT
                                    3579    00404000
 000508 1812                        3580    00405000           LR    R1,R2              NOW R1,R0 - ADDR, LEN TO SHOW
 00050A 1803                        3581    00406000           LR    R0,R3                    R15 - ADDR TO PRINT
 00050C 18F4                        3582    00407000           LR    R15,R4
 00050E 58E0 75C4/0DEE       00A20  3583    00408000           ACALL DISPASM            DISPLAY DISASSEMBLED MEMORY
                                    3587    00409000
 000514                             3588    00410000  DISEXIT  LABEL ,
 000514 18D8/980C D004       00004  3590    00411000           PEND
 DROP   DBWA-(4+52),R8
 DROP   *,R7
 00051A 58E0 D000/12FF       00000  3611             +
 000520 07FE                        3614             +
                                    3615    00412000
 DROP   DBWA,R6                     3616    00413000           DROP  R6
1DEBUG    SA - show WYLBUR address                                                                                          Page   21
0Current Usings:  (TVT,R11) (GVT,R12)
0Loc    Object Code    Addr1 Addr2  Stmt Lv Lineno    Source Statement           (Hibal 5, Asmedit 3.3)  HLASM R4.0  2002/06/06 10.06
+___    ______ ____    _____ _____  ____ __ ______    ______ _________
0                                   3624    00415000  ¿þþþþþþþþþþþþþþþþþþþþþþþþþþþþþþþþþþþþþþþþþþþþþþþþþþþþþþþþþþþþþþþþþþþþþÜ
                                    3625    00416000  Ÿ                                                                     Ÿ
                                    3626    00417000  Ÿ                                                                     Ÿ
                                    3627    00418000  Ÿ  SA - show wylbur address                                           Ÿ
                                    3628    00419000  Ÿ                                                                     Ÿ
                                    3629    00420000  Ÿ                                                                     Ÿ
                                    3630    00421000  Ÿ  R1,R0 - command loc, len  (part after pc)                          Ÿ
                                    3631    00422000  Ÿ  R15 - SEGCB                                                        Ÿ
                                    3632    00423000  Ÿ  R2 - symbol table pointer (zero if none)                           Ÿ
                                    3633    00424000  Ÿ  R3 - register area (zero if none)                                  Ÿ
                                    3634    00425000  Ÿ  R4 - current address '*' (zero if none)                            Ÿ
                                    3635    00426000  Ÿ                                                                     Ÿ
                                    3636    00427000  Ÿ                                                                     Ÿ
                                                      ¾þþþþþþþþþþþþþþþþþþþþþþþþþþþþþþþþþþþþþþþþþþþþþþþþþþþþþþþþþþþþþþþþþþþþþ»
0000522 90DF B0D4            000D4  3637    00428000  SHOWA    XPROC DBWA
 000526 58F0 C014/0DEF       00014  3650             +
 00052C E2C8D6E6C1404040            3652             +
 000534 98DF B0D4            000D4  3653             +
 000538 50E0 D000            00000  3656             +
 00053C 900C D004/188D       00004  3659             +
 000542 41D0 D078/0D70       00078  3662             +
 USING  *,R7                        3694    00429000  *
 USING  DBWA-(4+52),R8
 000548 4160 8038            00000  3695    00430000           LA    R6,DBWA
 USING  DBWA,R6                     3696    00431000           USING DBWA,R6
                                    3705    00432000
 00054C                             3706    00433000           CLEAR DBWA
 00054C D73F 6000 6000 00000 00000  3712             +
 000552 5010 6000            00000  3713    00434000           ST    R1,DBCMDLOC
 000556 5000 6004            00004  3714    00435000           ST    R0,DBCMDLEN
 00055A 50F0 6008            00008  3715    00436000           ST    R15,DBSEGCB
 00055E 5020 600C            0000C  3716    00437000           ST    R2,DBSYMS
 000562 5030 6010            00010  3717    00438000           ST    R3,DBREGS
 000566 5040 6014            00014  3718    00439000           ST    R4,DBCURADR
 00056A 41F0 6020            00020  3719    00440000           SCINIT (R1),(R0),DBSCNCB
 00056E 58E0 74C0/0DEE       00A08  3737             +
                                    3739    00441000
 000574 58E0 74C4/0DEE       00A0C  3740    00442000           ACALL EVALXPRN            EVALUATE ADDRESS EXPRESSION
 00057A 4780 704C            00594  3744    00443000           IF    NZ,BEGIN
 00057E 4110 7585            00ACD  3755  1 00444000             SEGWR 'Invalid address expression.'
 000582 4100 001B            0001B  3760  1          +
 000586 58F0 6008            00008  3766  1          +
 00058A 58E0 74CC/0DEE       00A14  3769  1          +
 000590 47F0 70B2            005FA  3771  1 00445000             B     SAEXIT
 000594                             3772    00446000           END
 000594 1821                        3776    00447000           LR    R2,R1               R2 - ADDRESS
                                    3777    00448000
 000596 58E0 74D4/0DEE       00A1C  3778    00449000           ACALL CKCMDEND
 00059C 4770 70B2            005FA  3782    00450000           BNZ   SAEXIT
                                    3783    00451000
 0005A0 1812/1B00                   3784    00452000           SEGDC (R2)
 0005A4 58F0 6008            00008  3798             +
 0005A8 58E0 74DC/0DEE       00A24  3801             +
1DEBUG    SA - show WYLBUR address                                                                                          Page   22
0Current Usings:  (DBWA,R6) (*,R7) (DBWA-(4+52),R8) (TVT,R11) (GVT,R12)
0Loc    Object Code    Addr1 Addr2  Stmt Lv Lineno    Source Statement           (Hibal 5, Asmedit 3.3)  HLASM R4.0  2002/06/06 10.06
+___    ______ ____    _____ _____  ____ __ ______    ______ _________
00005AE 4110 74E0            00A28  3803    00453000           SEG   '   0'
 0005B2 4100 0004            00004  3807             +
 0005B6 58F0 6008            00008  3813             +
 0005BA 58E0 74E4/0DEE       00A2C  3816             +
 0005C0 1222/4780 708C       005D4  3818    00454000           IF    (R2,NZ),BEGIN
 0005C6 1812/1B00                   3832  1 00455000             SEGHX (R2)
 0005CA 58F0 6008            00008  3846  1          +
 0005CE 58E0 74E8/0DEE       00A30  3849  1          +
 0005D4                             3851    00456000           END
 0005D4 4110 75A0            00AE8  3855    00457000           SEG  ' '
 0005D8 4100 0001            00001  3859             +
 0005DC 58F0 6008            00008  3865             +
 0005E0 58E0 74E4/0DEE       00A2C  3868             +
 0005E6 1812                        3870    00458000           LR    R1,R2
 0005E8 58E0 74EC/0DEE       00A34  3871    00459000           ACALL DSEGSYM              IF SYMBOLIC FORM, PRINT IT TOO
 0005EE 1B00/58F0 6008       00008  3875    00460000           SEGWR
 0005F4 58E0 74CC/0DEE       00A14  3895             +
 0005FA                             3897    00461000  SAEXIT   LABEL ,
 0005FA 18D8/980C D004       00004  3899    00462000           PEND
 DROP   DBWA-(4+52),R8
 DROP   *,R7
 000600 58E0 D000/12FF       00000  3920             +
 000606 07FE                        3923             +
 DROP   DBWA,R6                     3924    00463000           DROP  R6
1DEBUG    SS - show symbols                                                                                                 Page   23
0Current Usings:  (TVT,R11) (GVT,R12)
0Loc    Object Code    Addr1 Addr2  Stmt Lv Lineno    Source Statement           (Hibal 5, Asmedit 3.3)  HLASM R4.0  2002/06/06 10.06
+___    ______ ____    _____ _____  ____ __ ______    ______ _________
0                                   3932    00465000  ¿þþþþþþþþþþþþþþþþþþþþþþþþþþþþþþþþþþþþþþþþþþþþþþþþþþþþþþþþþþþþþþþþþþþþþÜ
                                    3933    00466000  Ÿ                                                                     Ÿ
                                    3934    00467000  Ÿ                                                                     Ÿ
                                    3935    00468000  Ÿ  SS - show symbols                                                  Ÿ
                                    3936    00469000  Ÿ                                                                     Ÿ
                                    3937    00470000  Ÿ                                                                     Ÿ
                                    3938    00471000  Ÿ  R1,R0 - command loc, len  (part after pc)                          Ÿ
                                    3939    00472000  Ÿ  R15 - SEGCB                                                        Ÿ
                                    3940    00473000  Ÿ  R2 - symbol table pointer (zero if none)                           Ÿ
                                    3941    00474000  Ÿ  R3 - register area (zero if none)                                  Ÿ
                                    3942    00475000  Ÿ  R4 - current address '*' (zero if none)                            Ÿ
                                    3943    00476000  Ÿ                                                                     Ÿ
                                    3944    00477000  Ÿ                                                                     Ÿ
                                                      ¾þþþþþþþþþþþþþþþþþþþþþþþþþþþþþþþþþþþþþþþþþþþþþþþþþþþþþþþþþþþþþþþþþþþþþ»
0000608 90DF B0D4            000D4  3945    00478000  SHOWS    XPROC DBWA
 00060C 58F0 C014/0DEF       00014  3958             +
 000612 E2C8D6E6E2404040            3960             +
 00061A 98DF B0D4            000D4  3961             +
 00061E 50E0 D000            00000  3964             +
 000622 900C D004/188D       00004  3967             +
 000628 41D0 D078/0D70       00078  3970             +
 USING  *,R7                        4002    00479000  *
 USING  DBWA-(4+52),R8
 00062E 4160 8038            00000  4003    00480000           LA    R6,DBWA
 USING  DBWA,R6                     4004    00481000           USING DBWA,R6
                                    4013    00482000
 000632                             4014    00483000           CLEAR DBWA
 000632 D73F 6000 6000 00000 00000  4020             +
 000638 5010 6000            00000  4021    00484000           ST    R1,DBCMDLOC
 00063C 5000 6004            00004  4022    00485000           ST    R0,DBCMDLEN
 000640 50F0 6008            00008  4023    00486000           ST    R15,DBSEGCB
 000644 5020 600C            0000C  4024    00487000           ST    R2,DBSYMS
 000648 5030 6010            00010  4025    00488000           ST    R3,DBREGS
 00064C 5040 6014            00014  4026    00489000           ST    R4,DBCURADR
                                    4027    00490000  *
                                    4028    00491000  *                                  WRITE ALL SYMBOLS
 000650 5820 600C            0000C  4029    00492000           L     R2,DBSYMS
 000654 1222/4780 7078       006A6  4030    00493000           WHILE (R2,NZ),BEGIN       LOOP THRU SYMBOLS
 00065A 5832 000C            0000C  4046  1 00494000             SYMADDR R3,R2
 00065E 1813/4100 0008       00008  4048  1 00495000             SEGHX (R3),8
 000664 58F0 6008            00008  4065  1          +
 000668 58E0 7402/0DEE       00A30  4068  1          +
 00066E 4110 74BA            00AE8  4070  1 00496000             SEG   ' '
 000672 4100 0001            00001  4074  1          +
 000676 58F0 6008            00008  4080  1          +
 00067A 58E0 73FE/0DEE       00A2C  4083  1          +
 000680 4112 0004            00004  4085  1 00497000             SYMNAME R1,R2
 000684 4100 0008            00008  4087  1 00498000             SEGT  (R1),L'SYMNAME
 000688 58F0 6008            00008  4107  1          +
 00068C 58E0 740A/0DEE       00A38  4110  1          +
 000692 1B00/58F0 6008       00008  4112  1 00499000             SEGWR
 000698 58E0 73E6/0DEE       00A14  4132  1          +
 00069E 5822 0000            00000  4134  1 00500000             SYMNEXT R2,R2
1DEBUG    SS - show symbols                                                                                                 Page   24
0Current Usings:  (DBWA,R6) (*,R7) (DBWA-(4+52),R8) (TVT,R11) (GVT,R12)
0Loc    Object Code    Addr1 Addr2  Stmt Lv Lineno    Source Statement           (Hibal 5, Asmedit 3.3)  HLASM R4.0  2002/06/06 10.06
+___    ______ ____    _____ _____  ____ __ ______    ______ _________
00006A2 47F0 7026            00654  4136    00501000           END
                                    4141    00502000
 0006A6 18D8/980C D004       00004  4142    00503000           PEND
 DROP   DBWA-(4+52),R8
 DROP   *,R7
 0006AC 58E0 D000/12FF       00000  4163             +
 0006B2 07FE                        4166             +
1DEBUG    PC - patch core                                                                                                   Page   25
0Current Usings:  (DBWA,R6) (TVT,R11) (GVT,R12)
0Loc    Object Code    Addr1 Addr2  Stmt Lv Lineno    Source Statement           (Hibal 5, Asmedit 3.3)  HLASM R4.0  2002/06/06 10.06
+___    ______ ____    _____ _____  ____ __ ______    ______ _________
0000000                00000 00246  4168    00505000  PCWA     RECORD BEGIN
 000000 00                          4176  1 00506000  PCFLAG     FLAG
 PCFLAG.PCSYS      80 ONES          4180  1 00507000             FLAG  PCSYS              SYSTEM (NO YES/NO PROMPT) OPTION
 000002                             4185  1 00508000  PCTLEN     DS    H                  LENGTH OF REPLACEMENT TEXT
 000004                             4186  1 00509000  PCTEXT     DS    CL256              REPLACEMENT TEXT
 000104                             4187  1 00510000  PCVLEN     DS    H                  VERIFICATION TEXT LENGTH
 000106                             4188  1 00511000  PCVTXT     DS    CL256              VERIFICATION TEXT
 000206                             4189  1 00512000  PCDBWA     DS    XL(L'DBWA)         DBWA
 000246                00246 00246  4190    00513000           END
-                                   4200    00515000  ¿þþþþþþþþþþþþþþþþþþþþþþþþþþþþþþþþþþþþþþþþþþþþþþþþþþþþþþþþþþþþþþþþþþþþþÜ
                                    4201    00516000  Ÿ                                                                     Ÿ
                                    4202    00517000  Ÿ                                                                     Ÿ
                                    4203    00518000  Ÿ  PC - patch wylbur core                                             Ÿ
                                    4204    00519000  Ÿ                                                                     Ÿ
                                    4205    00520000  Ÿ  R1,R0 - command loc, len  (part after pc)                          Ÿ
                                    4206    00521000  Ÿ  R15 - SEGCB                                                        Ÿ
                                    4207    00522000  Ÿ  R2 - symbol table pointer (zero if none)                           Ÿ
                                    4208    00523000  Ÿ  R3 - register area (zero if none)                                  Ÿ
                                    4209    00524000  Ÿ  R4 - current address '*' (zero if none)                            Ÿ
                                    4210    00525000  Ÿ                                                                     Ÿ
                                    4211    00526000  Ÿ                                                                     Ÿ
                                                      ¾þþþþþþþþþþþþþþþþþþþþþþþþþþþþþþþþþþþþþþþþþþþþþþþþþþþþþþþþþþþþþþþþþþþþþ»
00006B4 90DF B0D4            000D4  4212    00527000  PATCHC   XPROC PCWA
 0006B8 58F0 C014/0DEF       00014  4225             +
 0006BE D7C1E3C3C8C34040            4227             +
 0006C6 98DF B0D4            000D4  4228             +
 0006CA 50E0 D000            00000  4231             +
 0006CE 900C D004/188D       00004  4234             +
 0006D4 41D0 D280/0D70       00280  4237             +
 USING  *,R7                        4269    00528000  *
 USING  PCWA-(4+52),R8
 0006DA 4150 8038            00000  4270    00529000           LA    R5,PCWA
 USING  PCWA,R5                     4271    00530000           USING PCWA,R5
 0006DE                             4280    00531000           CLEAR PCWA
 0006DE D7FF 5000 5000 00000 00000  4286             +
 0006E4 D7FF 5100 5100 00100 00100  4287             +
 0006EA D745 5200 5200 00200 00200  4288             +
                                    4289    00532000
 0006F0 4160 5206            00206  4290    00533000           LA    R6,PCDBWA
                                    4291    00534000           USING DBWA,R6
                                    4293    00535000
 0006F4                             4294    00536000           CLEAR DBWA
 0006F4 D73F 6000 6000 00000 00000  4300             +
 0006FA 5010 6000            00000  4301    00537000           ST    R1,DBCMDLOC
 0006FE 5000 6004            00004  4302    00538000           ST    R0,DBCMDLEN
 000702 50F0 6008            00008  4303    00539000           ST    R15,DBSEGCB
 000706 5020 600C            0000C  4304    00540000           ST    R2,DBSYMS
 00070A 5030 6010            00010  4305    00541000           ST    R3,DBREGS
 00070E 5040 6014            00014  4306    00542000           ST    R4,DBCURADR
 000712 41F0 6020            00020  4307    00543000           SCINIT (R1),(R0),DBSCNCB
 000716 58E0 732E/0DEE       00A08  4325             +
1DEBUG    PC - patch core                                                                                                   Page   26
0Current Usings:  (PCWA,R5) (DBWA,R6) (*,R7) (PCWA-(4+52),R8) (TVT,R11) (GVT,R12)
0Loc    Object Code    Addr1 Addr2  Stmt Lv Lineno    Source Statement           (Hibal 5, Asmedit 3.3)  HLASM R4.0  2002/06/06 10.06
+___    ______ ____    _____ _____  ____ __ ______    ______ _________
0                                   4327    00544000
 00071C 58E0 7332/0DEE       00A0C  4328    00545000           ACALL EVALXPRN           EVALUATE ADDRESS EXPRESSION
 000722 1821                        4332    00546000           LR    R2,R1                RETURNS R1 - ADDRESS
 000724 59F0 7336            00A10  4333    00547000           IF    (R15,EQ,4),BEGIN
 000728 4770 7068            00742  4345             +
 00072C 4110 73D8            00AB2  4350  1 00548000             SEGWR 'Missing address expression.'
 000730 4100 001B            0001B  4355  1          +
 000734 58F0 6008            00008  4361  1          +
 000738 58E0 733A/0DEE       00A14  4364  1          +
 00073E 47F0 7218            008F2  4366  1 00549000             B     PCEXIT
 000742                             4367    00550000           END
 000742 59F0 733E            00A18  4371    00551000           IF    (R15,EQ,8),BEGIN
 000746 4770 7086            00760  4383             +
 00074A 4110 73F3            00ACD  4388  1 00552000             SEGWR 'Invalid address expression.'
 00074E 4100 001B            0001B  4393  1          +
 000752 58F0 6008            00008  4399  1          +
 000756 58E0 733A/0DEE       00A14  4402  1          +
 00075C 47F0 7218            008F2  4404  1 00553000             B     PCEXIT
 000760                             4405    00554000           END
                                    4409    00555000
 000760 1B11/41F0 6020       00020  4410    00556000           SCAN  ,DBSCNCB
 000766 58E0 7362/0DEE       00A3C  4424             +
 00076C 1200/4770 70AE       00788  4426    00557000           IF    (R0,Z),BEGIN
 000772 4110 7366            00A40  4440  1 00558000             SEGWR 'Missing patch value.'
 000776 4100 0014            00014  4445  1          +
 00077A 58F0 6008            00008  4451  1          +
 00077E 58E0 733A/0DEE       00A14  4454  1          +
 000784 47F0 7218            008F2  4456  1 00559000             B     PCEXIT
 000788                             4457    00560000           END
 000788 41F0 5004            00004  4461    00561000           LA    R15,PCTEXT
 00078C 58E0 737A/0DEE       00A54  4462    00562000           VCALL DEQSTR             DEQOUTE TEXT
 000792 47B0 70EA            007C4  4466    00563000           IF    NEG,BEGIN          NOT A STRING...
 000796 41F0 5004            00004  4477  1 00564000             LA    R15,PCTEXT
 00079A 58E0 737E/0DEE       00A58  4478  1 00565000             VCALL HEXSTR             CHECK FOR HEX
 0007A0 47B0 70EA            007C4  4482  1 00566000             IF    NEG,BEGIN
 0007A4 58F0 6008            00008  4493  2 00567000               SEG   (R1),(R0)
 0007A8 58E0 7352/0DEE       00A2C  4512  2          +
 0007AE 4110 7382            00A5C  4514  2 00568000               SEGWR ': invalid hex digits'
 0007B2 4100 0014            00014  4519  2          +
 0007B6 58F0 6008            00008  4525  2          +
 0007BA 58E0 733A/0DEE       00A14  4528  2          +
 0007C0 47F0 7218            008F2  4530  2 00569000               B     PCEXIT
 0007C4                             4531  1 00570000             END
 0007C4                             4535    00571000           END
 0007C4 5900 7396            00A70  4539    00572000           CEIL  R0,L'PCTEXT
 0007C8 47D0 70F6            007D0  4548             +
 0007CC 5800 7396            00A70  4553             +
 0007D0 4000 5002            00002  4558    00573000           STH   R0,PCTLEN
                                    4559    00574000  *
                                    4560    00575000  *                                  SCAN OPTIONS ..
 0007D4 4110 7226            00900  4561    00576000           SCAN  PCPRT,DBSCNCB
 0007D8 41F0 6020            00020  4575             +
 0007DC 58E0 7362/0DEE       00A3C  4578             +
 0007E2 47B0 712C            00806  4580    00577000           IF    NEG,BEGIN
1DEBUG    PC - patch core                                                                                                   Page   27
0Current Usings:  (PCWA,R5) (DBWA,R6) (*,R7) (PCWA-(4+52),R8) (TVT,R11) (GVT,R12)
0Loc    Object Code    Addr1 Addr2  Stmt Lv Lineno    Source Statement           (Hibal 5, Asmedit 3.3)  HLASM R4.0  2002/06/06 10.06
+___    ______ ____    _____ _____  ____ __ ______    ______ _________
00007E6 58F0 6008            00008  4591  1 00578000             SEG   (R1),(R0)
 0007EA 58E0 7352/0DEE       00A2C  4610  1          +
 0007F0 4110 73C0            00A9A  4612  1 00579000             SEGWR ': invalid.'
 0007F4 4100 000A            0000A  4617  1          +
 0007F8 58F0 6008            00008  4623  1          +
 0007FC 58E0 733A/0DEE       00A14  4626  1          +
 000802 47F0 7218            008F2  4628  1 00580000             B     PCEXIT
 000806                             4629    00581000           END
 000806 9180 601C      0001C        4633    00582000           IF    DBFSCNERR,PCEXIT
 00080A 4710 7218            008F2  4645             +
                                    4651    00583000
 00080E 1812                        4652    00584000           LR    R1,R2               CHECK IF OK TO STORE AT ADDR
 000810 4800 5002            00002  4653    00585000           LH    R0,PCTLEN
 000814 58E0 739A/0DEE       00A74  4654    00586000           ACALL CHKSADDR
 00081A 4780 715A            00834  4658    00587000           IF    NZ,BEGIN
 00081E 4110 731E            009F8  4669  1 00588000             SEGWR 'Invalid address.'
 000822 4100 0010            00010  4674  1          +
 000826 58F0 6008            00008  4680  1          +
 00082A 58E0 733A/0DEE       00A14  4683  1          +
 000830 47F0 7218            008F2  4685  1 00589000             B     PCEXIT
 000834                             4686    00590000           END
                                    4690    00591000
 000834 4110 740F            00AE9  4691    00592000           SEG   'Old data was '
 000838 4100 000D            0000D  4695             +
 00083C 58F0 6008            00008  4701             +
 000840 58E0 7352/0DEE       00A2C  4704             +
 000846 1832                        4706    00593000           LR    R3,R2               R3,R4 OLD DATA LOC LEN
 000848 4840 5002            00002  4707    00594000           LH    R4,PCTLEN
 00084C 5940 739E            00A78  4708    00595000           CEIL  R4,24
 000850 47D0 717E            00858  4717             +
 000854 5840 739E            00A78  4722             +
 000858 5940 7336            00A10  4727    00596000           FLOOR R4,4
 00085C 47B0 718A            00864  4736             +
 000860 5840 7336            00A10  4741             +
 000864 1244/47D0 71C0       0089A  4746    00597000           WHILE (R4,POS),BEGIN
 00086A 5810 3000            00000  4762  1 00598000             L     R1,@R3
 00086E 4100 0008            00008  4763  1 00599000             SEGHX (R1),8
 000872 58F0 6008            00008  4779  1          +
 000876 58E0 7356/0DEE       00A30  4782  1          +
 00087C 4110 740E            00AE8  4784  1 00600000             SEG   ' '
 000880 4100 0001            00001  4788  1          +
 000884 58F0 6008            00008  4794  1          +
 000888 58E0 7352/0DEE       00A2C  4797  1          +
 00088E 4133 0004            00004  4799  1 00601000             LA    R3,4(R3)
 000892 5B40 7336            00A10  4800  1 00602000             S     R4,=A(4)
 000896 47F0 718A            00864  4801    00603000           END
                                    4806    00604000
 00089A 48F0 5104/12FF       00104  4807    00605000           IF    ('LTH R15,PCVLEN',NZ),BEGIN
 0008A0 4780 71F0            008CA  4818             +
 0008A4 06F0/12FF                   4823  1 00606000             CMPR  R15,@R2,PCVTXT     COMPARE TEXT
 0008A8 4740 71D6            008B0  4836  1          +
 0008AC 44F0 7422            00AFC  4842  2          +
 000AFB 00                                3          +
 000AFC D500 2000 5106 00000 00106  4849  2          +
1DEBUG    PC - patch core                                                                                                   Page   28
0Current Usings:  (PCWA,R5) (DBWA,R6) (*,R7) (PCWA-(4+52),R8) (TVT,R11) (GVT,R12)
0Loc    Object Code    Addr1 Addr2  Stmt Lv Lineno    Source Statement           (Hibal 5, Asmedit 3.3)  HLASM R4.0  2002/06/06 10.06
+___    ______ ____    _____ _____  ____ __ ______    ______ _________
00008B0 4780 71F0            008CA  4861  1 00607000             IF    NE,BEGIN
 0008B4 4110 73CA            00AA4  4872  2 00608000               SEGWR 'Verify failed.'
 0008B8 4100 000E            0000E  4877  2          +
 0008BC 58F0 6008            00008  4883  2          +
 0008C0 58E0 733A/0DEE       00A14  4886  2          +
 0008C6 47F0 7218            008F2  4888  2 00609000               B     PCEXIT
 0008CA                             4889  1 00610000             END
 0008CA                             4893    00611000           END
                                    4897    00612000  *
                                    4898    00613000  *        IF    ~PCSYS,BEGIN
                                    4899    00614000  *        SETMSG 'Patch'
                                    4900    00615000  *        VCALL YESREQ
                                    4901    00616000  *        END
                                    4902    00617000  *
 0008CA 48F0 5002/12FF       00002  4903    00618000           IF    ('LTH R15,PCTLEN',NZ),BEGIN
 0008D0 4780 7206            008E0  4914             +
 0008D4 06F0/12FF                   4919  1 00619000             MOVE  R15,@R2,PCTEXT     REPLACE TEXT
 0008D8 4740 7206            008E0  4932  1          +
 0008DC 44F0 7428            00B02  4938  2          +
 000B02 D200 2000 5004 00000 00004  4945  2          +
 0008E0                             4957    00620000           END
                                    4961    00621000
 0008E0 4110 741C            00AF6  4962    00622000           SEGWR 'Done.'
 0008E4 4100 0005            00005  4967             +
 0008E8 58F0 6008            00008  4973             +
 0008EC 58E0 733A/0DEE       00A14  4976             +
                                    4978    00623000
 0008F2                             4979    00624000  PCEXIT   LABEL ,
 0008F2 18D8/980C D004       00004  4981    00625000           PEND
 DROP   PCWA-(4+52),R8
 DROP   *,R7
 0008F8 58E0 D000/12FF       00000  5002             +
 0008FE 07FE                        5005             +
-000900                             5007    00627000  PCPRT    SCKW  VERIFY,PCVER,(A,P)
 000900 8D000950E5C5D9C9            5008             +
 00090A                             5009    00628000           SCKW  SYSTEM,PCSETSYS,A
 00090A 0D000918E2E8E2E3            5010             +
 000914 FF00017C                    5011    00629000           SCKW  ,INVALID
                                    5013    00630000
 000918 90DF B0D4            000D4  5014    00631000  PCSETSYS PROC
 00091C 58F0 C014/0DEF       00014  5024             +
 000922 D7C3E2C5E3E2E8E2            5026             +
 00092A 98DF B0D4            000D4  5027             +
 00092E 50E0 D000            00000  5030             +
 000932 900C D004/188D       00004  5033             +
 000938 41D0 D038/0D70       00038  5035             +
 00093E 9680 5000      00000        5058    00632000           SET   PCSYS
 USING  *,R7
 000942 18D8/980C D004       00004  5064    00633000           PEND
 DROP   *,R7
 000948 58E0 D000/12FF       00000  5080             +
 00094E 07FE                        5083             +
1DEBUG    PC - patch core                                                                                                   Page   29
0Current Usings:  (PCWA,R5) (DBWA,R6) (TVT,R11) (GVT,R12)
0Loc    Object Code    Addr1 Addr2  Stmt Lv Lineno    Source Statement           (Hibal 5, Asmedit 3.3)  HLASM R4.0  2002/06/06 10.06
+___    ______ ____    _____ _____  ____ __ ______    ______ _________
0                                   5084    00634000
 000950 90DF B0D4            000D4  5085    00635000  PCVER    PROC
 000954 58F0 C014/0DEF       00014  5095             +
 00095A D7C3E5C5D9404040            5097             +
 000962 98DF B0D4            000D4  5098             +
 000966 50E0 D000            00000  5101             +
 00096A 900C D004/188D       00004  5104             +
 000970 41D0 D038/0D70       00038  5106             +
 000976 50F0 D000            00000  5129    00636000           SCPUSH
 USING  *,R7
 00097A D203 D004 6034 00004 00034  5131             +
 000980 41DD 0008            00008  5132             +
 000984 41F0 5106            00106  5133    00637000           LA    R15,PCVTXT
 000988 58E0 70DE/0DEE       00A54  5134    00638000           VCALL DEQSTR             DEQUOTE TEXT
 00098E 47B0 7054            009CA  5138    00639000           IF    NEG,BEGIN          NOT A STRING...
 000992 41F0 5106            00106  5149  1 00640000             LA    R15,PCVTXT
 000996 58E0 70E2/0DEE       00A58  5150  1 00641000             VCALL HEXSTR             CHECK FOR HEX
 00099C 47B0 7054            009CA  5154  1 00642000             IF    NEG,BEGIN
 0009A0 58F0 6008            00008  5165  2 00643000               SEG  (R1),(R0)
 0009A4 58E0 70B6/0DEE       00A2C  5184  2          +
 0009AA 4110 70E6            00A5C  5186  2 00644000               SEGWR ': invalid hex digits'
 0009AE 4100 0014            00014  5191  2          +
 0009B2 58F0 6008            00008  5197  2          +
 0009B6 58E0 709E/0DEE       00A14  5200  2          +
 0009BC 9680 601C      0001C        5202  2 00645000               SET  DBFSCNERR
 0009C0                             5208  2 00646000               SCANSTOP
 0009C0 D703 602C 602C 0002C 0002C  5215  2          +
 0009C6 47F0 7064            009DA  5216  2 00647000               B     PCVERXIT
 0009CA                             5217  1 00648000             END
 0009CA                             5221    00649000           END
 0009CA 5900 7106            00A7C  5225    00650000           CEIL  R0,L'PCVTXT
 0009CE 47D0 7060            009D6  5234             +
 0009D2 5800 7106            00A7C  5239             +
 0009D6 4000 5104            00104  5244    00651000           STH   R0,PCVLEN
 0009DA                             5245    00652000  PCVERXIT LABEL ,
 0009DA 5BD0 70A2            00A18  5247    00653000           SCPOP
 0009DE 58F0 D000            00000  5249             +
 0009E2 D203 6034 D004 00034 00004  5250             +
 0009E8 18D8/980C D004       00004  5251    00654000           PEND
 DROP   *,R7
 0009EE 58E0 D000/12FF       00000  5267             +
 0009F4 07FE                        5270             +
                                    5271    00655000
 DROP   PCWA,R5                     5272    00656000           DROP  R5
 DROP   DBWA,R6                     5279    00657000           DROP  R6
                                    5286    00658000
                                    5287    00659000           QLTORG
1DEBUG    PC - patch core                                                                                                   Page   30
0Current Usings:  (TVT,R11) (GVT,R12)
0Loc    Object Code    Addr1 Addr2  Stmt Lv Lineno    Source Statement           (Hibal 5, Asmedit 3.3)  HLASM R4.0  2002/06/06 10.06
+___    ______ ____    _____ _____  ____ __ ______    ______ _________
0                                   5331    00661000  ¿þþþþþþþþþþþþþþþþþþþþþþþþþþþþþþþþþþþþþþþþþþþþþþþþþþþþþþþþþþþþþþþþþþþþþÜ
                                    5332    00662000  Ÿ                                                                     Ÿ
                                    5333    00663000  Ÿ  PATCHG - patch general purpose register                            Ÿ
                                    5334    00664000  Ÿ                                                                     Ÿ
                                    5335    00665000  Ÿ                                                                     Ÿ
                                    5336    00666000  Ÿ                                                                     Ÿ
                                    5337    00667000  Ÿ  R1,R0 - command loc, len  (part after pc)                          Ÿ
                                    5338    00668000  Ÿ  R15 - SEGCB                                                        Ÿ
                                    5339    00669000  Ÿ  R2 - symbol table pointer (zero if none)                           Ÿ
                                    5340    00670000  Ÿ  R3 - register area (zero if none)                                  Ÿ
                                    5341    00671000  Ÿ  R4 - current address '*' (zero if none)                            Ÿ
                                    5342    00672000  Ÿ  R5 - dvwa, debug break work area (traps)                           Ÿ
                                    5343    00673000  Ÿ                                                                     Ÿ
                                    5344    00674000  Ÿ                                                                     Ÿ
                                                      ¾þþþþþþþþþþþþþþþþþþþþþþþþþþþþþþþþþþþþþþþþþþþþþþþþþþþþþþþþþþþþþþþþþþþþþ»
0000B08 90DF B0D4            000D4  5345    00675000  PATCHG   XPROC DBWA
 000B0C 58F0 C014/0DEF       00014  5358             +
 000B12 D7C1E3C3C8C74040            5360             +
 000B1A 98DF B0D4            000D4  5361             +
 000B1E 50E0 D000            00000  5364             +
 000B22 900C D004/188D       00004  5367             +
 000B28 41D0 D078/0D70       00078  5370             +
 USING  *,R7                        5402    00676000  *
 USING  DBWA-(4+52),R8
 000B2E 4160 8038            00000  5403    00677000           LA    R6,DBWA
 USING  DBWA,R6                     5404    00678000           USING DBWA,R6
                                    5413    00679000
 000B32                             5414    00680000           CLEAR DBWA
 000B32 D73F 6000 6000 00000 00000  5420             +
 000B38 5010 6000            00000  5421    00681000           ST    R1,DBCMDLOC
 000B3C 5000 6004            00004  5422    00682000           ST    R0,DBCMDLEN
 000B40 50F0 6008            00008  5423    00683000           ST    R15,DBSEGCB
 000B44 5020 600C            0000C  5424    00684000           ST    R2,DBSYMS
 000B48 5030 6010            00010  5425    00685000           ST    R3,DBREGS
 000B4C 5040 6014            00014  5426    00686000           ST    R4,DBCURADR
 000B50 5050 6018            00018  5427    00687000           ST    R5,DBDVWAP
 000B54 41F0 6020            00020  5428    00688000           SCINIT (R1),(R0),DBSCNCB
 000B58 58E0 78C2/0DEE       013F0  5446             +
                                    5448    00689000  *
                                    5449    00690000  *                                  GET REGISTER NUMBER
 000B5E 58E0 78C6/0DEE       013F4  5450    00691000           ACALL EVALXPRN            EVALUATE ADDRESS EXPRESSION
                                    5454    00692000  *                                  RETURNS R1 - ADDRESS,  R15 - CC
 000B64 59F0 78CA            013F8  5455    00693000           IF    (R15,EQ,4),BEGIN
 000B68 4770 7054            00B82  5467             +
 000B6C 4110 7994            014C2  5472  1 00694000             SEGWR 'Missing operands.'
 000B70 4100 0011            00011  5477  1          +
 000B74 58F0 6008            00008  5483  1          +
 000B78 58E0 78CE/0DEE       013FC  5486  1          +
 000B7E 47F0 70E8            00C16  5488  1 00695000             B     PATGEXIT
 000B82                             5489    00696000           END
 000B82 59F0 78D2            01400  5493    00697000           IF    (R15,EQ,8),BEGIN
 000B86 4770 7072            00BA0  5505             +
 000B8A 4110 79A5            014D3  5510  1 00698000             SEGWR 'Invalid register specification.'
1DEBUG    PC - patch core                                                                                                   Page   31
0Current Usings:  (DBWA,R6) (*,R7) (DBWA-(4+52),R8) (TVT,R11) (GVT,R12)
0Loc    Object Code    Addr1 Addr2  Stmt Lv Lineno    Source Statement           (Hibal 5, Asmedit 3.3)  HLASM R4.0  2002/06/06 10.06
+___    ______ ____    _____ _____  ____ __ ______    ______ _________
0000B8E 4100 001F            0001F  5515  1          +
 000B92 58F0 6008            00008  5521  1          +
 000B96 58E0 78CE/0DEE       013FC  5524  1          +
 000B9C 47F0 70E8            00C16  5526  1 00699000             B     PATGEXIT
 000BA0                             5527    00700000           END
 000BA0 1821                        5531    00701000           LR    R2,R1               R2 - REGISTER # TO PATCH
                                    5532    00702000  *
                                    5533    00703000  *                                  GET REGISTER VALUE
 000BA2 58E0 78C6/0DEE       013F4  5534    00704000           ACALL EVALXPRN            EVALUATE ADDRESS EXPRESSION
                                    5538    00705000  *                                  RETURNS R1 - ADDRESS,  R15 - CC
 000BA8 59F0 78CA            013F8  5539    00706000           IF    (R15,EQ,4),BEGIN
 000BAC 4770 7098            00BC6  5551             +
 000BB0 4110 78D6            01404  5556  1 00707000             SEGWR 'Missing patch value.'
 000BB4 4100 0014            00014  5561  1          +
 000BB8 58F0 6008            00008  5567  1          +
 000BBC 58E0 78CE/0DEE       013FC  5570  1          +
 000BC2 47F0 70E8            00C16  5572  1 00708000             B     PATGEXIT
 000BC6                             5573    00709000           END
 000BC6 59F0 78D2            01400  5577    00710000           IF    (R15,EQ,8),BEGIN
 000BCA 4770 70B6            00BE4  5589             +
 000BCE 4110 78EA            01418  5594  1 00711000             SEGWR 'Invalid patch value.'
 000BD2 4100 0014            00014  5599  1          +
 000BD6 58F0 6008            00008  5605  1          +
 000BDA 58E0 78CE/0DEE       013FC  5608  1          +
 000BE0 47F0 70E8            00C16  5610  1 00712000             B     PATGEXIT
 000BE4                             5611    00713000           END
                                    5615    00714000  *                                  R1 - PATCH VALUE
                                    5616    00715000  *
                                    5617    00716000  *                                  NO MORE OPTIONS ALLOWED
 000BE4 58E0 78FE/0DEE       0142C  5618    00717000           ACALL CKCMDEND
 000BEA 4770 70E8            00C16  5622    00718000           BNZ   PATGEXIT
                                    5623    00719000  *
                                    5624    00720000  *                                  PATCH REGISTER
 000BEE 5830 6010            00010  5625    00721000           L     R3,DBREGS
 000BF2 1233/4770 70E0       00C0E  5626    00722000           IF    (R3,Z),BEGIN
 000BF8 4110 79C4            014F2  5640  1 00723000             SEGWR 'Unable to access register values.'
 000BFC 4100 0021            00021  5645  1          +
 000C00 58F0 6008            00008  5651  1          +
 000C04 58E0 78CE/0DEE       013FC  5654  1          +
 000C0A 47F0 70E8            00C16  5656  1 00724000             B     PATGEXIT
 000C0E                             5657    00725000           END
 000C0E 8920 0002            00002  5661    00726000           SLL   R2,2
 000C12 5013 2000            00000  5662    00727000           ST    R1,0(R3,R2)         PATCH REGISTER
                                    5663    00728000
 000C16                             5664    00729000  PATGEXIT LABEL ,
 000C16 18D8/980C D004       00004  5666    00730000           PEND
 DROP   DBWA-(4+52),R8
 DROP   *,R7
 000C1C 58E0 D000/12FF       00000  5687             +
 000C22 07FE                        5690             +
 DROP   DBWA,R6                     5691    00731000           DROP  R6
1DEBUG    PC - patch core                                                                                                   Page   32
0Current Usings:  (TVT,R11) (GVT,R12)
0Loc    Object Code    Addr1 Addr2  Stmt Lv Lineno    Source Statement           (Hibal 5, Asmedit 3.3)  HLASM R4.0  2002/06/06 10.06
+___    ______ ____    _____ _____  ____ __ ______    ______ _________
0                                   5699    00733000  ¿þþþþþþþþþþþþþþþþþþþþþþþþþþþþþþþþþþþþþþþþþþþþþþþþþþþþþþþþþþþþþþþþþþþþþÜ
                                    5700    00734000  Ÿ                                                                     Ÿ
                                    5701    00735000  Ÿ  PATCHIA -  patch instruction address                               Ÿ
                                    5702    00736000  Ÿ                                                                     Ÿ
                                    5703    00737000  Ÿ                                                                     Ÿ
                                    5704    00738000  Ÿ                                                                     Ÿ
                                    5705    00739000  Ÿ  R1,R0 - command loc, len  (part after pc)                          Ÿ
                                    5706    00740000  Ÿ  R15 - SEGCB                                                        Ÿ
                                    5707    00741000  Ÿ  R2 - symbol table pointer (zero if none)                           Ÿ
                                    5708    00742000  Ÿ  R3 - register area (zero if none)                                  Ÿ
                                    5709    00743000  Ÿ  R4 - current address '*' (zero if none)                            Ÿ
                                    5710    00744000  Ÿ  R5 - dvwa, debug break work area (traps)                           Ÿ
                                    5711    00745000  Ÿ                                                                     Ÿ
                                    5712    00746000  Ÿ  ON EXIT:                                                           Ÿ
                                    5713    00747000  Ÿ  R15=0, PATCH ADDRESS OK                                            Ÿ
                                    5714    00748000  Ÿ  R15=NZ, PATCH ADDRESS INVALID                                      Ÿ
                                    5715    00749000  Ÿ                                                                     Ÿ
                                                      ¾þþþþþþþþþþþþþþþþþþþþþþþþþþþþþþþþþþþþþþþþþþþþþþþþþþþþþþþþþþþþþþþþþþþþþ»
0000C24 90DF B0D4            000D4  5716    00750000  PATCHIA  XPROC DBWA
 000C28 58F0 C014/0DEF       00014  5729             +
 000C2E D7C1E3C3C8C9C140            5731             +
 000C36 98DF B0D4            000D4  5732             +
 000C3A 50E0 D000            00000  5735             +
 000C3E 900C D004/188D       00004  5738             +
 000C44 41D0 D078/0D70       00078  5741             +
 USING  *,R7                        5773    00751000  *
 USING  DBWA-(4+52),R8
 000C4A 4160 8038            00000  5774    00752000           LA    R6,DBWA
 USING  DBWA,R6                     5775    00753000           USING DBWA,R6
                                    5784    00754000
 000C4E                             5785    00755000           CLEAR DBWA
 000C4E D73F 6000 6000 00000 00000  5791             +
 000C54 5010 6000            00000  5792    00756000           ST    R1,DBCMDLOC
 000C58 5000 6004            00004  5793    00757000           ST    R0,DBCMDLEN
 000C5C 50F0 6008            00008  5794    00758000           ST    R15,DBSEGCB
 000C60 5020 600C            0000C  5795    00759000           ST    R2,DBSYMS
 000C64 5030 6010            00010  5796    00760000           ST    R3,DBREGS
 000C68 5040 6014            00014  5797    00761000           ST    R4,DBCURADR
 000C6C 5050 6018            00018  5798    00762000           ST    R5,DBDVWAP
 000C70 41F0 6020            00020  5799    00763000           SCINIT (R1),(R0),DBSCNCB
 000C74 58E0 77A6/0DEE       013F0  5817             +
                                    5819    00764000  *
                                    5820    00765000  *                                  GET REGISTER NUMBER
 000C7A 58E0 77AA/0DEE       013F4  5821    00766000           ACALL EVALXPRN            EVALUATE ADDRESS EXPRESSION
                                    5825    00767000  *                                  RETURNS R1 - ADDRESS,  R15 - CC
 000C80 59F0 77AE            013F8  5826    00768000           IF    (R15,EQ,4),BEGIN
 000C84 4770 7058            00CA2  5838             +
 000C88 4110 775E            013A8  5843  1 00769000             SEGWR 'Missing address.'
 000C8C 4100 0010            00010  5848  1          +
 000C90 58F0 6008            00008  5854  1          +
 000C94 58E0 77B2/0DEE       013FC  5857  1          +
 000C9A 41F0 0004            00004  5859  1 00770000             LA    R15,4
 000C9E 47F0 70E2            00D2C  5860  1 00771000             B     PATIAXIT
1DEBUG    PC - patch core                                                                                                   Page   33
0Current Usings:  (DBWA,R6) (*,R7) (DBWA-(4+52),R8) (TVT,R11) (GVT,R12)
0Loc    Object Code    Addr1 Addr2  Stmt Lv Lineno    Source Statement           (Hibal 5, Asmedit 3.3)  HLASM R4.0  2002/06/06 10.06
+___    ______ ____    _____ _____  ____ __ ______    ______ _________
0000CA2                             5861    00772000           END
 000CA2 59F0 77B6            01400  5865    00773000           IF    (R15,EQ,8),BEGIN
 000CA6 4770 707A            00CC4  5877             +
 000CAA 4110 776E            013B8  5882  1 00774000             SEGWR 'Invalid address.'
 000CAE 4100 0010            00010  5887  1          +
 000CB2 58F0 6008            00008  5893  1          +
 000CB6 58E0 77B2/0DEE       013FC  5896  1          +
 000CBC 41F0 0004            00004  5898  1 00775000             LA    R15,4
 000CC0 47F0 70E2            00D2C  5899  1 00776000             B     PATIAXIT
 000CC4                             5900    00777000           END
 000CC4 58E0 77E6/0DEE       01430  5904    00778000           ACALL CHKRADDR
 000CCA 4780 709E            00CE8  5908    00779000           IF    NZ,BEGIN
 000CCE 4110 776E            013B8  5919  1 00780000             SEGWR 'Invalid address.'
 000CD2 4100 0010            00010  5924  1          +
 000CD6 58F0 6008            00008  5930  1          +
 000CDA 58E0 77B2/0DEE       013FC  5933  1          +
 000CE0 41F0 0004            00004  5935  1 00781000             LA    R15,4
 000CE4 47F0 70E2            00D2C  5936  1 00782000             B     PATIAXIT
 000CE8                             5937    00783000           END
 000CE8 58E0 77EA/0DEE       01434  5941    00784000           ACALL CHKIADDR
 000CEE 4780 70C2            00D0C  5945    00785000           IF    NZ,BEGIN
 000CF2 4110 77EE            01438  5956  1 00786000             SEGWR 'Invalid instruction address.'
 000CF6 4100 001C            0001C  5961  1          +
 000CFA 58F0 6008            00008  5967  1          +
 000CFE 58E0 77B2/0DEE       013FC  5970  1          +
 000D04 41F0 0004            00004  5972  1 00787000             LA    R15,4
 000D08 47F0 70E2            00D2C  5973  1 00788000             B     PATIAXIT
 000D0C                             5974    00789000           END
                                    5978    00790000
 000D0C 5850 6018            00018  5979    00791000           L     R5,DBDVWAP
 USING  DVWA,R5                     5980    00792000           WITH  (DVWA,R5),BEGIN
 000D10 5840 501C            0001C  5994  1 00793000             L     R4,DVEPIEP
 USING  EPIE,R4                     5995  1 00794000             WITH  (EPIE,R4),BEGIN
 000D14 5410 780A            01454  6009  2 00795000               SETIA R1,EPIEPSW
 000D18 D403 404C 780E 0004C 01458  6011  2          +
 000D1E 5610 404C            0004C  6012  2          +
 000D22 5010 404C            0004C  6013  2          +
 000D26 9680 5018      00018        6014  2 00796000               SET   DVFNEWIA
 DROP   EPIE,R4                     6020  1 00797000             END
 DROP   DVWA,R5                     6028    00798000           END
 000D2A 1BFF                        6036    00799000           CLEAR R15
                                    6040    00800000
 000D2C                             6041    00801000  PATIAXIT LABEL ,
 000D2C 18D8/980C D004       00004  6043    00802000           PEND
 DROP   DBWA-(4+52),R8
 DROP   *,R7
 000D32 58E0 D000/12FF       00000  6064             +
 000D38 07FE                        6067             +
 DROP   DBWA,R6                     6068    00803000           DROP  R6
1DEBUG    PC - patch core                                                                                                   Page   34
0Current Usings:  (TVT,R11) (GVT,R12)
0Loc    Object Code    Addr1 Addr2  Stmt Lv Lineno    Source Statement           (Hibal 5, Asmedit 3.3)  HLASM R4.0  2002/06/06 10.06
+___    ______ ____    _____ _____  ____ __ ______    ______ _________
0                                   6076    00805000  ¿þþþþþþþþþþþþþþþþþþþþþþþþþþþþþþþþþþþþþþþþþþþþþþþþþþþþþþþþþþþþþþþþþþþþþÜ
                                    6077    00806000  Ÿ                                                                     Ÿ
                                    6078    00807000  Ÿ  SETT - set trap                                                    Ÿ
                                    6079    00808000  Ÿ                                                                     Ÿ
                                    6080    00809000  Ÿ                                                                     Ÿ
                                    6081    00810000  Ÿ                                                                     Ÿ
                                    6082    00811000  Ÿ  R1,R0 - command loc, len  (part after pc)                          Ÿ
                                    6083    00812000  Ÿ  R15 - SEGCB                                                        Ÿ
                                    6084    00813000  Ÿ  R2 - symbol table pointer (zero if none)                           Ÿ
                                    6085    00814000  Ÿ  R3 - register area (zero if none)                                  Ÿ
                                    6086    00815000  Ÿ  R4 - current address '*' (zero if none)                            Ÿ
                                    6087    00816000  Ÿ  R5 - dvwa, debug break work area (traps)                           Ÿ
                                    6088    00817000  Ÿ                                                                     Ÿ
                                    6089    00818000  Ÿ                                                                     Ÿ
                                                      ¾þþþþþþþþþþþþþþþþþþþþþþþþþþþþþþþþþþþþþþþþþþþþþþþþþþþþþþþþþþþþþþþþþþþþþ»
0000D3A 90DF B0D4            000D4  6090    00819000  SETT     XPROC DBWA
 000D3E 58F0 C014/0DEF       00014  6103             +
 000D44 E2C5E3E340404040            6105             +
 000D4C 98DF B0D4            000D4  6106             +
 000D50 50E0 D000            00000  6109             +
 000D54 900C D004/188D       00004  6112             +
 000D5A 41D0 D078/0D70       00078  6115             +
 USING  *,R7                        6147    00820000  *
 USING  DBWA-(4+52),R8
 000D60 4160 8038            00000  6148    00821000           LA    R6,DBWA
 USING  DBWA,R6                     6149    00822000           USING DBWA,R6
                                    6158    00823000
 000D64                             6159    00824000           CLEAR DBWA
 000D64 D73F 6000 6000 00000 00000  6165             +
 000D6A 5010 6000            00000  6166    00825000           ST    R1,DBCMDLOC
 000D6E 5000 6004            00004  6167    00826000           ST    R0,DBCMDLEN
 000D72 50F0 6008            00008  6168    00827000           ST    R15,DBSEGCB
 000D76 5020 600C            0000C  6169    00828000           ST    R2,DBSYMS
 000D7A 5030 6010            00010  6170    00829000           ST    R3,DBREGS
 000D7E 5040 6014            00014  6171    00830000           ST    R4,DBCURADR
 000D82 5050 6018            00018  6172    00831000           ST    R5,DBDVWAP
 000D86 41F0 6020            00020  6173    00832000           SCINIT (R1),(R0),DBSCNCB
 000D8A 58E0 7690/0DEE       013F0  6191             +
                                    6193    00833000
 000D90 58E0 7694/0DEE       013F4  6194    00834000           ACALL EVALXPRN            EVALUATE ADDRESS EXPRESSION
                                    6198    00835000  *                                  RETURNS R1 - ADDRESS,  R15 - CC
 000D96 59F0 7698            013F8  6199    00836000           IF    (R15,EQ,4),BEGIN
 000D9A 4770 7054            00DB4  6211             +
 000D9E 4110 77B3            01513  6216  1 00837000             SEGWR 'Trap specification missing.'
 000DA2 4100 001B            0001B  6221  1          +
 000DA6 58F0 6008            00008  6227  1          +
 000DAA 58E0 769C/0DEE       013FC  6230  1          +
 000DB0 47F0 7276            00FD6  6232  1 00838000             B     SETTEXIT
 000DB4                             6233    00839000           END
 000DB4 59F0 76A0            01400  6237    00840000           IF    (R15,EQ,8),BEGIN
 000DB8 4770 7072            00DD2  6249             +
 000DBC 4110 77CE            0152E  6254  1 00841000             SEGWR 'Invalid trap address.  Command ignored.'
 000DC0 4100 0027            00027  6259  1          +
1DEBUG    PC - patch core                                                                                                   Page   35
0Current Usings:  (DBWA,R6) (*,R7) (DBWA-(4+52),R8) (TVT,R11) (GVT,R12)
0Loc    Object Code    Addr1 Addr2  Stmt Lv Lineno    Source Statement           (Hibal 5, Asmedit 3.3)  HLASM R4.0  2002/06/06 10.06
+___    ______ ____    _____ _____  ____ __ ______    ______ _________
0000DC4 58F0 6008            00008  6265  1          +
 000DC8 58E0 769C/0DEE       013FC  6268  1          +
 000DCE 47F0 7276            00FD6  6270  1 00842000             B     SETTEXIT
 000DD2                             6271    00843000           END
                                    6275    00844000  *
                                    6276    00845000  *                                  NO OPTIONS ALLOWED
 000DD2 58E0 76CC/0DEE       0142C  6277    00846000           ACALL CKCMDEND
 000DD8 4770 7276            00FD6  6281    00847000           BNZ   SETTEXIT
                                    6282    00848000  *
                                    6283    00849000  *                                  SEE IF TRAP ALREADY EXISTS
 000DDC 5840 6018            00018  6284    00850000           L     R4,DBDVWAP
 000DE0 4140 4024            00024  6285    00851000           WITH  (DVWA,R4),'LA R4,DVTRAPS'
 USING  DVWA,R4
 DROP   DVWA,R4
 USING  TPENTRY,R4                  6309    00852000           WITH  (TPENTRY,R4),BEGIN
 000DE4 4130 0001            00001  6323  1 00853000             LA    R3,1
 000DE8 5910 4000            00000  6324  1 00854000             WHILE ((R1,NE,TPADDR),AND,(TPADDR,NZ)),BEGIN
 000DEC 4780 70A6            00E06  6340  1          +
 000DF0 D603 4000 4000 00000 00000  6352  1          +
 000DF6 4780 70A6            00E06  6353  1          +
 000DFA 4140 4008            00008  6358  2 00855000               LA    R4,TPNEXT
 000DFE 4133 0001            00001  6359  2 00856000               LA    R3,1(R3)
 000E02 47F0 7088            00DE8  6360  1 00857000             END
 000E06 5930 76FC            0145C  6365  1 00858000             IF    (R3,GT,TPMAXCNT),BEGIN
 000E0A 47D0 70C4            00E24  6377  1          +
 000E0E 4110 77F5            01555  6382  2 00859000               SEGWR 'Too many traps set,, sorry you are hosed.'
 000E12 4100 0029            00029  6387  2          +
 000E16 58F0 6008            00008  6393  2          +
 000E1A 58E0 769C/0DEE       013FC  6396  2          +
 000E20 47F0 7276            00FD6  6398  2 00860000               B     SETTEXIT
 000E24                             6399  1 00861000             END
 000E24                             6403  1 00862000             IF    ((TPADDR,NZ),AND,~TPFOFF),BEGIN
 000E24 D603 4000 4000 00000 00000  6415  1          +
 000E2A 4780 70EC            00E4C  6416  1          +
 000E2E 9180 4006      00006        6427  1          +
 000E32 4710 70EC            00E4C  6428  1          +
 000E36 4110 7700            01460  6433  2 00863000               SEGWR 'Trap already there, command ignored.'
 000E3A 4100 0024            00024  6438  2          +
 000E3E 58F0 6008            00008  6444  2          +
 000E42 58E0 769C/0DEE       013FC  6447  2          +
 000E48 47F0 7276            00FD6  6449  2 00864000               B     SETTEXIT
 000E4C                             6450  1 00865000             END
 DROP   TPENTRY,R4                  6454    00866000           END , DROP TPENTRY (R4)
                                    6462    00867000  *
                                    6463    00868000  *                                  CHECK TRAP ADDR, R1 - TRAP ADDR
 000E4C 58E0 7724/0DEE       01484  6464    00869000           ACALL CHKSADDR            CHECK ADDRESS (FOR STORE)
 000E52 4780 710C            00E6C  6468    00870000           IF    NZ,BEGIN
 000E56 4110 781E            0157E  6479  1 00871000             SEGWR 'Invalid address, command ignored.'
 000E5A 4100 0021            00021  6484  1          +
 000E5E 58F0 6008            00008  6490  1          +
 000E62 58E0 769C/0DEE       013FC  6493  1          +
 000E68 47F0 7276            00FD6  6495  1 00872000             B     SETTEXIT
 000E6C                             6496    00873000           END
 000E6C 58E0 76D4/0DEE       01434  6500    00874000           ACALL CHKIADDR            CHECK IF INSTRUCTION ADDRESS
1DEBUG    PC - patch core                                                                                                   Page   36
0Current Usings:  (DBWA,R6) (*,R7) (DBWA-(4+52),R8) (TVT,R11) (GVT,R12)
0Loc    Object Code    Addr1 Addr2  Stmt Lv Lineno    Source Statement           (Hibal 5, Asmedit 3.3)  HLASM R4.0  2002/06/06 10.06
+___    ______ ____    _____ _____  ____ __ ______    ______ _________
0000E72 4780 712C            00E8C  6504    00875000           IF    NZ,BEGIN
 000E76 4110 783F            0159F  6515  1 00876000             SEGWR 'Invalid instruction address, command ignored.'
 000E7A 4100 002D            0002D  6520  1          +
 000E7E 58F0 6008            00008  6526  1          +
 000E82 58E0 769C/0DEE       013FC  6529  1          +
 000E88 47F0 7276            00FD6  6531  1 00877000             B     SETTEXIT
 000E8C                             6532    00878000           END
 000E8C 950A 1000      00000        6536    00879000           CLI   0(R1),X'0A'         MAY NOT TRAP SVC'S
 000E90 4770 714A            00EAA  6537    00880000           IF    E,BEGIN
 000E94 4110 786C            015CC  6548  1 00881000             SEGWR 'SVC can not be trapped.  Command ignored.'
 000E98 4100 0029            00029  6553  1          +
 000E9C 58F0 6008            00008  6559  1          +
 000EA0 58E0 769C/0DEE       013FC  6562  1          +
 000EA6 47F0 7276            00FD6  6564  1 00882000             B     SETTEXIT
 000EAA                             6565    00883000           END
 000EAA 9544 1000      00000        6569    00884000           CLI   0(R1),X'44'         MAY NOT TRAP EX INSTRUCTIONS
 000EAE 4770 7168            00EC8  6570    00885000           IF    E,BEGIN
 000EB2 4110 7668            013C8  6581  1 00886000             SEGWR 'EX can not be trapped.  Command ignored.'
 000EB6 4100 0028            00028  6586  1          +
 000EBA 58F0 6008            00008  6592  1          +
 000EBE 58E0 769C/0DEE       013FC  6595  1          +
 000EC4 47F0 7276            00FD6  6597  1 00887000             B     SETTEXIT
 000EC8                             6598    00888000           END
                                    6602    00889000  *
                                    6603    00890000  *                                  SET TRAP
 000EC8 5840 6018            00018  6604    00891000           L     R4,DBDVWAP
 000ECC 4140 4024            00024  6605    00892000           WITH  (DVWA,R4),'LA R4,DVTRAPS'
 USING  DVWA,R4
 DROP   DVWA,R4
 USING  TPENTRY,R4                  6629    00893000           WITH  (TPENTRY,R4),BEGIN
 000ED0 4130 0001            00001  6643  1 00894000             LA    R3,1
 000ED4 5910 4000            00000  6644  1 00895000             WHILE ((R1,NE,TPADDR),AND,(TPADDR,NZ)),BEGIN
 000ED8 4780 7192            00EF2  6660  1          +
 000EDC D603 4000 4000 00000 00000  6672  1          +
 000EE2 4780 7192            00EF2  6673  1          +
 000EE6 4140 4008            00008  6678  2 00896000               LA    R4,TPNEXT
 000EEA 4133 0001            00001  6679  2 00897000               LA    R3,1(R3)
 000EEE 47F0 7174            00ED4  6680  1 00898000             END
 000EF2 5930 76FC            0145C  6685  1 00899000             IF    (R3,GT,TPMAXCNT),BEGIN
 000EF6 47D0 71B0            00F10  6697  1          +
 000EFA 4110 77F5            01555  6702  2 00900000               SEGWR 'Too many traps set,, sorry you are hosed.'
 000EFE 4100 0029            00029  6707  2          +
 000F02 58F0 6008            00008  6713  2          +
 000F06 58E0 769C/0DEE       013FC  6716  2          +
 000F0C 47F0 7276            00FD6  6718  2 00901000               B     SETTEXIT
 000F10                             6719  1 00902000             END
 000F10 5010 4000            00000  6723  1 00903000             ST    R1,TPADDR
 000F14 D201 4004 1000 00004 00000  6724  1 00904000             MVC   TPOPCODE,@R1
 000F1A 947F 4006      00006        6725  1 00905000             CLEAR TPFOFF
 000F1E D201 1000 773C 00000 0149C  6732  1 00906000             MVC   @R1(2),=AL2(TRAPCODE)
                                    6733  1 00907000  *
                                    6734  1 00908000  *                                  GIVE SET TRAP MESSAGE
 000F24 1821                        6735  1 00909000             LR    R2,R1               R2, R1 - INSTRUCTION ADDRESS
                                    6736  1 00910000
1DEBUG    PC - patch core                                                                                                   Page   37
0Current Usings:  (TPENTRY,R4) (DBWA,R6) (*,R7) (DBWA-(4+52),R8) (TVT,R11) (GVT,R12)
0Loc    Object Code    Addr1 Addr2  Stmt Lv Lineno    Source Statement           (Hibal 5, Asmedit 3.3)  HLASM R4.0  2002/06/06 10.06
+___    ______ ____    _____ _____  ____ __ ______    ______ _________
0000F26 4110 7895            015F5  6737  1 00911000             SEG   'Trap '          'Trap n set at (hex) instruction'
 000F2A 4100 0005            00005  6741  1          +
 000F2E 58F0 6008            00008  6747  1          +
 000F32 58E0 7728/0DEE       01488  6750  1          +
 000F38 1813/1B00                   6752  1 00912000             SEGDC (R3)
 000F3C 58F0 6008            00008  6766  1          +
 000F40 58E0 772C/0DEE       0148C  6769  1          +
 000F46 4110 789A            015FA  6771  1 00913000             SEG   ' set at ('
 000F4A 4100 0009            00009  6775  1          +
 000F4E 58F0 6008            00008  6781  1          +
 000F52 58E0 7728/0DEE       01488  6784  1          +
 000F58 4810 4004            00004  6786  1 00914000             SEGHX LH:TPOPCODE,4          ASSUME INSTR LENGTH IS 2
 000F5C 4100 0004            00004  6796  1          +
 000F60 58F0 6008            00008  6802  1          +
 000F64 58E0 7730/0DEE       01490  6805  1          +
 000F6A 9540 2000      00000        6807  1 00915000             IF    (@R2,GE,X'40'),BEGIN   IF INSTR LENGTH IS 4
 000F6E 4750 7236            00F96  6818  1          +
 000F72 4110 78A3            01603  6823  2 00916000               SEG   ' '
 000F76 4100 0001            00001  6827  2          +
 000F7A 58F0 6008            00008  6833  2          +
 000F7E 58E0 7728/0DEE       01488  6836  2          +
 000F84 4810 2002            00002  6838  2 00917000               SEGHX LH:@R2+2,4
 000F88 4100 0004            00004  6848  2          +
 000F8C 58F0 6008            00008  6854  2          +
 000F90 58E0 7730/0DEE       01490  6857  2          +
 000F96                             6859  1 00918000             END
 000F96 95D0 2000      00000        6863  1 00919000             IF    (@R2,GE,X'D0'),BEGIN   IF INSTR LENGTH IS 6
 000F9A 4750 7262            00FC2  6874  1          +
 000F9E 4110 78A3            01603  6879  2 00920000               SEG   ' '
 000FA2 4100 0001            00001  6883  2          +
 000FA6 58F0 6008            00008  6889  2          +
 000FAA 58E0 7728/0DEE       01488  6892  2          +
 000FB0 4810 2004            00004  6894  2 00921000               SEGHX LH:@R2+4,4
 000FB4 4100 0004            00004  6904  2          +
 000FB8 58F0 6008            00008  6910  2          +
 000FBC 58E0 7730/0DEE       01490  6913  2          +
 000FC2                             6915  1 00922000             END
 000FC2 4110 773E            0149E  6919  1 00923000             SEGWR ') instruction.'
 000FC6 4100 000E            0000E  6924  1          +
 000FCA 58F0 6008            00008  6930  1          +
 000FCE 58E0 769C/0DEE       013FC  6933  1          +
 000FD4 1812                        6935  1 00924000             LR    R1,R2                R1 - TRAP ADDRESS
 DROP   TPENTRY,R4                  6936    00925000           END   , DROP TPENTRY (R4)
                                    6944    00926000
 000FD6                             6945    00927000  SETTEXIT LABEL ,
 000FD6 18D8/980C D004       00004  6947    00928000           PEND
 DROP   DBWA-(4+52),R8
 DROP   *,R7
 000FDC 58E0 D000/12FF       00000  6968             +
 000FE2 07FE                        6971             +
 DROP   DBWA,R6                     6972    00929000           DROP  R6
1DEBUG    PC - patch core                                                                                                   Page   38
0Current Usings:  (TVT,R11) (GVT,R12)
0Loc    Object Code    Addr1 Addr2  Stmt Lv Lineno    Source Statement           (Hibal 5, Asmedit 3.3)  HLASM R4.0  2002/06/06 10.06
+___    ______ ____    _____ _____  ____ __ ______    ______ _________
0                                   6980    00931000  ¿þþþþþþþþþþþþþþþþþþþþþþþþþþþþþþþþþþþþþþþþþþþþþþþþþþþþþþþþþþþþþþþþþþþþþÜ
                                    6981    00932000  Ÿ                                                                     Ÿ
                                    6982    00933000  Ÿ  SHOWT - show traps set                                             Ÿ
                                    6983    00934000  Ÿ                                                                     Ÿ
                                    6984    00935000  Ÿ                                                                     Ÿ
                                    6985    00936000  Ÿ                                                                     Ÿ
                                    6986    00937000  Ÿ  R1,R0 - command loc, len  (part after sts)                         Ÿ
                                    6987    00938000  Ÿ  R15 - SEGCB                                                        Ÿ
                                    6988    00939000  Ÿ  R2 - symbol table pointer (zero if none)                           Ÿ
                                    6989    00940000  Ÿ  R3 - register area (zero if none)  (not used)                      Ÿ
                                    6990    00941000  Ÿ  R4 - current address '*' (zero if none) (not used)                 Ÿ
                                    6991    00942000  Ÿ  R5 - dvwa, debug break work area (traps)                           Ÿ
                                    6992    00943000  Ÿ                                                                     Ÿ
                                    6993    00944000  Ÿ                                                                     Ÿ
                                                      ¾þþþþþþþþþþþþþþþþþþþþþþþþþþþþþþþþþþþþþþþþþþþþþþþþþþþþþþþþþþþþþþþþþþþþþ»
0000FE4 90DF B0D4            000D4  6994    00945000  SHOWTS   XPROC DBWA
 000FE8 58F0 C014/0DEF       00014  7007             +
 000FEE E2C8D6E6E3E24040            7009             +
 000FF6 98DF B0D4            000D4  7010             +
 000FFA 50E0 D000            00000  7013             +
 000FFE 900C D004/188D       00004  7016             +
 001004 41D0 D078/0D70       00078  7019             +
 USING  *,R7                        7051    00946000  *
 USING  DBWA-(4+52),R8
 00100A 4160 8038            00000  7052    00947000           LA    R6,DBWA
 USING  DBWA,R6                     7053    00948000           USING DBWA,R6
                                    7062    00949000
 00100E                             7063    00950000           CLEAR DBWA
 00100E D73F 6000 6000 00000 00000  7069             +
 001014 5010 6000            00000  7070    00951000           ST    R1,DBCMDLOC
 001018 5000 6004            00004  7071    00952000           ST    R0,DBCMDLEN
 00101C 50F0 6008            00008  7072    00953000           ST    R15,DBSEGCB
 001020 5020 600C            0000C  7073    00954000           ST    R2,DBSYMS
 001024 5030 6010            00010  7074    00955000           ST    R3,DBREGS
 001028 5040 6014            00014  7075    00956000           ST    R4,DBCURADR
 00102C 5050 6018            00018  7076    00957000           ST    R5,DBDVWAP
 001030 41F0 6020            00020  7077    00958000           SCINIT (R1),(R0),DBSCNCB
 001034 58E0 73E6/0DEE       013F0  7095             +
                                    7097    00959000  *
                                    7098    00960000  *                                  NO OPTIONS ALLOWED
 00103A 58E0 7422/0DEE       0142C  7099    00961000           ACALL CKCMDEND
 001040 4770 70DA            010E4  7103    00962000           BNZ   SHOWTXIT
                                    7104    00963000  *
                                    7105    00964000  *                                  SEE IF TRAP ALREADY EXISTS
 001044 5840 6018            00018  7106    00965000           L     R4,DBDVWAP
 001048 4140 4024            00024  7107    00966000           WITH  (DVWA,R4),'LA R4,DVTRAPS'
 USING  DVWA,R4
 DROP   DVWA,R4
 USING  TPENTRY,R4                  7131    00967000           WITH  (TPENTRY,R4),BEGIN
 00104C 4130 0001            00001  7145  1 00968000             LA    R3,1
 001050                             7146  1 00969000             WHILE (TPADDR,NZ),BEGIN
 001050 D603 4000 4000 00000 00000  7158  1          +
 001056 4780 70DA            010E4  7159  1          +
1DEBUG    PC - patch core                                                                                                   Page   39
0Current Usings:  (TPENTRY,R4) (DBWA,R6) (*,R7) (DBWA-(4+52),R8) (TVT,R11) (GVT,R12)
0Loc    Object Code    Addr1 Addr2  Stmt Lv Lineno    Source Statement           (Hibal 5, Asmedit 3.3)  HLASM R4.0  2002/06/06 10.06
+___    ______ ____    _____ _____  ____ __ ______    ______ _________
000105A 9180 4006      00006        7164  2 00970000               IF    ~TPFOFF,BEGIN
 00105E 4710 70CE            010D8  7174  2          +
 001062 4110 74A2            014AC  7179  3 00971000                 SEG   '  '
 001066 4100 0002            00002  7183  3          +
 00106A 58F0 6008            00008  7189  3          +
 00106E 58E0 747E/0DEE       01488  7192  3          +
 001074 1813/4100 0004       00004  7194  3 00972000                 SEGDC (R3),4
 00107A 58F0 6008            00008  7211  3          +
 00107E 58E0 7482/0DEE       0148C  7214  3          +
 001084 4110 74A2            014AC  7216  3 00973000                 SEG   '  '
 001088 4100 0002            00002  7220  3          +
 00108C 58F0 6008            00008  7226  3          +
 001090 58E0 747E/0DEE       01488  7229  3          +
 001096 5810 4000            00000  7231  3 00974000                 L     R1,TPADDR
 00109A 58E0 748A/0DEE       01494  7232  3 00975000                 ACALL DSEGADDR
 0010A0 4110 75FA            01604  7236  3 00976000                 SEG   '  ('
 0010A4 4100 0003            00003  7240  3          +
 0010A8 58F0 6008            00008  7246  3          +
 0010AC 58E0 747E/0DEE       01488  7249  3          +
 0010B2 4820 4004            00004  7251  3 00977000                 LH    R2,TPOPCODE
 0010B6 1812/4100 0004       00004  7252  3 00978000                 SEGHX (R2),4
 0010BC 58F0 6008            00008  7269  3          +
 0010C0 58E0 7486/0DEE       01490  7272  3          +
 0010C6 4110 75FD            01607  7274  3 00979000                 SEGWR ')'
 0010CA 4100 0001            00001  7279  3          +
 0010CE 58F0 6008            00008  7285  3          +
 0010D2 58E0 73F2/0DEE       013FC  7288  3          +
 0010D8                             7290  2 00980000               END
 0010D8 4140 4008            00008  7294  2 00981000               LA    R4,TPNEXT
 0010DC 4133 0001            00001  7295  2 00982000               LA    R3,1(R3)
 0010E0 47F0 7046            01050  7296  1 00983000             END
 DROP   TPENTRY,R4                  7301    00984000           END   , DROP TPENTRY (R4)
                                    7309    00985000
 0010E4                             7310    00986000  SHOWTXIT LABEL ,
 0010E4 18D8/980C D004       00004  7312    00987000           PEND
 DROP   DBWA-(4+52),R8
 DROP   *,R7
 0010EA 58E0 D000/12FF       00000  7333             +
 0010F0 07FE                        7336             +
                                    7337    00988000
 DROP   DBWA,R6                     7338    00989000           DROP  R6
1DEBUG    PC - patch core                                                                                                   Page   40
0Current Usings:  (TVT,R11) (GVT,R12)
0Loc    Object Code    Addr1 Addr2  Stmt Lv Lineno    Source Statement           (Hibal 5, Asmedit 3.3)  HLASM R4.0  2002/06/06 10.06
+___    ______ ____    _____ _____  ____ __ ______    ______ _________
0                                   7346    00991000  ¿þþþþþþþþþþþþþþþþþþþþþþþþþþþþþþþþþþþþþþþþþþþþþþþþþþþþþþþþþþþþþþþþþþþþþÜ
                                    7347    00992000  Ÿ                                                                     Ÿ
                                    7348    00993000  Ÿ  CLEART - clear trap                                                Ÿ
                                    7349    00994000  Ÿ                                                                     Ÿ
                                    7350    00995000  Ÿ                                                                     Ÿ
                                    7351    00996000  Ÿ                                                                     Ÿ
                                    7352    00997000  Ÿ  R1,R0 - command loc, len  (part after pc)                          Ÿ
                                    7353    00998000  Ÿ  R15 - SEGCB                                                        Ÿ
                                    7354    00999000  Ÿ  R2 - symbol table pointer (zero if none)                           Ÿ
                                    7355    01000000  Ÿ  R3 - register area (zero if none)                                  Ÿ
                                    7356    01001000  Ÿ  R4 - current address '*' (zero if none)                            Ÿ
                                    7357    01002000  Ÿ  R5 - dvwa, debug break work area (traps)                           Ÿ
                                    7358    01003000  Ÿ                                                                     Ÿ
                                    7359    01004000  Ÿ                                                                     Ÿ
                                                      ¾þþþþþþþþþþþþþþþþþþþþþþþþþþþþþþþþþþþþþþþþþþþþþþþþþþþþþþþþþþþþþþþþþþþþþ»
00010F2 90DF B0D4            000D4  7360    01005000  CLEART   XPROC DBWA
 0010F6 58F0 C014/0DEF       00014  7373             +
 0010FC C3D3C5C1D9E34040            7375             +
 001104 98DF B0D4            000D4  7376             +
 001108 50E0 D000            00000  7379             +
 00110C 900C D004/188D       00004  7382             +
 001112 41D0 D078/0D70       00078  7385             +
 USING  *,R7                        7417    01006000  *
 USING  DBWA-(4+52),R8
 001118 4160 8038            00000  7418    01007000           LA    R6,DBWA
 USING  DBWA,R6                     7419    01008000           USING DBWA,R6
                                    7428    01009000
 00111C                             7429    01010000           CLEAR DBWA
 00111C D73F 6000 6000 00000 00000  7435             +
 001122 5010 6000            00000  7436    01011000           ST    R1,DBCMDLOC
 001126 5000 6004            00004  7437    01012000           ST    R0,DBCMDLEN
 00112A 50F0 6008            00008  7438    01013000           ST    R15,DBSEGCB
 00112E 5020 600C            0000C  7439    01014000           ST    R2,DBSYMS
 001132 5030 6010            00010  7440    01015000           ST    R3,DBREGS
 001136 5040 6014            00014  7441    01016000           ST    R4,DBCURADR
 00113A 5050 6018            00018  7442    01017000           ST    R5,DBDVWAP
 00113E 41F0 6020            00020  7443    01018000           SCINIT (R1),(R0),DBSCNCB
 001142 58E0 72D8/0DEE       013F0  7461             +
                                    7463    01019000
 001148 58E0 72DC/0DEE       013F4  7464    01020000           ACALL EVALXPRN            EVALUATE ADDRESS EXPRESSION
                                    7468    01021000  *                                  RETURNS R1 - ADDRESS,  R15 - CC
 00114E 59F0 72E0            013F8  7469    01022000           IF    (R15,EQ,4),BEGIN
 001152 4770 7054            0116C  7481             +
 001156 4110 73FB            01513  7486  1 01023000             SEGWR 'Trap specification missing.'
 00115A 4100 001B            0001B  7491  1          +
 00115E 58F0 6008            00008  7497  1          +
 001162 58E0 72E4/0DEE       013FC  7500  1          +
 001168 47F0 7186            0129E  7502  1 01024000             B     CLRTEXIT
 00116C                             7503    01025000           END
 00116C 59F0 72E8            01400  7507    01026000           IF    (R15,EQ,8),BEGIN
 001170 4770 7072            0118A  7519             +
 001174 4110 7416            0152E  7524  1 01027000             SEGWR 'Invalid trap address.  Command ignored.'
 001178 4100 0027            00027  7529  1          +
1DEBUG    PC - patch core                                                                                                   Page   41
0Current Usings:  (DBWA,R6) (*,R7) (DBWA-(4+52),R8) (TVT,R11) (GVT,R12)
0Loc    Object Code    Addr1 Addr2  Stmt Lv Lineno    Source Statement           (Hibal 5, Asmedit 3.3)  HLASM R4.0  2002/06/06 10.06
+___    ______ ____    _____ _____  ____ __ ______    ______ _________
000117C 58F0 6008            00008  7535  1          +
 001180 58E0 72E4/0DEE       013FC  7538  1          +
 001186 47F0 7186            0129E  7540  1 01028000             B     CLRTEXIT
 00118A                             7541    01029000           END
                                    7545    01030000  *
                                    7546    01031000  *                                  NO OPTIONS ALLOWED
 00118A 58E0 7314/0DEE       0142C  7547    01032000           ACALL CKCMDEND
 001190 4770 7186            0129E  7551    01033000           BNZ   CLRTEXIT
                                    7552    01034000  *
                                    7553    01035000  *                                  IF TRAP NUMBER
 001194 5910 7380            01498  7554    01036000           IF    ((R1,GE,1),AND,(R1,LT,TPMAXCNT)),BEGIN
 001198 4750 70FE            01216  7568             +
 00119C 5910 7344            0145C  7581             +
 0011A0 47B0 70FE            01216  7582             +
 0011A4 5840 6018            00018  7587  1 01037000             L     R4,DBDVWAP
 0011A8 4140 4024            00024  7588  1 01038000             WITH  (DVWA,R4),'LA R4,DVTRAPS'
 USING  DVWA,R4
 DROP   DVWA,R4
 USING  TPENTRY,R4                  7612  1 01039000             WITH  (TPENTRY,R4),BEGIN
 0011AC 0610                        7626  2 01040000               BCTR  R1,0                INDEX TO CORRECT TRAP
 0011AE 4C10 7396            014AE  7627  2 01041000               MH    R1,=AL2(L'TPENTRY)
 0011B2 1A41                        7628  2 01042000               AR    R4,R1
 0011B4                             7629  2 01043000               IF    (TPADDR,Z),BEGIN
 0011B4 D603 4000 4000 00000 00000  7639  2          +
 0011BA 4770 70BC            011D4  7640  2          +
 0011BE 4110 74F0            01608  7645  3 01044000                 SEGWR 'Trap not set.'
 0011C2 4100 000D            0000D  7650  3          +
 0011C6 58F0 6008            00008  7656  3          +
 0011CA 58E0 72E4/0DEE       013FC  7659  3          +
 0011D0 47F0 7186            0129E  7661  3 01045000                 B     CLRTEXIT
 0011D4                             7662  2 01046000               END
 0011D4 9180 4006      00006        7666  2 01047000               IF    TPFOFF,BEGIN
 0011D8 47E0 70DA            011F2  7676  2          +
 0011DC 4110 74F0            01608  7681  3 01048000                 SEGWR 'Trap not set.'
 0011E0 4100 000D            0000D  7686  3          +
 0011E4 58F0 6008            00008  7692  3          +
 0011E8 58E0 72E4/0DEE       013FC  7695  3          +
 0011EE 47F0 7186            0129E  7697  3 01049000                 B     CLRTEXIT
 0011F2                             7698  2 01050000               END
 0011F2 5810 4000            00000  7702  2 01051000               L     R1,TPADDR           RESET OPCODE
 0011F6 D201 1000 4004 00000 00004  7703  2 01052000               MVC   @R1(2),TPOPCODE
 0011FC 9680 4006      00006        7704  2 01053000               SET   TPFOFF              MARK TRAP OFF
 001200 4110 74FD            01615  7710  2 01054000               SEGWR 'Trap cleared.'
 001204 4100 000D            0000D  7715  2          +
 001208 58F0 6008            00008  7721  2          +
 00120C 58E0 72E4/0DEE       013FC  7724  2          +
 001212 47F0 7186            0129E  7726  2 01055000               B     CLRTEXIT
 DROP   TPENTRY,R4                  7727  1 01056000             END   , DROP TPENTRY (R4)
 001216                             7735    01057000           END
                                    7739    01058000  *
                                    7740    01059000  *                                  FIND TRAP
 001216 5840 6018            00018  7741    01060000           L     R4,DBDVWAP
 00121A 4140 4024            00024  7742    01061000           WITH  (DVWA,R4),'LA R4,DVTRAPS'
 USING  DVWA,R4
1DEBUG    PC - patch core                                                                                                   Page   42
0Current Usings:  (DBWA,R6) (*,R7) (DBWA-(4+52),R8) (TVT,R11) (GVT,R12)
0Loc    Object Code    Addr1 Addr2  Stmt Lv Lineno    Source Statement           (Hibal 5, Asmedit 3.3)  HLASM R4.0  2002/06/06 10.06
+___    ______ ____    _____ _____  ____ __ ______    ______ _________
0DROP   DVWA,R4
 USING  TPENTRY,R4                  7766    01062000           WITH  (TPENTRY,R4),BEGIN
 00121E 4130 0001            00001  7780  1 01063000             LA    R3,1
 001222 5910 4000            00000  7781  1 01064000             WHILE ((R1,NE,TPADDR),AND,(TPADDR,NZ)),BEGIN
 001226 4780 7128            01240  7797  1          +
 00122A D603 4000 4000 00000 00000  7809  1          +
 001230 4780 7128            01240  7810  1          +
 001234 4140 4008            00008  7815  2 01065000               LA    R4,TPNEXT
 001238 4133 0001            00001  7816  2 01066000               LA    R3,1(R3)
 00123C 47F0 710A            01222  7817  1 01067000             END
 001240                             7822  1 01068000             IF    (TPADDR,Z),BEGIN
 001240 D603 4000 4000 00000 00000  7832  1          +
 001246 4770 7148            01260  7833  1          +
 00124A 4110 750A            01622  7838  2 01069000               SEGWR 'Trap not found.'
 00124E 4100 000F            0000F  7843  2          +
 001252 58F0 6008            00008  7849  2          +
 001256 58E0 72E4/0DEE       013FC  7852  2          +
 00125C 47F0 7186            0129E  7854  2 01070000               B     CLRTEXIT
 001260                             7855  1 01071000             END
 001260 9180 4006      00006        7859  1 01072000             IF    TPFOFF,BEGIN
 001264 47E0 7166            0127E  7869  1          +
 001268 4110 750A            01622  7874  2 01073000               SEGWR 'Trap not found.'
 00126C 4100 000F            0000F  7879  2          +
 001270 58F0 6008            00008  7885  2          +
 001274 58E0 72E4/0DEE       013FC  7888  2          +
 00127A 47F0 7186            0129E  7890  2 01074000               B     CLRTEXIT
 00127E                             7891  1 01075000             END
 00127E 5810 4000            00000  7895  1 01076000             L     R1,TPADDR           RESET OPCODE
 001282 D201 1000 4004 00000 00004  7896  1 01077000             MVC   @R1(2),TPOPCODE
 001288 9680 4006      00006        7897  1 01078000             SET   TPFOFF              MARK TRAP OFF
 00128C 4110 74FD            01615  7903  1 01079000             SEGWR 'Trap cleared.'
 001290 4100 000D            0000D  7908  1          +
 001294 58F0 6008            00008  7914  1          +
 001298 58E0 72E4/0DEE       013FC  7917  1          +
 DROP   TPENTRY,R4                  7919    01080000           END   , DROP TPENTRY (R4)
                                    7927    01081000
 00129E                             7928    01082000  CLRTEXIT LABEL ,
 00129E 18D8/980C D004       00004  7930    01083000           PEND
 DROP   DBWA-(4+52),R8
 DROP   *,R7
 0012A4 58E0 D000/12FF       00000  7951             +
 0012AA 07FE                        7954             +
 DROP   DBWA,R6                     7955    01084000           DROP  R6
1DEBUG    PC - patch core                                                                                                   Page   43
0Current Usings:  (TVT,R11) (GVT,R12)
0Loc    Object Code    Addr1 Addr2  Stmt Lv Lineno    Source Statement           (Hibal 5, Asmedit 3.3)  HLASM R4.0  2002/06/06 10.06
+___    ______ ____    _____ _____  ____ __ ______    ______ _________
0                                   7963    01086000  ¿þþþþþþþþþþþþþþþþþþþþþþþþþþþþþþþþþþþþþþþþþþþþþþþþþþþþþþþþþþþþþþþþþþþþþÜ
                                    7964    01087000  Ÿ                                                                     Ÿ
                                    7965    01088000  Ÿ  CLEARTS - clear all traps set                                      Ÿ
                                    7966    01089000  Ÿ                                                                     Ÿ
                                    7967    01090000  Ÿ                                                                     Ÿ
                                    7968    01091000  Ÿ                                                                     Ÿ
                                    7969    01092000  Ÿ  R1,R0 - command loc, len  (part after pc)                          Ÿ
                                    7970    01093000  Ÿ  R15 - SEGCB                                                        Ÿ
                                    7971    01094000  Ÿ  R2 - symbol table pointer (zero if none)  (not used)               Ÿ
                                    7972    01095000  Ÿ  R3 - register area (zero if none)  (not used)                      Ÿ
                                    7973    01096000  Ÿ  R4 - current address '*' (zero if none)  (not used)                Ÿ
                                    7974    01097000  Ÿ  R5 - dvwa, debug break work area (traps)                           Ÿ
                                    7975    01098000  Ÿ                                                                     Ÿ
                                    7976    01099000  Ÿ                                                                     Ÿ
                                                      ¾þþþþþþþþþþþþþþþþþþþþþþþþþþþþþþþþþþþþþþþþþþþþþþþþþþþþþþþþþþþþþþþþþþþþþ»
00012AC 90DF B0D4            000D4  7977    01100000  CLEARTS  XPROC DBWA
 0012B0 58F0 C014/0DEF       00014  7990             +
 0012B6 C3D3C5C1D9E3E240            7992             +
 0012BE 98DF B0D4            000D4  7993             +
 0012C2 50E0 D000            00000  7996             +
 0012C6 900C D004/188D       00004  7999             +
 0012CC 41D0 D078/0D70       00078  8002             +
 USING  *,R7                        8034    01101000  *
 USING  DBWA-(4+52),R8
 0012D2 4160 8038            00000  8035    01102000           LA    R6,DBWA
 USING  DBWA,R6                     8036    01103000           USING DBWA,R6
                                    8045    01104000
 0012D6                             8046    01105000           CLEAR DBWA
 0012D6 D73F 6000 6000 00000 00000  8052             +
 0012DC 5010 6000            00000  8053    01106000           ST    R1,DBCMDLOC
 0012E0 5000 6004            00004  8054    01107000           ST    R0,DBCMDLEN
 0012E4 50F0 6008            00008  8055    01108000           ST    R15,DBSEGCB
 0012E8 5020 600C            0000C  8056    01109000           ST    R2,DBSYMS
 0012EC 5030 6010            00010  8057    01110000           ST    R3,DBREGS
 0012F0 5040 6014            00014  8058    01111000           ST    R4,DBCURADR
 0012F4 5050 6018            00018  8059    01112000           ST    R5,DBDVWAP
 0012F8 41F0 6020            00020  8060    01113000           SCINIT (R1),(R0),DBSCNCB
 0012FC 58E0 711E/0DEE       013F0  8078             +
                                    8080    01114000  *
                                    8081    01115000  *                                  NO OPTIONS ALLOWED
 001302 58E0 715A/0DEE       0142C  8082    01116000           ACALL CKCMDEND
 001308 4770 707C            0134E  8086    01117000           BNZ   CLRTSXIT
                                    8087    01118000  *
                                    8088    01119000  *                                  LOOP THRU ALL TRAPS
 00130C 5840 6018            00018  8089    01120000           L     R4,DBDVWAP
 001310 4140 4024            00024  8090    01121000           WITH  (DVWA,R4),'LA R4,DVTRAPS'
 USING  DVWA,R4
 DROP   DVWA,R4
 USING  TPENTRY,R4                  8114    01122000           WITH  (TPENTRY,R4),BEGIN
 001314 4130 0001            00001  8128  1 01123000             LA    R3,1
 001318                             8129  1 01124000             WHILE (TPADDR,NZ),BEGIN   LOOP
 001318 D603 4000 4000 00000 00000  8141  1          +
 00131E 4780 706A            0133C  8142  1          +
1DEBUG    PC - patch core                                                                                                   Page   44
0Current Usings:  (TPENTRY,R4) (DBWA,R6) (*,R7) (DBWA-(4+52),R8) (TVT,R11) (GVT,R12)
0Loc    Object Code    Addr1 Addr2  Stmt Lv Lineno    Source Statement           (Hibal 5, Asmedit 3.3)  HLASM R4.0  2002/06/06 10.06
+___    ______ ____    _____ _____  ____ __ ______    ______ _________
0001322 5810 4000            00000  8147  2 01125000               L     R1,TPADDR           RESET OPCODE
 001326 D201 1000 4004 00000 00004  8148  2 01126000               MVC   @R1(2),TPOPCODE
 00132C 9680 4006      00006        8149  2 01127000               SET   TPFOFF              MARK TRAP OFF
 001330 4140 4008            00008  8155  2 01128000               LA    R4,TPNEXT
 001334 4133 0001            00001  8156  2 01129000               LA    R3,1(R3)
 001338 47F0 7046            01318  8157  1 01130000             END
 00133C 4110 71DE            014B0  8162  1 01131000             SEGWR 'All traps cleared.'
 001340 4100 0012            00012  8167  1          +
 001344 58F0 6008            00008  8173  1          +
 001348 58E0 712A/0DEE       013FC  8176  1          +
 DROP   TPENTRY,R4                  8178    01132000           END   , DROP TPENTRY (R4)
                                    8186    01133000
 00134E                             8187    01134000  CLRTSXIT LABEL ,
 00134E 18D8/980C D004       00004  8189    01135000           PEND
 DROP   DBWA-(4+52),R8
 DROP   *,R7
 001354 58E0 D000/12FF       00000  8210             +
 00135A 07FE                        8213             +
 DROP   DBWA,R6                     8214    01136000           DROP  R6
1DEBUG    PC - patch core                                                                                                   Page   45
0Current Usings:  (TVT,R11) (GVT,R12)
0Loc    Object Code    Addr1 Addr2  Stmt Lv Lineno    Source Statement           (Hibal 5, Asmedit 3.3)  HLASM R4.0  2002/06/06 10.06
+___    ______ ____    _____ _____  ____ __ ______    ______ _________
0                                   8222    01138000  ¿þþþþþþþþþþþþþþþþþþþþþþþþþþþþþþþþþþþþþþþþþþþþþþþþþþþþþþþþþþþþþþþþþþþþþÜ
                                    8223    01139000  Ÿ                                                                     Ÿ
                                    8224    01140000  Ÿ  SEGSYMAD - SEG symbolic address                                    Ÿ
                                    8225    01141000  Ÿ             gives MODULE+OFFSET or ADDRESS                          Ÿ
                                    8226    01142000  Ÿ                                                                     Ÿ
                                    8227    01143000  Ÿ                                                                     Ÿ
                                    8228    01144000  Ÿ  R1 - address to seg                                                Ÿ
                                    8229    01145000  Ÿ  R2 - symbol table pointer (zero if none)  (not used)               Ÿ
                                    8230    01146000  Ÿ  R15 - SEGCB                                                        Ÿ
                                    8231    01147000  Ÿ                                                                     Ÿ
                                    8232    01148000  Ÿ                                                                     Ÿ
                                                      ¾þþþþþþþþþþþþþþþþþþþþþþþþþþþþþþþþþþþþþþþþþþþþþþþþþþþþþþþþþþþþþþþþþþþþþ»
000135C 90DF B0D4            000D4  8233    01149000  SEGSYMAD XPROC DBWA
 001360 58F0 C014/0DEF       00014  8246             +
 001366 E2C5C7E2E8D4C1C4            8248             +
 00136E 98DF B0D4            000D4  8249             +
 001372 50E0 D000            00000  8252             +
 001376 900C D004/188D       00004  8255             +
 00137C 41D0 D078/0D70       00078  8258             +
 USING  *,R7                        8290    01150000  *
 USING  DBWA-(4+52),R8
 001382 4160 8038            00000  8291    01151000           LA    R6,DBWA
 USING  DBWA,R6                     8292    01152000           USING DBWA,R6
                                    8301    01153000
 001386                             8302    01154000           CLEAR DBWA
 001386 D73F 6000 6000 00000 00000  8308             +
 00138C 50F0 6008            00008  8309    01155000           ST    R15,DBSEGCB
 001390 5020 600C            0000C  8310    01156000           ST    R2,DBSYMS
                                    8311    01157000
 001394 58E0 7112/0DEE       01494  8312    01158000           ACALL DSEGADDR
                                    8316    01159000
 00139A 18D8/980C D004       00004  8317    01160000           PEND
 DROP   DBWA-(4+52),R8
 DROP   *,R7
 0013A0 58E0 D000/12FF       00000  8338             +
 0013A6 07FE                        8341             +
 DROP   DBWA,R6                     8342    01161000           DROP  R6
1DEBUG    PC - patch core                                                                                                   Page   46
0Current Usings:  (TVT,R11) (GVT,R12)
0Loc    Object Code    Addr1 Addr2  Stmt Lv Lineno    Source Statement           (Hibal 5, Asmedit 3.3)  HLASM R4.0  2002/06/06 10.06
+___    ______ ____    _____ _____  ____ __ ______    ______ _________
0                                   8350    01163000           QLTORG
 USING  DBWA,R6                     8408    01164000           USING DBWA,R6             Universal for Debug Subroutines
1DEBUG    Debug Subroutines - Evaluate ...                                                                                  Page   47
0Current Usings:  (DBWA,R6) (TVT,R11) (GVT,R12)
0Loc    Object Code    Addr1 Addr2  Stmt Lv Lineno    Source Statement           (Hibal 5, Asmedit 3.3)  HLASM R4.0  2002/06/06 10.06
+___    ______ ____    _____ _____  ____ __ ______    ______ _________
0                                   8418    01166000  ¿þþþþþþþþþþþþþþþþþþþþþþþþþþþþþþþþþþþþþþþþþþþþþþþþþþþþþþþþþþþþþþþþþþþþþÜ
                                    8419    01167000  Ÿ                                                                     Ÿ
                                    8420    01168000  Ÿ                                                                     Ÿ
                                    8421    01169000  Ÿ       EVALXPRN - EVALUATE AN ADDRESS EXPRESSION                     Ÿ
                                    8422    01170000  Ÿ                                                                     Ÿ
                                    8423    01171000  Ÿ       ON ENTRY: SCANNER IS SET UP TO POINT AT EXPRESSION            Ÿ
                                    8424    01172000  Ÿ                                                                     Ÿ
                                    8425    01173000  Ÿ       ON EXIT:  R1 - VALUE OF EXPRESSION                            Ÿ
                                    8426    01174000  Ÿ                 CC SET,  R15=0  OK                                  Ÿ
                                    8427    01175000  Ÿ                          R15=4  NO EXPRESSION FOUND                 Ÿ
                                    8428    01176000  Ÿ                          R15=8  INVALID EXPRESSION                  Ÿ
                                    8429    01177000  Ÿ                                                                     Ÿ
                                    8430    01178000  Ÿ                                                                     Ÿ
                                    8431    01179000  Ÿ       NOTE: EXPRESSION MUST BE SIMPLE. PLUSES AND MINUSES,          Ÿ
                                    8432    01180000  Ÿ             SYMBOLS, @REGISTERS, *, HEXIDCIMAL, AND DECIMAL         Ÿ
                                    8433    01181000  Ÿ             VALUES ARE ALLOWED. NOTHING ELSE.                       Ÿ
                                    8434    01182000  Ÿ                                                                     Ÿ
                                    8435    01183000  Ÿ                                                                     Ÿ
                                    8436    01184000  Ÿ                                                                     Ÿ
                                                      ¾þþþþþþþþþþþþþþþþþþþþþþþþþþþþþþþþþþþþþþþþþþþþþþþþþþþþþþþþþþþþþþþþþþþþþ»
0000000                00000 00005  8437    01185000  EVWA     RECORD BEGIN ,
 000000                             8445  1 01186000  EVVALUE    DS    F                  VALUE OF EXPRESSION
 000004                             8446  1 01187000  EVOPR      DS    X                  VALUE OF OPERATOR +/-
 000005                00005 00005  8447    01188000           END   ,
-                                   8457    01190000           ¿þþþþþþþþþþþþþþþþþþþþþþþþþþþþþþþþþþþþþþÜ
                                    8458    01191000           Ÿ  EVALUATE SIMPLE ADDRESS EXPRESSION  Ÿ
                                    8459    01192000           Ÿ                                      Ÿ
                                    8460    01193000           ¾þþþþþþþþþþþþþþþþþþþþþþþþþþþþþþþþþþþþþþ»
 001632 90DF B0D4            000D4  8461    01194000  EVALXPRN PROC  EVWA
 001636 58F0 C014/0DEF       00014  8472             +
 00163C C5E5C1D3E7D7D9D5            8474             +
 001644 98DF B0D4            000D4  8475             +
 001648 50E0 D000            00000  8478             +
 00164C 900C D004/188D       00004  8481             +
 001652 41D0 D040/0D70       00040  8484             +
 USING  *,R7                        8516    01195000           CLEAR EVWA               INITIALIZE WORK AREA TO ZEROS
 USING  EVWA-(4+52),R8
 001658 D704 8038 8038 00000 00000  8522             +
                                    8523    01196000
 00165E 1B11/41F0 6020       00020  8524    01197000           SCAN  ,DBSCNCB           SCAN FIRST TERM OF EXPRESSION
 001664 58E0 7368/0DEE       019C0  8538             +
 00166A 1200/4780 71F2       0184A  8540    01198000           IF    (R0,Z),NOEXPR
 001670 47F0 7058            016B0  8557    01199000           B     EVALTERM           EVALUATE IT
0                                   8559    01201000           ¿þþþþþþþþþþþþþþþþþþþþþþþþþþþþþþþþþþþþþÜ
                                    8560    01202000           Ÿ  LOOP THRU ALL TERMS IN EXPRESSION  Ÿ
                                    8561    01203000           ¾þþþþþþþþþþþþþþþþþþþþþþþþþþþþþþþþþþþþþ»
 001674                             8562    01204000  EVALLOOP LABEL ,
 001674 41F0 6020            00020  8564    01205000           SCTELL DBSCNCB
 001678 58E0 736C/0DEE       019C4  8574             +
 00167E 1200/47D0 71E0       01838  8576    01206000           IF    (R0,NP),EVALDONE          IF NO MORE TERMS, EXIT
1DEBUG    Debug Subroutines - Evaluate ...                                                                                  Page   48
0Current Usings:  (DBWA,R6) (*,R7) (EVWA-(4+52),R8) (TVT,R11) (GVT,R12)
0Loc    Object Code    Addr1 Addr2  Stmt Lv Lineno    Source Statement           (Hibal 5, Asmedit 3.3)  HLASM R4.0  2002/06/06 10.06
+___    ______ ____    _____ _____  ____ __ ______    ______ _________
0001684 0500                        8593    01207000           SCNR1FIX                        ADJUST R1 TO END PREV SCAN
 001686 9540 1000      00000        8596    01208000           IF    (@R1,EQ,' '),EVALDONE     IF END OF EXPRESSION, EXIT
 00168A 4780 71E0            01838  8609             +
 00168E 956B 1000      00000        8615    01209000           IF    (@R1,EQ,','),EVALDONE     IF END OF EXPRESSION, EXIT
 001692 4780 71E0            01838  8628             +
 001696 957E 1000      00000        8634    01210000           IF    (@R1,EQ,'='),EVALDONE     IF END OF EXPRESSION, EXIT
 00169A 4780 71E0            01838  8647             +
                                    8653    01211000
 00169E 1B11/41F0 6020       00020  8654    01212000           SCAN  ,DBSCNCB            SCAN NEXT TERM
 0016A4 58E0 7368/0DEE       019C0  8668             +
 0016AA 1200/4780 71E0       01838  8670    01213000           IF    (R0,Z),EVALDONE     IF NO NEXT TERM, EXIT
                                    8687    01214000  *
                                    8688    01215000  *                                  EVALUATE EXPRESSION TERMS
 0016B0                             8689    01216000  EVALTERM LABEL ,                   OH YEAH !!
                                    8691    01217000  *
0                                   8693    01219000           ¿þþþþþþþþþþþþþÜ
                                    8694    01220000           Ÿ  PLUS SIGN  Ÿ
                                    8695    01221000           ¾þþþþþþþþþþþþþ»
 0016B0 954E 1000      00000        8696    01222000           IF    (@R1,EQ,'+'),BEGIN
 0016B4 4770 7070            016C8  8707             +
 0016B8 9500 803C      00004        8712  1 01223000             CLI   EVOPR,0
 0016BC 4770 71FC            01854  8713  1 01224000             BNE   BADEXPR
 0016C0 924E 803C      00004        8714  1 01225000             MVI   EVOPR,C'+'         SET ADDITION OPERATOR
 0016C4 47F0 701C            01674  8715  1 01226000             B     EVALLOOP
 0016C8                             8716    01227000           END
                                    8720    01228000           ¿þþþþþþþþþþþþþþÜ
                                    8721    01229000           Ÿ  MINUS SIGN  Ÿ
                                    8722    01230000           ¾þþþþþþþþþþþþþþ»
 0016C8 9560 1000      00000        8723    01231000           IF    (@R1,EQ,'-'),BEGIN
 0016CC 4770 7088            016E0  8734             +
 0016D0 9500 803C      00004        8739  1 01232000             CLI   EVOPR,0
 0016D4 4770 71FC            01854  8740  1 01233000             BNE   BADEXPR
 0016D8 9260 803C      00004        8741  1 01234000             MVI   EVOPR,C'-'         SET SUBTRACT OPERATOR
 0016DC 47F0 701C            01674  8742  1 01235000             B     EVALLOOP
 0016E0                             8743    01236000           END
                                    8747    01237000           ¿þþþþþþþþþþþþþþÜ
                                    8748    01238000           Ÿ  @ REGISTER  Ÿ
                                    8749    01239000           ¾þþþþþþþþþþþþþþ»
 0016E0 957C 1000      00000        8750    01240000           IF    (@R1,EQ,'@'),BEGIN
 0016E4 4770 710C            01764  8761             +
 0016E8                             8766  1 01241000             IF    (DBREGS,Z),BADEXPR IF NO REGS, "@RX" NOT VALID
 0016E8 D603 6010 6010 00010 00010  8776  1          +
 0016EE 4780 71FC            01854  8779  1          +
 0016F2 4111 0001            00001  8785  1 01242000             LA    R1,1(R1)           SKIP TO REGISTER NUMBER
 0016F6 5B00 7370            019C8  8786  1 01243000             S     R0,=F'1'
 0016FA 47D0 71FC            01854  8787  1 01244000             BNP   BADEXPR
 0016FE 95F0 1000      00000        8788  1 01245000             IF    (@R1,EQ,'0'),' VCALL XTB '    CONVERT REG # TO BINARY
 001702 4770 70B4            0170C  8799  1          +
 001706 58E0 7374/0DEE       019CC  8807  1          +
 00170C 70B8           0170C 01704  8813  1 01246000             ELSE  'VCALL DTB '
 00170C 47F0 70BE            01716  8818  1          +
 001710 58E0 7378/0DEE       019D0  8827  1          +
 001716 1200/4720 71FC       01854  8833  1 01247000             IF    (R0,POS),BADEXPR
1DEBUG    Debug Subroutines - Evaluate ...                                                                                  Page   49
0Current Usings:  (DBWA,R6) (*,R7) (EVWA-(4+52),R8) (TVT,R11) (GVT,R12)
0Loc    Object Code    Addr1 Addr2  Stmt Lv Lineno    Source Statement           (Hibal 5, Asmedit 3.3)  HLASM R4.0  2002/06/06 10.06
+___    ______ ____    _____ _____  ____ __ ______    ______ _________
000171C 59F0 737C            019D4  8850  1 01248000             IF    ((R15,LT,0),OR,(R15,GT,15)),BADEXPR  0 <= REG # <= 15
 001720 4740 71FC            01854  8866  1          +
 001724 59F0 7380            019D8  8877  1          +
 001728 4720 71FC            01854  8880  1          +
 00172C 89F0 0002            00002  8886  1 01249000             SLL   R15,2
 001730 5810 6010            00010  8887  1 01250000             L     R1,DBREGS
 001734 5811 F000            00000  8888  1 01251000             L     R1,0(R1,R15)        R1 - REGISTER VALUE
 001738 5820 7384            019DC  8889  1 01252000             L     R2,=X'FF000000'
 00173C 1421                        8890  1 01253000             NR    R2,R1
 00173E 5920 7388            019E0  8891  1 01254000             IF    (R2,NE,X'FF000000'),BEGIN
 001742 4780 70F2            0174A  8903  1          +
 001746 4111 0000            00000  8908  2 01255000               LA    R1,0(R1)
 00174A                             8909  1 01256000             END
 00174A 9560 803C      00004        8913  1 01257000             IF    (EVOPR,EQ,'-'),BEGIN
 00174E 4770 70FC            01754  8925  1          +
 001752 1311                        8930  2 01258000               LCR   R1,R1
 001754                             8931  1 01259000             END   ,                  SUBTRACT OR ADD
 001754 5A10 8038            00000  8935  1 01260000             A     R1,EVVALUE         ADD VALUE TO EXPRESSION
 001758 5010 8038            00000  8936  1 01261000             ST    R1,EVVALUE
 00175C 9200 803C      00004        8937  1 01262000             MVI   EVOPR,0            CLEAR OPERATOR
 001760 47F0 701C            01674  8938  1 01263000             B     EVALLOOP
 001764                             8939    01264000           END
                                    8943    01265000           ¿þþþþþþþþþþþþþþþþþþþþþþþþþþþþþþþþþþþÜ
                                    8944    01266000           Ÿ  *,  CURRENT INSTRUCTION ADDRESS  Ÿ
                                    8945    01267000           ¾þþþþþþþþþþþþþþþþþþþþþþþþþþþþþþþþþþþ»
 001764 955C 1000      00000        8946    01268000           IF    ((@R1,EQ,'*'),AND,(R0,EQ,1)),BEGIN
 001768 4770 7144            0179C  8959             +
 00176C 5900 738C            019E4  8972             +
 001770 4770 7144            0179C  8973             +
 001774                             8978  1 01269000             IF    (DBCURADR,Z),BADEXPR IF NO CURRENT ADDRES, * NO GOOD
 001774 D603 6014 6014 00014 00014  8988  1          +
 00177A 4780 71FC            01854  8991  1          +
 00177E 5810 6014            00014  8997  1 01270000             L     R1,DBCURADR        GET INSTRUCTION ADDR VALUE
 001782 9560 803C      00004        8998  1 01271000             IF    (EVOPR,EQ,'-'),BEGIN
 001786 4770 7134            0178C  9010  1          +
 00178A 1311                        9015  2 01272000               LCR   R1,R1
 00178C                             9016  1 01273000             END   ,                   SUBTRACT OR
 00178C 5A10 8038            00000  9020  1 01274000             A     R1,EVVALUE         ADD VALUE TO EXPRESSION
 001790 5010 8038            00000  9021  1 01275000             ST    R1,EVVALUE
 001794 9200 803C      00004        9022  1 01276000             MVI   EVOPR,0            CLEAR OPERATOR
 001798 47F0 701C            01674  9023  1 01277000             B     EVALLOOP
 00179C                             9024    01278000           END
                                    9028    01279000           ¿þþþþþþþþþþþþþþÜ
                                    9029    01280000           Ÿ  HEX NUMBER  Ÿ
                                    9030    01281000           ¾þþþþþþþþþþþþþþ»
 00179C 95F0 1000      00000        9031    01282000           IF    (@R1,EQ,'0'),BEGIN
 0017A0 4770 717C            017D4  9042             +
 0017A4 5900 737C            019D4  9047  1 01283000             IF    (R0,LE,0),BADEXPR
 0017A8 47C0 71FC            01854  9061  1          +
 0017AC 58E0 7374/0DEE       019CC  9067  1 01284000             VCALL XTB                CONVERT HEX TO BINARY
 0017B2 1200/4720 71FC       01854  9071  1 01285000             IF    (R0,POS),BADEXPR
 0017B8 181F                        9088  1 01286000             LR    R1,R15             R1 - HEX VALUE
 0017BA 9560 803C      00004        9089  1 01287000             IF    (EVOPR,EQ,'-'),BEGIN
 0017BE 4770 716C            017C4  9101  1          +
1DEBUG    Debug Subroutines - Evaluate ...                                                                                  Page   50
0Current Usings:  (DBWA,R6) (*,R7) (EVWA-(4+52),R8) (TVT,R11) (GVT,R12)
0Loc    Object Code    Addr1 Addr2  Stmt Lv Lineno    Source Statement           (Hibal 5, Asmedit 3.3)  HLASM R4.0  2002/06/06 10.06
+___    ______ ____    _____ _____  ____ __ ______    ______ _________
00017C2 1311                        9106  2 01288000               LCR   R1,R1
 0017C4                             9107  1 01289000             END   ,                  SUBTRACT OR,
 0017C4 5A10 8038            00000  9111  1 01290000             A     R1,EVVALUE         ADD VALUE TO EXPRESSION
 0017C8 5010 8038            00000  9112  1 01291000             ST    R1,EVVALUE
 0017CC 9200 803C      00004        9113  1 01292000             MVI   EVOPR,0            CLEAR OPERATOR
 0017D0 47F0 701C            01674  9114  1 01293000             B     EVALLOOP
 0017D4                             9115    01294000           END
                                    9119    01295000           ¿þþþþþþþþþþþþþþþþþþÜ
                                    9120    01296000           Ÿ  DECIMAL NUMBER  Ÿ
                                    9121    01297000           ¾þþþþþþþþþþþþþþþþþþ»
 0017D4 95F1 1000      00000        9122    01298000           IF    ((@R1,GE,'1'),AND,(@R1,LE,'9')),BEGIN
 0017D8 4750 71BC            01814  9135             +
 0017DC 95F9 1000      00000        9147             +
 0017E0 4730 71BC            01814  9148             +
 0017E4 5900 737C            019D4  9153  1 01299000             IF    (R0,LE,0),BADEXPR
 0017E8 47C0 71FC            01854  9167  1          +
 0017EC 58E0 7378/0DEE       019D0  9173  1 01300000             VCALL DTB                CONVERT DEC TO BINARY
 0017F2 1200/4720 71FC       01854  9177  1 01301000             IF    (R0,POS),BADEXPR
 0017F8 181F                        9194  1 01302000             LR    R1,R15             R1 - DECIMAL VALUE
 0017FA 9560 803C      00004        9195  1 01303000             IF    (EVOPR,EQ,'-'),BEGIN
 0017FE 4770 71AC            01804  9207  1          +
 001802 1311                        9212  2 01304000               LCR   R1,R1
 001804                             9213  1 01305000             END   ,                  SUBTRACT OR
 001804 5A10 8038            00000  9217  1 01306000             A     R1,EVVALUE         ADD VALUE TO EXPRESSION
 001808 5010 8038            00000  9218  1 01307000             ST    R1,EVVALUE
 00180C 9200 803C      00004        9219  1 01308000             MVI   EVOPR,0            CLEAR OPERATOR
 001810 47F0 701C            01674  9220  1 01309000             B     EVALLOOP
 001814                             9221    01310000           END
                                    9225    01311000           ¿þþþþþþþþþþÜ
                                    9226    01312000           Ÿ  SYMBOL  Ÿ
                                    9227    01313000           ¾þþþþþþþþþþ»
 001814                             9228    01314000           BEGIN
 001814 58E0 7390/0DEE       019E8  9232  1 01315000             ACALL EVALSYM            EVALUATE SYMBOL, VALUE
 00181A 4770 71FC            01854  9236  1 01316000             BNZ   BADEXPR            R1 - SYMBOL VALUE
 00181E 9560 803C      00004        9237  1 01317000             IF    (EVOPR,EQ,'-'),BEGIN
 001822 4770 71D0            01828  9249  1          +
 001826 1311                        9254  2 01318000               LCR   R1,R1
 001828                             9255  1 01319000             END   ,                  SUBTRACT OR ,,
 001828 5A10 8038            00000  9259  1 01320000             A     R1,EVVALUE         ADD VALUE TO EXPRESSION
 00182C 5010 8038            00000  9260  1 01321000             ST    R1,EVVALUE
 001830 9200 803C      00004        9261  1 01322000             MVI   EVOPR,0            CLEAR OPERATOR
 001834 47F0 701C            01674  9262  1 01323000             B     EVALLOOP
 001838                             9263    01324000           END
                                    9267    01325000           ¿þþþþþþþþþþþþþþþþþþþþþþþþþþþþþþþþþþþÜ
                                    9268    01326000           Ÿ  GOT EVALUATED ADDRESS, CHECK IT  Ÿ
                                    9269    01327000           ¾þþþþþþþþþþþþþþþþþþþþþþþþþþþþþþþþþþþ»
 001838                             9270    01328000  EVALDONE LABEL ,
 001838 9500 803C      00004        9272    01329000           CLI   EVOPR,0            NO HANGING OPERATORS
 00183C 4770 71FC            01854  9273    01330000           BNE   BADEXPR
 001840 5810 8038            00000  9274    01331000           L     R1,EVVALUE         RETURN VALUE, CC=0
 001844 1BFF                        9275    01332000           SR    R15,R15
 001846 47F0 7206            0185E  9276    01333000           B     EVALEXIT
                                    9277    01334000
 00184A                             9278    01335000  NOEXPR   LABEL ,                  NO EXPRESSION
1DEBUG    Debug Subroutines - Evaluate ...                                                                                  Page   51
0Current Usings:  (DBWA,R6) (*,R7) (EVWA-(4+52),R8) (TVT,R11) (GVT,R12)
0Loc    Object Code    Addr1 Addr2  Stmt Lv Lineno    Source Statement           (Hibal 5, Asmedit 3.3)  HLASM R4.0  2002/06/06 10.06
+___    ______ ____    _____ _____  ____ __ ______    ______ _________
000184A 1B11                        9280    01336000           SR    R1,R1
 00184C 41F0 0004            00004  9281    01337000           LA    R15,4
 001850 47F0 7206            0185E  9282    01338000           B     EVALEXIT
                                    9283    01339000
 001854                             9284    01340000  BADEXPR  LABEL ,                  INVALID EXPRESSION
 001854 1B11                        9286    01341000           SR    R1,R1
 001856 41F0 0008            00008  9287    01342000           LA    R15,8
 00185A 47F0 7206            0185E  9288    01343000           B     EVALEXIT
                                    9289    01344000
 00185E                             9290    01345000  EVALEXIT LABEL ,
 00185E 5018 0008            00008  9292    01346000           PRETURN (R1)
 001862 18D8/980C D004       00004  9294    01347000           PEND
 DROP   EVWA-(4+52),R8
 DROP   *,R7
 001868 58E0 D000/12FF       00000  9315             +
 00186E 07FE                        9318             +
1DEBUG    Debug Subroutines - Evaluate ...                                                                                  Page   52
0Current Usings:  (DBWA,R6) (TVT,R11) (GVT,R12)
0Loc    Object Code    Addr1 Addr2  Stmt Lv Lineno    Source Statement           (Hibal 5, Asmedit 3.3)  HLASM R4.0  2002/06/06 10.06
+___    ______ ____    _____ _____  ____ __ ______    ______ _________
0                                   9320    01349000  ¿þþþþþþþþþþþþþþþþþþþþþþþþþþþþþþþþþþþþþþþþþþþþþþþþþþþþþþþþþþþþþþþþþþþþþÜ
                                    9321    01350000  Ÿ                                                                     Ÿ
                                    9322    01351000  Ÿ                                                                     Ÿ
                                    9323    01352000  Ÿ  EVALSYM - find value of symbolic address                           Ÿ
                                    9324    01353000  Ÿ                                                                     Ÿ
                                    9325    01354000  Ÿ  on entry:  r1 - location of symbol                                 Ÿ
                                    9326    01355000  Ÿ             r0 - length of symbol                                   Ÿ
                                    9327    01356000  Ÿ                                                                     Ÿ
                                    9328    01357000  Ÿ  on exit:   r1 - symbol address                                     Ÿ
                                    9329    01358000  Ÿ            r15 - CC=0 symbol found,  CC=NZ symbol not found (r1=0)  Ÿ
                                    9330    01359000  Ÿ                                                                     Ÿ
                                    9331    01360000  Ÿ                                                                     Ÿ
                                    9332    01361000  Ÿ                                                                     Ÿ
                                                      ¾þþþþþþþþþþþþþþþþþþþþþþþþþþþþþþþþþþþþþþþþþþþþþþþþþþþþþþþþþþþþþþþþþþþþþ»
0000000                00000 00010  9333    01362000  EVWA2    RECORD BEGIN ,           WORK AREA FOR SYMBOL, ADDR EVAL
 000000                             9341  1 01363000  EV2SYM     DS    CL8                SYMBOL
 000008                             9342  1 01364000  EV2ADDR    DS    F                  ADDR
 00000C                             9343  1 01365000  EV2OFF     DS    F                  OFFSET
 000010                00010 00010  9344    01366000           END   ,
-                                   9354    01368000            ¿þþþþþþþþþþþþþþþþþþþÜ
                                    9355    01369000            Ÿ  EVALUATE SYMBOL  Ÿ
                                    9356    01370000            Ÿ                   Ÿ
                                    9357    01371000            ¾þþþþþþþþþþþþþþþþþþþ»
 001870 90DF B0D4            000D4  9358    01372000  EVALSYM  PROC  EVWA2
 001874 58F0 C014/0DEF       00014  9369             +
 00187A C5E5C1D3E2E8D440            9371             +
 001882 98DF B0D4            000D4  9372             +
 001886 50E0 D000            00000  9375             +
 00188A 900C D004/188D       00004  9378             +
 001890 41D0 D048/0D70       00048  9381             +
 USING  *,R7                        9413    01373000           CLEAR EVWA2
 USING  EVWA2-(4+52),R8
 001896 D70F 8038 8038 00000 00000  9419             +
 00189C D207 8038 711A 00000 019B0  9420    01374000           MVC   EV2SYM,=CL(L'EV2SYM)' '  BLANK IT
 0018A2 5900 714E            019E4  9421    01375000           IF    ((R0,LT,1),OR,(R0,GT,8)),BADSYM
 0018A6 4740 7062            018F8  9437             +
 0018AA 5900 7156            019EC  9448             +
 0018AE 4720 7062            018F8  9451             +
 0018B2 1820                        9457    01376000           LR    R2,R0
 0018B4 0620/4420 715A       019F0  9458    01377000           DEX   R2,' MVC EV2SYM(0),0(R1)'
 0019F0 D200 8038 1000 00000 00000  9469             +
 0018BA D607 8038 711A 00000 019B0  9477    01378000           OC    EV2SYM,=CL(L'EV2SYM)' '  POOR PERSONS UPPER CASE
                                    9478    01379000           ¿þþþþþþþþþþþþþþþþþþþþþþÜ
                                    9479    01380000           Ÿ  CHECK SYMBOL TABLE  Ÿ
                                    9480    01381000           ¾þþþþþþþþþþþþþþþþþþþþþþ»
 0018C0                             9481    01382000           IF    (DBSYMS,Z),BADSYM
 0018C0 D603 600C 600C 0000C 0000C  9491             +
 0018C6 4780 7062            018F8  9494             +
 0018CA 5820 600C            0000C  9500    01383000           L     R2,DBSYMS
 0018CE 1222/4780 7062       018F8  9501    01384000           WHILE (R2,NZ),BEGIN       LOOP THRU SYMBOL TABLE
 0018D4 4132 0004            00004  9517  1 01385000             SYMNAME R3,R2
1DEBUG    Debug Subroutines - Evaluate ...                                                                                  Page   53
0Current Usings:  (DBWA,R6) (*,R7) (EVWA2-(4+52),R8) (TVT,R11) (GVT,R12)
0Loc    Object Code    Addr1 Addr2  Stmt Lv Lineno    Source Statement           (Hibal 5, Asmedit 3.3)  HLASM R4.0  2002/06/06 10.06
+___    ______ ____    _____ _____  ____ __ ______    ______ _________
00018D8                             9519  1 01386000             IF    (EV2SYM,EQ,@R3),BEGIN   IF SYMBOL FOUND, ,,,
 0018D8 D507 8038 3000 00000 00000  9530  1          +
 0018DE 4770 705A            018F0  9531  1          +
 0018E2 5812 000C            0000C  9536  2 01387000               SYMADDR R1,R2             R1 - ADDR, CC = 0
 0018E6 4111 0000            00000  9538  2 01388000               LA    R1,0(R1)
 0018EA 1BFF                        9539  2 01389000               SR    R15,R15
 0018EC 47F0 7068            018FE  9540  2 01390000               B     ESYMEXIT
 0018F0                             9541  1 01391000             END
 0018F0 5822 0000            00000  9545  1 01392000             SYMNEXT R2,R2
 0018F4 47F0 7038            018CE  9547    01393000           END
                                    9552    01394000
 0018F8                             9553    01395000  BADSYM   LABEL ,                  BAD OR NO SYMBOL
 0018F8 1B11                        9555    01396000           SR    R1,R1                 R1 = 0, CC = NZ
 0018FA 41F0 0004            00004  9556    01397000           LA    R15,4
                                    9557    01398000
 0018FE                             9558    01399000  ESYMEXIT LABEL ,
 0018FE 5018 0008            00008  9560    01400000           PRETURN (R1)
 001902 18D8/980C D004       00004  9562    01401000           PEND
 DROP   EVWA2-(4+52),R8
 DROP   *,R7
 001908 58E0 D000/12FF       00000  9583             +
 00190E 07FE                        9586             +
1DEBUG    Debug Subroutines - Evaluate ...                                                                                  Page   54
0Current Usings:  (DBWA,R6) (TVT,R11) (GVT,R12)
0Loc    Object Code    Addr1 Addr2  Stmt Lv Lineno    Source Statement           (Hibal 5, Asmedit 3.3)  HLASM R4.0  2002/06/06 10.06
+___    ______ ____    _____ _____  ____ __ ______    ______ _________
0                                   9588    01403000  ¿þþþþþþþþþþþþþþþþþþþþþþþþþþþþþþþþþþþþþþþþþþþþþþþþþþþþþþþþþþþþþþþþþþþþþÜ
                                    9589    01404000  Ÿ                                                                     Ÿ
                                    9590    01405000  Ÿ                                                                     Ÿ
                                    9591    01406000  Ÿ  EVALADDR - evaluate address into CSECT+OFFSET value                Ÿ
                                    9592    01407000  Ÿ                                                                     Ÿ
                                    9593    01408000  Ÿ  on entry:   r1 - address                                           Ÿ
                                    9594    01409000  Ÿ                                                                     Ÿ
                                    9595    01410000  Ÿ  on exit:    r1 - offset                                            Ÿ
                                    9596    01411000  Ÿ              r15,r0 - csect name                                    Ÿ
                                    9597    01412000  Ÿ              if r15=0, no csect found, r1 = address                 Ÿ
                                    9598    01413000  Ÿ                                                                     Ÿ
                                    9599    01414000  Ÿ                                                                     Ÿ
                                                      ¾þþþþþþþþþþþþþþþþþþþþþþþþþþþþþþþþþþþþþþþþþþþþþþþþþþþþþþþþþþþþþþþþþþþþþ»
0001910 90DF B0D4            000D4  9600    01415000  EVALADDR PROC  EVWA2
 001914 58F0 C014/0DEF       00014  9611             +
 00191A C5E5C1D3C1C4C4D9            9613             +
 001922 98DF B0D4            000D4  9614             +
 001926 50E0 D000            00000  9617             +
 00192A 900C D004/188D       00004  9620             +
 001930 41D0 D048/0D70       00048  9623             +
 USING  *,R7                        9655    01416000           CLEAR EVWA2
 USING  EVWA2-(4+52),R8
 001936 D70F 8038 8038 00000 00000  9661             +
 00193C 5010 8040            00008  9662    01417000           ST    R1,EV2ADDR         INIT WORK AREA
 001940 4111 0000            00000  9663    01418000           LA    R1,0(R1)
                                    9664    01419000           ¿þþþþþþþþþþþþþþþþþþþþþþÜ
                                    9665    01420000           Ÿ  CHECK SYMBOL TABLE  Ÿ
                                    9666    01421000           ¾þþþþþþþþþþþþþþþþþþþþþþ»
 001944                             9667    01422000           IF    (DBSYMS,Z),NOSYM
 001944 D603 600C 600C 0000C 0000C  9677             +
 00194A 4780 7054            0198A  9680             +
 00194E 5820 600C            0000C  9686    01423000           L     R2,DBSYMS
 001952 1222/4780 7054       0198A  9687    01424000           WHILE (R2,NZ),BEGIN
 001958 5832 000C            0000C  9703  1 01425000             SYMADDR R3,R2
 00195C 5842 0010            00010  9705  1 01426000             SYMLEN  R4,R2
 001960 1A43                        9707  1 01427000             AR    R4,R3
 001962 1913/4750 704C       01982  9708  1 01428000             IF    ((R1,GE,R3),AND,(R1,LT,R4)),BEGIN
 001968 1914/47B0 704C       01982  9731  1          +
 00196E 4152 0004            00004  9737  2 01429000               SYMNAME R5,R2
 001972 D207 8038 5000 00000 00000  9739  2 01430000               MVC   EV2SYM,@R5
 001978 1B13                        9740  2 01431000               SR    R1,R3
 00197A 5010 8044            0000C  9741  2 01432000               ST    R1,EV2OFF
 00197E 47F0 7060            01996  9742  2 01433000               B     EADREXIT
 001982                             9743  1 01434000             END
 001982 5822 0000            00000  9747  1 01435000             SYMNEXT R2,R2
 001986 47F0 701C            01952  9749    01436000           END
-                                   9755    01438000
 00198A                             9756    01439000  NOSYM    LABEL ,                  IF NO SYMBOL,
 00198A D203 8044 8040 0000C 00008  9758    01440000           MVC   EV2OFF(4),EV2ADDR        OFFSET IS ADDRESS,
 001990 D207 8038 7082 00000 019B8  9759    01441000           MVC   EV2SYM(8),=XL8'00000000' SYMBOL IS ZERO
1DEBUG    Debug Subroutines - Evaluate ...                                                                                  Page   55
0Current Usings:  (DBWA,R6) (*,R7) (EVWA2-(4+52),R8) (TVT,R11) (GVT,R12)
0Loc    Object Code    Addr1 Addr2  Stmt Lv Lineno    Source Statement           (Hibal 5, Asmedit 3.3)  HLASM R4.0  2002/06/06 10.06
+___    ______ ____    _____ _____  ____ __ ______    ______ _________
0                                   9761    01443000           ¿þþþþþþþþÜ
                                    9762    01444000           Ÿ  EXIT  Ÿ
                                    9763    01445000           ¾þþþþþþþþ»
 001996                             9764    01446000  EADREXIT LABEL ,
 001996 98F0 8038            00000  9766    01447000           LM    R15,R0,EV2SYM      RETURN SYMBOL, OFFSET
 00199A 5810 8044            0000C  9767    01448000           L     R1,EV2OFF
 00199E 9001 8004            00004  9768    01449000           PRETURN (R0,R1)
 0019A2 18D8/980C D004       00004  9770    01450000           PEND
 DROP   EVWA2-(4+52),R8
 DROP   *,R7
 0019A8 58E0 D000/12FF       00000  9791             +
 0019AE 07FE                        9794             +
                                    9795    01451000
                                    9796    01452000           QLTORG
1DEBUG    Debug Subroutines - Display ...                                                                                   Page   56
0Current Usings:  (DBWA,R6) (TVT,R11) (GVT,R12)
0Loc    Object Code    Addr1 Addr2  Stmt Lv Lineno    Source Statement           (Hibal 5, Asmedit 3.3)  HLASM R4.0  2002/06/06 10.06
+___    ______ ____    _____ _____  ____ __ ______    ______ _________
0                                   9823    01454000  ¿þþþþþþþþþþþþþþþþþþþþþþþþþþþþþþþþþþþþþþþþþþþþþþþþþþþþþþþþþþþþþþþþþþþþþÜ
                                    9824    01455000  Ÿ                                                                     Ÿ
                                    9825    01456000  Ÿ                                                                     Ÿ
                                    9826    01457000  Ÿ  DISPCORE - DISPLAY CORE                                            Ÿ
                                    9827    01458000  Ÿ                                                                     Ÿ
                                    9828    01459000  Ÿ       ON ENTRY:                                                     Ÿ
                                    9829    01460000  Ÿ             R1  - ACTUAL ADDRESS OF MEMORY                          Ÿ
                                    9830    01461000  Ÿ             R0  - LENGTH OF MEMORY, 0 - DEFAULTS TO 64              Ÿ
                                    9831    01462000  Ÿ             R15 - ADDRESS TO PRINT AS DISPLAY ADDR                  Ÿ
                                    9832    01463000  Ÿ                                                                     Ÿ
                                    9833    01464000  Ÿ                                                                     Ÿ
                                    9834    01465000  Ÿ                                                                     Ÿ
                                                      ¾þþþþþþþþþþþþþþþþþþþþþþþþþþþþþþþþþþþþþþþþþþþþþþþþþþþþþþþþþþþþþþþþþþþþþ»
0000000                00000 00068  9835    01466000  DCWA     RECORD BEGIN ,
 000000                             9843  1 01467000  DCSTART    DS    F                  ADDR TO START DISPLAYING
 000004                             9844  1 01468000  DCPSTART   DS    F                  ADDR TO PRINT AS START
 000008                             9845  1 01469000  DCADDR     DS    F                  ADDR CURRENTLY DISPLAYING
 00000C                             9846  1 01470000  DCPADDR    DS    F                  ADDR TO PRINT AS WE DISPLAY
 000010                             9847  1 01471000  DCEND      DS    F                  LAST ADDRESS TO DISPLAY
 000014                             9848  1 01472000  DCLEN      DS    F                  LENGTH TO DISPLAY (0 MEANS ALL)
 000018                             9849  1 01473000  DCTEMPLT   DS    CL80               DISPLAY LINE TEMPLATE
                                    9850  1 01474000  DCTPADDR   EQU   DCTEMPLT           ADDRESS IN TEMPLATE
                                    9851  1 01475000  DCTPHEX1   EQU   DCTEMPLT+10
                                    9852  1 01476000  DCTPHEX2   EQU   DCTEMPLT+19
                                    9853  1 01477000  DCTPHEX3   EQU   DCTEMPLT+28
                                    9854  1 01478000  DCTPHEX4   EQU   DCTEMPLT+37
                                    9855  1 01479000  DCTPCHAR   EQU   DCTEMPLT+47
                                    9856  1 01480000  DCTPMSG    EQU   DCTEMPLT+66
 000068                00068 00068  9857    01481000           END
-
-                                   9867    01483000  ¿þþþþþþþþþþþþþþþþþþþþþþþþþþþþþþþþþþþþþþþþþþþþþþþþþþþþþþþþþþþþþþþþþþþþþÜ
                                    9868    01484000  Ÿ                                                                     Ÿ
                                    9869    01485000  Ÿ                                                                     Ÿ
                                    9870    01486000  Ÿ       DISPLAY CORE                                                  Ÿ
                                    9871    01487000  Ÿ                                                                     Ÿ
                                    9872    01488000  Ÿ                                                                     Ÿ
                                                      ¾þþþþþþþþþþþþþþþþþþþþþþþþþþþþþþþþþþþþþþþþþþþþþþþþþþþþþþþþþþþþþþþþþþþþþ»
00019F6 90DF B0D4            000D4  9873    01489000  DISPCORE PROC  DCWA
 0019FA 58F0 C014/0DEF       00014  9884             +
 001A00 C4C9E2D7C3D6D9C5            9886             +
 001A08 98DF B0D4            000D4  9887             +
 001A0C 50E0 D000            00000  9890             +
 001A10 900C D004/188D       00004  9893             +
 001A16 41D0 D0A0/0D70       000A0  9896             +
 USING  *,R7                        9928    01490000  *
 USING  DCWA-(4+52),R8
                                    9929    01491000  *        INITIALIZE WORK AREA
                                    9930    01492000  *
1DEBUG    Debug Subroutines - Display ...                                                                                   Page   57
0Current Usings:  (DBWA,R6) (*,R7) (DCWA-(4+52),R8) (TVT,R11) (GVT,R12)
0Loc    Object Code    Addr1 Addr2  Stmt Lv Lineno    Source Statement           (Hibal 5, Asmedit 3.3)  HLASM R4.0  2002/06/06 10.06
+___    ______ ____    _____ _____  ____ __ ______    ______ _________
0001A1C                             9931    01493000           CLEAR DCWA
 001A1C D767 8038 8038 00000 00000  9937             +
 001A22 4111 0000            00000  9938    01494000           LA    R1,0(R1)
 001A26 41FF 0000            00000  9939    01495000           LA    R15,0(R15)
 001A2A 5010 8038            00000  9940    01496000           ST    R1,DCSTART         SAVE START AND LENGTH TO DISPLAY
 001A2E 50F0 803C            00004  9941    01497000           ST    R15,DCPSTART
 001A32 5000 804C            00014  9942    01498000           ST    R0,DCLEN
 001A36 5900 7534            01F50  9943    01499000           IF    (R0,EQ,0),' LA R0,64'    R0=0, DEFAULTS TO 64
 001A3A 4770 7026            01A42  9955             +
 001A3E 4100 0040            00040  9961             +
 001A42 1A01                        9966    01500000           AR    R0,R1
 001A44 5000 8048            00010  9967    01501000           ST    R0,DCEND
 001A48 182F                        9968    01502000           LR    R2,R15             ROUND ADDRESS TO NEAREST 16
 001A4A 8820 0004            00004  9969    01503000           SRL   R2,4
 001A4E 8920 0004            00004  9970    01504000           SLL   R2,4
 001A52 1B2F                        9971    01505000           SR    R2,R15             R2=ROUNDED ADDR-ADDR=
 001A54 5810 8038            00000  9972    01506000           L     R1,DCSTART           =STARTING OFFSET (NEGATIVE)
 001A58 1A12                        9973    01507000           AR    R1,R2
 001A5A 5010 8040            00008  9974    01508000           ST    R1,DCADDR
 001A5E 58F0 803C            00004  9975    01509000           L     R15,DCPSTART
 001A62 1AF2                        9976    01510000           AR    R15,R2
 001A64 50F0 8044            0000C  9977    01511000           ST    R15,DCPADDR
                                    9978    01512000  *
                                    9979    01513000  * LOOP DISPLAYING 16 BYTES AT A TIME
                                    9980    01514000  *
 001A68                             9981    01515000           WHILE (DCADDR,LT,DCEND),BEGIN
 001A68 D503 8040 8048 00008 00010  9995             +
 001A6E 47B0 71A2            01BBE  9996             +
 001A72 D24F 8050 71B0 00018 01BCC 10001  1 01516000             MVC   DCTEMPLT,TEMPLT    INITIALIZE TEMPLET
 001A78 5820 8040            00008 10002  1 01517000             L     R2,DCADDR          R2 - ADDR OF CURRENT 16 BYTES
 001A7C 1812                       10003  1 01518000             LR    R1,R2
 001A7E 4100 0010            00010 10004  1 01519000             LA    R0,16
 001A82 58E0 7538/0DEE       01F54 10005  1 01520000             ACALL CHKRADDR           CHECK ADDR (for read)
 001A88 4780 7086            01AA2 10009  1 01521000             IF    NZ,BEGIN
 001A8C 4110 7504            01F20 10020  2 01522000               SEGWR 'Invalid address.'
 001A90 4100 0010            00010 10025  2          +
 001A94 58F0 6008            00008 10031  2          +
 001A98 58E0 753C/0DEE       01F58 10034  2          +
 001A9E 47F0 71A2            01BBE 10036  2 01523000               B     DISPEXIT
 001AA2                            10037  1 01524000             END
 001AA2 58F0 8044            0000C 10041  1 01525000             L     R15,DCPADDR        OUTPUT 6 BYTES OF ADDRESS
 001AA6 4110 8050            00018 10042  1 01526000             LA    R1,DCTPADDR
 001AAA 4100 0008            00008 10043  1 01527000             LA    R0,8
 001AAE 58E0 7540/0DEE       01F5C 10044  1 01528000             VCALL BTX
 001AB4 58F2 0000            00000 10048  1 01529000             L     R15,0(R2)          OUTPUT 1ST 4 BYTES OF HEX
 001AB8 4110 805A            00022 10049  1 01530000             LA    R1,DCTPHEX1
 001ABC 4100 0008            00008 10050  1 01531000             LA    R0,8
 001AC0 58E0 7540/0DEE       01F5C 10051  1 01532000             VCALL BTX
 001AC6 58F2 0004            00004 10055  1 01533000             L     R15,4(R2)          OUTPUT 2ND 4 BYTES OF HEX
 001ACA 4110 8063            0002B 10056  1 01534000             LA    R1,DCTPHEX2
 001ACE 4100 0008            00008 10057  1 01535000             LA    R0,8
 001AD2 58E0 7540/0DEE       01F5C 10058  1 01536000             VCALL BTX
 001AD8 58F2 0008            00008 10062  1 01537000             L     R15,8(R2)          OUTPUT 3RD 4 BYTES OF HEX
 001ADC 4110 806C            00034 10063  1 01538000             LA    R1,DCTPHEX3
1DEBUG    Debug Subroutines - Display ...                                                                                   Page   58
0Current Usings:  (DBWA,R6) (*,R7) (DCWA-(4+52),R8) (TVT,R11) (GVT,R12)
0Loc    Object Code    Addr1 Addr2  Stmt Lv Lineno    Source Statement           (Hibal 5, Asmedit 3.3)  HLASM R4.0  2002/06/06 10.06
+___    ______ ____    _____ _____  ____ __ ______    ______ _________
0001AE0 4100 0008            00008 10064  1 01539000             LA    R0,8
 001AE4 58E0 7540/0DEE       01F5C 10065  1 01540000             VCALL BTX
 001AEA 58F2 000C            0000C 10069  1 01541000             L     R15,12(R2)         OUTPUT 4TH 4 BYTES OF HEX
 001AEE 4110 8075            0003D 10070  1 01542000             LA    R1,DCTPHEX4
 001AF2 4100 0008            00008 10071  1 01543000             LA    R0,8
 001AF6 58E0 7540/0DEE       01F5C 10072  1 01544000             VCALL BTX
 001AFC D20F 807F 2000 00047 00000 10076  1 01545000             MVC   DCTPCHAR(16),0(R2) OUTPUT 16 BYTES IN CHARACTER FORM
 001B02 9140 601C      0001C       10077  1 01546000             IF    DBFASCII,BEGIN
 001B06 47E0 70F8            01B14 10087  1          +
 001B0A 5810 7544            01F60 10092  2 01547000               L     R1,=A(ATOETBL)      Point to ASCII->EBCIDIC table
 001B0E DC0F 807F 1000 00047 00000 10093  2 01548000               TR    DCTPCHAR(16),@R1    Translate so I can read it
 001B14                            10094  1 01549000             END
 001B14 DC0F 807F 7200 00047 01C1C 10098  1 01550000             TR    DCTPCHAR(16),DOTMASK      MASK OUT UNPRINTABLES
                                   10099  1 01551000            ¿þþþþþþþþþþþþþþþþþþþþþþþþþþþþþþþþþþþþþþþþþþþþþþþþþþþþþþþþþþþþþþþþÜ
                                   10100  1 01552000            Ÿ  IF BEFORE START ADDR,  BLANK OUT HEX, DOT OUT CHARACTER DATA  Ÿ
                                   10101  1 01553000            Ÿ        (OCCURS WHEN WE ROUND DOWN START ADDRESS)               Ÿ
                                   10102  1 01554000            ¾þþþþþþþþþþþþþþþþþþþþþþþþþþþþþþþþþþþþþþþþþþþþþþþþþþþþþþþþþþþþþþþþ»
 001B1A                            10103  1 01555000             IF    (DCADDR,LT,DCSTART),BEGIN
 001B1A D503 8040 8038 00008 00000 10115  1          +
 001B20 47B0 713E            01B5A 10116  1          +
 001B24 58F0 803C            00004 10121  2 01556000               L     R15,DCPSTART       PRINT OFFSET START ADDRESS
 001B28 4110 8050            00018 10122  2 01557000               LA    R1,DCTPADDR
 001B2C 4100 0008            00008 10123  2 01558000               LA    R0,8
 001B30 58E0 7540/0DEE       01F5C 10124  2 01559000               VCALL BTX
 001B36 5840 8040            00008 10128  2 01560000               L     R4,DCADDR          BLANK, DOT OUT CHARS AS NEEDED
 001B3A 5850 8038            00000 10129  2 01561000               L     R5,DCSTART
 001B3E 1B54                       10130  2 01562000               SR    R5,R4              R5,R4 - AMOUNT BEFORE START
 001B40 1845                       10131  2 01563000               LR    R4,R5
 001B42 1835                       10132  2 01564000               LR    R3,R5
 001B44 8940 0001            00001 10133  2 01565000               SLL   R4,1                    TWO CHARS PER HEX BYTE
 001B48 8830 0002            00002 10134  2 01566000               SRL   R3,2                    NUMBER OF HEX SEPARATORS
 001B4C 1A43                       10135  2 01567000               AR    R4,R3              R4 - AMOUNT PLUS HEX SEPARATORS
                                   10136  2 01568000  *                                      THAT OCCUR EVERY 4 HEX BYTES
 001B4E 0650/4450 7590       01FAC 10137  2 01569000               DEX   R5,' MVC DCTPCHAR(0),DOTMASK'   DOT OUT CHARACTERS
 001FAC D200 807F 7200 00047 01C1C 10148  2          +
 001B54 0640/4440 7596       01FB2 10156  2 01570000               DEX   R4,' MVC DCTPHEX1(0),=CL32" "'  BLANK OUT HEX
 001FB2 D200 805A 7514 00022 01F30 10167  2          +
 001B5A                            10175  1 01571000             END
 001B5A                            10179  1 01572000             IF    (DCADDR,LE,DCSTART),BEGIN
 001B5A D503 8040 8038 00008 00000 10191  1          +
 001B60 4730 7170            01B8C 10192  1          +
 001B64                            10197  2 01573000               IF    (DCADDR,NE,DCPADDR),BEGIN  IF REAL ADDR IS DIFFERENT
 001B64 D503 8040 8044 00008 0000C 10209  2          +
 001B6A 4780 7170            01B8C 10210  2          +
 001B6E D203 8092 7548 0005A 01F64 10215  3 01574000                 MVC   DCTPMSG(4),=CL4'(RA='         PRINT OUT REAL ADDR
 001B74 58F0 8038            00000 10216  3 01575000                 L     R15,DCSTART
 001B78 4110 8096            0005E 10217  3 01576000                 LA    R1,DCTPMSG+4
 001B7C 4100 0008            00008 10218  3 01577000                 LA    R0,8
 001B80 58E0 7540/0DEE       01F5C 10219  3 01578000                 VCALL BTX
 001B86 D200 809E 756A 00066 01F86 10223  3 01579000                 MVC   DCTPMSG+12(1),=CL1')'
 001B8C                            10224  2 01580000               END
 001B8C                            10228  1 01581000             END
1DEBUG    Debug Subroutines - Display ...                                                                                   Page   59
0Current Usings:  (DBWA,R6) (*,R7) (DCWA-(4+52),R8) (TVT,R11) (GVT,R12)
0Loc    Object Code    Addr1 Addr2  Stmt Lv Lineno    Source Statement           (Hibal 5, Asmedit 3.3)  HLASM R4.0  2002/06/06 10.06
+___    ______ ____    _____ _____  ____ __ ______    ______ _________
0                                  10232  1 01582000             ¿þþþþþþþþþþþþþþþþþþþþþþþþþþþþþþÜ
                                   10233  1 01583000             Ÿ  DISPLAY 16 BYTES OF MEMORY  Ÿ
                                   10234  1 01584000             ¾þþþþþþþþþþþþþþþþþþþþþþþþþþþþþþ»
 001B8C 4110 8050            00018 10235  1 01585000             SEGWR DCTEMPLT,80        DISPLAY LINE OF MEMORY
 001B90 4100 0050            00050 10252  1          +
 001B94 58F0 6008            00008 10258  1          +
 001B98 58E0 753C/0DEE       01F58 10261  1          +
                                   10263  1 01586000
 001B9E 4770 71A2            01BBE 10264  1 01587000             BNZ   DISPEXIT           IF ATTN HIT, EXIT
 001BA2 5820 8040            00008 10265  1 01588000             L     R2,DCADDR
 001BA6 4122 0010            00010 10266  1 01589000             LA    R2,16(R2)          BUMP MEMORY, VIRTUAL ADDR BY 16
 001BAA 5020 8040            00008 10267  1 01590000             ST    R2,DCADDR
 001BAE 5820 8044            0000C 10268  1 01591000             L     R2,DCPADDR
 001BB2 4122 0010            00010 10269  1 01592000             LA    R2,16(R2)
 001BB6 5020 8044            0000C 10270  1 01593000             ST    R2,DCPADDR         AND LOOP
 001BBA 47F0 704C            01A68 10271    01594000           END
                                   10276    01595000  *
                                   10277    01596000  * EXIT
                                   10278    01597000  *
 001BBE                            10279    01598000  DISPEXIT LABEL ,
 001BBE 18D8/980C D004       00004 10281    01599000           PEND
 DROP   DCWA-(4+52),R8
 DROP   *,R7
 001BC4 58E0 D000/12FF       00000 10302             +
 001BCA 07FE                       10305             +
-
-001BCC 4040404040404040           10307    01601000  TEMPLT   DC    CL80' '
 001C1C                01C1C 01BFA 10308    01602000           ORG   TEMPLT+46
 001BFA 4F                         10309    01603000           DC    C'|'
 001BFB                01BFB 01C0B 10310    01604000           ORG   TEMPLT+63
 001C0B 4F                         10311    01605000           DC    C'|'
 001C0C                01C0C 01C1C 10312    01606000           ORG   TEMPLT+L'TEMPLT
                                   10313    01607000  *
                                   10314    01608000  * DOTMASK,  TRANSLATE UNPRITABLES TO DOTS
                                   10315    01609000  *
 001C1C                            10316    01610000  DOTMASK  LABEL ,
 001C1C 4B4B4B4B4B4B4B4B           10318    01611000           DC    X'4B4B4B4B4B4B4B4B4B4B4B4B4B4B4B4B'
 001C2C 4B4B4B4B4B4B4B4B           10319    01612000           DC    X'4B4B4B4B4B4B4B4B4B4B4B4B4B4B4B4B'
 001C3C 4B4B4B4B4B4B4B4B           10320    01613000           DC    X'4B4B4B4B4B4B4B4B4B4B4B4B4B4B4B4B'
 001C4C 4B4B4B4B4B4B4B4B           10321    01614000           DC    X'4B4B4B4B4B4B4B4B4B4B4B4B4B4B4B4B'
 001C5C 404B4B4B4B4B4B4B           10322    01615000           DC    X'404B4B4B4B4B4B4B4B4B4A4B4C4D4E4F'
 001C6C 504B4B4B4B4B4B4B           10323    01616000           DC    X'504B4B4B4B4B4B4B4B4B5A5B5C5D5E5F'
 001C7C 60614B4B4B4B4B4B           10324    01617000           DC    X'60614B4B4B4B4B4B4B4B4B6B6C6D6E6F'
 001C8C 4B4B4B4B4B4B4B4B           10325    01618000           DC    X'4B4B4B4B4B4B4B4B4B797A7B7C7D7E7F'
 001C9C 4B81828384858687           10326    01619000           DC    X'4B8182838485868788894B4B4B4B4B4B'
 001CAC 4B91929394959697           10327    01620000           DC    X'4B9192939495969798994B4B4B4B4B4B'
 001CBC 4B4BA2A3A4A5A6A7           10328    01621000           DC    X'4B4BA2A3A4A5A6A7A8A94B4B4BAD4B4B'
 001CCC 4B4B4B4B4B4B4B4B           10329    01622000           DC    X'4B4B4B4B4B4B4B4B4B4B4B4B4BBD4B4B'
 001CDC C0C1C2C3C4C5C6C7           10330    01623000           DC    X'C0C1C2C3C4C5C6C7C8C94B4B4B4B4B4B'
 001CEC D0D1D2D3D4D5D6D7           10331    01624000           DC    X'D0D1D2D3D4D5D6D7D8D94B4B4B4B4B4B'
1DEBUG    Debug Subroutines - Display ...                                                                                   Page   60
0Current Usings:  (DBWA,R6) (TVT,R11) (GVT,R12)
0Loc    Object Code    Addr1 Addr2  Stmt Lv Lineno    Source Statement           (Hibal 5, Asmedit 3.3)  HLASM R4.0  2002/06/06 10.06
+___    ______ ____    _____ _____  ____ __ ______    ______ _________
0001CFC 4B4BE2E3E4E5E6E7           10332    01625000           DC    X'4B4BE2E3E4E5E6E7E8E94B4B4B4B4B4B'
 001D0C F0F1F2F3F4F5F6F7           10333    01626000           DC    X'F0F1F2F3F4F5F6F7F8F94B4B4B4B4B4B'
1DEBUG    Debug Subroutines - Display ...                                                                                   Page   61
0Current Usings:  (DBWA,R6) (TVT,R11) (GVT,R12)
0Loc    Object Code    Addr1 Addr2  Stmt Lv Lineno    Source Statement           (Hibal 5, Asmedit 3.3)  HLASM R4.0  2002/06/06 10.06
+___    ______ ____    _____ _____  ____ __ ______    ______ _________
0                                  10335    01628000  ¿þþþþþþþþþþþþþþþþþþþþþþþþþþþþþþþþþþþþþþþþþþþþþþþþþþþþþþþþþþþþþþþþþþþþþÜ
                                   10336    01629000  Ÿ                                                                     Ÿ
                                   10337    01630000  Ÿ                                                                     Ÿ
                                   10338    01631000  Ÿ  DISPREGS - display registers                                       Ÿ
                                   10339    01632000  Ÿ                                                                     Ÿ
                                   10340    01633000  Ÿ  on entry:  r0 - first register to display                          Ÿ
                                   10341    01634000  Ÿ             r1 - last register to display                           Ÿ
                                   10342    01635000  Ÿ  sample:                                                            Ÿ
                                   10343    01636000  Ÿ     R0 = 0000034F             R1 = 001C00A3 TERM+0F2E               Ÿ
                                   10344    01637000  Ÿ     R2 = 001C00A3 TERM+0F2E   R3 = 00000000                         Ÿ
                                   10345    01638000  Ÿ                                                                     Ÿ
                                   10346    01639000  Ÿ                                                                     Ÿ
                                   10347    01640000  Ÿ  note: r15 wraps to r0                                              Ÿ
                                   10348    01641000  Ÿ                                                                     Ÿ
                                                      ¾þþþþþþþþþþþþþþþþþþþþþþþþþþþþþþþþþþþþþþþþþþþþþþþþþþþþþþþþþþþþþþþþþþþþþ»
0001D1C 90DF B0D4            000D4 10349    01642000  DISPREGS PROC
 001D20 58F0 C014/0DEF       00014 10359             +
 001D26 C4C9E2D7D9C5C7E2           10361             +
 001D2E 98DF B0D4            000D4 10362             +
 001D32 50E0 D000            00000 10365             +
 001D36 900C D004/188D       00004 10368             +
 001D3C 41D0 D038/0D70       00038 10370             +
 USING  *,R7                       10393    01643000  *
 001D42                            10394    01644000           IF    (DBREGS,Z),BEGIN
 001D42 D603 6010 6010 00010 00010 10404             +
 001D48 4770 7020            01D62 10405             +
 001D4C 4110 7245            01F87 10410  1 01645000             SEGWR 'Unable to access register values.'
 001D50 4100 0021            00021 10415  1          +
 001D54 58F0 6008            00008 10421  1          +
 001D58 58E0 7216/0DEE       01F58 10424  1          +
 001D5E 47F0 7070            01DB2 10426  1 01646000             B     DISREXIT
 001D62                            10427    01647000           END
                                   10431    01648000
 001D62 1840                       10432    01649000           LR    R4,R0              R4 - FIRST REG, USED AS INDEX
 001D64 1851                       10433    01650000           LR    R5,R1              R5 - LAST REG, USED AS TEST
 001D66 8840 0001            00001 10434    01651000           SRL   R4,1               FIRST IS EVEN REG, LAST IS ODD
 001D6A 8940 0001            00001 10435    01652000           SLL   R4,1
 001D6E 8850 0001            00001 10436    01653000           SRL   R5,1
 001D72 8950 0001            00001 10437    01654000           SLL   R5,1
 001D76 4155 0001            00001 10438    01655000           LA    R5,1(R5)
 001D7A 1945/47D0 705A       01D9C 10439    01656000           IF    (R4,GT,R5),BEGIN   IF REGISTERS WRAP, ,,,
 001D80 4130 000F            0000F 10454  1 01657000             LA    R3,15
 001D84 1943/47B0 7058       01D9A 10455  1 01658000             WHILE (R4,LT,R3),BEGIN      SHO REGS FIRST THRU R15
 001D8A 1814                       10472  2 01659000               LR    R1,R4
 001D8C 58E0 7226/0DEE       01F68 10473  2 01660000               ACALL DISPPAIR              DISPLAY REGISTER PAIR
 001D92 4144 0002            00002 10477  2 01661000               LA    R4,2(R4)
 001D96 47F0 7042            01D84 10478  1 01662000             END
 001D9A 1B44                       10483  1 01663000             SR    R4,R4
 001D9C                            10484    01664000           END
 001D9C 1945/47B0 7070       01DB2 10488    01665000           WHILE (R4,LT,R5),BEGIN  IF REGISTERS DO NOT WRAP ,,,
 001DA2 1814                       10505  1 01666000             LR    R1,R4
 001DA4 58E0 7226/0DEE       01F68 10506  1 01667000             ACALL DISPPAIR             DISPLAY REGISTER PAIR
 001DAA 4144 0002            00002 10510  1 01668000             LA    R4,2(R4)
1DEBUG    Debug Subroutines - Display ...                                                                                   Page   62
0Current Usings:  (DBWA,R6) (*,R7) (TVT,R11) (GVT,R12)
0Loc    Object Code    Addr1 Addr2  Stmt Lv Lineno    Source Statement           (Hibal 5, Asmedit 3.3)  HLASM R4.0  2002/06/06 10.06
+___    ______ ____    _____ _____  ____ __ ______    ______ _________
0001DAE 47F0 705A            01D9C 10511    01669000           END
                                   10516    01670000
 001DB2                            10517    01671000  DISREXIT LABEL ,
 001DB2 18D8/980C D004       00004 10519    01672000           PEND
 DROP   *,R7
 001DB8 58E0 D000/12FF       00000 10535             +
 001DBE 07FE                       10538             +
1DEBUG    Debug Subroutines - Display ...                                                                                   Page   63
0Current Usings:  (DBWA,R6) (TVT,R11) (GVT,R12)
0Loc    Object Code    Addr1 Addr2  Stmt Lv Lineno    Source Statement           (Hibal 5, Asmedit 3.3)  HLASM R4.0  2002/06/06 10.06
+___    ______ ____    _____ _____  ____ __ ______    ______ _________
0                                  10540    01674000  ¿þþþþþþþþþþþþþþþþþþþþþþþþþþþþþþþþþþþþþþþþþþþþþþþþþþþþþþþþþþþþþþþþþþþþþÜ
                                   10541    01675000  Ÿ                                                                     Ÿ
                                   10542    01676000  Ÿ                                                                     Ÿ
                                   10543    01677000  Ÿ  DISPPAIR - display register pair                                   Ÿ
                                   10544    01678000  Ÿ                                                                     Ÿ
                                   10545    01679000  Ÿ  on entry:  r1 - even register number                               Ÿ
                                   10546    01680000  Ÿ                                                                     Ÿ
                                   10547    01681000  Ÿ                                                                     Ÿ
                                                      ¾þþþþþþþþþþþþþþþþþþþþþþþþþþþþþþþþþþþþþþþþþþþþþþþþþþþþþþþþþþþþþþþþþþþþþ»
0001DC0 90DF B0D4            000D4 10548    01682000  DISPPAIR PROC
 001DC4 58F0 C014/0DEF       00014 10558             +
 001DCA C4C9E2D7D7C1C9D9           10560             +
 001DD2 98DF B0D4            000D4 10561             +
 001DD6 50E0 D000            00000 10564             +
 001DDA 900C D004/188D       00004 10567             +
 001DE0 41D0 D038/0D70       00038 10569             +
 001DE6 1841                       10592    01683000           LR    R4,R1              R4 - EVEN REGISTER NUMBER
 USING  *,R7
 001DE8 5940 7186            01F6C 10593    01684000           IF    (R4,LE,9),BEGIN    OUTPUT EVEN REGISTER
 001DEC 4730 701C            01E02 10605             +
 001DF0 4110 71C2            01FA8 10610  1 01685000             SEG   ' '
 001DF4 4100 0001            00001 10614  1          +
 001DF8 58F0 6008            00008 10620  1          +
 001DFC 58E0 718A/0DEE       01F70 10623  1          +
 001E02                            10625    01686000           END
 001E02 4110 719E            01F84 10629    01687000           SEG   ' R'
 001E06 4100 0002            00002 10633             +
 001E0A 58F0 6008            00008 10639             +
 001E0E 58E0 718A/0DEE       01F70 10642             +
 001E14 1814/1B00                  10644    01688000           SEGDC (R4)
 001E18 58F0 6008            00008 10658             +
 001E1C 58E0 718E/0DEE       01F74 10661             +
 001E22 4110 71C3            01FA9 10663    01689000           SEG   ' = '
 001E26 4100 0003            00003 10667             +
 001E2A 58F0 6008            00008 10673             +
 001E2E 58E0 718A/0DEE       01F70 10676             +
 001E34 1834                       10678    01690000           LR    R3,R4
 001E36 8930 0002            00002 10679    01691000           SLL   R3,2
 001E3A 5820 6010            00010 10680    01692000           L     R2,DBREGS
 001E3E 5822 3000            00000 10681    01693000           L     R2,0(R2,R3)            R2 - REGISTER VALUE
 001E42 1812/4100 0008       00008 10682    01694000           SEGHX (R2),8
 001E48 58F0 6008            00008 10699             +
 001E4C 58E0 7192/0DEE       01F78 10702             +
 001E52 4110 71C2            01FA8 10704    01695000           SEG   ' '
 001E56 4100 0001            00001 10708             +
 001E5A 58F0 6008            00008 10714             +
 001E5E 58E0 718A/0DEE       01F70 10717             +
 001E64 1812                       10719    01696000           LR    R1,R2
 001E66 58E0 7196/0DEE       01F7C 10720    01697000           ACALL DSEGSYM                IF SYMBOLIC FORM, TYPE IT
 001E6C 4100 001E            0001E 10724    01698000           SEGCOL 30                START ODD REG IN COL 30
 001E70 58F0 6008            00008 10737             +
 001E74 58E0 719A/0DEE       01F80 10740             +
 001E7A 4144 0001            00001 10742    01699000           LA    R4,1(R4)           R4 - ODD REGISTER
1DEBUG    Debug Subroutines - Display ...                                                                                   Page   64
0Current Usings:  (DBWA,R6) (*,R7) (TVT,R11) (GVT,R12)
0Loc    Object Code    Addr1 Addr2  Stmt Lv Lineno    Source Statement           (Hibal 5, Asmedit 3.3)  HLASM R4.0  2002/06/06 10.06
+___    ______ ____    _____ _____  ____ __ ______    ______ _________
0001E7E 5940 7186            01F6C 10743    01700000           IF    (R4,LE,9),BEGIN    OUTPUT ODD REGISTER
 001E82 4730 70B2            01E98 10755             +
 001E86 4110 71C2            01FA8 10760  1 01701000             SEG   ' '
 001E8A 4100 0001            00001 10764  1          +
 001E8E 58F0 6008            00008 10770  1          +
 001E92 58E0 718A/0DEE       01F70 10773  1          +
 001E98                            10775    01702000           END
 001E98 4110 719E            01F84 10779    01703000           SEG   ' R'
 001E9C 4100 0002            00002 10783             +
 001EA0 58F0 6008            00008 10789             +
 001EA4 58E0 718A/0DEE       01F70 10792             +
 001EAA 1814/1B00                  10794    01704000           SEGDC (R4)
 001EAE 58F0 6008            00008 10808             +
 001EB2 58E0 718E/0DEE       01F74 10811             +
 001EB8 4110 71C3            01FA9 10813    01705000           SEG   ' = '
 001EBC 4100 0003            00003 10817             +
 001EC0 58F0 6008            00008 10823             +
 001EC4 58E0 718A/0DEE       01F70 10826             +
 001ECA 1834                       10828    01706000           LR    R3,R4
 001ECC 8930 0002            00002 10829    01707000           SLL   R3,2
 001ED0 5820 6010            00010 10830    01708000           L     R2,DBREGS
 001ED4 5822 3000            00000 10831    01709000           L     R2,0(R2,R3)            R2 - REGISTER VALUE
 001ED8 1812/4100 0008       00008 10832    01710000           SEGHX (R2),8
 001EDE 58F0 6008            00008 10849             +
 001EE2 58E0 7192/0DEE       01F78 10852             +
 001EE8 4110 71C2            01FA8 10854    01711000           SEG   ' '
 001EEC 4100 0001            00001 10858             +
 001EF0 58F0 6008            00008 10864             +
 001EF4 58E0 718A/0DEE       01F70 10867             +
 001EFA 1812                       10869    01712000           LR    R1,R2
 001EFC 58E0 7196/0DEE       01F7C 10870    01713000           ACALL DSEGSYM                IF SYMBOLIC FORM, TYPE IT
 001F02 1B00/58F0 6008       00008 10874    01714000           SEGWR
 001F08 58E0 7172/0DEE       01F58 10894             +
 001F0E 18D8/980C D004       00004 10896    01715000           PEND
 DROP   *,R7
 001F14 58E0 D000/12FF       00000 10912             +
 001F1A 07FE                       10915             +
1DEBUG    Debug Subroutines - Display ...                                                                                   Page   65
0Current Usings:  (DBWA,R6) (TVT,R11) (GVT,R12)
0Loc    Object Code    Addr1 Addr2  Stmt Lv Lineno    Source Statement           (Hibal 5, Asmedit 3.3)  HLASM R4.0  2002/06/06 10.06
+___    ______ ____    _____ _____  ____ __ ______    ______ _________
0                                  10917    01717000           QLTORG
1DEBUG    Debug Subroutines - Display ...                                                                                   Page   66
0Current Usings:  (DBWA,R6) (TVT,R11) (GVT,R12)
0Loc    Object Code    Addr1 Addr2  Stmt Lv Lineno    Source Statement           (Hibal 5, Asmedit 3.3)  HLASM R4.0  2002/06/06 10.06
+___    ______ ____    _____ _____  ____ __ ______    ______ _________
0000000                00000 00010 10950    01719000  DMWA     RECORD BEGIN
 000000                            10958  1 01720000  DMSTART    DS    F                  START OF MEMORY TO DISPLAY
 000004                            10959  1 01721000  DMLEN      DS    F                  LENGTH OF MEMORY TO DISPLAY
 000008                            10960  1 01722000  DMADDR     DS    F                  ADDR OF MEMORY DISPLAYING
 00000C                            10961  1 01723000  DMEND      DS    F                  END OF MEMORY TO DISPLAY
 000010                00010 00010 10962    01724000           END
-                                  10972    01726000  ¿þþþþþþþþþþþþþþþþþþþþþþþþþþþþþþþþþþþþþþþþþþþþþþþþþþþþþþþþþþþþþþþþþþþþþÜ
                                   10973    01727000  Ÿ                                                                     Ÿ
                                   10974    01728000  Ÿ                                                                     Ÿ
                                   10975    01729000  Ÿ  DISPASM - display disassembled memory                              Ÿ
                                   10976    01730000  Ÿ                                                                     Ÿ
                                   10977    01731000  Ÿ       on entry:  r1 - address                                       Ÿ
                                   10978    01732000  Ÿ                  r0 - length (defaults to 64 if 0)                  Ÿ
                                   10979    01733000  Ÿ                                                                     Ÿ
                                   10980    01734000  Ÿ                                                                     Ÿ
                                   10981    01735000  Ÿ                                                                     Ÿ
                                   10982    01736000  Ÿ                                                                     Ÿ
                                                      ¾þþþþþþþþþþþþþþþþþþþþþþþþþþþþþþþþþþþþþþþþþþþþþþþþþþþþþþþþþþþþþþþþþþþþþ»
0001FB8 90DF B0D4            000D4 10983    01737000  DISPASM  PROC  DMWA
 001FBC 58F0 C014/0DEF       00014 10994             +
 001FC2 C4C9E2D7C1E2D440           10996             +
 001FCA 98DF B0D4            000D4 10997             +
 001FCE 50E0 D000            00000 11000             +
 001FD2 900C D004/188D       00004 11003             +
 001FD8 41D0 D048/0D70       00048 11006             +
 USING  *,R7                       11038    01738000           CLEAR DMWA
 USING  DMWA-(4+52),R8
 001FDE D70F 8038 8038 00000 00000 11044             +
 001FE4 4111 0000            00000 11045    01739000           LA    R1,0(R1)           SAVE MEMORY POINTERS
 001FE8 8910 0001            00001 11046    01740000           SLL   R1,1               MUST BE EVEN ADDRESS
 001FEC 8810 0001            00001 11047    01741000           SRL   R1,1
 001FF0 1200/4770 701C       01FFA 11048    01742000           IF    (R0,Z),' LA R0,64 '
 001FF6 4100 0040            00040 11063             +
 001FFA 5010 8038            00000 11068    01743000           ST    R1,DMSTART
 001FFE 5010 8040            00008 11069    01744000           ST    R1,DMADDR
 002002 1A10                       11070    01745000           AR    R1,R0
 002004 5010 8044            0000C 11071    01746000           ST    R1,DMEND
 002008 5000 803C            00004 11072    01747000           ST    R0,DMLEN
                                   11073    01748000
 00200C                            11074    01749000           WHILE (DMADDR,LT,DMEND),BEGIN   LOOP DISPLAYING
 00200C D503 8040 8044 00008 0000C 11088             +
 002012 47B0 7092            02070 11089             +
 002016 5810 8040            00008 11094  1 01750000             L     R1,DMADDR
 00201A 4100 0008            00008 11095  1 01751000             LA    R0,8               MAX (INSTR LEN, DATA LEN)
 00201E 58E0 7AFA/0DEE       02AD8 11096  1 01752000             ACALL CHKRADDR           CHECK ADDR
 002024 4780 7060            0203E 11100  1 01753000             IF    NZ,BEGIN
 002028 4110 7AEA            02AC8 11111  2 01754000               SEGWR 'Invalid address.'
 00202C 4100 0010            00010 11116  2          +
 002030 58F0 6008            00008 11122  2          +
 002034 58E0 7AFE/0DEE       02ADC 11125  2          +
 00203A 47F0 7092            02070 11127  2 01755000               B     DAEXIT
1DEBUG    Debug Subroutines - Display ...                                                                                   Page   67
0Current Usings:  (DBWA,R6) (*,R7) (DMWA-(4+52),R8) (TVT,R11) (GVT,R12)
0Loc    Object Code    Addr1 Addr2  Stmt Lv Lineno    Source Statement           (Hibal 5, Asmedit 3.3)  HLASM R4.0  2002/06/06 10.06
+___    ______ ____    _____ _____  ____ __ ______    ______ _________
000203E                            11128  1 01756000             END
 00203E 5810 8040            00008 11132  1 01757000             L     R1,DMADDR
 002042 58E0 7B02/0DEE       02AE0 11133  1 01758000             ACALL CHKINST            CHECK FOR INSTR/DATA
 002048 4770 707C            0205A 11137  1 01759000             IF    Z,BEGIN            IF INSTRUCTION,  DISPLAY IT
 00204C 5810 8040            00008 11148  2 01760000               L     R1,DMADDR
 002050 58E0 7B06/0DEE       02AE4 11149  2 01761000               ACALL DISPINST
 002056 5010 8040            00008 11153  2 01762000               ST    R1,DMADDR
 00205A                            11154  1 01763000             END
 00205A 7080           0205A 0204A 11158  1 01764000             ELSE  BEGIN ,            IF DATA, DISPLAY IT
 00205A 47F0 708E            0206C 11163  1          +
 00205E 5810 8040            00008 11169  2 01765000               L     R1,DMADDR
 002062 58E0 7B0A/0DEE       02AE8 11170  2 01766000               ACALL DISPDATA
 002068 5010 8040            00008 11174  2 01767000               ST    R1,DMADDR
 00206C                            11175  1 01768000             END
 00206C 47F0 702E            0200C 11179    01769000           END   ,                  LOOP DISPLAYING MEMORY
                                   11184    01770000
 002070                            11185    01771000  DAEXIT   LABEL ,
 002070 18D8/980C D004       00004 11187    01772000           PEND
 DROP   DMWA-(4+52),R8
 DROP   *,R7
 002076 58E0 D000/12FF       00000 11208             +
 00207C 07FE                       11211             +
1DEBUG    Debug Subroutines - Display ...                                                                                   Page   68
0Current Usings:  (DBWA,R6) (TVT,R11) (GVT,R12)
0Loc    Object Code    Addr1 Addr2  Stmt Lv Lineno    Source Statement           (Hibal 5, Asmedit 3.3)  HLASM R4.0  2002/06/06 10.06
+___    ______ ____    _____ _____  ____ __ ______    ______ _________
0                                  11213    01774000  ¿þþþþþþþþþþþþþþþþþþþþþþþþþþþþþþþþþþþþþþþþþþþþþþþþþþþþþþþþþþþþþþþþþþþþþÜ
                                   11214    01775000  Ÿ                                                                     Ÿ
                                   11215    01776000  Ÿ                                                                     Ÿ
                                   11216    01777000  Ÿ  DISPDATA - display up to 8 bytes of data                           Ÿ
                                   11217    01778000  Ÿ                                                                     Ÿ
                                   11218    01779000  Ÿ       on entry:  r1 - data address                                  Ÿ
                                   11219    01780000  Ÿ       on exit:   r1 - address updated                               Ÿ
                                   11220    01781000  Ÿ                                                                     Ÿ
                                   11221    01782000  Ÿ                                                                     Ÿ
                                   11222    01783000  Ÿ  notes: data is displayed in simi-assembler format.  address        Ÿ
                                   11223    01784000  Ÿ  in r1 must be even, and may not point at valid opcode.  if         Ÿ
                                   11224    01785000  Ÿ  a valid opcode occurrs before 8 bytes,  then only data will        Ÿ
                                   11225    01786000  Ÿ  be written out.                                                    Ÿ
                                   11226    01787000  Ÿ                                                                     Ÿ
                                   11227    01788000  Ÿ                                                                     Ÿ
                                   11228    01789000  Ÿ                                                                     Ÿ
                                                      ¾þþþþþþþþþþþþþþþþþþþþþþþþþþþþþþþþþþþþþþþþþþþþþþþþþþþþþþþþþþþþþþþþþþþþþ»
000207E 90DF B0D4            000D4 11229    01790000  DISPDATA PROC
 002082 58F0 C014/0DEF       00014 11239             +
 002088 C4C9E2D7C4C1E3C1           11241             +
 002090 98DF B0D4            000D4 11242             +
 002094 50E0 D000            00000 11245             +
 002098 900C D004/188D       00004 11248             +
 00209E 41D0 D038/0D70       00038 11250             +
 0020A4 1851                       11273    01791000           LR    R5,R1              R5 - DATA ADDRESS
 USING  *,R7
                                   11274    01792000           ¿þþþþþþþþþþþþþþþþþþþþþþþþþþþþþþþþþþþþþþþþþþþþþþÜ
                                   11275    01793000           Ÿ  FIND LENGTH OF DATA TO PUT (UP TO 8 BYTES)  Ÿ
                                   11276    01794000           ¾þþþþþþþþþþþþþþþþþþþþþþþþþþþþþþþþþþþþþþþþþþþþþþ»
                                   11277    01795000  *                                 R1,R0 - START, END OF DATA TO PUT
 0020A6 4101 0008            00008 11278    01796000           LA    R0,8(R1)
 0020AA 5B10 7A48            02AEC 11279    01797000           S     R1,=F'2'
 0020AE 4780 7022/1910       020C6 11280    01798000           WHILE (NZ,AND,(R1,LT,R0)),BEGIN   LOOK FOR NEXT INSTR.
 0020B4 47B0 7022            020C6 11302             +
 0020B8 4111 0002            00002 11307  1 01799000             LA    R1,2(R1)
 0020BC 58E0 7A3C/0DEE       02AE0 11308  1 01800000             ACALL CHKINST
 0020C2 47F0 700A            020AE 11312    01801000           END
 0020C6 1B15                       11317    01802000           SR    R1,R5              R1 - LENGTH OF DATA TO PUT
 0020C8 1841                       11318    01803000           LR    R4,R1              R4 - LENGTH OF DATA TO PUT !!
 0020CA 1244/4780 714E       021F2 11319    01804000           IF    (R4,Z),DDEXIT      IF NO DATA, NO DISPLAY
                                   11336    01805000           ¿þþþþþþþþþþþþþþþþþþþþþþþþþþÜ
                                   11337    01806000           Ÿ  WRITE OUT LINE OF DATA  Ÿ
                                   11338    01807000           ¾þþþþþþþþþþþþþþþþþþþþþþþþþþ»
 0020D0 4110 7B6A            02C0E 11339    01808000           SEG   ' '
 0020D4 4100 0001            00001 11343             +
 0020D8 58F0 6008            00008 11349             +
 0020DC 58E0 7A4C/0DEE       02AF0 11352             +
 0020E2 1815                       11354    01809000           LR    R1,R5              DATA ADDRESS
 0020E4 58E0 7A50/0DEE       02AF4 11355    01810000           ACALL DSEGADDR
 0020EA 4100 0010            00010 11359    01811000           SEGCOL 16
 0020EE 58F0 6008            00008 11372             +
 0020F2 58E0 7A54/0DEE       02AF8 11375             +
 0020F8 4815 0000            00000 11377    01812000           SEGHX LH:0(R5),4
1DEBUG    Debug Subroutines - Display ...                                                                                   Page   69
0Current Usings:  (DBWA,R6) (*,R7) (TVT,R11) (GVT,R12)
0Loc    Object Code    Addr1 Addr2  Stmt Lv Lineno    Source Statement           (Hibal 5, Asmedit 3.3)  HLASM R4.0  2002/06/06 10.06
+___    ______ ____    _____ _____  ____ __ ______    ______ _________
00020FC 4100 0004            00004 11387             +
 002100 58F0 6008            00008 11393             +
 002104 58E0 7A58/0DEE       02AFC 11396             +
 00210A 5940 7A5C            02B00 11398    01813000           IF    (R4,GT,2),BEGIN    PUT OUT DATA IN HEX
 00210E 47D0 7080            02124 11410             +
 002112 4815 0002            00002 11415  1 01814000             SEGHX LH:2(R5),4
 002116 4100 0004            00004 11425  1          +
 00211A 58F0 6008            00008 11431  1          +
 00211E 58E0 7A58/0DEE       02AFC 11434  1          +
 002124                            11436    01815000           END
 002124 4110 7B6A            02C0E 11440    01816000           SEG   ' '
 002128 4100 0001            00001 11444             +
 00212C 58F0 6008            00008 11450             +
 002130 58E0 7A4C/0DEE       02AF0 11453             +
 002136 5940 7A60            02B04 11455    01817000           IF    (R4,GT,4),BEGIN
 00213A 47D0 70AC            02150 11467             +
 00213E 4815 0004            00004 11472  1 01818000             SEGHX LH:4(R5),4
 002142 4100 0004            00004 11482  1          +
 002146 58F0 6008            00008 11488  1          +
 00214A 58E0 7A58/0DEE       02AFC 11491  1          +
 002150                            11493    01819000           END
 002150 5940 7A64            02B08 11497    01820000           IF    (R4,GT,6),BEGIN
 002154 47D0 70C6            0216A 11509             +
 002158 4815 0006            00006 11514  1 01821000             SEGHX LH:6(R5),4
 00215C 4100 0004            00004 11524  1          +
 002160 58F0 6008            00008 11530  1          +
 002164 58E0 7A58/0DEE       02AFC 11533  1          +
 00216A                            11535    01822000           END
 00216A 4100 0026            00026 11539    01823000           SEGCOL 38
 00216E 58F0 6008            00008 11552             +
 002172 58E0 7A54/0DEE       02AF8 11555             +
 002178 4110 7AC0            02B64 11557    01824000           SEG   'DC'               PUT 'DC'
 00217C 4100 0002            00002 11561             +
 002180 58F0 6008            00008 11567             +
 002184 58E0 7A4C/0DEE       02AF0 11570             +
 00218A 4100 0042            00042 11572    01825000           SEGCOL 66
 00218E 58F0 6008            00008 11585             +
 002192 58E0 7A54/0DEE       02AF8 11588             +
 002198 4110 7B6B            02C0F 11590    01826000           SEG   ''''
 00219C 4100 0001            00001 11594             +
 0021A0 58F0 6008            00008 11600             +
 0021A4 58E0 7A4C/0DEE       02AF0 11603             +
 0021AA 181D/41D0 D008       00008 11605    01827000           XPUSH ,,8,PTR=R1
 0021B0 D207 1000 5000 00000 00000 11608    01828000           MVC   0(8,R1),0(R5)      PUT DATA IN CHAR FORM
 0021B6 5820 7A68            02B0C 11609    01829000           L     R2,=A(DOTMASK)     DOT OUT UNPRINTABLES
 0021BA DC07 1000 2000 00000 00000 11610    01830000           TR    0(8,R1),0(R2)
 0021C0 4111 0000/1804       00000 11611    01831000           SEG   0(R1),(R4)
 0021C6 58F0 6008            00008 11631             +
 0021CA 58E0 7A4C/0DEE       02AF0 11634             +
 0021D0 4BD0 7AC2            02B66 11636    01832000           XPOP  ,,8
 0021D4 4110 7B6B            02C0F 11638    01833000           SEG   ''''
 0021D8 4100 0001            00001 11642             +
 0021DC 58F0 6008            00008 11648             +
 0021E0 58E0 7A4C/0DEE       02AF0 11651             +
1DEBUG    Debug Subroutines - Display ...                                                                                   Page   70
0Current Usings:  (DBWA,R6) (*,R7) (TVT,R11) (GVT,R12)
0Loc    Object Code    Addr1 Addr2  Stmt Lv Lineno    Source Statement           (Hibal 5, Asmedit 3.3)  HLASM R4.0  2002/06/06 10.06
+___    ______ ____    _____ _____  ____ __ ______    ______ _________
00021E6 1B00/58F0 6008       00008 11653    01834000           SEGWR ,                  TERMINATE LINE WITH <CR>
 0021EC 58E0 7A38/0DEE       02ADC 11673             +
                                   11675    01835000  *
                                   11676    01836000  *
 0021F2                            11677    01837000  DDEXIT   LABEL ,
 0021F2 1815                       11679    01838000           LR    R1,R5              R1 - UPDATE MEMORY ADDRESS
 0021F4 1A14                       11680    01839000           AR    R1,R4
 0021F6 5018 0008            00008 11681    01840000           PRETURN (R1)
 0021FA 18D8/980C D004       00004 11683    01841000           PEND
 DROP   *,R7
 002200 58E0 D000/12FF       00000 11699             +
 002206 07FE                       11702             +
1DEBUG    Debug Subroutines - Display Instruction                                                                           Page   71
0Current Usings:  (DBWA,R6) (TVT,R11) (GVT,R12)
0Loc    Object Code    Addr1 Addr2  Stmt Lv Lineno    Source Statement           (Hibal 5, Asmedit 3.3)  HLASM R4.0  2002/06/06 10.06
+___    ______ ____    _____ _____  ____ __ ______    ______ _________
0                                  11704    01843000  ¿þþþþþþþþþþþþþþþþþþþþþþþþþþþþþþþþþþþþþþþþþþþþþþþþþþþþþþþþþþþþþþþþþþþþþÜ
                                   11705    01844000  Ÿ                                                                     Ÿ
                                   11706    01845000  Ÿ                                                                     Ÿ
                                   11707    01846000  Ÿ  DISPINST - display one instruction                                 Ÿ
                                   11708    01847000  Ÿ                                                                     Ÿ
                                   11709    01848000  Ÿ       on entry: r1 - address                                        Ÿ
                                   11710    01849000  Ÿ                                                                     Ÿ
                                   11711    01850000  Ÿ       on exit:  r1 - address of next instruction (data)             Ÿ
                                   11712    01851000  Ÿ                                                                     Ÿ
                                   11713    01852000  Ÿ                                                                     Ÿ
                                   11714    01853000  Ÿ                                                                     Ÿ
                                   11715    01854000  Ÿ                                                                     Ÿ
                                                      ¾þþþþþþþþþþþþþþþþþþþþþþþþþþþþþþþþþþþþþþþþþþþþþþþþþþþþþþþþþþþþþþþþþþþþþ»
0002208 90DF B0D4            000D4 11716    01855000  DISPINST PROC
 00220C 58F0 C014/0DEF       00014 11726             +
 002212 C4C9E2D7C9D5E2E3           11728             +
 00221A 98DF B0D4            000D4 11729             +
 00221E 50E0 D000            00000 11732             +
 002222 900C D004/188D       00004 11735             +
 002228 41D0 D038/0D70       00038 11737             +
 00222E 4151 0000            00000 11760    01856000           LA    R5,0(R1)           R5 - INSTRUCTION ADDRESS
 USING  *,R7
 002232 4140 0002            00002 11761    01857000           LA    R4,2               R4 - INSTRUCTION LENGTH
 002236 9540 5000      00000       11762    01858000           IF    (@R5,GE,X'40'),' LA R4,4 '
 00223A 4750 7014            02242 11773             +
 00223E 4140 0004            00004 11779             +
 002242 95D0 5000      00000       11784    01859000           IF    (@R5,GE,X'D0'),' LA R4,6 '
 002246 4750 7020            0224E 11795             +
 00224A 4140 0006            00006 11801             +
                                   11806    01860000
 00224E 4110 79E0            02C0E 11807    01861000           SEG   ' '
 002252 4100 0001            00001 11811             +
 002256 58F0 6008            00008 11817             +
 00225A 58E0 78C2/0DEE       02AF0 11820             +
 002260 1815                       11822    01862000           LR    R1,R5              WRITE ADDRESS
 002262 58E0 78C6/0DEE       02AF4 11823    01863000           ACALL DSEGADDR
 002268 4100 0010            00010 11827    01864000           SEGCOL 16
 00226C 58F0 6008            00008 11840             +
 002270 58E0 78CA/0DEE       02AF8 11843             +
 002276 4815 0000            00000 11845    01865000           SEGHX LH:0(R5),4
 00227A 4100 0004            00004 11855             +
 00227E 58F0 6008            00008 11861             +
 002282 58E0 78CE/0DEE       02AFC 11864             +
 002288 5940 78D2            02B00 11866    01866000           IF    (R4,GT,2),BEGIN    INSTRUCTION IN HEX
 00228C 47D0 7086            022B4 11878             +
 002290 4110 79E0            02C0E 11883  1 01867000             SEG   ' '
 002294 4100 0001            00001 11887  1          +
 002298 58F0 6008            00008 11893  1          +
 00229C 58E0 78C2/0DEE       02AF0 11896  1          +
 0022A2 4815 0002            00002 11898  1 01868000             SEGHX LH:2(R5),4
 0022A6 4100 0004            00004 11908  1          +
 0022AA 58F0 6008            00008 11914  1          +
 0022AE 58E0 78CE/0DEE       02AFC 11917  1          +
1DEBUG    Debug Subroutines - Display Instruction                                                                           Page   72
0Current Usings:  (DBWA,R6) (*,R7) (TVT,R11) (GVT,R12)
0Loc    Object Code    Addr1 Addr2  Stmt Lv Lineno    Source Statement           (Hibal 5, Asmedit 3.3)  HLASM R4.0  2002/06/06 10.06
+___    ______ ____    _____ _____  ____ __ ______    ______ _________
00022B4                            11919    01869000           END
 0022B4 5940 78D6            02B04 11923    01870000           IF    (R4,GT,4),BEGIN
 0022B8 47D0 70B2            022E0 11935             +
 0022BC 4110 79E0            02C0E 11940  1 01871000             SEG   ' '
 0022C0 4100 0001            00001 11944  1          +
 0022C4 58F0 6008            00008 11950  1          +
 0022C8 58E0 78C2/0DEE       02AF0 11953  1          +
 0022CE 4815 0004            00004 11955  1 01872000             SEGHX LH:4(R5),4
 0022D2 4100 0004            00004 11965  1          +
 0022D6 58F0 6008            00008 11971  1          +
 0022DA 58E0 78CE/0DEE       02AFC 11974  1          +
 0022E0                            11976    01873000           END
                                   11980    01874000
 0022E0 4100 0026            00026 11981    01875000           SEGCOL 38
 0022E4 58F0 6008            00008 11994             +
 0022E8 58E0 78CA/0DEE       02AF8 11997             +
                                   11999    01876000           ¿þþþþþþþþþþþþþþþþþþþþþþþþþþþþþþþÜ
                                   12000    01877000           Ÿ  LOOK UP INSTRUCTION NEMONIC  Ÿ
                                   12001    01878000           ¾þþþþþþþþþþþþþþþþþþþþþþþþþþþþþþþ»
 0022EE 1B22                       12002    01879000           SR    R2,R2              R2 - INSTRUCTION OP CODE
 0022F0 4325 0000            00000 12003    01880000           IC    R2,0(R5)
 0022F4 4130 79F0            02C1E 12004    01881000           LA    R3,INSTTAB         R3 - INSTRUCTION TABLE
 USING  IRECORD,R3                 12005    01882000           WITH  (IRECORD,R3),BEGIN
 0022F8 BD21 3000            00000 12019  1 01883000             WHILE ((R2,NE,IOPCD),AND,(IOPCD,NE,0)),BEGIN
 0022FC 4780 70E2            02310 12035  1          +
 002300 9500 3000      00000       12049  1          +
 002304 4780 70E2            02310 12050  1          +
 002308 4130 3008            00008 12055  2 01884000               LA    R3,INEXT
 00230C 47F0 70CA            022F8 12056  1 01885000             END
                                   12061  1 01886000  *                                 R3 - INSTRUCTION TABLE ENTRY
                                   12062  1 01887000             ¿þþþþþþþþþþþþþþþþþþþþþþÜ
                                   12063  1 01888000             Ÿ  FORMAT INSTRUCTION  Ÿ
                                   12064  1 01889000             ¾þþþþþþþþþþþþþþþþþþþþþþ»
 002310 9500 3000      00000       12065  1 01890000             IF    (IOPCD,EQ,0),BEGIN IF UNRECOGNIZED OPCODE
 002314 4770 7100            0232E 12078  1          +
 002318 4110 79E2            02C10 12083  2 01891000               SEG   '???   ???'
 00231C 4100 0009            00009 12087  2          +
 002320 58F0 6008            00008 12093  2          +
 002324 58E0 78C2/0DEE       02AF0 12096  2          +
 00232A 47F0 7876            02AA4 12098  2 01892000               B     DISPIRET
 00232E                            12099  1 01893000             END
                                   12103  1 01894000
 00232E 9180 3001      00001       12104  1 01895000             IF    IRR,BEGIN          IF RR INSTRUCTION,
 002332 47E0 7172            023A0 12114  1          +
 002336 4110 3002            00002 12119  2 01896000               SEG   INAME,6
 00233A 4100 0006            00006 12135  2          +
 00233E 58F0 6008            00008 12141  2          +
 002342 58E0 78C2/0DEE       02AF0 12144  2          +
 002348 4110 79EB            02C19 12146  2 01897000               SEG   'R'
 00234C 4100 0001            00001 12150  2          +
 002350 58F0 6008            00008 12156  2          +
 002354 58E0 78C2/0DEE       02AF0 12159  2          +
 00235A 5815 0000            00000 12161  2 01898000               L     R1,0(R5)
 00235E 5410 78E2            02B10 12162  2 01899000               N     R1,=X'00F00000'
1DEBUG    Debug Subroutines - Display Instruction                                                                           Page   73
0Current Usings:  (IRECORD,R3) (DBWA,R6) (*,R7) (TVT,R11) (GVT,R12)
0Loc    Object Code    Addr1 Addr2  Stmt Lv Lineno    Source Statement           (Hibal 5, Asmedit 3.3)  HLASM R4.0  2002/06/06 10.06
+___    ______ ____    _____ _____  ____ __ ______    ______ _________
0002362 8810 0014            00014 12163  2 01900000               SRL   R1,20
 002366 1B00/58F0 6008       00008 12164  2 01901000               SEGDC (R1)
 00236C 58E0 78E6/0DEE       02B14 12180  2          +
 002372 4110 793A            02B68 12182  2 01902000               SEG   ',R'
 002376 4100 0002            00002 12186  2          +
 00237A 58F0 6008            00008 12192  2          +
 00237E 58E0 78C2/0DEE       02AF0 12195  2          +
 002384 5815 0000            00000 12197  2 01903000               L     R1,0(R5)
 002388 5410 78EA            02B18 12198  2 01904000               N     R1,=X'000F0000'
 00238C 8810 0010            00010 12199  2 01905000               SRL   R1,16
 002390 1B00/58F0 6008       00008 12200  2 01906000               SEGDC (R1)
 002396 58E0 78E6/0DEE       02B14 12216  2          +
 00239C 47F0 7876            02AA4 12218  2 01907000               B     DISPIRET
 0023A0                            12219  1 01908000             END
                                   12223  1 01909000
 0023A0 9140 3001      00001       12224  1 01910000             IF    IRX,BEGIN          IF RX INSTRUCTION
 0023A4 47E0 726A            02498 12234  1          +
 0023A8 4110 3002            00002 12239  2 01911000               SEG   INAME,6
 0023AC 4100 0006            00006 12255  2          +
 0023B0 58F0 6008            00008 12261  2          +
 0023B4 58E0 78C2/0DEE       02AF0 12264  2          +
 0023BA 4110 79EB            02C19 12266  2 01912000               SEG   'R'
 0023BE 4100 0001            00001 12270  2          +
 0023C2 58F0 6008            00008 12276  2          +
 0023C6 58E0 78C2/0DEE       02AF0 12279  2          +
 0023CC 5815 0000            00000 12281  2 01913000               L     R1,0(R5)
 0023D0 5410 78E2            02B10 12282  2 01914000               N     R1,=X'00F00000'
 0023D4 8810 0014            00014 12283  2 01915000               SRL   R1,20
 0023D8 1B00/58F0 6008       00008 12284  2 01916000               SEGDC (R1)
 0023DE 58E0 78E6/0DEE       02B14 12300  2          +
 0023E4 4110 79EC            02C1A 12302  2 01917000               SEG   ','
 0023E8 4100 0001            00001 12306  2          +
 0023EC 58F0 6008            00008 12312  2          +
 0023F0 58E0 78C2/0DEE       02AF0 12315  2          +
 0023F6 5815 0000            00000 12317  2 01918000               L     R1,0(R5)
 0023FA 5410 78EE            02B1C 12318  2 01919000               N     R1,=X'00000FFF'
 0023FE 1B00/58F0 6008       00008 12319  2 01920000               SEGDC (R1)
 002404 58E0 78E6/0DEE       02B14 12335  2          +
 00240A 5815 0000            00000 12337  2 01921000               L     R1,0(R5)
 00240E 5410 78F2            02B20 12338  2 01922000               N     R1,=X'000FF000'
 002412 4780 7266            02494 12339  2 01923000               IF    NZ,BEGIN
 002416 4110 793C            02B6A 12350  3 01924000                 SEG   '(R'
 00241A 4100 0002            00002 12354  3          +
 00241E 58F0 6008            00008 12360  3          +
 002422 58E0 78C2/0DEE       02AF0 12363  3          +
 002428 5815 0000            00000 12365  3 01925000                 L     R1,0(R5)
 00242C 5410 78EA            02B18 12366  3 01926000                 N     R1,=X'000F0000'
 002430 8810 0010            00010 12367  3 01927000                 SRL   R1,16
 002434 1211/4780 7236       02464 12368  3 01928000                 IF    (R1,NZ),BEGIN
 00243A 1B00/58F0 6008       00008 12382  4 01929000                   SEGDC (R1)
 002440 58E0 78E6/0DEE       02B14 12398  4          +
 002446 5815 0000            00000 12400  4 01930000                   L     R1,0(R5)
 00244A 5410 78F6            02B24 12401  4 01931000                   N     R1,=X'0000F000'
 00244E 4780 7236            02464 12402  4 01932000                   IF    NZ,BEGIN
1DEBUG    Debug Subroutines - Display Instruction                                                                           Page   74
0Current Usings:  (IRECORD,R3) (DBWA,R6) (*,R7) (TVT,R11) (GVT,R12)
0Loc    Object Code    Addr1 Addr2  Stmt Lv Lineno    Source Statement           (Hibal 5, Asmedit 3.3)  HLASM R4.0  2002/06/06 10.06
+___    ______ ____    _____ _____  ____ __ ______    ______ _________
0002452 4110 79EC            02C1A 12413  5 01933000                     SEG   ','
 002456 4100 0001            00001 12417  5          +
 00245A 58F0 6008            00008 12423  5          +
 00245E 58E0 78C2/0DEE       02AF0 12426  5          +
 002464                            12428  4 01934000                   END
 002464                            12432  3 01935000                 END
 002464 5815 0000            00000 12436  3 01936000                 L     R1,0(R5)
 002468 5410 78F6            02B24 12437  3 01937000                 N     R1,=X'0000F000'
 00246C 8810 000C            0000C 12438  3 01938000                 SRL   R1,12
 002470 1211/4780 7254       02482 12439  3 01939000                 IF    (R1,NZ),BEGIN
 002476 1B00/58F0 6008       00008 12453  4 01940000                   SEGDC (R1)
 00247C 58E0 78E6/0DEE       02B14 12469  4          +
 002482                            12471  3 01941000                 END
 002482 4110 79ED            02C1B 12475  3 01942000                 SEG   ')'
 002486 4100 0001            00001 12479  3          +
 00248A 58F0 6008            00008 12485  3          +
 00248E 58E0 78C2/0DEE       02AF0 12488  3          +
 002494                            12490  2 01943000               END
 002494 47F0 7876            02AA4 12494  2 01944000               B     DISPIRET
 002498                            12495  1 01945000             END
                                   12499  1 01946000
 002498 9120 3001      00001       12500  1 01947000             IF    IRS,BEGIN          IF RS INSTRUCTION,
 00249C 47E0 733E            0256C 12510  1          +
 0024A0 4110 3002            00002 12515  2 01948000               SEG   INAME,6
 0024A4 4100 0006            00006 12531  2          +
 0024A8 58F0 6008            00008 12537  2          +
 0024AC 58E0 78C2/0DEE       02AF0 12540  2          +
 0024B2 4110 79EB            02C19 12542  2 01949000               SEG   'R'
 0024B6 4100 0001            00001 12546  2          +
 0024BA 58F0 6008            00008 12552  2          +
 0024BE 58E0 78C2/0DEE       02AF0 12555  2          +
 0024C4 5815 0000            00000 12557  2 01950000               L     R1,0(R5)
 0024C8 5410 78E2            02B10 12558  2 01951000               N     R1,=X'00F00000'
 0024CC 8810 0014            00014 12559  2 01952000               SRL   R1,20
 0024D0 1B00/58F0 6008       00008 12560  2 01953000               SEGDC (R1)
 0024D6 58E0 78E6/0DEE       02B14 12576  2          +
 0024DC 4110 793A            02B68 12578  2 01954000               SEG   ',R'
 0024E0 4100 0002            00002 12582  2          +
 0024E4 58F0 6008            00008 12588  2          +
 0024E8 58E0 78C2/0DEE       02AF0 12591  2          +
 0024EE 5815 0000            00000 12593  2 01955000               L     R1,0(R5)
 0024F2 5410 78EA            02B18 12594  2 01956000               N     R1,=X'000F0000'
 0024F6 8810 0010            00010 12595  2 01957000               SRL   R1,16
 0024FA 1B00/58F0 6008       00008 12596  2 01958000               SEGDC (R1)
 002500 58E0 78E6/0DEE       02B14 12612  2          +
 002506 4110 79EC            02C1A 12614  2 01959000               SEG   ','
 00250A 4100 0001            00001 12618  2          +
 00250E 58F0 6008            00008 12624  2          +
 002512 58E0 78C2/0DEE       02AF0 12627  2          +
 002518 5815 0000            00000 12629  2 01960000               L     R1,0(R5)
 00251C 5410 78EE            02B1C 12630  2 01961000               N     R1,=X'00000FFF'
 002520 1B00/58F0 6008       00008 12631  2 01962000               SEGDC (R1)
 002526 58E0 78E6/0DEE       02B14 12647  2          +
 00252C 4110 793C            02B6A 12649  2 01963000               SEG   '(R'
1DEBUG    Debug Subroutines - Display Instruction                                                                           Page   75
0Current Usings:  (IRECORD,R3) (DBWA,R6) (*,R7) (TVT,R11) (GVT,R12)
0Loc    Object Code    Addr1 Addr2  Stmt Lv Lineno    Source Statement           (Hibal 5, Asmedit 3.3)  HLASM R4.0  2002/06/06 10.06
+___    ______ ____    _____ _____  ____ __ ______    ______ _________
0002530 4100 0002            00002 12653  2          +
 002534 58F0 6008            00008 12659  2          +
 002538 58E0 78C2/0DEE       02AF0 12662  2          +
 00253E 5815 0000            00000 12664  2 01964000               L     R1,0(R5)
 002542 5410 78F6            02B24 12665  2 01965000               N     R1,=X'0000F000'
 002546 8810 000C            0000C 12666  2 01966000               SRL   R1,12
 00254A 1B00/58F0 6008       00008 12667  2 01967000               SEGDC (R1)
 002550 58E0 78E6/0DEE       02B14 12683  2          +
 002556 4110 79ED            02C1B 12685  2 01968000               SEG   ')'
 00255A 4100 0001            00001 12689  2          +
 00255E 58F0 6008            00008 12695  2          +
 002562 58E0 78C2/0DEE       02AF0 12698  2          +
 002568 47F0 7876            02AA4 12700  2 01969000               B     DISPIRET
 00256C                            12701  1 01970000             END
                                   12705  1 01971000
 00256C 9110 3001      00001       12706  1 01972000             IF    ISI,BEGIN          IF SI INSTRUCTION,
 002570 47E0 73D8            02606 12716  1          +
 002574 4110 3002            00002 12721  2 01973000               SEG   INAME,6
 002578 4100 0006            00006 12737  2          +
 00257C 58F0 6008            00008 12743  2          +
 002580 58E0 78C2/0DEE       02AF0 12746  2          +
 002586 5815 0000            00000 12748  2 01974000               L     R1,0(R5)
 00258A 5410 78EE            02B1C 12749  2 01975000               N     R1,=X'00000FFF'
 00258E 1B00/58F0 6008       00008 12750  2 01976000               SEGDC (R1)
 002594 58E0 78E6/0DEE       02B14 12766  2          +
 00259A 4110 793C            02B6A 12768  2 01977000               SEG   '(R'
 00259E 4100 0002            00002 12772  2          +
 0025A2 58F0 6008            00008 12778  2          +
 0025A6 58E0 78C2/0DEE       02AF0 12781  2          +
 0025AC 5815 0000            00000 12783  2 01978000               L     R1,0(R5)
 0025B0 5410 78F6            02B24 12784  2 01979000               N     R1,=X'0000F000'
 0025B4 8810 000C            0000C 12785  2 01980000               SRL   R1,12
 0025B8 1B00/58F0 6008       00008 12786  2 01981000               SEGDC (R1)
 0025BE 58E0 78E6/0DEE       02B14 12802  2          +
 0025C4 4110 78FA            02B28 12804  2 01982000               SEG   '),X'''
 0025C8 4100 0004            00004 12808  2          +
 0025CC 58F0 6008            00008 12814  2          +
 0025D0 58E0 78C2/0DEE       02AF0 12817  2          +
 0025D6 5815 0000            00000 12819  2 01983000               L     R1,0(R5)
 0025DA 5410 78FE            02B2C 12820  2 01984000               N     R1,=X'00FF0000'
 0025DE 8810 0010            00010 12821  2 01985000               SRL   R1,16
 0025E2 4100 0002            00002 12822  2 01986000               SEGHX (R1),2
 0025E6 58F0 6008            00008 12838  2          +
 0025EA 58E0 78CE/0DEE       02AFC 12841  2          +
 0025F0 4110 79E1            02C0F 12843  2 01987000               SEG   ''''
 0025F4 4100 0001            00001 12847  2          +
 0025F8 58F0 6008            00008 12853  2          +
 0025FC 58E0 78C2/0DEE       02AF0 12856  2          +
 002602 47F0 7876            02AA4 12858  2 01988000               B     DISPIRET
 002606                            12859  1 01989000             END
                                   12863  1 01990000
 002606 9108 3001      00001       12864  1 01991000             IF    ISS,BEGIN          IF SS INSTRUCTION,,,
 00260A 47E0 74C4            026F2 12874  1          +
 00260E 4110 3002            00002 12879  2 01992000               SEG   INAME,6
1DEBUG    Debug Subroutines - Display Instruction                                                                           Page   76
0Current Usings:  (IRECORD,R3) (DBWA,R6) (*,R7) (TVT,R11) (GVT,R12)
0Loc    Object Code    Addr1 Addr2  Stmt Lv Lineno    Source Statement           (Hibal 5, Asmedit 3.3)  HLASM R4.0  2002/06/06 10.06
+___    ______ ____    _____ _____  ____ __ ______    ______ _________
0002612 4100 0006            00006 12895  2          +
 002616 58F0 6008            00008 12901  2          +
 00261A 58E0 78C2/0DEE       02AF0 12904  2          +
 002620 5815 0000            00000 12906  2 01993000               L     R1,0(R5)
 002624 5410 78EE            02B1C 12907  2 01994000               N     R1,=X'00000FFF'
 002628 1B00/58F0 6008       00008 12908  2 01995000               SEGDC (R1)
 00262E 58E0 78E6/0DEE       02B14 12924  2          +
 002634 4110 79EE            02C1C 12926  2 01996000               SEG   '('
 002638 4100 0001            00001 12930  2          +
 00263C 58F0 6008            00008 12936  2          +
 002640 58E0 78C2/0DEE       02AF0 12939  2          +
 002646 5815 0000            00000 12941  2 01997000               L     R1,0(R5)
 00264A 5410 78FE            02B2C 12942  2 01998000               N     R1,=X'00FF0000'
 00264E 8810 0010            00010 12943  2 01999000               SRL   R1,16
 002652 4111 0001            00001 12944  2 02000000               LA    R1,1(R1)
 002656 1B00/58F0 6008       00008 12945  2 02001000               SEGDC (R1)
 00265C 58E0 78E6/0DEE       02B14 12961  2          +
 002662 4110 793A            02B68 12963  2 02002000               SEG   ',R'
 002666 4100 0002            00002 12967  2          +
 00266A 58F0 6008            00008 12973  2          +
 00266E 58E0 78C2/0DEE       02AF0 12976  2          +
 002674 5815 0000            00000 12978  2 02003000               L     R1,0(R5)
 002678 5410 78F6            02B24 12979  2 02004000               N     R1,=X'0000F000'
 00267C 8810 000C            0000C 12980  2 02005000               SRL   R1,12
 002680 1B00/58F0 6008       00008 12981  2 02006000               SEGDC (R1)
 002686 58E0 78E6/0DEE       02B14 12997  2          +
 00268C 4110 793E            02B6C 12999  2 02007000               SEG   '),'
 002690 4100 0002            00002 13003  2          +
 002694 58F0 6008            00008 13009  2          +
 002698 58E0 78C2/0DEE       02AF0 13012  2          +
 00269E 5815 0002            00002 13014  2 02008000               L     R1,2(R5)
 0026A2 5410 78EE            02B1C 13015  2 02009000               N     R1,=X'00000FFF'
 0026A6 1B00/58F0 6008       00008 13016  2 02010000               SEGDC (R1)
 0026AC 58E0 78E6/0DEE       02B14 13032  2          +
 0026B2 4110 793C            02B6A 13034  2 02011000               SEG   '(R'
 0026B6 4100 0002            00002 13038  2          +
 0026BA 58F0 6008            00008 13044  2          +
 0026BE 58E0 78C2/0DEE       02AF0 13047  2          +
 0026C4 5815 0002            00002 13049  2 02012000               L     R1,2(R5)
 0026C8 5410 78F6            02B24 13050  2 02013000               N     R1,=X'0000F000'
 0026CC 8810 000C            0000C 13051  2 02014000               SRL   R1,12
 0026D0 1B00/58F0 6008       00008 13052  2 02015000               SEGDC (R1)
 0026D6 58E0 78E6/0DEE       02B14 13068  2          +
 0026DC 4110 79ED            02C1B 13070  2 02016000               SEG   ')'
 0026E0 4100 0001            00001 13074  2          +
 0026E4 58F0 6008            00008 13080  2          +
 0026E8 58E0 78C2/0DEE       02AF0 13083  2          +
 0026EE 47F0 7876            02AA4 13085  2 02017000               B     DISPIRET
 0026F2                            13086  1 02018000             END
                                   13090  1 02019000
 0026F2 9104 3001      00001       13091  1 02020000             IF    IBCR,BEGIN         IF BCR, BEGIN
 0026F6 47E0 75F2            02820 13101  1          +
 0026FA 5815 0000            00000 13106  2 02021000               L     R1,0(R5)
 0026FE 5410 78E2            02B10 13107  2 02022000               N     R1,=X'00F00000'
1DEBUG    Debug Subroutines - Display Instruction                                                                           Page   77
0Current Usings:  (IRECORD,R3) (DBWA,R6) (*,R7) (TVT,R11) (GVT,R12)
0Loc    Object Code    Addr1 Addr2  Stmt Lv Lineno    Source Statement           (Hibal 5, Asmedit 3.3)  HLASM R4.0  2002/06/06 10.06
+___    ______ ____    _____ _____  ____ __ ______    ______ _________
0002702 8810 0014            00014 13108  2 02023000               SRL   R1,20
 002706 1821                       13109  2 02024000               LR    R2,R1
 002708 5920 7902            02B30 13110  2 02025000               IF    (R2,EQ,0),BEGIN
 00270C 4770 74F4            02722 13122  2          +
 002710 4110 7940            02B6E 13127  3 02026000                 SEG   'NOPR  '
 002714 4100 0006            00006 13131  3          +
 002718 58F0 6008            00008 13137  3          +
 00271C 58E0 78C2/0DEE       02AF0 13140  3          +
 002722                            13142  2 02027000               END
 002722 5920 7906            02B34 13146  2 02028000               IF    (R2,EQ,1),BEGIN
 002726 4770 750E            0273C 13158  2          +
 00272A 4110 7946            02B74 13163  3 02029000                 SEG   'BOR   '
 00272E 4100 0006            00006 13167  3          +
 002732 58F0 6008            00008 13173  3          +
 002736 58E0 78C2/0DEE       02AF0 13176  3          +
 00273C                            13178  2 02030000               END
 00273C 5920 78D2            02B00 13182  2 02031000               IF    (R2,EQ,2),BEGIN
 002740 4770 7528            02756 13194  2          +
 002744 4110 794C            02B7A 13199  3 02032000                 SEG   'BHR   '
 002748 4100 0006            00006 13203  3          +
 00274C 58F0 6008            00008 13209  3          +
 002750 58E0 78C2/0DEE       02AF0 13212  3          +
 002756                            13214  2 02033000               END
 002756 5920 78D6            02B04 13218  2 02034000               IF    (R2,EQ,4),BEGIN
 00275A 4770 7542            02770 13230  2          +
 00275E 4110 7952            02B80 13235  3 02035000                 SEG   'BLR   '
 002762 4100 0006            00006 13239  3          +
 002766 58F0 6008            00008 13245  3          +
 00276A 58E0 78C2/0DEE       02AF0 13248  3          +
 002770                            13250  2 02036000               END
 002770 5920 790A            02B38 13254  2 02037000               IF    (R2,EQ,7),BEGIN
 002774 4770 755C            0278A 13266  2          +
 002778 4110 7958            02B86 13271  3 02038000                 SEG   'BNER  '
 00277C 4100 0006            00006 13275  3          +
 002780 58F0 6008            00008 13281  3          +
 002784 58E0 78C2/0DEE       02AF0 13284  3          +
 00278A                            13286  2 02039000               END
 00278A 5920 790E            02B3C 13290  2 02040000               IF    (R2,EQ,8),BEGIN
 00278E 4770 7576            027A4 13302  2          +
 002792 4110 795E            02B8C 13307  3 02041000                 SEG   'BER   '
 002796 4100 0006            00006 13311  3          +
 00279A 58F0 6008            00008 13317  3          +
 00279E 58E0 78C2/0DEE       02AF0 13320  3          +
 0027A4                            13322  2 02042000               END
 0027A4 5920 7912            02B40 13326  2 02043000               IF    (R2,EQ,11),BEGIN
 0027A8 4770 7590            027BE 13338  2          +
 0027AC 4110 7964            02B92 13343  3 02044000                 SEG   'BNLR  '
 0027B0 4100 0006            00006 13347  3          +
 0027B4 58F0 6008            00008 13353  3          +
 0027B8 58E0 78C2/0DEE       02AF0 13356  3          +
 0027BE                            13358  2 02045000               END
 0027BE 5920 7916            02B44 13362  2 02046000               IF    (R2,EQ,13),BEGIN
 0027C2 4770 75AA            027D8 13374  2          +
 0027C6 4110 796A            02B98 13379  3 02047000                 SEG   'BNHR  '
1DEBUG    Debug Subroutines - Display Instruction                                                                           Page   78
0Current Usings:  (IRECORD,R3) (DBWA,R6) (*,R7) (TVT,R11) (GVT,R12)
0Loc    Object Code    Addr1 Addr2  Stmt Lv Lineno    Source Statement           (Hibal 5, Asmedit 3.3)  HLASM R4.0  2002/06/06 10.06
+___    ______ ____    _____ _____  ____ __ ______    ______ _________
00027CA 4100 0006            00006 13383  3          +
 0027CE 58F0 6008            00008 13389  3          +
 0027D2 58E0 78C2/0DEE       02AF0 13392  3          +
 0027D8                            13394  2 02048000               END
 0027D8 5920 791A            02B48 13398  2 02049000               IF    (R2,EQ,15),BEGIN
 0027DC 4770 75C4            027F2 13410  2          +
 0027E0 4110 7970            02B9E 13415  3 02050000                 SEG   'BR    '
 0027E4 4100 0006            00006 13419  3          +
 0027E8 58F0 6008            00008 13425  3          +
 0027EC 58E0 78C2/0DEE       02AF0 13428  3          +
 0027F2                            13430  2 02051000               END
 0027F2 4110 79EB            02C19 13434  2 02052000               SEG   'R'
 0027F6 4100 0001            00001 13438  2          +
 0027FA 58F0 6008            00008 13444  2          +
 0027FE 58E0 78C2/0DEE       02AF0 13447  2          +
 002804 5815 0000            00000 13449  2 02053000               L     R1,0(R5)
 002808 5410 78EA            02B18 13450  2 02054000               N     R1,=X'000F0000'
 00280C 8810 0010            00010 13451  2 02055000               SRL   R1,16
 002810 1B00/58F0 6008       00008 13452  2 02056000               SEGDC (R1)
 002816 58E0 78E6/0DEE       02B14 13468  2          +
 00281C 47F0 7876            02AA4 13470  2 02057000               B     DISPIRET
 002820                            13471  1 02058000             END
                                   13475  1 02059000
 002820 9102 3001      00001       13476  1 02060000             IF    IBC,BEGIN          IF BC, BEGIN
 002824 47E0 784A            02A78 13486  1          +
 002828 5815 0000            00000 13491  2 02061000               L     R1,0(R5)
 00282C 5410 78E2            02B10 13492  2 02062000               N     R1,=X'00F00000'
 002830 8810 0014            00014 13493  2 02063000               SRL   R1,20
 002834 1821                       13494  2 02064000               LR    R2,R1
 002836 5920 7902            02B30 13495  2 02065000               IF    (R2,EQ,0),BEGIN
 00283A 4770 7622            02850 13507  2          +
 00283E 4110 7976            02BA4 13512  3 02066000                 SEG   'NOP   '
 002842 4100 0006            00006 13516  3          +
 002846 58F0 6008            00008 13522  3          +
 00284A 58E0 78C2/0DEE       02AF0 13525  3          +
 002850                            13527  2 02067000               END
 002850 5920 7906            02B34 13531  2 02068000               IF    (R2,EQ,1),BEGIN
 002854 4770 763C            0286A 13543  2          +
 002858 4110 797C            02BAA 13548  3 02069000                 SEG   'BO    '
 00285C 4100 0006            00006 13552  3          +
 002860 58F0 6008            00008 13558  3          +
 002864 58E0 78C2/0DEE       02AF0 13561  3          +
 00286A                            13563  2 02070000               END
 00286A 5920 78D2            02B00 13567  2 02071000               IF    (R2,EQ,2),BEGIN
 00286E 4770 7656            02884 13579  2          +
 002872 4110 7982            02BB0 13584  3 02072000                 SEG   'BH    '
 002876 4100 0006            00006 13588  3          +
 00287A 58F0 6008            00008 13594  3          +
 00287E 58E0 78C2/0DEE       02AF0 13597  3          +
 002884                            13599  2 02073000               END
 002884 5920 791E            02B4C 13603  2 02074000               IF    (R2,EQ,3),BEGIN
 002888 4770 7670            0289E 13615  2          +
 00288C 4110 7988            02BB6 13620  3 02075000                 SEG   'BH-   '
 002890 4100 0006            00006 13624  3          +
1DEBUG    Debug Subroutines - Display Instruction                                                                           Page   79
0Current Usings:  (IRECORD,R3) (DBWA,R6) (*,R7) (TVT,R11) (GVT,R12)
0Loc    Object Code    Addr1 Addr2  Stmt Lv Lineno    Source Statement           (Hibal 5, Asmedit 3.3)  HLASM R4.0  2002/06/06 10.06
+___    ______ ____    _____ _____  ____ __ ______    ______ _________
0002894 58F0 6008            00008 13630  3          +
 002898 58E0 78C2/0DEE       02AF0 13633  3          +
 00289E                            13635  2 02076000               END
 00289E 5920 78D6            02B04 13639  2 02077000               IF    (R2,EQ,4),BEGIN
 0028A2 4770 768A            028B8 13651  2          +
 0028A6 4110 798E            02BBC 13656  3 02078000                 SEG   'BL    '
 0028AA 4100 0006            00006 13660  3          +
 0028AE 58F0 6008            00008 13666  3          +
 0028B2 58E0 78C2/0DEE       02AF0 13669  3          +
 0028B8                            13671  2 02079000               END
 0028B8 5920 7922            02B50 13675  2 02080000               IF    (R2,EQ,5),BEGIN
 0028BC 4770 76A4            028D2 13687  2          +
 0028C0 4110 7994            02BC2 13692  3 02081000                 SEG   'BL-   '
 0028C4 4100 0006            00006 13696  3          +
 0028C8 58F0 6008            00008 13702  3          +
 0028CC 58E0 78C2/0DEE       02AF0 13705  3          +
 0028D2                            13707  2 02082000               END
 0028D2 5920 78DA            02B08 13711  2 02083000               IF    (R2,EQ,6),BEGIN
 0028D6 4770 76BE            028EC 13723  2          +
 0028DA 4110 799A            02BC8 13728  3 02084000                 SEG   'BNE-  '
 0028DE 4100 0006            00006 13732  3          +
 0028E2 58F0 6008            00008 13738  3          +
 0028E6 58E0 78C2/0DEE       02AF0 13741  3          +
 0028EC                            13743  2 02085000               END
 0028EC 5920 790A            02B38 13747  2 02086000               IF    (R2,EQ,7),BEGIN
 0028F0 4770 76D8            02906 13759  2          +
 0028F4 4110 79A0            02BCE 13764  3 02087000                 SEG   'BNE   '
 0028F8 4100 0006            00006 13768  3          +
 0028FC 58F0 6008            00008 13774  3          +
 002900 58E0 78C2/0DEE       02AF0 13777  3          +
 002906                            13779  2 02088000               END
 002906 5920 790E            02B3C 13783  2 02089000               IF    (R2,EQ,8),BEGIN
 00290A 4770 76F2            02920 13795  2          +
 00290E 4110 79A6            02BD4 13800  3 02090000                 SEG   'BE    '
 002912 4100 0006            00006 13804  3          +
 002916 58F0 6008            00008 13810  3          +
 00291A 58E0 78C2/0DEE       02AF0 13813  3          +
 002920                            13815  2 02091000               END
 002920 5920 7926            02B54 13819  2 02092000               IF    (R2,EQ,9),BEGIN
 002924 4770 770C            0293A 13831  2          +
 002928 4110 79AC            02BDA 13836  3 02093000                 SEG   'BE-   '
 00292C 4100 0006            00006 13840  3          +
 002930 58F0 6008            00008 13846  3          +
 002934 58E0 78C2/0DEE       02AF0 13849  3          +
 00293A                            13851  2 02094000               END
 00293A 5920 792A            02B58 13855  2 02095000               IF    (R2,EQ,10),BEGIN
 00293E 4770 7726            02954 13867  2          +
 002942 4110 79B2            02BE0 13872  3 02096000                 SEG   'BNL-  '
 002946 4100 0006            00006 13876  3          +
 00294A 58F0 6008            00008 13882  3          +
 00294E 58E0 78C2/0DEE       02AF0 13885  3          +
 002954                            13887  2 02097000               END
 002954 5920 7912            02B40 13891  2 02098000               IF    (R2,EQ,11),BEGIN
 002958 4770 7740            0296E 13903  2          +
1DEBUG    Debug Subroutines - Display Instruction                                                                           Page   80
0Current Usings:  (IRECORD,R3) (DBWA,R6) (*,R7) (TVT,R11) (GVT,R12)
0Loc    Object Code    Addr1 Addr2  Stmt Lv Lineno    Source Statement           (Hibal 5, Asmedit 3.3)  HLASM R4.0  2002/06/06 10.06
+___    ______ ____    _____ _____  ____ __ ______    ______ _________
000295C 4110 79B8            02BE6 13908  3 02099000                 SEG   'BNL   '
 002960 4100 0006            00006 13912  3          +
 002964 58F0 6008            00008 13918  3          +
 002968 58E0 78C2/0DEE       02AF0 13921  3          +
 00296E                            13923  2 02100000               END
 00296E 5920 792E            02B5C 13927  2 02101000               IF    (R2,EQ,12),BEGIN
 002972 4770 775A            02988 13939  2          +
 002976 4110 79BE            02BEC 13944  3 02102000                 SEG   'BNH-  '
 00297A 4100 0006            00006 13948  3          +
 00297E 58F0 6008            00008 13954  3          +
 002982 58E0 78C2/0DEE       02AF0 13957  3          +
 002988                            13959  2 02103000               END
 002988 5920 7916            02B44 13963  2 02104000               IF    (R2,EQ,13),BEGIN
 00298C 4770 7774            029A2 13975  2          +
 002990 4110 79C4            02BF2 13980  3 02105000                 SEG   'BNH   '
 002994 4100 0006            00006 13984  3          +
 002998 58F0 6008            00008 13990  3          +
 00299C 58E0 78C2/0DEE       02AF0 13993  3          +
 0029A2                            13995  2 02106000               END
 0029A2 5920 7932            02B60 13999  2 02107000               IF    (R2,EQ,14),BEGIN
 0029A6 4770 778E            029BC 14011  2          +
 0029AA 4110 79CA            02BF8 14016  3 02108000                 SEG   'BNO   '
 0029AE 4100 0006            00006 14020  3          +
 0029B2 58F0 6008            00008 14026  3          +
 0029B6 58E0 78C2/0DEE       02AF0 14029  3          +
 0029BC                            14031  2 02109000               END
 0029BC 5920 791A            02B48 14035  2 02110000               IF    (R2,EQ,15),BEGIN
 0029C0 4770 77A8            029D6 14047  2          +
 0029C4 4110 79D0            02BFE 14052  3 02111000                 SEG   'B     '
 0029C8 4100 0006            00006 14056  3          +
 0029CC 58F0 6008            00008 14062  3          +
 0029D0 58E0 78C2/0DEE       02AF0 14065  3          +
 0029D6                            14067  2 02112000               END
 0029D6 5815 0000            00000 14071  2 02113000               L     R1,0(R5)
 0029DA 5410 78EE            02B1C 14072  2 02114000               N     R1,=X'00000FFF'
 0029DE 1B00/58F0 6008       00008 14073  2 02115000               SEGDC (R1)
 0029E4 58E0 78E6/0DEE       02B14 14089  2          +
 0029EA 5815 0000            00000 14091  2 02116000               L     R1,0(R5)
 0029EE 5410 78F2            02B20 14092  2 02117000               N     R1,=X'000FF000'
 0029F2 4780 7846            02A74 14093  2 02118000               IF    NZ,BEGIN
 0029F6 4110 793C            02B6A 14104  3 02119000                 SEG   '(R'
 0029FA 4100 0002            00002 14108  3          +
 0029FE 58F0 6008            00008 14114  3          +
 002A02 58E0 78C2/0DEE       02AF0 14117  3          +
 002A08 5815 0000            00000 14119  3 02120000                 L     R1,0(R5)
 002A0C 5410 78EA            02B18 14120  3 02121000                 N     R1,=X'000F0000'
 002A10 8810 0010            00010 14121  3 02122000                 SRL   R1,16
 002A14 1211/4780 7816       02A44 14122  3 02123000                 IF    (R1,NZ),BEGIN
 002A1A 1B00/58F0 6008       00008 14136  4 02124000                   SEGDC (R1)
 002A20 58E0 78E6/0DEE       02B14 14152  4          +
 002A26 5815 0000            00000 14154  4 02125000                   L     R1,0(R5)
 002A2A 5410 78F6            02B24 14155  4 02126000                   N     R1,=X'0000F000'
 002A2E 4780 7816            02A44 14156  4 02127000                   IF    NZ,BEGIN
 002A32 4110 79EC            02C1A 14167  5 02128000                     SEG   ','
1DEBUG    Debug Subroutines - Display Instruction                                                                           Page   81
0Current Usings:  (IRECORD,R3) (DBWA,R6) (*,R7) (TVT,R11) (GVT,R12)
0Loc    Object Code    Addr1 Addr2  Stmt Lv Lineno    Source Statement           (Hibal 5, Asmedit 3.3)  HLASM R4.0  2002/06/06 10.06
+___    ______ ____    _____ _____  ____ __ ______    ______ _________
0002A36 4100 0001            00001 14171  5          +
 002A3A 58F0 6008            00008 14177  5          +
 002A3E 58E0 78C2/0DEE       02AF0 14180  5          +
 002A44                            14182  4 02129000                   END
 002A44                            14186  3 02130000                 END
 002A44 5815 0000            00000 14190  3 02131000                 L     R1,0(R5)
 002A48 5410 78F6            02B24 14191  3 02132000                 N     R1,=X'0000F000'
 002A4C 8810 000C            0000C 14192  3 02133000                 SRL   R1,12
 002A50 1211/4780 7834       02A62 14193  3 02134000                 IF    (R1,NZ),BEGIN
 002A56 1B00/58F0 6008       00008 14207  4 02135000                   SEGDC (R1)
 002A5C 58E0 78E6/0DEE       02B14 14223  4          +
 002A62                            14225  3 02136000                 END
 002A62 4110 79ED            02C1B 14229  3 02137000                 SEG   ')'
 002A66 4100 0001            00001 14233  3          +
 002A6A 58F0 6008            00008 14239  3          +
 002A6E 58E0 78C2/0DEE       02AF0 14242  3          +
 002A74                            14244  2 02138000               END
 002A74 47F0 7876            02AA4 14248  2 02139000               B     DISPIRET
 002A78                            14249  1 02140000             END
                                   14253  1 02141000
 002A78 9101 3001      00001       14254  1 02142000             IF    IOTHER,BEGIN       IF NONE OF THE ABOVE,,,
 002A7C 47E0 7876            02AA4 14264  1          +
 002A80 4110 3002            00002 14269  2 02143000               SEG   INAME,6
 002A84 4100 0006            00006 14285  2          +
 002A88 58F0 6008            00008 14291  2          +
 002A8C 58E0 78C2/0DEE       02AF0 14294  2          +
 002A92 4110 79D6            02C04 14296  2 02144000               SEG   'OPERAND(S)'
 002A96 4100 000A            0000A 14300  2          +
 002A9A 58F0 6008            00008 14306  2          +
 002A9E 58E0 78C2/0DEE       02AF0 14309  2          +
 002AA4                            14311  1 02145000             END
 DROP   IRECORD,R3                 14315    02146000           END   , WITH (IRECORD,R3)
                                   14323    02147000
 002AA4                            14324    02148000  DISPIRET LABEL ,
 002AA4 1B00/58F0 6008       00008 14326    02149000           SEGWR ,
 002AAA 58E0 78AE/0DEE       02ADC 14346             +
 002AB0 1815                       14348    02150000           LR    R1,R5              R1 - INSTRUCTION ADDRESS
 002AB2 1A14                       14349    02151000           AR    R1,R4              R1 - NEXT INSTRUCTION ADDRESS
 002AB4 5018 0008            00008 14350    02152000           PRETURN (R1)
 002AB8 18D8/980C D004       00004 14352    02153000           PEND
 DROP   *,R7
 002ABE 58E0 D000/12FF       00000 14368             +
 002AC4 07FE                       14371             +
1DEBUG    Debug Subroutines - Display Instruction                                                                           Page   82
0Current Usings:  (DBWA,R6) (TVT,R11) (GVT,R12)
0Loc    Object Code    Addr1 Addr2  Stmt Lv Lineno    Source Statement           (Hibal 5, Asmedit 3.3)  HLASM R4.0  2002/06/06 10.06
+___    ______ ____    _____ _____  ____ __ ______    ______ _________
0                                  14373    02155000           QLTORG
1DEBUG    Debug Subroutines                                                                                                 Page   83
0Current Usings:  (DBWA,R6) (TVT,R11) (GVT,R12)
0Loc    Object Code    Addr1 Addr2  Stmt Lv Lineno    Source Statement           (Hibal 5, Asmedit 3.3)  HLASM R4.0  2002/06/06 10.06
+___    ______ ____    _____ _____  ____ __ ______    ______ _________
0                                  14460    02157000  ¿þþþþþþþþþþþþþþþþþþþþþþþþþþþþþþþþþþþþþþþþþþþþþþþþþþþþþþþþþþþþþþþþþþþþþÜ
                                   14461    02158000  Ÿ                                                                     Ÿ
                                   14462    02159000  Ÿ                                                                     Ÿ
                                   14463    02160000  Ÿ   Instruction table                                                 Ÿ
                                   14464    02161000  Ÿ                                                                     Ÿ
                                   14465    02162000  Ÿ                                                                     Ÿ
                                   14466    02163000  Ÿ                                                                     Ÿ
                                                      ¾þþþþþþþþþþþþþþþþþþþþþþþþþþþþþþþþþþþþþþþþþþþþþþþþþþþþþþþþþþþþþþþþþþþþþ»
0002C1E                            14467    02164000  INSTTAB  LABEL ,
 002C1E                            14469    02165000           INSTR AR,RR,1A
 002C1E 1A80C1D940404040           14470             +
 002C26                            14471    02166000           INSTR A,RX,5A
 002C26 5A40C14040404040           14472             +
 002C2E                            14473    02167000           INSTR AH,RX,4A
 002C2E 4A40C1C840404040           14474             +
 002C36                            14475    02168000           INSTR ALR,RR,1E
 002C36 1E80C1D3D9404040           14476             +
 002C3E                            14477    02169000           INSTR AL,RX,5E
 002C3E 5E40C1D340404040           14478             +
 002C46                            14479    02170000           INSTR NR,RR,14
 002C46 1480D5D940404040           14480             +
 002C4E                            14481    02171000           INSTR N,RX,54
 002C4E 5440D54040404040           14482             +
 002C56                            14483    02172000           INSTR NC,SS,D4
 002C56 D408D5C340404040           14484             +
 002C5E                            14485    02173000           INSTR NI,SI,94
 002C5E 9410D5C940404040           14486             +
 002C66                            14487    02174000           INSTR BALR,RR,05
 002C66 0580C2C1D3D94040           14488             +
 002C6E                            14489    02175000           INSTR BAL,RX,45
 002C6E 4540C2C1D3404040           14490             +
 002C76                            14491    02176000           INSTR BASR,RR,0D
 002C76 0D80C2C1E2D94040           14492             +
 002C7E                            14493    02177000           INSTR BAS,RX,4D
 002C7E 4D40C2C1E2404040           14494             +
 002C86                            14495    02178000           INSTR BASSM,RR,0C
 002C86 0C80C2C1E2E2D440           14496             +
 002C8E                            14497    02179000           INSTR BSM,RR,0B
 002C8E 0B80C2E2D4404040           14498             +
 002C96                            14499    02180000           INSTR BCR,BCR,07
 002C96 0704C2C3D9404040           14500             +
 002C9E                            14501    02181000           INSTR BC,BC,47
 002C9E 4702C2C340404040           14502             +
 002CA6                            14503    02182000           INSTR BCTR,RR,06
 002CA6 0680C2C3E3D94040           14504             +
 002CAE                            14505    02183000           INSTR BCT,RX,46
 002CAE 4640C2C3E3404040           14506             +
 002CB6                            14507    02184000           INSTR BXH,RS,86
 002CB6 8620C2E7C8404040           14508             +
 002CBE                            14509    02185000           INSTR BXLE,RS,87
 002CBE 8720C2E7D3C54040           14510             +
 002CC6                            14511    02186000           INSTR B2OP,OTHER,B2
 002CC6 B201C2F2D6D74040           14512             +
1DEBUG    Debug Subroutines                                                                                                 Page   84
0Current Usings:  (DBWA,R6) (TVT,R11) (GVT,R12)
0Loc    Object Code    Addr1 Addr2  Stmt Lv Lineno    Source Statement           (Hibal 5, Asmedit 3.3)  HLASM R4.0  2002/06/06 10.06
+___    ______ ____    _____ _____  ____ __ ______    ______ _________
0002CCE                            14513    02187000           INSTR CR,RR,19
 002CCE 1980C3D940404040           14514             +
 002CD6                            14515    02188000           INSTR C,RX,59
 002CD6 5940C34040404040           14516             +
 002CDE                            14517    02189000           INSTR CS,RS,BA
 002CDE BA20C3E240404040           14518             +
 002CE6                            14519    02190000           INSTR CDS,RS,BB
 002CE6 BB20C3C4E2404040           14520             +
 002CEE                            14521    02191000           INSTR CH,RX,49
 002CEE 4940C3C840404040           14522             +
 002CF6                            14523    02192000           INSTR CLR,RR,15
 002CF6 1580C3D3D9404040           14524             +
 002CFE                            14525    02193000           INSTR CL,RX,55
 002CFE 5540C3D340404040           14526             +
 002D06                            14527    02194000           INSTR CLC,SS,D5
 002D06 D508C3D3C3404040           14528             +
 002D0E                            14529    02195000           INSTR CLI,SI,95
 002D0E 9510C3D3C9404040           14530             +
 002D16                            14531    02196000           INSTR CLM,RS,BD
 002D16 BD20C3D3D4404040           14532             +
 002D1E                            14533    02197000           INSTR CLCL,RR,0F
 002D1E 0F80C3D3C3D34040           14534             +
 002D26                            14535    02198000           INSTR CVB,RX,4F
 002D26 4F40C3E5C2404040           14536             +
 002D2E                            14537    02199000           INSTR CVD,RX,4E
 002D2E 4E40C3E5C4404040           14538             +
 002D36                            14539    02200000           INSTR DR,RR,1D
 002D36 1D80C4D940404040           14540             +
 002D3E                            14541    02201000           INSTR D,RX,5D
 002D3E 5D40C44040404040           14542             +
 002D46                            14543    02202000           INSTR XR,RR,17
 002D46 1780E7D940404040           14544             +
 002D4E                            14545    02203000           INSTR X,RX,57
 002D4E 5740E74040404040           14546             +
 002D56                            14547    02204000           INSTR XC,SS,D7
 002D56 D708E7C340404040           14548             +
 002D5E                            14549    02205000           INSTR XI,SI,97
 002D5E 9710E7C940404040           14550             +
 002D66                            14551    02206000           INSTR EX,RX,44
 002D66 4440C5E740404040           14552             +
 002D6E                            14553    02207000           INSTR IC,RX,43
 002D6E 4340C9C340404040           14554             +
 002D76                            14555    02208000           INSTR ICM,RS,BF
 002D76 BF20C9C3D4404040           14556             +
 002D7E                            14557    02209000           INSTR IPM,OTHER,B2
 002D7E B201C9D7D4404040           14558             +
 002D86                            14559    02210000           INSTR LR,RR,18
 002D86 1880D3D940404040           14560             +
 002D8E                            14561    02211000           INSTR L,RX,58
 002D8E 5840D34040404040           14562             +
 002D96                            14563    02212000           INSTR LA,RX,41
 002D96 4140D3C140404040           14564             +
 002D9E                            14565    02213000           INSTR LTR,RR,12
 002D9E 1280D3E3D9404040           14566             +
1DEBUG    Debug Subroutines                                                                                                 Page   85
0Current Usings:  (DBWA,R6) (TVT,R11) (GVT,R12)
0Loc    Object Code    Addr1 Addr2  Stmt Lv Lineno    Source Statement           (Hibal 5, Asmedit 3.3)  HLASM R4.0  2002/06/06 10.06
+___    ______ ____    _____ _____  ____ __ ______    ______ _________
0002DA6                            14567    02214000           INSTR LCR,RR,13
 002DA6 1380D3C3D9404040           14568             +
 002DAE                            14569    02215000           INSTR LH,RX,48
 002DAE 4840D3C840404040           14570             +
 002DB6                            14571    02216000           INSTR LM,RS,98
 002DB6 9820D3D440404040           14572             +
 002DBE                            14573    02217000           INSTR LNR,RR,11
 002DBE 1180D3D5D9404040           14574             +
 002DC6                            14575    02218000           INSTR LPR,RR,10
 002DC6 1080D3D7D9404040           14576             +
 002DCE                            14577    02219000           INSTR MC,SI,AF
 002DCE AF10D4C340404040           14578             +
 002DD6                            14579    02220000           INSTR MVC,SS,D2
 002DD6 D208D4E5C3404040           14580             +
 002DDE                            14581    02221000           INSTR MVI,SI,92
 002DDE 9210D4E5C9404040           14582             +
 002DE6                            14583    02222000           INSTR MVCL,RR,0E
 002DE6 0E80D4E5C3D34040           14584             +
 002DEE                            14585    02223000           INSTR MVN,SS,E1
 002DEE E108D4E5D5404040           14586             +
 002DF6                            14587    02224000           INSTR MVO,SS,F1
 002DF6 F108D4E5D6404040           14588             +
 002DFE                            14589    02225000           INSTR MVZ,SS,D3
 002DFE D308D4E5E9404040           14590             +
 002E06                            14591    02226000           INSTR MR,RR,1C
 002E06 1C80D4D940404040           14592             +
 002E0E                            14593    02227000           INSTR M,RX,5C
 002E0E 5C40D44040404040           14594             +
 002E16                            14595    02228000           INSTR MH,RX,4C
 002E16 4C40D4C840404040           14596             +
 002E1E                            14597    02229000           INSTR OR,RR,16
 002E1E 1680D6D940404040           14598             +
 002E26                            14599    02230000           INSTR O,RX,56
 002E26 5640D64040404040           14600             +
 002E2E                            14601    02231000           INSTR OC,SS,D6
 002E2E D608D6C340404040           14602             +
 002E36                            14603    02232000           INSTR OI,SI,96
 002E36 9610D6C940404040           14604             +
 002E3E                            14605    02233000           INSTR PACK,SS,F2
 002E3E F208D7C1C3D24040           14606             +
 002E46                            14607    02234000           INSTR SPM,OTHER,04
 002E46 0401E2D7D4404040           14608             +
 002E4E                            14609    02235000           INSTR SLDA,RX,8F
 002E4E 8F40E2D3C4C14040           14610             +
 002E56                            14611    02236000           INSTR SLDL,RX,8D
 002E56 8D40E2D3C4D34040           14612             +
 002E5E                            14613    02237000           INSTR SLA,RX,8B
 002E5E 8B40E2D3C1404040           14614             +
 002E66                            14615    02238000           INSTR SLL,RX,89
 002E66 8940E2D3D3404040           14616             +
 002E6E                            14617    02239000           INSTR SRDA,RX,8E
 002E6E 8E40E2D9C4C14040           14618             +
 002E76                            14619    02240000           INSTR SRDL,RX,8C
 002E76 8C40E2D9C4D34040           14620             +
1DEBUG    Debug Subroutines                                                                                                 Page   86
0Current Usings:  (DBWA,R6) (TVT,R11) (GVT,R12)
0Loc    Object Code    Addr1 Addr2  Stmt Lv Lineno    Source Statement           (Hibal 5, Asmedit 3.3)  HLASM R4.0  2002/06/06 10.06
+___    ______ ____    _____ _____  ____ __ ______    ______ _________
0002E7E                            14621    02241000           INSTR SRA,RX,8A
 002E7E 8A40E2D9C1404040           14622             +
 002E86                            14623    02242000           INSTR SRL,RX,88
 002E86 8840E2D9D3404040           14624             +
 002E8E                            14625    02243000           INSTR ST,RX,50
 002E8E 5040E2E340404040           14626             +
 002E96                            14627    02244000           INSTR STC,RX,42
 002E96 4240E2E3C3404040           14628             +
 002E9E                            14629    02245000           INSTR STCM,RS,BE
 002E9E BE20E2E3C3D44040           14630             +
 002EA6                            14631    02246000           INSTR STCK,OTHER,B2
 002EA6 B201E2E3C3D24040           14632             +
 002EAE                            14633    02247000           INSTR STH,RX,40
 002EAE 4040E2E3C8404040           14634             +
 002EB6                            14635    02248000           INSTR STM,RS,90
 002EB6 9020E2E3D4404040           14636             +
 002EBE                            14637    02249000           INSTR SR,RR,1B
 002EBE 1B80E2D940404040           14638             +
 002EC6                            14639    02250000           INSTR S,RX,5B
 002EC6 5B40E24040404040           14640             +
 002ECE                            14641    02251000           INSTR SH,RX,4B
 002ECE 4B40E2C840404040           14642             +
 002ED6                            14643    02252000           INSTR SLR,RR,1F
 002ED6 1F80E2D3D9404040           14644             +
 002EDE                            14645    02253000           INSTR SL,RX,5F
 002EDE 5F40E2D340404040           14646             +
 002EE6                            14647    02254000           INSTR SVC,OTHER,0A
 002EE6 0A01E2E5C3404040           14648             +
 002EEE                            14649    02255000           INSTR TS,OTHER,93
 002EEE 9301E3E240404040           14650             +
 002EF6                            14651    02256000           INSTR TM,SI,91
 002EF6 9110E3D440404040           14652             +
 002EFE                            14653    02257000           INSTR TR,SS,DC
 002EFE DC08E3D940404040           14654             +
 002F06                            14655    02258000           INSTR TRT,SS,DD
 002F06 DD08E3D9E3404040           14656             +
 002F0E                            14657    02259000           INSTR UNPK,SS,F3
 002F0E F308E4D5D7D24040           14658             +
 002F16                            14659    02260000           INSTR ???,OTHER,00       END OF LIST
 002F16 00016F6F6F404040           14660             +
1DEBUG    Debug Subroutines                                                                                                 Page   87
0Current Usings:  (DBWA,R6) (TVT,R11) (GVT,R12)
0Loc    Object Code    Addr1 Addr2  Stmt Lv Lineno    Source Statement           (Hibal 5, Asmedit 3.3)  HLASM R4.0  2002/06/06 10.06
+___    ______ ____    _____ _____  ____ __ ______    ______ _________
0                                  14662    02262000           QLTORG
                                   14674    02263000           AGO   .NOSYMLEN
                                   14675    02289000  .NOSYMLEN ANOP
                                   14676    02290000  ¿þþþþþþþþþþþþþþþþþþþþþþþþþþþþþþþþþþþþþþþþþþþþþþþþþþþþþþþþþþþþþþþþþþþþþÜ
                                   14677    02291000  Ÿ                                                                     Ÿ
                                   14678    02292000  Ÿ                                                                     Ÿ
                                   14679    02293000  Ÿ  CKCMDEND - check for invalid junk at end of cmd                    Ÿ
                                   14680    02294000  Ÿ                                                                     Ÿ
                                   14681    02295000  Ÿ  on entry:  scancb points to end of cmd string, if any              Ÿ
                                   14682    02296000  Ÿ                                                                     Ÿ
                                   14683    02297000  Ÿ  on exit:  R15 = ZERO, if no junk                                   Ÿ
                                   14684    02298000  Ÿ            R15 = NZ, if junk, error msg is SEGWR'd                  Ÿ
                                   14685    02299000  Ÿ                                                                     Ÿ
                                   14686    02300000  Ÿ                                                                     Ÿ
                                   14687    02301000  Ÿ                                                                     Ÿ
                                                      ¾þþþþþþþþþþþþþþþþþþþþþþþþþþþþþþþþþþþþþþþþþþþþþþþþþþþþþþþþþþþþþþþþþþþþþ»
0002F20 90DF B0D4            000D4 14688    02302000  CKCMDEND PROC
 002F24 58F0 C014/0DEF       00014 14698             +
 002F2A C3D2C3D4C4C5D5C4           14700             +
 002F32 98DF B0D4            000D4 14701             +
 002F36 50E0 D000            00000 14704             +
 002F3A 900C D004/188D       00004 14707             +
 002F40 41D0 D038/0D70       00038 14709             +
 USING  *,R7                       14732    02303000  *
 002F46 4110 7056            02F9C 14733    02304000           SCAN  CKCMDPRT,DBSCNCB
 002F4A 41F0 6020            00020 14747             +
 002F4E 58E0 753A/0DEE       03480 14750             +
 002F54 47B0 7032            02F78 14752    02305000           IF    NEG,BEGIN
 002F58 58F0 6008            00008 14763  1 02306000             SEG   (R1),(R0)
 002F5C 58E0 753E/0DEE       03484 14782  1          +
 002F62 4110 7562            034A8 14784  1 02307000             SEGWR ': invalid.'
 002F66 4100 000A            0000A 14789  1          +
 002F6A 58F0 6008            00008 14795  1          +
 002F6E 58E0 7542/0DEE       03488 14798  1          +
 002F74 41F0 0004            00004 14800  1 02308000             LA    R15,4
 002F78                            14801    02309000           END
 002F78 7036           02F78 02F56 14805    02310000           ELSEIF DBFSCNERR,BEGIN
 002F78 47F0 7042            02F88 14811             +
 002F7C 9180 601C      0001C       14823             +
 002F80 47E0 7042            02F88 14824             +
 002F84 41F0 0004            00004 14829  1 02311000             LA    R15,4
 002F88                            14830    02312000           END
 002F88 7046           02F88 02F82 14834    02313000           ELSE  BEGIN
 002F88 47F0 7048            02F8E 14839             +
 002F8C 1BFF                       14845  1 02314000             CLEAR R15
 002F8E                            14849    02315000           END
                                   14853    02316000
 002F8E 18D8/980C D004       00004 14854    02317000           PEND
 DROP   *,R7
 002F94 58E0 D000/12FF       00000 14870             +
 002F9A 07FE                       14873             +
                                   14874    02318000  *
                                   14875    02319000  *
1DEBUG    Debug Subroutines                                                                                                 Page   88
0Current Usings:  (DBWA,R6) (TVT,R11) (GVT,R12)
0Loc    Object Code    Addr1 Addr2  Stmt Lv Lineno    Source Statement           (Hibal 5, Asmedit 3.3)  HLASM R4.0  2002/06/06 10.06
+___    ______ ____    _____ _____  ____ __ ______    ______ _________
0                                  14876    02320000  *
 002F9C FF00017C                   14877    02321000  CKCMDPRT SCKW  ,INVALID
1DEBUG    Debug Subroutines                                                                                                 Page   89
0Current Usings:  (DBWA,R6) (TVT,R11) (GVT,R12)
0Loc    Object Code    Addr1 Addr2  Stmt Lv Lineno    Source Statement           (Hibal 5, Asmedit 3.3)  HLASM R4.0  2002/06/06 10.06
+___    ______ ____    _____ _____  ____ __ ______    ______ _________
0                                  14880    02323000  ¿þþþþþþþþþþþþþþþþþþþþþþþþþþþþþþþþþþþþþþþþþþþþþþþþþþþþþþþþþþþþþþþþþþþþþÜ
                                   14881    02324000  Ÿ                                                                     Ÿ
                                   14882    02325000  Ÿ                                                                     Ÿ
                                   14883    02326000  Ÿ  CHKRADDR - see if address is valid for read                        Ÿ
                                   14884    02327000  Ÿ                                                                     Ÿ
                                   14885    02328000  Ÿ  on entry:   r1 - address to check                                  Ÿ
                                   14886    02329000  Ÿ              r0 - length to check  (<256)                           Ÿ
                                   14887    02330000  Ÿ                                                                     Ÿ
                                   14888    02331000  Ÿ  on exit:   r15 - CC=0  valid address,  CC=NZ invalid address       Ÿ
                                   14889    02332000  Ÿ                                                                     Ÿ
                                   14890    02333000  Ÿ                                                                     Ÿ
                                                      ¾þþþþþþþþþþþþþþþþþþþþþþþþþþþþþþþþþþþþþþþþþþþþþþþþþþþþþþþþþþþþþþþþþþþþþ»
0000000                00000 0000C 14891    02334000  CHKRWA   RECORD BEGIN
 000000                            14899  1 02335000  CHKRLOC    DS    F
 000004                            14900  1 02336000  CHKRLEN    DS    F
 000008                            14901  1 02337000  CHKRINFO   DS    F
 00000C                0000C 0000C 14902    02338000           END
                                   14911    02339000  *
                                   14912    02340000  *
 002FA0 90DF B0D4            000D4 14913    02341000  CHKRADDR PROC  CHKRWA
 002FA4 58F0 C014/0DEF       00014 14924             +
 002FAA C3C8D2D9C1C4C4D9           14926             +
 002FB2 98DF B0D4            000D4 14927             +
 002FB6 50E0 D000            00000 14930             +
 002FBA 900C D004/188D       00004 14933             +
 002FC0 41D0 D044/0D70       00044 14936             +
 USING  *,R7                       14968    02342000  *
 USING  CHKRWA-(4+52),R8
 002FC6                            14969    02343000           CLEAR CHKRWA
 002FC6 D70B 8038 8038 00000 00000 14975             +
 002FCC 5010 8038            00000 14976    02344000           ST    R1,CHKRLOC
 002FD0 5000 803C            00004 14977    02345000           ST    R0,CHKRLEN
                                   14978    02346000  *
                                   14979    02347000  *                                  CATCH ADDRESSING EXCEPTION
 002FD4 4D10 7022            02FE8 14980    02348000           ESPIE SET,CHKASPIE,((1,15)),PARAM=BADRADDR
 002FD8 00003118                   14985             +
 002FDC 00003020/7FFF              14986             +
 002FE2 0000/00000000              14988             +
 002FE8 4100 0004            00004 14990             +
 002FEC 41F0 001C/0A6D       0001C 14991             +
 002FF2 5010 8040            00008 14993    02349000           ST    R1,CHKRINFO         PREVIOUS ESPIE INFO
                                   14994    02350000
 002FF6 5810 8038            00000 14995    02351000           L     R1,CHKRLOC         R1,R2 - LOC, LEN TO CHECK
 002FFA 5820 803C            00004 14996    02352000           L     R2,CHKRLEN
 002FFE 5920 74C6            0348C 14997    02353000           CEIL  R2,256
 003002 47D0 7044            0300A 15006             +
 003006 5820 74C6            0348C 15011             +
 00300A 5920 74CA            03490 15016    02354000           FLOOR R2,2
 00300E 47B0 7050            03016 15025             +
 003012 5820 74CA            03490 15030             +
 003016 4420 74EE            034B4 15035    02355000           EX    R2,' CLC 0(0,R1),0(R1)'  TEST ADDRESS
 0034B4 D500 1000 1000 00000 00000 15043             +
 00301A 1BFF                       15051    02356000           SR    R15,R15
1DEBUG    Debug Subroutines                                                                                                 Page   90
0Current Usings:  (DBWA,R6) (*,R7) (CHKRWA-(4+52),R8) (TVT,R11) (GVT,R12)
0Loc    Object Code    Addr1 Addr2  Stmt Lv Lineno    Source Statement           (Hibal 5, Asmedit 3.3)  HLASM R4.0  2002/06/06 10.06
+___    ______ ____    _____ _____  ____ __ ______    ______ _________
000301C 47F0 706A            03030 15052    02357000           B     CHKREXIT
                                   15053    02358000  *
                                   15054    02359000  *
 003020                            15055    02360000  BADRADDR LABEL ,
 003020 41F0 0004            00004 15057    02361000           LA    R15,4
 003024 0ADE/0108                  15058    02362000           QSNAP 'BADRADDR'
 003028 4100 74A2            03468 15062             +
 00302C 47F0 706A            03030 15063    02363000           B     CHKREXIT
                                   15064    02364000  *
                                   15065    02365000  *
 003030                            15066    02366000  CHKREXIT LABEL ,
 003030 50F0 D000            00000 15068    02367000           XPUSH R15
 003034 41D0 D004            00004 15070             +
 003038 5810 8040            00008 15071    02368000           L     R1,CHKRINFO         PREVIOUS SPIE INFO
 00303C 4100 0008            00008 15072    02369000           ESPIE RESET,(1)           RESTORE PREVIOUS ESPIE
 003040 41F0 001C/0A6D       0001C 15075             +
 003046 4BD0 74EC            034B2 15077    02370000           XPOP  R15
 00304A 58F0 D000            00000 15079             +
 00304E 18D8/980C D004       00004 15080    02371000           PEND
 DROP   CHKRWA-(4+52),R8
 DROP   *,R7
 003054 58E0 D000/12FF       00000 15101             +
 00305A 07FE                       15104             +
1DEBUG    Debug Subroutines                                                                                                 Page   91
0Current Usings:  (DBWA,R6) (TVT,R11) (GVT,R12)
0Loc    Object Code    Addr1 Addr2  Stmt Lv Lineno    Source Statement           (Hibal 5, Asmedit 3.3)  HLASM R4.0  2002/06/06 10.06
+___    ______ ____    _____ _____  ____ __ ______    ______ _________
0                                  15106    02373000  ¿þþþþþþþþþþþþþþþþþþþþþþþþþþþþþþþþþþþþþþþþþþþþþþþþþþþþþþþþþþþþþþþþþþþþþÜ
                                   15107    02374000  Ÿ                                                                     Ÿ
                                   15108    02375000  Ÿ                                                                     Ÿ
                                   15109    02376000  Ÿ  CHKSADDR - see if address is valid for store                       Ÿ
                                   15110    02377000  Ÿ                                                                     Ÿ
                                   15111    02378000  Ÿ  on entry:   r1 - address to check                                  Ÿ
                                   15112    02379000  Ÿ              r0 - length to check  (<256)                           Ÿ
                                   15113    02380000  Ÿ                                                                     Ÿ
                                   15114    02381000  Ÿ  on exit:   r15 - CC=0  valid address,  CC=NZ invalid address       Ÿ
                                   15115    02382000  Ÿ                                                                     Ÿ
                                   15116    02383000  Ÿ                                                                     Ÿ
                                                      ¾þþþþþþþþþþþþþþþþþþþþþþþþþþþþþþþþþþþþþþþþþþþþþþþþþþþþþþþþþþþþþþþþþþþþþ»
0000000                00000 0000C 15117    02384000  CHKSWA   RECORD BEGIN
 000000                            15125  1 02385000  CHKSLOC    DS    F
 000004                            15126  1 02386000  CHKSLEN    DS    F
 000008                            15127  1 02387000  CHKSINFO   DS    F
 00000C                0000C 0000C 15128    02388000           END
                                   15137    02389000  *
                                   15138    02390000  *
 00305C 90DF B0D4            000D4 15139    02391000  CHKSADDR PROC  CHKSWA
 003060 58F0 C014/0DEF       00014 15150             +
 003066 C3C8D2E2C1C4C4D9           15152             +
 00306E 98DF B0D4            000D4 15153             +
 003072 50E0 D000            00000 15156             +
 003076 900C D004/188D       00004 15159             +
 00307C 41D0 D044/0D70       00044 15162             +
 USING  *,R7                       15194    02392000  *
 USING  CHKSWA-(4+52),R8
 003082                            15195    02393000           CLEAR CHKSWA
 003082 D70B 8038 8038 00000 00000 15201             +
 003088 5010 8038            00000 15202    02394000           ST    R1,CHKSLOC
 00308C 5000 803C            00004 15203    02395000           ST    R0,CHKSLEN
                                   15204    02396000  *
                                   15205    02397000  *                                  CATCH ADDRESSING EXCEPTION
 003090 4D10 7022            030A4 15206    02398000           ESPIE SET,CHKASPIE,((1,15)),PARAM=BADSADDR
 003094 00003118                   15211             +
 003098 000030DC/7FFF              15212             +
 00309E 0000/00000000              15214             +
 0030A4 4100 0004            00004 15216             +
 0030A8 41F0 001C/0A6D       0001C 15217             +
 0030AE 5010 8040            00008 15219    02399000           ST    R1,CHKSINFO         PREVIOUS ESPIE INFO
                                   15220    02400000
 0030B2 5810 8038            00000 15221    02401000           L     R1,CHKSLOC         R1,R2 - LOC, LEN TO CHECK
 0030B6 5820 803C            00004 15222    02402000           L     R2,CHKSLEN
 0030BA 5920 740A            0348C 15223    02403000           CEIL  R2,256
 0030BE 47D0 7044            030C6 15232             +
 0030C2 5820 740A            0348C 15237             +
 0030C6 5920 740E            03490 15242    02404000           FLOOR R2,2
 0030CA 47B0 7050            030D2 15251             +
 0030CE 5820 740E            03490 15256             +
 0030D2 4420 7438            034BA 15261    02405000           EX    R2,' MVC 0(0,R1),0(R1)'  TEST ADDRESS
 0034BA D200 1000 1000 00000 00000 15269             +
 0030D6 1BFF                       15277    02406000           SR    R15,R15
1DEBUG    Debug Subroutines                                                                                                 Page   92
0Current Usings:  (DBWA,R6) (*,R7) (CHKSWA-(4+52),R8) (TVT,R11) (GVT,R12)
0Loc    Object Code    Addr1 Addr2  Stmt Lv Lineno    Source Statement           (Hibal 5, Asmedit 3.3)  HLASM R4.0  2002/06/06 10.06
+___    ______ ____    _____ _____  ____ __ ______    ______ _________
00030D8 47F0 706A            030EC 15278    02407000           B     CHKSEXIT
                                   15279    02408000  *
                                   15280    02409000  *
 0030DC                            15281    02410000  BADSADDR LABEL ,
 0030DC 0ADE/0108                  15283    02411000           QSNAP 'BADSADDR'
 0030E0 4100 73EE            03470 15287             +
 0030E4 41F0 0004            00004 15288    02412000           LA    R15,4
 0030E8 47F0 706A            030EC 15289    02413000           B     CHKSEXIT
                                   15290    02414000  *
                                   15291    02415000  *
 0030EC                            15292    02416000  CHKSEXIT LABEL ,
 0030EC 50F0 D000            00000 15294    02417000           XPUSH R15
 0030F0 41D0 D004            00004 15296             +
 0030F4 5810 8040            00008 15297    02418000           L     R1,CHKSINFO         PREVIOUS SPIE INFO
 0030F8 4100 0008            00008 15298    02419000           ESPIE RESET,(1)           RESTORE PREVIOUS ESPIE
 0030FC 41F0 001C/0A6D       0001C 15301             +
 003102 4BD0 7430            034B2 15303    02420000           XPOP  R15
 003106 58F0 D000            00000 15305             +
 00310A 18D8/980C D004       00004 15306    02421000           PEND
 DROP   CHKSWA-(4+52),R8
 DROP   *,R7
 003110 58E0 D000/12FF       00000 15327             +
 003116 07FE                       15330             +
1DEBUG    Debug Subroutines                                                                                                 Page   93
0Current Usings:  (DBWA,R6) (TVT,R11) (GVT,R12)
0Loc    Object Code    Addr1 Addr2  Stmt Lv Lineno    Source Statement           (Hibal 5, Asmedit 3.3)  HLASM R4.0  2002/06/06 10.06
+___    ______ ____    _____ _____  ____ __ ______    ______ _________
0                                  15332    02423000  ¿þþþþþþþþþþþþþþþþþþþþþþþþþþþþþþþþþþþþþþþþþþþþþþþþþþþþþþþþþþþþþþþþþþþþþÜ
                                   15333    02424000  Ÿ                                                                     Ÿ
                                   15334    02425000  Ÿ ESPIE ROUTINE                                                       Ÿ
                                   15335    02426000  Ÿ                                                                     Ÿ
                                   15336    02427000  Ÿ We just return to the PARAM address, simple simon.                  Ÿ
                                   15337    02428000  Ÿ                                                                     Ÿ
                                   15338    02429000  Ÿ                                                                     Ÿ
                                   15339    02430000  Ÿ NOTE: no PROC no PEND, we are in OSLAND toto!                       Ÿ
                                   15340    02431000  Ÿ                                                                     Ÿ
                                   15341    02432000  Ÿ                                                                     Ÿ
                                                      ¾þþþþþþþþþþþþþþþþþþþþþþþþþþþþþþþþþþþþþþþþþþþþþþþþþþþþþþþþþþþþþþþþþþþþþ»
0003118                            15342    02433000  CHKASPIE LABEL ,
 USING  *,R15                      15344    02434000           WITH  (*,R15),BEGIN
 USING  EPIE,R1                    15359  1 02435000             WITH  (EPIE,R1),BEGIN
 003118 D403 104C F37C 0004C 03494 15373  2 02436000               NC    EPIEIA,=X'80000000' KEEP ADDRESSING MODE THE SAME
 00311E D603 104C 1004 0004C 00004 15374  2 02437000               OC    EPIEIA,EPIEPARM
 003124 0ADE/0108                  15375  2 02438000               QSNAP 'CHKASPIE'
 003128 4100 F360            03478 15379  2          +
 00312C 0ADE/020100                15380  2 02439000               QSNAP (R14)
 003131 E00000                     15384  2          +
 003134 07FE                       15385  2 02440000               BR    R14
 DROP   EPIE,R1                    15386  1 02441000             END
1DEBUG    Debug Subroutines                                                                                                 Page   94
0Current Usings:  (DBWA,R6) (TVT,R11) (GVT,R12) (*,R15)
0Loc    Object Code    Addr1 Addr2  Stmt Lv Lineno    Source Statement           (Hibal 5, Asmedit 3.3)  HLASM R4.0  2002/06/06 10.06
+___    ______ ____    _____ _____  ____ __ ______    ______ _________
0                                         1
0                                  15396  1 02444000  ¿þþþþþþþþþþþþþþþþþþþþþþþþþþþþþþþþþþþþþþþþþþþþþþþþþþþþþþþþþþþþþþþþþþþþþÜ
                                   15397  1 02445000  Ÿ                                                                     Ÿ
                                   15398  1 02446000  Ÿ                                                                     Ÿ
                                   15399  1 02447000  Ÿ  CHKIADDR - see if address is an instruction address,               Ÿ
                                   15400  1 02448000  Ÿ             we check for valid opcode, and check a bit to           Ÿ
                                   15401  1 02449000  Ÿ             see if the address is in the program, not data area     Ÿ
                                   15402  1 02450000  Ÿ                                                                     Ÿ
                                   15403  1 02451000  Ÿ  on entry:   r1 - address to check                                  Ÿ
                                   15404  1 02452000  Ÿ                                                                     Ÿ
                                   15405  1 02453000  Ÿ  on exit:   r15 - CC=0  valid address,  CC=NZ invalid address       Ÿ
                                   15406  1 02454000  Ÿ                                                                     Ÿ
                                   15407  1 02455000  Ÿ                                                                     Ÿ
                                          1           ¾þþþþþþþþþþþþþþþþþþþþþþþþþþþþþþþþþþþþþþþþþþþþþþþþþþþþþþþþþþþþþþþþþþþþþ»
0000000                00000 00008 15408  1 02456000  CHKIWA     RECORD BEGIN
 000000                            15416  2 02457000  CHKINAME     DS    CL8
 000008                00008 00008 15417  1 02458000             END
                                   15426  1 02459000  *
                                   15427  1 02460000  *
 003136 90DF B0D4            000D4 15428  1 02461000  CHKIADDR   PROC  CHKIWA
 00313A 58F0 C014/0DEF       00014 15439  1          +
 003140 C3C8D2C9C1C4C4D9           15441  1          +
 003148 98DF B0D4            000D4 15442  1          +
 00314C 50E0 D000            00000 15445  1          +
 003150 900C D004/188D       00004 15448  1          +
 003156 41D0 D040/0D70       00040 15451  1          +
 USING  *,R7                       15483  1 02462000             CLEAR CHKIWA
 USING  CHKIWA-(4+52),R8
 00315C D707 8038 8038 00000 00000 15489  1          +
                                   15490  1 02463000  *                                 R1 - ADDRESS TO CHECK
 003162 4100 0002            00002 15491  1 02464000             LA    R0,2
 003166 58E0 733C/0DEE       03498 15492  1 02465000             ACALL CHKRADDR           CHECK ADDR FOR READ, WEAK CHECK
 00316C 4770 7036            03192 15496  1 02466000             IF    NZ,BADIADDR
 003170 1821                       15510  1 02467000             LR    R2,R1              CHECK FOR EVEN ADDRESS
 003172 8820 001F            0001F 15511  1 02468000             SRL   R2,31
 003176 1222/4770 7036       03192 15512  1 02469000             IF    (R2,NZ),BADIADDR
 00317C 1B22                       15529  1 02470000             SR    R2,R2              CHECK FOR INSTRUCTION OP CODE
 00317E 4321 0000            00000 15530  1 02471000             IC    R2,0(R1)
 003182 4322 704C            031A8 15531  1 02472000             IC    R2,INSTTYPE(R2)
 003186 1222/4770 7036       03192 15532  1 02473000             IF    (R2,NZ),BADIADDR
 00318C 1BFF                       15549  1 02474000             SR    R15,R15            IF NOT BAD, THEN IT MUST BE OK
 00318E 47F0 703E            0319A 15550  1 02475000             B     CHKIEXIT
                                   15551  1 02476000  *
                                   15552  1 02477000  *
 003192                            15553  1 02478000  BADIADDR   LABEL ,
 003192 41F0 0004            00004 15555  1 02479000             LA    R15,4
 003196 47F0 703E            0319A 15556  1 02480000             B     CHKIEXIT
                                   15557  1 02481000  *
                                   15558  1 02482000  *
 00319A                            15559  1 02483000  CHKIEXIT   LABEL ,
 00319A 18D8/980C D004       00004 15561  1 02484000             PEND
 DROP   CHKIWA-(4+52),R8
1DEBUG    Debug Subroutines                                                                                                 Page   95
0Current Usings:  (DBWA,R6) (TVT,R11) (GVT,R12) (*,R15)
0Loc    Object Code    Addr1 Addr2  Stmt Lv Lineno    Source Statement           (Hibal 5, Asmedit 3.3)  HLASM R4.0  2002/06/06 10.06
+___    ______ ____    _____ _____  ____ __ ______    ______ _________
0DROP   *,R7
 0031A0 58E0 D000/12FF       00000 15582  1          +
 0031A6 07FE                       15585  1          +
1DEBUG    Debug Subroutines                                                                                                 Page   96
0Current Usings:  (DBWA,R6) (TVT,R11) (GVT,R12) (*,R15)
0Loc    Object Code    Addr1 Addr2  Stmt Lv Lineno    Source Statement           (Hibal 5, Asmedit 3.3)  HLASM R4.0  2002/06/06 10.06
+___    ______ ____    _____ _____  ____ __ ______    ______ _________
0                                  15587  1 02486000  ¿þþþþþþþþþþþþþþþþþþþþþþþþþþþþþþþþþþþþþþþþþþþþþþþþþþþþþþþþþþþþþþþþþþþþþÜ
                                   15588  1 02487000  Ÿ                                                                     Ÿ
                                   15589  1 02488000  Ÿ                                                                     Ÿ
                                   15590  1 02489000  Ÿ   INSTRUCTION TYPE TABLE  (370-XA)                                  Ÿ
                                   15591  1 02490000  Ÿ                                                                     Ÿ
                                   15592  1 02491000  Ÿ     0 - GENERAL INSTRUCTION                                         Ÿ
                                   15593  1 02492000  Ÿ     4 - INVALID OPCODE                                              Ÿ
                                   15594  1 02493000  Ÿ     8 - DECIMAL                                                     Ÿ
                                   15595  1 02494000  Ÿ    12 - FLOATING POINT                                              Ÿ
                                   15596  1 02495000  Ÿ    16 - CONTROL                                                     Ÿ
                                   15597  1 02496000  Ÿ    20 - I/O AND MORE (B2 OPCODE)                                    Ÿ
                                   15598  1 02497000  Ÿ                                                                     Ÿ
                                   15599  1 02498000  Ÿ                                                                     Ÿ
                                   15600  1 02499000  Ÿ               0 1 2 3 4 5 6 7 8 9 A B C D E F                       Ÿ
                                   15601  1 02500000  Ÿ                                                                     Ÿ
                                          1           ¾þþþþþþþþþþþþþþþþþþþþþþþþþþþþþþþþþþþþþþþþþþþþþþþþþþþþþþþþþþþþþþþþþþþþþ»
00031A8 0404040400000000           15602  1 02501000  INSTTYPE   DC    X'04040404000000000404000000000000'   0
 0031B8 0000000000000000           15603  1 02502000             DC    X'00000000000000000000000000000000'   1
 0031C8 0C0C0C0C0C0C0C0C           15604  1 02503000             DC    X'0C0C0C0C0C0C0C0C0C0C0C0C0C0C0C0C'   2
 0031D8 0C0C0C0C0C0C0C0C           15605  1 02504000             DC    X'0C0C0C0C0C0C0C0C0C0C0C0C0C0C0C0C'   3
 0031E8 0000000000000000           15606  1 02505000             DC    X'00000000000000000000000000000000'   4
 0031F8 0004040400000000           15607  1 02506000             DC    X'00040404000000000000000000000000'   5
 003208 0C0404040404040C           15608  1 02507000             DC    X'0C0404040404040C0C0C0C0C0C0C0C0C'   6
 003218 0C04040404040404           15609  1 02508000             DC    X'0C040404040404040C0C0C0C0C0C0C0C'   7
 003228 1004101004040000           15610  1 02509000             DC    X'10041010040400000000000000000000'   8
 003238 0000000000000000           15611  1 02510000             DC    X'00000000000000000010040404040404'   9
 003248 0404040404040404           15612  1 02511000             DC    X'04040404040404040404040410101000'   A
 003258 0410140404041010           15613  1 02512000             DC    X'04101404040410100404000004000000'   B
 003268 0404040404040404           15614  1 02513000             DC    X'04040404040404040404040404040404'   C
 003278 0400000000000000           15615  1 02514000             DC    X'04000000000000000410101000000808'   F
 003288 0404040404100404           15616  1 02515000             DC    X'04040404041004040404040404040404'   E
 003298 0800000004040404           15617  1 02516000             DC    X'08000000040404040808080808080404'   F
1DEBUG    Debug Subroutines                                                                                                 Page   97
0Current Usings:  (DBWA,R6) (TVT,R11) (GVT,R12) (*,R15)
0Loc    Object Code    Addr1 Addr2  Stmt Lv Lineno    Source Statement           (Hibal 5, Asmedit 3.3)  HLASM R4.0  2002/06/06 10.06
+___    ______ ____    _____ _____  ____ __ ______    ______ _________
0                                         1
0                                  15620  1 02519000  ¿þþþþþþþþþþþþþþþþþþþþþþþþþþþþþþþþþþþþþþþþþþþþþþþþþþþþþþþþþþþþþþþþþþþþþÜ
                                   15621  1 02520000  Ÿ                                                                     Ÿ
                                   15622  1 02521000  Ÿ                                                                     Ÿ
                                   15623  1 02522000  Ÿ  CHKINST - Check if instruction or data                             Ÿ
                                   15624  1 02523000  Ÿ                                                                     Ÿ
                                   15625  1 02524000  Ÿ       on entry:  r1 - address                                       Ÿ
                                   15626  1 02525000  Ÿ                                                                     Ÿ
                                   15627  1 02526000  Ÿ       on exit:   r15=0 - yes,  r15=NZ - not instruction             Ÿ
                                   15628  1 02527000  Ÿ                                                                     Ÿ
                                   15629  1 02528000  Ÿ                                                                     Ÿ
                                   15630  1 02529000  Ÿ  This routine makes an attemp to determine whether we are           Ÿ
                                   15631  1 02530000  Ÿ  looking at an instruction or data.  We make a number of            Ÿ
                                   15632  1 02531000  Ÿ  tests none are always right,,,  we try to error in favor           Ÿ
                                   15633  1 02532000  Ÿ  of the instruction.                                                Ÿ
                                   15634  1 02533000  Ÿ                                                                     Ÿ
                                   15635  1 02534000  Ÿ                                                                     Ÿ
                                          1           ¾þþþþþþþþþþþþþþþþþþþþþþþþþþþþþþþþþþþþþþþþþþþþþþþþþþþþþþþþþþþþþþþþþþþþþ»
0000000                00000 00008 15636  1 02535000  CKINWA     RECORD BEGIN
 000000                            15644  2 02536000  CKINTEMP     DS    CL8
 000008                00008 00008 15645  1 02537000             END
                                   15654  1 02538000  *
                                   15655  1 02539000  *
 0032A8 90DF B0D4            000D4 15656  1 02540000  CHKINST    PROC  CKINWA
 0032AC 58F0 C014/0DEF       00014 15667  1          +
 0032B2 C3C8D2C9D5E2E340           15669  1          +
 0032BA 98DF B0D4            000D4 15670  1          +
 0032BE 50E0 D000            00000 15673  1          +
 0032C2 900C D004/188D       00004 15676  1          +
 0032C8 41D0 D040/0D70       00040 15679  1          +
 USING  *,R7                       15711  1 02541000             CLEAR CKINWA
 USING  CKINWA-(4+52),R8
 0032CE D707 8038 8038 00000 00000 15717  1          +
                                   15718  1 02542000
 0032D4 4140 0004            00004 15719  1 02543000             LA    R4,4               CHECK FOR 4 INSTRUCTIONS
 0032D8 1244/4780 70F8       033C6 15720  1 02544000             WHILE (R4,NZ),BEGIN      LOOP THRU 4 INSTRUCTIONS
                                   15736  2 02545000  *
 0032DE 5830 71CE            0349C 15737  2 02546000               L     R3,=A(INSTTYPE)    CHECK FOR VALID OPCODE
 0032E2 1B22                       15738  2 02547000               SR    R2,R2
 0032E4 4321 0000            00000 15739  2 02548000               IC    R2,0(R1)
 0032E8 4323 2000            00000 15740  2 02549000               IC    R2,0(R3,R2)
 0032EC 1222/4770 7104       033D2 15741  2 02550000               IF    (R2,NZ),NOTINST
                                   15758  2 02551000  *
 0032F2 9505 1000      00000       15759  2 02552000               IF    (@R1,EQ,X'05'),GOTINST    CHECK FOR BRANCH OPCODES
 0032F6 4780 70FC            033CA 15772  2          +
 0032FA 9507 1000      00000       15778  2 02553000               IF    (@R1,EQ,X'07'),GOTINST
 0032FE 4780 70FC            033CA 15791  2          +
 003302 950B 1000      00000       15797  2 02554000               IF    (@R1,EQ,X'0B'),GOTINST
 003306 4780 70FC            033CA 15810  2          +
 00330A 950C 1000      00000       15816  2 02555000               IF    (@R1,EQ,X'0C'),GOTINST
 00330E 4780 70FC            033CA 15829  2          +
 003312 950D 1000      00000       15835  2 02556000               IF    (@R1,EQ,X'0D'),GOTINST
1DEBUG    Debug Subroutines                                                                                                 Page   98
0Current Usings:  (DBWA,R6) (*,R7) (CKINWA-(4+52),R8) (TVT,R11) (GVT,R12) (*,R15)
0Loc    Object Code    Addr1 Addr2  Stmt Lv Lineno    Source Statement           (Hibal 5, Asmedit 3.3)  HLASM R4.0  2002/06/06 10.06
+___    ______ ____    _____ _____  ____ __ ______    ______ _________
0003316 4780 70FC            033CA 15848  2          +
 00331A 9545 1000      00000       15854  2 02557000               IF    (@R1,EQ,X'45'),GOTINST
 00331E 4780 70FC            033CA 15867  2          +
 003322 9547 1000      00000       15873  2 02558000               IF    (@R1,EQ,X'47'),GOTINST
 003326 4780 70FC            033CA 15886  2          +
 00332A 954D 1000      00000       15892  2 02559000               IF    (@R1,EQ,X'4D'),GOTINST
 00332E 4780 70FC            033CA 15905  2          +
                                   15911  2 02560000
 003332                            15912  2 02561000               IF    (@R1,EQ,'    '),NOTINST   CHECK FOR BLANKS, LETTERS
 003332 D503 71D2 1000 034A0 00000 15922  2          +
 003338 4780 7104            033D2 15925  2          +
 00333C 1B00                       15931  2 02562000               SR    R0,R0
 00333E 1821                       15932  2 02563000               LR    R2,R1
 003340 4130 0006            00006 15933  2 02564000               LA    R3,6
 003344 1233/47D0 709A       03368 15934  2 02565000               WHILE (R3,POS),BEGIN     CHECK FOR 6 UPPER CASE LETTERS
 00334A 95C0 2000      00000       15950  3 02566000                 IF    ((@R2,LE,X'C0'),AND,(@R2,NE,X'40')),' LA R0,1 '
 00334E 4730 7090            0335E 15963  3          +
 003352 9540 2000      00000       15975  3          +
 003356 4780 7090            0335E 15976  3          +
 00335A 4100 0001            00001 15982  3          +
 00335E 4122 0001            00001 15987  3 02567000                 LA    R2,1(R2)
 003362 0630                       15988  3 02568000                 BCTR  R3,0
 003364 47F0 7076            03344 15989  2 02569000               END
 003368 1200/4780 7104       033D2 15994  2 02570000               IF    (R0,Z),NOTINST
 00336E 1B00                       16011  2 02571000               SR    R0,R0
 003370 1821                       16012  2 02572000               LR    R2,R1
 003372 4130 0008            00008 16013  2 02573000               LA    R3,8
 003376 1233/47D0 70CC       0339A 16014  2 02574000               WHILE (R3,POS),BEGIN     CHECK FOR 8 LOWER CASE LETTERS
 00337C 9580 2000      00000       16030  3 02575000                 IF    ((@R2,LE,X'80'),AND,(@R2,NE,X'40')),' LA R0,1 '
 003380 4730 70C2            03390 16043  3          +
 003384 9540 2000      00000       16055  3          +
 003388 4780 70C2            03390 16056  3          +
 00338C 4100 0001            00001 16062  3          +
 003390 4122 0001            00001 16067  3 02576000                 LA    R2,1(R2)
 003394 0630                       16068  3 02577000                 BCTR  R3,0
 003396 47F0 70A8            03376 16069  2 02578000               END
 00339A 1200/4780 7104       033D2 16074  2 02579000               IF    (R0,Z),NOTINST
                                   16091  2 02580000  *
 0033A0 4120 0002            00002 16092  2 02581000               LA    R2,2                      CHECK NEXT INSTRUCTION
 0033A4 9540 1000      00000       16093  2 02582000               IF    (@R1,GE,X'40'),' LA R2,4 '      GET INSTRUCTION LEN
 0033A8 4750 70E2            033B0 16104  2          +
 0033AC 4120 0004            00004 16110  2          +
 0033B0 95D0 1000      00000       16115  2 02583000               IF    (@R1,GE,X'D0'),' LA R2,6 '
 0033B4 4750 70EE            033BC 16126  2          +
 0033B8 4120 0006            00006 16132  2          +
 0033BC 4112 1000            00000 16137  2 02584000               LA    R1,0(R2,R1)
 0033C0 0640                       16138  2 02585000               BCTR  R4,0
 0033C2 47F0 700A            032D8 16139  1 02586000             END   ,                  LOOP CHECKING NEXT INSTRUCTION
 0033C6 47F0 70FC            033CA 16144  1 02587000             B     GOTINST            FALL THRU INDICATES WE HAVE INSTR.
                                   16145  1 02588000
 0033CA                            16146  1 02589000  GOTINST    LABEL ,
 0033CA 1BFF/1BFF                  16148  1 02590000             CLEAR R15,R15
 0033CE 47F0 710C            033DA 16154  1 02591000             B     CKINEXIT
                                   16155  1 02592000
1DEBUG    Debug Subroutines                                                                                                 Page   99
0Current Usings:  (DBWA,R6) (*,R7) (CKINWA-(4+52),R8) (TVT,R11) (GVT,R12) (*,R15)
0Loc    Object Code    Addr1 Addr2  Stmt Lv Lineno    Source Statement           (Hibal 5, Asmedit 3.3)  HLASM R4.0  2002/06/06 10.06
+___    ______ ____    _____ _____  ____ __ ______    ______ _________
00033D2                            16156  1 02593000  NOTINST    LABEL ,
 0033D2 41F0 0004            00004 16158  1 02594000             LA    R15,4
 0033D6 47F0 710C            033DA 16159  1 02595000             B     CKINEXIT
                                   16160  1 02596000
 0033DA                            16161  1 02597000  CKINEXIT   LABEL ,
 0033DA 18D8/980C D004       00004 16163  1 02598000             PEND
 DROP   CKINWA-(4+52),R8
 DROP   *,R7
 0033E0 58E0 D000/12FF       00000 16184  1          +
 0033E6 07FE                       16187  1          +
1DEBUG    Debug Subroutines                                                                                                 Page  100
0Current Usings:  (DBWA,R6) (TVT,R11) (GVT,R12) (*,R15)
0Loc    Object Code    Addr1 Addr2  Stmt Lv Lineno    Source Statement           (Hibal 5, Asmedit 3.3)  HLASM R4.0  2002/06/06 10.06
+___    ______ ____    _____ _____  ____ __ ______    ______ _________
0                                  16189  1 02600000  *
                                   16190  1 02601000  *  FINDTRAP -
                                   16191  1 02602000  *
                                   16192  1 02603000  *  ON ENTRY:
                                   16193  1 02604000  *        R0 - DVWA
                                   16194  1 02605000  *        R1 - INSTURCTION ADDRESS (OR ZERO)
                                   16195  1 02606000  *
                                   16196  1 02607000  *  ON EXIT:
                                   16197  1 02608000  *        R0 - TRAP NUMBER (STARTS AT 1)
                                   16198  1 02609000  *        R1 - TRAP ADDRESS
                                   16199  1 02610000  *        R15=0 - TRAP FOUND
                                   16200  1 02611000  *        R15=NZ - TRAP NOT FOUND
                                   16201  1 02612000  *
 0033E8 90DF B0D4            000D4 16202  1 02613000  FINDTRAP   XPROC
 0033EC 58F0 C014/0DEF       00014 16214  1          +
 0033F2 C6C9D5C4E3D9C1D7           16216  1          +
 0033FA 98DF B0D4            000D4 16217  1          +
 0033FE 50E0 D000            00000 16220  1          +
 003402 900C D004/188D       00004 16223  1          +
 003408 41D0 D038/0D70       00038 16225  1          +
 USING  *,R7                       16248  1 02614000  *
 00340E 1850                       16249  1 02615000             LR    R5,R0
 USING  DVWA,R5                    16250  1 02616000             USING DVWA,R5
 003410 4140 5024            00024 16259  1 02617000             LA    R4,DVTRAPS          TRAP NDX
 USING  TPENTRY,R4                 16260  1 02618000             USING TPENTRY,R4
                                   16269  1 02619000  *
                                   16270  1 02620000  *                                  FIND TRAP
 003414 4110 1000            00000 16271  1 02621000             LA    R1,@R1
 003418 4130 0001            00001 16272  1 02622000             LA    R3,1
 00341C 5910 4000            00000 16273  1 02623000             WHILE ((R1,NE,TPADDR),AND,(TPADDR,NZ)),BEGIN
 003420 4780 702C            0343A 16289  1          +
 003424 D603 4000 4000 00000 00000 16301  1          +
 00342A 4780 702C            0343A 16302  1          +
 00342E 4140 4008            00008 16307  2 02624000               LA    R4,TPNEXT
 003432 5E30 7096            034A4 16308  2 02625000               INCR  R3
 003436 47F0 700E            0341C 16311  1 02626000             END
                                   16316  1 02627000  *
                                   16317  1 02628000  *                                  SET RETURNS
 00343A 5910 4000            00000 16318  1 02629000             IF    (R1,EQ,TPADDR),BEGIN TRAP FOUND
 00343E 4770 703E            0344C 16330  1          +
 003442 1814                       16335  2 02630000               LR    R1,R4
 003444 1803                       16336  2 02631000               LR    R0,R3
 003446 9001 8004            00004 16337  2 02632000               PRETURN (R0,R1)
 00344A 1BFF                       16339  2 02633000               CLEAR R15
 00344C                            16343  1 02634000             END
 00344C 7042           0344C 03440 16347  1 02635000             ELSE  BEGIN               NOT FOUND
 00344C 47F0 7046            03454 16352  1          +
 003450 41F0 0004            00004 16358  2 02636000               LA    R15,4
 003454                            16359  1 02637000             END
                                   16363  1 02638000
 003454 18D8/980C D004       00004 16364  1 02639000             PEND
 DROP   *,R7
 00345A 58E0 D000/12FF       00000 16380  1          +
 003460 07FE                       16383  1          +
1DEBUG    Debug Subroutines                                                                                                 Page  101
0Current Usings:  (TPENTRY,R4) (DBWA,R6) (TVT,R11) (GVT,R12) (*,R15)
0Loc    Object Code    Addr1 Addr2  Stmt Lv Lineno    Source Statement           (Hibal 5, Asmedit 3.3)  HLASM R4.0  2002/06/06 10.06
+___    ______ ____    _____ _____  ____ __ ______    ______ _________
0DROP   DVWA,R5                    16384  1 02640000             DROP  R5
 DROP   TPENTRY,R4                 16391  1 02641000             DROP  R4
                                   16398  1 02642000
                                   16399  1 02643000             QLTORG
1DEBUG    Debug Subroutines                                                                                                 Page  102
0Current Usings:  (DBWA,R6) (TVT,R11) (GVT,R12) (*,R15)
0Loc    Object Code    Addr1 Addr2  Stmt Lv Lineno    Source Statement           (Hibal 5, Asmedit 3.3)  HLASM R4.0  2002/06/06 10.06
+___    ______ ____    _____ _____  ____ __ ______    ______ _________
0000000                00000 00008 16427  1 02645000  DSEGWA     RECORD BEGIN
 000000                            16435  2 02646000  DSEGNAME     DS    CL8
 000008                00008 00008 16436  1 02647000             END
                                   16445  1 02648000  ¿þþþþþþþþþþþþþþþþþþþþþþþþþþþþþþþþþþþþþþþþþþþþþþþþþþþþþþþþþþþþþþþþþþþþþÜ
                                   16446  1 02649000  Ÿ                                                                     Ÿ
                                   16447  1 02650000  Ÿ                                                                     Ÿ
                                   16448  1 02651000  Ÿ  DSEGADDR - seg an address,                                         Ÿ
                                   16449  1 02652000  Ÿ             gives MODULE+OFFSET, or ADDRESS                         Ÿ
                                   16450  1 02653000  Ÿ                                                                     Ÿ
                                   16451  1 02654000  Ÿ   on input, R1 - ADDRESS                                            Ÿ
                                   16452  1 02655000  Ÿ                                                                     Ÿ
                                   16453  1 02656000  Ÿ                                                                     Ÿ
                                          1           ¾þþþþþþþþþþþþþþþþþþþþþþþþþþþþþþþþþþþþþþþþþþþþþþþþþþþþþþþþþþþþþþþþþþþþþ»
00034C0 90DF B0D4            000D4 16454  1 02657000  DSEGADDR   PROC  DSEGWA
 0034C4 58F0 C014/0DEF       00014 16465  1          +
 0034CA C4E2C5C7C1C4C4D9           16467  1          +
 0034D2 98DF B0D4            000D4 16468  1          +
 0034D6 50E0 D000            00000 16471  1          +
 0034DA 900C D004/188D       00004 16474  1          +
 0034E0 41D0 D040/0D70       00040 16477  1          +
 USING  *,R7                       16509  1 02658000             CLEAR DSEGWA
 USING  DSEGWA-(4+52),R8
 0034E6 D707 8038 8038 00000 00000 16515  1          +
 0034EC 58E0 72FA/0DEE       037E0 16516  1 02659000             ACALL EVALADDR           GET MODULE+OFFSET REPRESENTATION
 0034F2 90F0 8038            00000 16520  1 02660000             STM   R15,R0,DSEGNAME    MODULE NAME
 0034F6 1821                       16521  1 02661000             LR    R2,R1              OFFSET  (OR ADDR)
 0034F8 12FF/4780 7050       03536 16522  1 02662000             IF    (R15,NZ),BEGIN     IF MODULE NAME,
 0034FE 4110 8038            00000 16536  2 02663000               SEGT  DSEGNAME           MODULE+
 003502 4100 0008            00008 16551  2          +
 003506 58F0 6008            00008 16557  2          +
 00350A 58E0 72FE/0DEE       037E4 16560  2          +
 003510 1222/4780 7050       03536 16562  2 02664000               IF    (R2,NZ),BEGIN
 003516 4110 730A            037F0 16576  3 02665000                 SEG   '+0'                      0HHHEX
 00351A 4100 0002            00002 16580  3          +
 00351E 58F0 6008            00008 16586  3          +
 003522 58E0 7302/0DEE       037E8 16589  3          +
 003528 1812/1B00                  16591  3 02666000                 SEGHX (R2)
 00352C 58F0 6008            00008 16605  3          +
 003530 58E0 7306/0DEE       037EC 16608  3          +
 003536                            16610  2 02667000               END
 003536                            16614  1 02668000             END
 003536 7054           03536 034FC 16618  1 02669000             ELSE  BEGIN ,            IF NO MODULE NAME, JUST GIVE ADDR
 003536 47F0 7064            0354A 16623  1          +
 00353A 1812/4100 0008       00008 16629  2 02670000               SEGHX (R2),8
 003540 58F0 6008            00008 16646  2          +
 003544 58E0 7306/0DEE       037EC 16649  2          +
 00354A                            16651  1 02671000             END
 00354A 18D8/980C D004       00004 16655  1 02672000             PEND
 DROP   DSEGWA-(4+52),R8
 DROP   *,R7
 003550 58E0 D000/12FF       00000 16676  1          +
 003556 07FE                       16679  1          +
1DEBUG    Debug Subroutines                                                                                                 Page  103
0Current Usings:  (DBWA,R6) (TVT,R11) (GVT,R12) (*,R15)
0Loc    Object Code    Addr1 Addr2  Stmt Lv Lineno    Source Statement           (Hibal 5, Asmedit 3.3)  HLASM R4.0  2002/06/06 10.06
+___    ______ ____    _____ _____  ____ __ ______    ______ _________
0                                  16681  1 02674000  ¿þþþþþþþþþþþþþþþþþþþþþþþþþþþþþþþþþþþþþþþþþþþþþþþþþþþþþþþþþþþþþþþþþþþþþÜ
                                   16682  1 02675000  Ÿ                                                                     Ÿ
                                   16683  1 02676000  Ÿ                                                                     Ÿ
                                   16684  1 02677000  Ÿ  DSEGSYM - seg symbolic form of address if there is one             Ÿ
                                   16685  1 02678000  Ÿ            gives MODULE+OFFSET, or nothing                          Ÿ
                                   16686  1 02679000  Ÿ                                                                     Ÿ
                                   16687  1 02680000  Ÿ  on entry: r1 - address                                             Ÿ
                                   16688  1 02681000  Ÿ                                                                     Ÿ
                                   16689  1 02682000  Ÿ                                                                     Ÿ
                                   16690  1 02683000  Ÿ                                                                     Ÿ
                                          1           ¾þþþþþþþþþþþþþþþþþþþþþþþþþþþþþþþþþþþþþþþþþþþþþþþþþþþþþþþþþþþþþþþþþþþþþ»
0003558 90DF B0D4            000D4 16691  1 02684000  DSEGSYM    PROC  DSEGWA
 00355C 58F0 C014/0DEF       00014 16702  1          +
 003562 C4E2C5C7E2E8D440           16704  1          +
 00356A 98DF B0D4            000D4 16705  1          +
 00356E 50E0 D000            00000 16708  1          +
 003572 900C D004/188D       00004 16711  1          +
 003578 41D0 D040/0D70       00040 16714  1          +
 USING  *,R7                       16746  1 02685000             CLEAR DSEGWA
 USING  DSEGWA-(4+52),R8
 00357E D707 8038 8038 00000 00000 16752  1          +
 003584 58E0 7262/0DEE       037E0 16753  1 02686000             ACALL EVALADDR
 00358A 4780 704E            035CC 16757  1 02687000             IF    NZ,BEGIN           IF SYMBOLIC FORM, PRINT IT
 00358E 90F0 8038            00000 16768  2 02688000               STM   R15,R0,DSEGNAME    SYMBOL
 003592 1821                       16769  2 02689000               LR    R2,R1              OFFSET
 003594 4110 8038            00000 16770  2 02690000               SEGT  DSEGNAME
 003598 4100 0008            00008 16785  2          +
 00359C 58F0 6008            00008 16791  2          +
 0035A0 58E0 7266/0DEE       037E4 16794  2          +
 0035A6 1222/4780 704E       035CC 16796  2 02691000               IF    (R2,NZ),BEGIN
 0035AC 4110 7272            037F0 16810  3 02692000                 SEG   '+0'
 0035B0 4100 0002            00002 16814  3          +
 0035B4 58F0 6008            00008 16820  3          +
 0035B8 58E0 726A/0DEE       037E8 16823  3          +
 0035BE 1812/1B00                  16825  3 02693000                 SEGHX (R2)
 0035C2 58F0 6008            00008 16839  3          +
 0035C6 58E0 726E/0DEE       037EC 16842  3          +
 0035CC                            16844  2 02694000               END
 0035CC                            16848  1 02695000             END
 0035CC 18D8/980C D004       00004 16852  1 02696000             PEND
 DROP   DSEGWA-(4+52),R8
 DROP   *,R7
 0035D2 58E0 D000/12FF       00000 16873  1          +
 0035D8 07FE                       16876  1          +
1DEBUG    Debug Subroutines                                                                                                 Page  104
0Current Usings:  (DBWA,R6) (TVT,R11) (GVT,R12) (*,R15)
0Loc    Object Code    Addr1 Addr2  Stmt Lv Lineno    Source Statement           (Hibal 5, Asmedit 3.3)  HLASM R4.0  2002/06/06 10.06
+___    ______ ____    _____ _____  ____ __ ______    ______ _________
0                                  16878  1 02698000  ¿þþþþþþþþþþþþþþþþþþþþþþþþþþþþþþþþþþþþþþþþþþþþþþþþþþþþþþþþþþþþþþþþþþþþþÜ
                                   16879  1 02699000  Ÿ                                                                     Ÿ
                                   16880  1 02700000  Ÿ ETOATBL -- Translate table for EBCDIC to ASCII conversion.          Ÿ
                                   16881  1 02701000  Ÿ       Modified 11/85 to be a 1-to-1 translation by Dick Guertin.    Ÿ
                                   16882  1 02702000  Ÿ                                                                     Ÿ
0                                  16884  1 02704000  Ÿ                 0 1 2 3 4 5 6 7 8 9 A B C D E F                     Ÿ
                                   16885  1 02705000  Ÿ                                                                     Ÿ
                                          1           ¾þþþþþþþþþþþþþþþþþþþþþþþþþþþþþþþþþþþþþþþþþþþþþþþþþþþþþþþþþþþþþþþþþþþþþ»
00035DA 000102038009817F           16886  1 02706000  ETOATBL    DC    X'000102038009817F8283840B0C0D0E0F'   0
 0035EA 1011121385860887           16887  1 02707000             DC    X'1011121385860887181988891C1D1E1F'   1
 0035FA 8A8B8C8D8E0A171B           16888  1 02708000             DC    X'8A8B8C8D8E0A171B8F90919293050607'   2
 00360A 9495169697989904           16889  1 02709000             DC    X'94951696979899049A9B9C9D14159E1A'   3
 00361A 20A9A1A2A3A4A5A6           16890  1 02710000             DC    X'20A9A1A2A3A4A5A6AAA85E2E3C282B7C'   4
 00362A 26D1D2D3D4D5D6D7           16891  1 02711000             DC    X'26D1D2D3D4D5D6D7D8D921242A293B7E'   5
 00363A 2D2FB1B2B3B4B5B6           16892  1 02712000             DC    X'2D2FB1B2B3B4B5B6B8EE9F2C255F3E3F'   6
 00364A EACEE8CFE2E7F0E6           16893  1 02713000             DC    X'EACEE8CFE2E7F0E6E9603A2340273D22'   7
 00365A D061626364656667           16894  1 02714000             DC    X'D0616263646566676869E0ACBCCCCACB'   8
 00366A DE6A6B6C6D6E6F70           16895  1 02715000             DC    X'DE6A6B6C6D6E6F707172DFADBDCDABA0'   9
 00367A E5E3737475767778           16896  1 02716000             DC    X'E5E3737475767778797AAFBEBF5BA7B7'   A
 00368A C0C1C2C3C4C5C6C7           16897  1 02717000             DC    X'C0C1C2C3C4C5C6C7C8C9BABBDC5DEDFE'   B
 00369A 7B41424344454647           16898  1 02718000             DC    X'7B414243444546474849DADBDDF9B0F1'   C
 0036AA 7D4A4B4C4D4E4F50           16899  1 02719000             DC    X'7D4A4B4C4D4E4F505152F8B9FAFBF2F3'   D
 0036BA 5CE1535455565758           16900  1 02720000             DC    X'5CE1535455565758595AF4F5E4AEF7EF'   E
 0036CA 3031323334353637           16901  1 02721000             DC    X'30313233343536373839EBECFCFDF6FF'   F
-                                  16903  1 02723000  ¿þþþþþþþþþþþþþþþþþþþþþþþþþþþþþþþþþþþþþþþþþþþþþþþþþþþþþþþþþþþþþþþþþþþþþÜ
                                   16904  1 02724000  Ÿ                                                                     Ÿ
                                   16905  1 02725000  Ÿ  ATOETBL -- Translate table for ASCII to EBCDIC conversion.         Ÿ
                                   16906  1 02726000  Ÿ       Modified 11/85 to be a 1-to-1 translation by Dick Guertin.    Ÿ
                                   16907  1 02727000  Ÿ                                                                     Ÿ
                                   16908  1 02728000  Ÿ                                                                     Ÿ
0                                  16910  1 02730000  Ÿ                 0 1 2 3 4 5 6 7 8 9 A B C D E F                     Ÿ
                                   16911  1 02731000  Ÿ                                                                     Ÿ
                                          1           ¾þþþþþþþþþþþþþþþþþþþþþþþþþþþþþþþþþþþþþþþþþþþþþþþþþþþþþþþþþþþþþþþþþþþþþ»
00036DA 00010203372D2E2F           16912  1 02732000  ATOETBL    DC    X'00010203372D2E2F1605250B0C0D0E0F'   0
 0036EA 101112133C3D3226           16913  1 02733000             DC    X'101112133C3D322618193F271C1D1E1F'   1
 0036FA 405A7F7B5B6C507D           16914  1 02734000             DC    X'405A7F7B5B6C507D4D5D5C4E6B604B61'   2
 00370A F0F1F2F3F4F5F6F7           16915  1 02735000             DC    X'F0F1F2F3F4F5F6F7F8F97A5E4C7E6E6F'   3
 00371A 7CC1C2C3C4C5C6C7           16916  1 02736000             DC    X'7CC1C2C3C4C5C6C7C8C9D1D2D3D4D5D6'   4
 00372A D7D8D9E2E3E4E5E6           16917  1 02737000             DC    X'D7D8D9E2E3E4E5E6E7E8E9ADE0BD4A6D'   5
 00373A 7981828384858687           16918  1 02738000             DC    X'79818283848586878889919293949596'   6
 00374A 979899A2A3A4A5A6           16919  1 02739000             DC    X'979899A2A3A4A5A6A7A8A9C04FD05F07'   7
 00375A 040608090A141517           16920  1 02740000             DC    X'040608090A1415171A1B202122232428'   8
 00376A 292A2B2C30313334           16921  1 02741000             DC    X'292A2B2C30313334353638393A3B3E6A'   9
 00377A 9F424344454647AE           16922  1 02742000             DC    X'9F424344454647AE4941489E8B9BEDAA'   A
 00378A CE626364656667AF           16923  1 02743000             DC    X'CE626364656667AF68DBBABB8C9CABAC'   B
 00379A B0B1B2B3B4B5B6B7           16924  1 02744000             DC    X'B0B1B2B3B4B5B6B7B8B98E8F8D9D7173'   C
 0037AA 8051525354555657           16925  1 02745000             DC    X'80515253545556575859CACBBCCC909A'   D
 0037BA 8AE174A1ECA07775           16926  1 02746000             DC    X'8AE174A1ECA07775727870FAFBBE69EF'   E
1DEBUG    Debug Subroutines                                                                                                 Page  105
0Current Usings:  (DBWA,R6) (TVT,R11) (GVT,R12) (*,R15)
0Loc    Object Code    Addr1 Addr2  Stmt Lv Lineno    Source Statement           (Hibal 5, Asmedit 3.3)  HLASM R4.0  2002/06/06 10.06
+___    ______ ____    _____ _____  ____ __ ______    ______ _________
00037CA 76CFDEDFEAEBFEEE           16927  1 02747000             DC    X'76CFDEDFEAEBFEEEDACDDCDDFCFDBFFF'   F
1DEBUG    Debug Subroutines                                                                                                 Page  106
0Current Usings:  (DBWA,R6) (TVT,R11) (GVT,R12) (*,R15)
0Loc    Object Code    Addr1 Addr2  Stmt Lv Lineno    Source Statement           (Hibal 5, Asmedit 3.3)  HLASM R4.0  2002/06/06 10.06
+___    ______ ____    _____ _____  ____ __ ______    ______ _________
0                                  16930  1 02750000             ¿þþþþþþþþþþþþþþþþþþþÜ
                                   16931  1 02751000             Ÿ  FUTURE ROUTINES  Ÿ
                                   16932  1 02752000             ¾þþþþþþþþþþþþþþþþþþþ»
1DEBUG    Debug Subroutines                                                                                                 Page  107
0Current Usings:  (DBWA,R6) (TVT,R11) (GVT,R12) (*,R15)
0Loc    Object Code    Addr1 Addr2  Stmt Lv Lineno    Source Statement           (Hibal 5, Asmedit 3.3)  HLASM R4.0  2002/06/06 10.06
+___    ______ ____    _____ _____  ____ __ ______    ______ _________
0                                  16934  1 02754000  *
                                   16935  1 02755000             SEGDEF DUMMY              (Neatness)
                                   16936  1 02756000
                                   16937  1 02757000             QLTORG
                                   16954  1 02758000  DEBUGX     EQU   *-DEBUG             Module length
                                   16955  1 02759000
 0037F2 000000000000                      1
 0037F8                            16956  1 02760000             DC    0D'0'               FORCE OUT TO DOUBLE WORD
                                   16957  1 02761000             ENTRY SYMDEBUG            DEFINE SYMBOL ENTRY FOR DUMPER
 0037F8 C4C5C2E4C7404040           16958  1 02762000  SYMDEBUG   DC    CL8'DEBUG',A(DEBUG),A(DEBUGX)
 003808 00000000                   16959  1 02763000             DC    A(0)                End of symbols
 003810                03810 03810 16960  1 02764000             END   .
                                          1
1DEBUG    Macro and Copy Code Source Summary                                                                                Page  108
- Con Source                                        Volume    Members                        HLASM R4.0  2002/06/06 10.06
0     PRIMARY INPUT                                           CSECT    DROP     END      EX       INSTR    LTORG    POP
                                                              PRINT    PUSH     SCANSTOP SCNR1FIX SCPOP    SCPUSH
                                                              SETIA    START    SYMADDR  SYMLEN   SYMNAME  SYMNEXT
                                                              USING
   L1 WYL.GA.MCL.WINGS.MACLIB                       STR211    DVWA     GVT      LCLDBWA  PROC     PTRACE   REG      SCAN
                                                              SCANCB   SCINIT   SCKW     SCTELL   SYMTAB   TPENTRY  TVT
                                                              XCALL    XPOP     XPROC    XPUSH
   L2 WYL.GG.SYS.MACLIB                             STR210    $BC      $BFLKUP  $BV      $CCLKUP  $CRS     $CSS     $L
                                                              $LA      $LBLAD   $LEXP    $LOR     $REL     $RGLKUP
                                                              $USLKUP  ACALL    BASE     BEGIN    CEIL     CLEAR    CMPR
                                                              CSECT    DATA     DECR     DEFCC    DEX      DROP     DTEX
                                                              ELSE     ELSEIF   END      EX       FLAG     FLOOR    GEN
                                                              HIBAL    IDENT    IF       INCR     LABEL    LS       LTH
                                                              LTORG    MOVE     PEND     POP      PRETURN  PRINT    PUSH
                                                              QLTORG   RECORD   REGS     SET      SETMSG   START
                                                              SYSLR    USING    VCALL    WHILE    WITH
   L3 SYS3.IS.MACLIB                                SYSA03    SEG      SEGCB    SEGCOL   SEGDC    SEGDEF   SEGHX
                                                              SEGLD    SEGT     SEGWR    SYSDEFN
   L4 SYS3.MACLIB                                   SYSA03    QSNAP
   L5 SYS1.MACLIB                                   OS02AD    ESPIE

1DEBUG    Using Map                                                                                                         Page  109
-                                                                                            HLASM R4.0  2002/06/06 10.06
   Stmt  -----Location----- Action ----------------Using----------------- Reg Max    Last  Label and Using Text
           Count      Id           Type          Value    Range     Id        Disp   Stmt
0   939  00000000  00000001 USING  ORDINARY    00000000 00001000 FFFFFFF0  15 000          @R15,15
    943  00000000  00000001 USING  ORDINARY    00000000 00001000 FFFFFFF1  14 000          @R14,14
    947  00000000  00000001 USING  ORDINARY    00000000 00001000 FFFFFFF2  13 004    5250  @R13,13
    951  00000000  00000001 USING  ORDINARY    00000000 00001000 FFFFFFF3  12 000          @R12,12
    955  00000000  00000001 USING  ORDINARY    00000000 00001000 FFFFFFF4  11 000          @R11,11
    959  00000000  00000001 USING  ORDINARY    00000000 00001000 FFFFFFF5  10 000          @R10,10
    963  00000000  00000001 USING  ORDINARY    00000000 00001000 FFFFFFF6   9 000          @R9,9
    967  00000000  00000001 USING  ORDINARY    00000000 00001000 FFFFFFF7   8 000          @R8,8
    971  00000000  00000001 USING  ORDINARY    00000000 00001000 FFFFFFF8   7 000          @R7,7
    975  00000000  00000001 USING  ORDINARY    00000000 00001000 FFFFFFF9   6 000          @R6,6
    979  00000000  00000001 USING  ORDINARY    00000000 00001000 FFFFFFFA   5 000          @R5,5
    983  00000000  00000001 USING  ORDINARY    00000000 00001000 FFFFFFFB   4 000          @R4,4
    987  00000000  00000001 USING  ORDINARY    00000000 00001000 FFFFFFFC   3 000    9530  @R3,3
    991  00000000  00000001 USING  ORDINARY    00000000 00001000 FFFFFFFD   2 004   16055  @R2,2
    995  00000000  00000001 USING  ORDINARY    00000000 00001000 FFFFFFFE   1 000   10093  @R1,1
    999  00000000  00000001 USING  ORDINARY    00000000 00001000 FFFFFFFF   0 000          @R0,0
   1000  00000000  00000001 DROP                                            0              0
   2004  00000000  00000001 USING  ORDINARY    00000000 00001000 FFFFFFEA  12 000          GVT,GVTR
   2013  00000000  00000001 USING  ORDINARY    00000000 00001000 FFFFFFE9  11 000          TVT,TVTR
   2287  0000003E  00000001 USING  ORDINARY    0000003E 00001000 00000001   7 39D    2597  $$$12B,7
   2301  0000003E  00000001 USING  ORDINARY    FFFFFFC8 00001000 FFFFFFE5   8 038    2305  DBWA-(4+52),R8
   2313  00000042  00000001 USING  ORDINARY    00000000 00001000 FFFFFFE5   6 034    2811  DBWA,R6
   2608  00000128  00000001 USING  ORDINARY    00000000 00001000 FFFFFFF7   8 000          @R8,8
   2613  00000128  00000001 USING  ORDINARY    00000000 00001000 FFFFFFF8   7 000          @R7,7
   2673  0000016A  00000001 USING  ORDINARY    0000016A 00001000 00000001   7 000          $$$21B,7
   2694  0000016E  00000001 USING  ORDINARY    00000000 00001000 FFFFFFF8   7 000          @R7,7
   2744  000001A2  00000001 USING  ORDINARY    000001A2 00001000 00000001   7 214    2809  $$$24B,7
   2818  000001E4  00000001 USING  ORDINARY    00000000 00001000 FFFFFFF8   7 000          @R7,7
   2837  000001F2  00000001 USING  ORDINARY    00000000 00001000 FFFFFFF9   6 000          @R6,6
   2891  00000218  00000001 USING  ORDINARY    00000218 00001000 00000001   7 1FF    3241  $$$27B,7
   2905  00000218  00000001 USING  ORDINARY    FFFFFFC8 00001000 FFFFFFE5   8 038    2909  DBWA-(4+52),R8
   2917  0000021C  00000001 USING  ORDINARY    00000000 00001000 FFFFFFE5   6 020    3220  DBWA,R6
   3252  0000032C  00000001 USING  ORDINARY    00000000 00001000 FFFFFFF7   8 000          @R8,8
   3257  0000032C  00000001 USING  ORDINARY    00000000 00001000 FFFFFFF8   7 000          @R7,7
   3276  0000033A  00000001 USING  ORDINARY    00000000 00001000 FFFFFFF9   6 000          @R6,6
   3362  0000045C  00000001 USING  ORDINARY    0000045C 00001000 00000001   7 671    3585  $$$39B,7
   3376  0000045C  00000001 USING  ORDINARY    FFFFFFC8 00001000 FFFFFFE5   8 038    3380  DBWA-(4+52),R8
   3388  00000460  00000001 USING  ORDINARY    00000000 00001000 FFFFFFE5   6 020    3562  DBWA,R6
   3596  00000514  00000001 USING  ORDINARY    00000000 00001000 FFFFFFF7   8 000          @R8,8
   3601  00000514  00000001 USING  ORDINARY    00000000 00001000 FFFFFFF8   7 000          @R7,7
   3621  00000522  00000001 USING  ORDINARY    00000000 00001000 FFFFFFF9   6 000          @R6,6
   3676  00000548  00000001 USING  ORDINARY    00000548 00001000 00000001   7 5A0    3895  $$$46B,7
   3690  00000548  00000001 USING  ORDINARY    FFFFFFC8 00001000 FFFFFFE5   8 038    3695  DBWA-(4+52),R8
   3703  0000054C  00000001 USING  ORDINARY    00000000 00001000 FFFFFFE5   6 020    3892  DBWA,R6
   3905  000005FA  00000001 USING  ORDINARY    00000000 00001000 FFFFFFF7   8 000          @R8,8
   3910  000005FA  00000001 USING  ORDINARY    00000000 00001000 FFFFFFF8   7 000          @R7,7
   3929  00000608  00000001 USING  ORDINARY    00000000 00001000 FFFFFFF9   6 000          @R6,6
   3984  0000062E  00000001 USING  ORDINARY    0000062E 00001000 00000001   7 4BA    4139  $$$51B,7
   3998  0000062E  00000001 USING  ORDINARY    FFFFFFC8 00001000 FFFFFFE5   8 038    4003  DBWA-(4+52),R8
   4011  00000632  00000001 USING  ORDINARY    00000000 00001000 FFFFFFE5   6 034    5250  DBWA,R6
   4148  000006A6  00000001 USING  ORDINARY    00000000 00001000 FFFFFFF7   8 000          @R8,8
   4153  000006A6  00000001 USING  ORDINARY    00000000 00001000 FFFFFFF8   7 000          @R7,7
   4251  000006DA  00000001 USING  ORDINARY    000006DA 00001000 00000001   7 428    4976  $$$56B,7
1DEBUG    Using Map                                                                                                         Page  110
   4265  000006DA  00000001 USING  ORDINARY    FFFFFFC8 00001000 FFFFFFE4   8 038    4270  PCWA-(4+52),R8
   4278  000006DE  00000001 USING  ORDINARY    00000000 00001000 FFFFFFE4   5 206    5244  PCWA,R5
   4987  000008F2  00000001 USING  ORDINARY    00000000 00001000 FFFFFFF7   8 000          @R8,8
   4992  000008F2  00000001 USING  ORDINARY    00000000 00001000 FFFFFFF8   7 000          @R7,7
   5049  0000093E  00000001 USING  ORDINARY    0000093E 00001000 00000001   7 000          $$$81B,7
   5070  00000942  00000001 USING  ORDINARY    00000000 00001000 FFFFFFF8   7 000          @R7,7
   5120  00000976  00000001 USING  ORDINARY    00000976 00001000 00000001   7 106    5248  $$$84B,7
   5257  000009E8  00000001 USING  ORDINARY    00000000 00001000 FFFFFFF8   7 000          @R7,7
   5277  000009F6  00000001 USING  ORDINARY    00000000 00001000 FFFFFFFA   5 000          @R5,5
   5284  000009F6  00000001 USING  ORDINARY    00000000 00001000 FFFFFFF9   6 000          @R6,6
   5384  00000B2E  00000001 USING  ORDINARY    00000B2E 00001000 00000001   7 9C4    5656  $$$90B,7
   5398  00000B2E  00000001 USING  ORDINARY    FFFFFFC8 00001000 FFFFFFE5   8 038    5403  DBWA-(4+52),R8
   5411  00000B32  00000001 USING  ORDINARY    00000000 00001000 FFFFFFE5   6 020    5651  DBWA,R6
   5672  00000C16  00000001 USING  ORDINARY    00000000 00001000 FFFFFFF7   8 000          @R8,8
   5677  00000C16  00000001 USING  ORDINARY    00000000 00001000 FFFFFFF8   7 000          @R7,7
   5696  00000C24  00000001 USING  ORDINARY    00000000 00001000 FFFFFFF9   6 000          @R6,6
   5755  00000C4A  00000001 USING  ORDINARY    00000C4A 00001000 00000001   7 80E    6011  $$$98B,7
   5769  00000C4A  00000001 USING  ORDINARY    FFFFFFC8 00001000 FFFFFFE5   8 038    5774  DBWA-(4+52),R8
   5782  00000C4E  00000001 USING  ORDINARY    00000000 00001000 FFFFFFE5   6 020    5979  DBWA,R6
   5989  00000D10  00000001 USING  ORDINARY    00000000 00001000 FFFFFFEC   5 01C    6019  DVWA,R5
   6004  00000D14  00000001 USING  ORDINARY    00000000 00001000 FFFFFFE7   4 04C    6013  EPIE,R4
   6026  00000D2A  00000001 USING  ORDINARY    00000000 00001000 FFFFFFFB   4 000          @R4,4
   6034  00000D2A  00000001 USING  ORDINARY    00000000 00001000 FFFFFFFA   5 000   11794  @R5,5
   6049  00000D2C  00000001 USING  ORDINARY    00000000 00001000 FFFFFFF7   8 000          @R8,8
   6054  00000D2C  00000001 USING  ORDINARY    00000000 00001000 FFFFFFF8   7 000          @R7,7
   6073  00000D3A  00000001 USING  ORDINARY    00000000 00001000 FFFFFFF9   6 000          @R6,6
   6129  00000D60  00000001 USING  ORDINARY    00000D60 00001000 00000001   7 8A3    6933  $$$105B,7
   6143  00000D60  00000001 USING  ORDINARY    FFFFFFC8 00001000 FFFFFFE5   8 038    6148  DBWA-(4+52),R8
   6156  00000D64  00000001 USING  ORDINARY    00000000 00001000 FFFFFFE5   6 020    6930  DBWA,R6
   6294  00000DE0  00000001 USING  ORDINARY    00000000 00001000 FFFFFFEC   4 024    6300  DVWA,R4
   6307  00000DE4  00000001 USING  ORDINARY    00000000 00001000 FFFFFFFB   4 000          @R4,4
   6318  00000DE4  00000001 USING  ORDINARY    00000000 00001000 FFFFFFED   4 008    6427  TPENTRY,R4
   6460  00000E4C  00000001 USING  ORDINARY    00000000 00001000 FFFFFFFB   4 000          @R4,4
   6614  00000ECC  00000001 USING  ORDINARY    00000000 00001000 FFFFFFEC   4 024    6620  DVWA,R4
   6627  00000ED0  00000001 USING  ORDINARY    00000000 00001000 FFFFFFFB   4 000          @R4,4
   6638  00000ED0  00000001 USING  ORDINARY    00000000 00001000 FFFFFFED   4 008    6789  TPENTRY,R4
   6942  00000FD6  00000001 USING  ORDINARY    00000000 00001000 FFFFFFFB   4 000          @R4,4
   6953  00000FD6  00000001 USING  ORDINARY    00000000 00001000 FFFFFFF7   8 000          @R8,8
   6958  00000FD6  00000001 USING  ORDINARY    00000000 00001000 FFFFFFF8   7 000          @R7,7
   6977  00000FE4  00000001 USING  ORDINARY    00000000 00001000 FFFFFFF9   6 000          @R6,6
   7033  0000100A  00000001 USING  ORDINARY    0000100A 00001000 00000001   7 5FD    7299  $$$126B,7
   7047  0000100A  00000001 USING  ORDINARY    FFFFFFC8 00001000 FFFFFFE5   8 038    7052  DBWA-(4+52),R8
   7060  0000100E  00000001 USING  ORDINARY    00000000 00001000 FFFFFFE5   6 020    7285  DBWA,R6
   7116  00001048  00000001 USING  ORDINARY    00000000 00001000 FFFFFFEC   4 024    7122  DVWA,R4
   7129  0000104C  00000001 USING  ORDINARY    00000000 00001000 FFFFFFFB   4 000          @R4,4
   7140  0000104C  00000001 USING  ORDINARY    00000000 00001000 FFFFFFED   4 008    7294  TPENTRY,R4
   7307  000010E4  00000001 USING  ORDINARY    00000000 00001000 FFFFFFFB   4 000          @R4,4
   7318  000010E4  00000001 USING  ORDINARY    00000000 00001000 FFFFFFF7   8 000          @R8,8
   7323  000010E4  00000001 USING  ORDINARY    00000000 00001000 FFFFFFF8   7 000          @R7,7
   7343  000010F2  00000001 USING  ORDINARY    00000000 00001000 FFFFFFF9   6 000          @R6,6
   7399  00001118  00000001 USING  ORDINARY    00001118 00001000 00000001   7 50A    7917  $$$132B,7
   7413  00001118  00000001 USING  ORDINARY    FFFFFFC8 00001000 FFFFFFE5   8 038    7418  DBWA-(4+52),R8
   7426  0000111C  00000001 USING  ORDINARY    00000000 00001000 FFFFFFE5   6 020    7914  DBWA,R6
   7597  000011A8  00000001 USING  ORDINARY    00000000 00001000 FFFFFFEC   4 024    7603  DVWA,R4
   7610  000011AC  00000001 USING  ORDINARY    00000000 00001000 FFFFFFFB   4 000          @R4,4
   7621  000011AC  00000001 USING  ORDINARY    00000000 00001000 FFFFFFED   4 006    7709  TPENTRY,R4
   7733  00001216  00000001 USING  ORDINARY    00000000 00001000 FFFFFFFB   4 000          @R4,4
   7751  0000121A  00000001 USING  ORDINARY    00000000 00001000 FFFFFFEC   4 024    7757  DVWA,R4
   7764  0000121E  00000001 USING  ORDINARY    00000000 00001000 FFFFFFFB   4 000          @R4,4
1DEBUG    Using Map                                                                                                         Page  111
   7775  0000121E  00000001 USING  ORDINARY    00000000 00001000 FFFFFFED   4 008    7902  TPENTRY,R4
   7925  0000129E  00000001 USING  ORDINARY    00000000 00001000 FFFFFFFB   4 000          @R4,4
   7936  0000129E  00000001 USING  ORDINARY    00000000 00001000 FFFFFFF7   8 000          @R8,8
   7941  0000129E  00000001 USING  ORDINARY    00000000 00001000 FFFFFFF8   7 000          @R7,7
   7960  000012AC  00000001 USING  ORDINARY    00000000 00001000 FFFFFFF9   6 000          @R6,6
   8016  000012D2  00000001 USING  ORDINARY    000012D2 00001000 00000001   7 1DE    8176  $$$146B,7
   8030  000012D2  00000001 USING  ORDINARY    FFFFFFC8 00001000 FFFFFFE5   8 038    8035  DBWA-(4+52),R8
   8043  000012D6  00000001 USING  ORDINARY    00000000 00001000 FFFFFFE5   6 020    8173  DBWA,R6
   8099  00001310  00000001 USING  ORDINARY    00000000 00001000 FFFFFFEC   4 024    8105  DVWA,R4
   8112  00001314  00000001 USING  ORDINARY    00000000 00001000 FFFFFFFB   4 000          @R4,4
   8123  00001314  00000001 USING  ORDINARY    00000000 00001000 FFFFFFED   4 008    8155  TPENTRY,R4
   8184  0000134E  00000001 USING  ORDINARY    00000000 00001000 FFFFFFFB   4 000          @R4,4
   8195  0000134E  00000001 USING  ORDINARY    00000000 00001000 FFFFFFF7   8 000          @R8,8
   8200  0000134E  00000001 USING  ORDINARY    00000000 00001000 FFFFFFF8   7 000          @R7,7
   8219  0000135C  00000001 USING  ORDINARY    00000000 00001000 FFFFFFF9   6 000          @R6,6
   8272  00001382  00000001 USING  ORDINARY    00001382 00001000 00000001   7 112    8314  $$$151B,7
   8286  00001382  00000001 USING  ORDINARY    FFFFFFC8 00001000 FFFFFFE5   8 038    8291  DBWA-(4+52),R8
   8299  00001386  00000001 USING  ORDINARY    00000000 00001000 FFFFFFE5   6 00C    8310  DBWA,R6
   8323  0000139A  00000001 USING  ORDINARY    00000000 00001000 FFFFFFF7   8 000          @R8,8
   8328  0000139A  00000001 USING  ORDINARY    00000000 00001000 FFFFFFF8   7 000          @R7,7
   8347  000013A8  00000001 USING  ORDINARY    00000000 00001000 FFFFFFF9   6 000          @R6,6
   8415  00001631  00000001 USING  ORDINARY    00000000 00001000 FFFFFFE5   6 020   16839  DBWA,R6
   8498  00001658  00000001 USING  ORDINARY    00001658 00001000 00000001   7 390    9288  $$$154B,7
   8512  00001658  00000001 USING  ORDINARY    FFFFFFC8 00001000 FFFFFFE3   8 03C    9274  EVWA-(4+52),R8
   9300  00001862  00000001 USING  ORDINARY    00000000 00001000 FFFFFFF7   8 000          @R8,8
   9305  00001862  00000001 USING  ORDINARY    00000000 00001000 FFFFFFF8   7 000          @R7,7
   9395  00001896  00000001 USING  ORDINARY    00001896 00001000 00000001   7 15A    9550  $$$189B,7
   9409  00001896  00000001 USING  ORDINARY    FFFFFFC8 00001000 FFFFFFE2   8 038    9530  EVWA2-(4+52),R8
   9568  00001902  00000001 USING  ORDINARY    00000000 00001000 FFFFFFF7   8 000          @R8,8
   9573  00001902  00000001 USING  ORDINARY    00000000 00001000 FFFFFFF8   7 000          @R7,7
   9637  00001936  00000001 USING  ORDINARY    00001936 00001000 00000001   7 082    9759  $$$200B,7
   9651  00001936  00000001 USING  ORDINARY    FFFFFFC8 00001000 FFFFFFE2   8 044    9767  EVWA2-(4+52),R8
   9776  000019A2  00000001 USING  ORDINARY    00000000 00001000 FFFFFFF7   8 000          @R8,8
   9781  000019A2  00000001 USING  ORDINARY    00000000 00001000 FFFFFFF8   7 000          @R7,7
   9910  00001A1C  00000001 USING  ORDINARY    00001A1C 00001000 00000001   7 596   10274  $$$208B,7
   9924  00001A1C  00000001 USING  ORDINARY    FFFFFFC8 00001000 FFFFFFE1   8 09E   10270  DCWA-(4+52),R8
  10287  00001BBE  00000001 USING  ORDINARY    00000000 00001000 FFFFFFF7   8 000          @R8,8
  10292  00001BBE  00000001 USING  ORDINARY    00000000 00001000 FFFFFFF8   7 000          @R7,7
  10384  00001D42  00000001 USING  ORDINARY    00001D42 00001000 00000001   7 245   10514  $$$223B,7
  10525  00001DB2  00000001 USING  ORDINARY    00000000 00001000 FFFFFFF8   7 000          @R7,7
  10583  00001DE6  00000001 USING  ORDINARY    00001DE6 00001000 00000001   7 1C3   10894  $$$232B,7
  10902  00001F0E  00000001 USING  ORDINARY    00000000 00001000 FFFFFFF8   7 000          @R7,7
  11020  00001FDE  00000001 USING  ORDINARY    00001FDE 00001000 00000001   7 B0A   11182  $$$237B,7
  11034  00001FDE  00000001 USING  ORDINARY    FFFFFFC8 00001000 FFFFFFE0   8 044   11174  DMWA-(4+52),R8
  11193  00002070  00000001 USING  ORDINARY    00000000 00001000 FFFFFFF7   8 000          @R8,8
  11198  00002070  00000001 USING  ORDINARY    00000000 00001000 FFFFFFF8   7 000          @R7,7
  11264  000020A4  00000001 USING  ORDINARY    000020A4 00001000 00000001   7 B6B   11673  $$$246B,7
  11689  000021FA  00000001 USING  ORDINARY    00000000 00001000 FFFFFFF8   7 000          @R7,7
  11751  0000222E  00000001 USING  ORDINARY    0000222E 00001000 00000001   7 9F0   14346  $$$256B,7
  12014  000022F8  00000001 USING  ORDINARY    00000000 00001000 FFFFFFE6   3 008   14278  IRECORD,R3
  14321  00002AA4  00000001 USING  ORDINARY    00000000 00001000 FFFFFFFC   3 000          @R3,3
  14358  00002AB8  00000001 USING  ORDINARY    00000000 00001000 FFFFFFF8   7 000          @R7,7
  14723  00002F46  00000001 USING  ORDINARY    00002F46 00001000 00000001   7 562   14839  $$$308B,7
  14860  00002F8E  00000001 USING  ORDINARY    00000000 00001000 FFFFFFF8   7 000          @R7,7
  14950  00002FC6  00000001 USING  ORDINARY    00002FC6 00001000 00000001   7 4EE   15078  $$$315B,7
  14964  00002FC6  00000001 USING  ORDINARY    FFFFFFC8 00001000 FFFFFFDF   8 040   15071  CHKRWA-(4+52),R8
  15086  0000304E  00000001 USING  ORDINARY    00000000 00001000 FFFFFFF7   8 000          @R8,8
  15091  0000304E  00000001 USING  ORDINARY    00000000 00001000 FFFFFFF8   7 000          @R7,7
  15176  00003082  00000001 USING  ORDINARY    00003082 00001000 00000001   7 438   15304  $$$322B,7
1DEBUG    Using Map                                                                                                         Page  112
  15190  00003082  00000001 USING  ORDINARY    FFFFFFC8 00001000 FFFFFFDE   8 040   15297  CHKSWA-(4+52),R8
  15312  0000310A  00000001 USING  ORDINARY    00000000 00001000 FFFFFFF7   8 000          @R8,8
  15317  0000310A  00000001 USING  ORDINARY    00000000 00001000 FFFFFFF8   7 000          @R7,7
  15354  00003118  00000001 USING  ORDINARY    00003118 00001000 00000001  15 37C   15379  $$$328B,R15
  15368  00003118  00000001 USING  ORDINARY    00000000 00001000 FFFFFFE7   1 04C   15374  EPIE,R1
  15392  00003136  00000001 USING  ORDINARY    00000000 00001000 FFFFFFFE   1 000   16271  @R1,1
  15465  0000315C  00000001 USING  ORDINARY    0000315C 00001000 00000001   7 33C   15556  $$$330B,7
  15479  0000315C  00000001 USING  ORDINARY    FFFFFFC8 00001000 FFFFFFDD   8 038   15489  CHKIWA-(4+52),R8
  15567  0000319A  00000001 USING  ORDINARY    00000000 00001000 FFFFFFF7   8 000          @R8,8
  15572  0000319A  00000001 USING  ORDINARY    00000000 00001000 FFFFFFF8   7 000          @R7,7
  15693  000032CE  00000001 USING  ORDINARY    000032CE 00001000 00000001   7 1D2   16159  $$$336B,7
  15707  000032CE  00000001 USING  ORDINARY    FFFFFFC8 00001000 FFFFFFDC   8 038   15717  CKINWA-(4+52),R8
  16169  000033DA  00000001 USING  ORDINARY    00000000 00001000 FFFFFFF7   8 000          @R8,8
  16174  000033DA  00000001 USING  ORDINARY    00000000 00001000 FFFFFFF8   7 000          @R7,7
  16239  0000340E  00000001 USING  ORDINARY    0000340E 00001000 00000001   7 096   16352  $$$363B,7
  16257  00003410  00000001 USING  ORDINARY    00000000 00001000 FFFFFFEC   5 024   16259  DVWA,R5
  16267  00003414  00000001 USING  ORDINARY    00000000 00001000 FFFFFFED   4 008   16329  TPENTRY,R4
  16370  00003454  00000001 USING  ORDINARY    00000000 00001000 FFFFFFF8   7 000          @R7,7
  16389  00003462  00000001 USING  ORDINARY    00000000 00001000 FFFFFFFA   5 000          @R5,5
  16396  00003462  00000001 USING  ORDINARY    00000000 00001000 FFFFFFFB   4 000          @R4,4
  16491  000034E6  00000001 USING  ORDINARY    000034E6 00001000 00000001   7 30A   16649  $$$371B,7
  16505  000034E6  00000001 USING  ORDINARY    FFFFFFC8 00001000 FFFFFFDB   8 038   16546  DSEGWA-(4+52),R8
  16661  0000354A  00000001 USING  ORDINARY    00000000 00001000 FFFFFFF7   8 000          @R8,8
  16666  0000354A  00000001 USING  ORDINARY    00000000 00001000 FFFFFFF8   7 000          @R7,7
  16728  0000357E  00000001 USING  ORDINARY    0000357E 00001000 00000001   7 272   16842  $$$377B,7
  16742  0000357E  00000001 USING  ORDINARY    FFFFFFC8 00001000 FFFFFFDB   8 038   16780  DSEGWA-(4+52),R8
  16858  000035CC  00000001 USING  ORDINARY    00000000 00001000 FFFFFFF7   8 000          @R8,8
  16863  000035CC  00000001 USING  ORDINARY    00000000 00001000 FFFFFFF8   7 000          @R7,7

1         General Purpose Register Cross Reference                                                                          Page  113
- Register  References (M=modified, B=branch, U=USING, D=DROP, N=index)                      HLASM R4.0  2002/06/06 10.06
0    0(0)      999U  1000D  2270   2324   2376M  2414M  2482M  2557M  2593M  2621M  2657   2702M  2728   2783M  2826M
              2874   2928   2975M  3013M  3046M  3097M  3163M  3214M  3231M  3265M  3345   3399   3451M  3489M  3556M
              3581M  3609M  3659   3714   3760M  3792M  3792   3807M  3840M  3840   3859M  3886M  3886   3918M  3967
              4022   4059M  4074M  4101M  4123M  4123   4161M  4234   4302   4355M  4393M  4434M  4434   4445M  4519M
              4541   4553M  4558   4617M  4653M  4674M  4695M  4773M  4788M  4877M  4967M  5000M  5033   5078M  5104
              5191M  5227   5239M  5244   5265M  5367   5422   5477M  5515M  5561M  5599M  5645M  5685M  5738   5793
              5848M  5887M  5924M  5961M  6062M  6112   6167   6221M  6259M  6387M  6438M  6484M  6520M  6553M  6586M
              6707M  6741M  6760M  6760   6775M  6796M  6827M  6848M  6883M  6904M  6924M  6966M  7016   7071   7183M
              7205M  7220M  7240M  7263M  7279M  7331M  7382   7437   7491M  7529M  7650M  7686M  7715M  7843M  7879M
              7908M  7949M  7999   8054   8167M  8208M  8255   8336M  8481   8548M  8548   8584M  8584   8595M  8678M
              8678   8786M  8841M  8841   8972   9058   9079M  9079   9164   9185M  9185   9313M  9378   9434   9448
              9457   9581M  9620   9766M  9769   9789M  9893   9942   9954   9961M  9966M  9967  10004M 10025M 10043M
             10050M 10057M 10064M 10071M 10123M 10218M 10252M 10300M 10368  10415M 10432  10533M 10567  10614M 10633M
             10652M 10652  10667M 10693M 10708M 10731M 10764M 10783M 10802M 10802  10817M 10843M 10858M 10885M 10885
             10910M 11003  11056M 11056  11063M 11070  11072  11095M 11116M 11206M 11248  11278M 11301  11343M 11366M
             11387M 11425M 11444M 11482M 11524M 11546M 11561M 11579M 11594M 11625M 11642M 11664M 11664  11697M 11735
             11811M 11834M 11855M 11887M 11908M 11944M 11965M 11988M 12087M 12135M 12150M 12171M 12171  12186M 12207M
             12207  12255M 12270M 12291M 12291  12306M 12326M 12326  12354M 12389M 12389  12417M 12460M 12460  12479M
             12531M 12546M 12567M 12567  12582M 12603M 12603  12618M 12638M 12638  12653M 12674M 12674  12689M 12737M
             12757M 12757  12772M 12793M 12793  12808M 12832M 12847M 12895M 12915M 12915  12930M 12952M 12952  12967M
             12988M 12988  13003M 13023M 13023  13038M 13059M 13059  13074M 13131M 13167M 13203M 13239M 13275M 13311M
             13347M 13383M 13419M 13438M 13459M 13459  13516M 13552M 13588M 13624M 13660M 13696M 13732M 13768M 13804M
             13840M 13876M 13912M 13948M 13984M 14020M 14056M 14080M 14080  14108M 14143M 14143  14171M 14214M 14214
             14233M 14285M 14300M 14337M 14337  14366M 14707  14789M 14868M 14933  14977  14990M 15062M 15074M 15099M
             15159  15203  15216M 15287M 15300M 15325M 15379M 15448  15491M 15580M 15676  15931M 15931  15982M 16002M
             16002  16011M 16011  16062M 16082M 16082  16182M 16223  16249  16336M 16338  16378M 16474  16520  16551M
             16580M 16599M 16599  16640M 16674M 16711  16768  16785M 16814M 16833M 16833  16871M
     1(1)      995U  2270   2323   2375M  2413M  2430   2431   2455M  2481M  2498   2508M  2556M  2592M  2621M  2657
              2702M  2728   2782M  2826M  2874   2927   2974M  3014M  3045M  3072M  3072   3086   3096M  3113   3136M
              3162M  3189M  3189   3203   3213M  3265M  3345   3398   3450M  3488M  3505   3529M  3555M  3572   3580M
              3609M  3659   3713   3759M  3776   3788M  3806M  3836M  3858M  3870M  3918M  3967   4021   4052M  4073M
              4086M  4161M  4234   4301   4332   4354M  4392M  4414M  4414   4444M  4518M  4568M  4616M  4652M  4673M
              4694M  4762M  4787M  4876M  4966M  5000M  5033   5078M  5104   5190M  5265M  5367   5421   5476M  5514M
              5531   5560M  5598M  5644M  5662   5685M  5738   5792   5847M  5886M  5923M  5960M  6010M  6012M  6013
              6062M  6112   6166   6220M  6258M  6339   6386M  6437M  6483M  6519M  6536   6552M  6569   6585M  6659
              6706M  6723   6735   6740M  6756M  6774M  6789M  6826M  6841M  6882M  6897M  6923M  6935M  6966M  7016
              7070   7182M  7198M  7219M  7231M  7239M  7256M  7278M  7331M  7382   7436   7490M  7528M  7567   7581
              7626M  7627M  7628   7649M  7685M  7702M  7714M  7796   7842M  7878M  7895M  7907M  7949M  7999   8053
              8147M  8166M  8208M  8255   8336M  8481   8528M  8528   8658M  8658   8785M  8785N  8887M  8888M  8888N
              8890   8908M  8908N  8930M  8930   8935M  8936   8997M  9015M  9015   9020M  9021   9088M  9106M  9106
              9111M  9112   9194M  9212M  9212   9217M  9218   9254M  9254   9259M  9260   9274M  9280M  9280   9286M
              9286   9293   9313M  9378   9469   9537M  9538M  9538N  9555M  9555   9561   9581M  9620   9662   9663M
              9663N  9719   9731   9740M  9741   9767M  9769   9789M  9893   9938M  9938N  9940   9966   9972M  9973M
              9974  10003M 10024M 10042M 10049M 10056M 10063M 10070M 10092M 10122M 10217M 10245M 10300M 10368  10414M
             10433  10472M 10505M 10533M 10567  10592  10613M 10632M 10648M 10666M 10686M 10707M 10719M 10763M 10782M
             10798M 10816M 10836M 10857M 10869M 10910M 11003  11045M 11045N 11046M 11047M 11068  11069  11070M 11071
             11094M 11115M 11132M 11148M 11153  11169M 11174  11206M 11248  11273  11278N 11279M 11301  11307M 11307N
             11317M 11318  11342M 11354M 11380M 11418M 11443M 11475M 11517M 11560M 11593M 11606M 11608  11610  11620M
             11620N 11641M 11679M 11680M 11682  11697M 11735  11760N 11810M 11822M 11848M 11886M 11901M 11943M 11958M
             12086M 12128M 12149M 12161M 12162M 12163M 12185M 12197M 12198M 12199M 12248M 12269M 12281M 12282M 12283M
             12305M 12317M 12318M 12337M 12338M 12353M 12365M 12366M 12367M 12376M 12376  12400M 12401M 12416M 12436M
             12437M 12438M 12447M 12447  12478M 12524M 12545M 12557M 12558M 12559M 12581M 12593M 12594M 12595M 12617M
             12629M 12630M 12652M 12664M 12665M 12666M 12688M 12730M 12748M 12749M 12771M 12783M 12784M 12785M 12807M
             12819M 12820M 12821M 12846M 12888M 12906M 12907M 12929M 12941M 12942M 12943M 12944M 12944N 12966M 12978M
             12979M 12980M 13002M 13014M 13015M 13037M 13049M 13050M 13051M 13073M 13106M 13107M 13108M 13109  13130M
1         General Purpose Register Cross Reference                                                                          Page  114
             13166M 13202M 13238M 13274M 13310M 13346M 13382M 13418M 13437M 13449M 13450M 13451M 13491M 13492M 13493M
             13494  13515M 13551M 13587M 13623M 13659M 13695M 13731M 13767M 13803M 13839M 13875M 13911M 13947M 13983M
             14019M 14055M 14071M 14072M 14091M 14092M 14107M 14119M 14120M 14121M 14130M 14130  14154M 14155M 14170M
             14190M 14191M 14192M 14201M 14201  14232M 14278M 14299M 14348M 14349M 14351  14366M 14707  14740M 14788M
             14868M 14933  14976  14983M 14993  14995M 15043  15043  15071M 15099M 15159  15202  15209M 15219  15221M
             15269  15269  15297M 15325M 15368U 15392U 15448  15510  15530N 15580M 15676  15739N 15932  16012  16137M
             16137  16182M 16223  16271M 16288  16329  16335M 16338  16378M 16474  16521  16546M 16579M 16595M 16633M
             16674M 16711  16769  16780M 16813M 16829M 16871M
     2(2)      991U  2270   2326   2430M  2592   2594   2621M  2657   2702M  2728   2826M  2874   2930   3113M  3136
              3231   3265M  3345   3401   3505M  3580   3609M  3659   3716   3776M  3788   3826M  3826   3836   3870
              3918M  3967   4024   4029M  4040M  4040   4047N  4086N  4135M  4135N  4161M  4234   4304   4332M  4652
              4706   5000M  5033   5078M  5104   5265M  5367   5424   5531M  5661M  5662   5685M  5738   5795   6062M
              6112   6169   6735M  6935   6966M  7016   7073   7251M  7256   7331M  7382   7439   7949M  7999   8056
              8208M  8255   8310   8336M  8481   8889M  8890M  8902   9313M  9378   9457M  9460M  9462   9500M  9511M
              9511   9518N  9537N  9546M  9546N  9581M  9620   9686M  9697M  9697   9704N  9706N  9738N  9748M  9748N
              9789M  9893   9968M  9969M  9970M  9971M  9973   9976  10002M 10003  10048N 10055N 10062N 10069N 10076
             10265M 10266M 10266N 10267  10268M 10269M 10269N 10270  10300M 10368  10533M 10567  10680M 10681M 10681N
             10686  10719  10830M 10831M 10831N 10836  10869  10910M 11003  11206M 11248  11609M 11610  11697M 11735
             12002M 12002  12003M 12034  13109M 13121  13157  13193  13229  13265  13301  13337  13373  13409  13494M
             13506  13542  13578  13614  13650  13686  13722  13758  13794  13830  13866  13902  13938  13974  14010
             14046  14366M 14707  14868M 14933  14996M 14999  15011M 15018  15030M 15036  15099M 15159  15222M 15225
             15237M 15244  15256M 15262  15325M 15448  15510M 15511M 15520M 15520  15529M 15529  15530M 15531M 15531N
             15540M 15540  15580M 15676  15738M 15738  15739M 15740M 15740  15749M 15749  15932M 15987M 15987N 16012M
             16067M 16067N 16092M 16110M 16132M 16137N 16182M 16223  16378M 16474  16521M 16570M 16570  16595  16633
             16674M 16711  16769M 16804M 16804  16829  16871M
     3(3)      987U  2270   2327   2498M  2593   2621M  2657   2702M  2728   2826M  2874   2931   3265M  3345   3402
              3572M  3581   3609M  3659   3717   3918M  3967   4025   4047M  4052   4161M  4234   4305   4706M  4799M
              4799N  5000M  5033   5078M  5104   5265M  5367   5425   5625M  5634M  5634   5662N  5685M  5738   5796
              6062M  6112   6170   6323M  6359M  6359N  6376   6643M  6679M  6679N  6696   6756   6966M  7016   7074
              7145M  7198   7295M  7295N  7331M  7382   7440   7780M  7816M  7816N  7949M  7999   8057   8128M  8156M
              8156N  8208M  8255   8336M  8481   9313M  9378   9518M  9581M  9620   9704M  9707   9719   9740   9789M
              9893  10132M 10134M 10135  10300M 10368  10454M 10466  10533M 10567  10678M 10679M 10681  10828M 10829M
             10831  10910M 11003  11206M 11248  11697M 11735  12004M 12014U 12055M 14321U 14366M 14707  14868M 14933
             15099M 15159  15325M 15448  15580M 15676  15737M 15740N 15933M 15944M 15944  15988M 16013M 16024M 16024
             16068M 16182M 16223  16272M 16310M 16336  16378M 16474  16674M 16711  16871M
     4(4)      983U  2270   2328   2431M  2621M  2657   2702M  2728   2826M  2874   2932   3265M  3345   3403   3582
              3609M  3659   3718   3918M  3967   4026   4161M  4234   4306   4707M  4710   4722M  4729   4741M  4756M
              4756   4800M  5000M  5033   5078M  5104   5265M  5367   5426   5685M  5738   5797   5994M  6004U  6026U
              6062M  6112   6171   6284M  6294U  6300M  6307U  6318U  6358M  6460U  6604M  6614U  6620M  6627U  6638U
              6678M  6942U  6966M  7016   7075   7106M  7116U  7122M  7129U  7140U  7294M  7307U  7331M  7382   7441
              7587M  7597U  7603M  7610U  7621U  7628M  7733U  7741M  7751U  7757M  7764U  7775U  7815M  7925U  7949M
              7999   8058   8089M  8099U  8105M  8112U  8123U  8155M  8184U  8208M  8255   8336M  8481   9313M  9378
              9581M  9620   9706M  9707M  9731   9789M  9893  10128M 10130  10131M 10133M 10135M 10158M 10160  10300M
             10368  10432M 10434M 10435M 10448  10466  10472  10477M 10477N 10483M 10483  10499  10505  10510M 10510N
             10533M 10567  10592M 10604  10648  10678  10742M 10742N 10754  10798  10828  10910M 11003  11206M 11248
             11318M 11327M 11327  11409  11466  11508  11625  11680  11697M 11735  11761M 11779M 11801M 11877  11934
             14349  14366M 14707  14868M 14933  15099M 15159  15325M 15448  15580M 15676  15719M 15730M 15730  16138M
             16182M 16223  16259M 16267U 16307M 16335  16378M 16396U 16474  16674M 16711  16871M
     5(5)      979U  2270   2621M  2657   2702M  2728   2826M  2874   3265M  3345   3609M  3659   3918M  3967   4161M
              4234   4270M  4278U  5000M  5033   5078M  5104   5265M  5277U  5367   5427   5685M  5738   5798   5979M
              5989U  6034U  6062M  6112   6172   6966M  7016   7076   7331M  7382   7442   7949M  7999   8059   8208M
              8255   8336M  8481   9313M  9378   9581M  9620   9738M  9789M  9893  10129M 10130M 10131  10132  10139M
             10141  10300M 10368  10433M 10436M 10437M 10438M 10438N 10448  10499  10533M 10567  10910M 11003  11206M
             11248  11273M 11317  11354  11380N 11418N 11475N 11517N 11608  11679  11697M 11735  11760M 11822  11848N
             11901N 11958N 12003N 12161N 12197N 12281N 12317N 12337N 12365N 12400N 12436N 12557N 12593N 12629N 12664N
             12748N 12783N 12819N 12906N 12941N 12978N 13014N 13049N 13106N 13449N 13491N 14071N 14091N 14119N 14154N
             14190N 14348  14366M 14707  14868M 14933  15099M 15159  15325M 15448  15580M 15676  16182M 16223  16249M
             16257U 16378M 16389U 16474  16674M 16711  16871M
     6(6)      975U  2270   2305M  2313U  2621M  2657   2702M  2728   2826M  2837U  2874   2909M  2917U  3265M  3276U
1         General Purpose Register Cross Reference                                                                          Page  115
              3345   3380M  3388U  3609M  3621U  3659   3695M  3703U  3918M  3929U  3967   4003M  4011U  4161M  4234
              4290M  5000M  5033   5078M  5104   5265M  5284U  5367   5403M  5411U  5685M  5696U  5738   5774M  5782U
              6062M  6073U  6112   6148M  6156U  6966M  6977U  7016   7052M  7060U  7331M  7343U  7382   7418M  7426U
              7949M  7960U  7999   8035M  8043U  8208M  8219U  8255   8291M  8299U  8336M  8347U  8415U  8481   9313M
              9378   9581M  9620   9789M  9893  10300M 10368  10533M 10567  10910M 11003  11206M 11248  11697M 11735
             14366M 14707  14868M 14933  15099M 15159  15325M 15448  15580M 15676  16182M 16223  16378M 16474  16674M
             16711  16871M
     7(7)      971U  2270   2276M  2287U  2613U  2621M  2657   2662M  2673U  2694U  2702M  2728   2733M  2744U  2818U
              2826M  2874   2880M  2891U  3257U  3265M  3345   3351M  3362U  3601U  3609M  3659   3665M  3676U  3910U
              3918M  3967   3973M  3984U  4153U  4161M  4234   4240M  4251U  4992U  5000M  5033   5038M  5049U  5070U
              5078M  5104   5109M  5120U  5257U  5265M  5367   5373M  5384U  5677U  5685M  5738   5744M  5755U  6054U
              6062M  6112   6118M  6129U  6958U  6966M  7016   7022M  7033U  7323U  7331M  7382   7388M  7399U  7941U
              7949M  7999   8005M  8016U  8200U  8208M  8255   8261M  8272U  8328U  8336M  8481   8487M  8498U  9305U
              9313M  9378   9384M  9395U  9573U  9581M  9620   9626M  9637U  9781U  9789M  9893   9899M  9910U 10292U
             10300M 10368  10373M 10384U 10525U 10533M 10567  10572M 10583U 10902U 10910M 11003  11009M 11020U 11198U
             11206M 11248  11253M 11264U 11689U 11697M 11735  11740M 11751U 14358U 14366M 14707  14712M 14723U 14860U
             14868M 14933  14939M 14950U 15091U 15099M 15159  15165M 15176U 15317U 15325M 15448  15454M 15465U 15572U
             15580M 15676  15682M 15693U 16174U 16182M 16223  16228M 16239U 16370U 16378M 16474  16480M 16491U 16666U
             16674M 16711  16717M 16728U 16863U 16871M
     8(8)      967U  2270   2272M  2301U  2608U  2617   2621M  2657   2658M  2698   2702M  2728   2729M  2822   2826M
              2874   2876M  2905U  3252U  3261   3265M  3345   3347M  3376U  3596U  3605   3609M  3659   3661M  3690U
              3905U  3914   3918M  3967   3969M  3998U  4148U  4157   4161M  4234   4236M  4265U  4987U  4996   5000M
              5033   5034M  5074   5078M  5104   5105M  5261   5265M  5367   5369M  5398U  5672U  5681   5685M  5738
              5740M  5769U  6049U  6058   6062M  6112   6114M  6143U  6953U  6962   6966M  7016   7018M  7047U  7318U
              7327   7331M  7382   7384M  7413U  7936U  7945   7949M  7999   8001M  8030U  8195U  8204   8208M  8255
              8257M  8286U  8323U  8332   8336M  8481   8483M  8512U  9293N  9300U  9309   9313M  9378   9380M  9409U
              9561N  9568U  9577   9581M  9620   9622M  9651U  9769   9776U  9785   9789M  9893   9895M  9924U 10287U
             10296  10300M 10368  10369M 10529  10533M 10567  10568M 10906  10910M 11003  11005M 11034U 11193U 11202
             11206M 11248  11249M 11682N 11693  11697M 11735  11736M 14351N 14362  14366M 14707  14708M 14864  14868M
             14933  14935M 14964U 15086U 15095  15099M 15159  15161M 15190U 15312U 15321  15325M 15448  15450M 15479U
             15567U 15576  15580M 15676  15678M 15707U 16169U 16178  16182M 16223  16224M 16338  16374  16378M 16474
             16476M 16505U 16661U 16670  16674M 16711  16713M 16742U 16858U 16867  16871M
     9(9)      963U  2270   2621M  2657   2702M  2728   2826M  2874   3265M  3345   3609M  3659   3918M  3967   4161M
              4234   5000M  5033   5078M  5104   5265M  5367   5685M  5738   6062M  6112   6966M  7016   7331M  7382
              7949M  7999   8208M  8255   8336M  8481   9313M  9378   9581M  9620   9789M  9893  10300M 10368  10533M
             10567  10910M 11003  11206M 11248  11697M 11735  14366M 14707  14868M 14933  15099M 15159  15325M 15448
             15580M 15676  16182M 16223  16378M 16474  16674M 16711  16871M
    10(A)      959U  2270   2621M  2657   2702M  2728   2826M  2874   3265M  3345   3609M  3659   3918M  3967   4161M
              4234   5000M  5033   5078M  5104   5265M  5367   5685M  5738   6062M  6112   6966M  7016   7331M  7382
              7949M  7999   8208M  8255   8336M  8481   9313M  9378   9581M  9620   9789M  9893  10300M 10368  10533M
             10567  10910M 11003  11206M 11248  11697M 11735  14366M 14707  14868M 14933  15099M 15159  15325M 15448
             15580M 15676  16182M 16223  16378M 16474  16674M 16711  16871M
    11(B)      955U  2013U  2260   2264   2270   2621M  2647   2651   2657   2702M  2718   2722   2728   2826M  2864
              2868   2874   3265M  3335   3339   3345   3609M  3649   3653   3659   3918M  3957   3961   3967   4161M
              4224   4228   4234   5000M  5023   5027   5033   5078M  5094   5098   5104   5265M  5357   5361   5367
              5685M  5728   5732   5738   6062M  6102   6106   6112   6966M  7006   7010   7016   7331M  7372   7376
              7382   7949M  7989   7993   7999   8208M  8245   8249   8255   8336M  8471   8475   8481   9313M  9368
              9372   9378   9581M  9610   9614   9620   9789M  9883   9887   9893  10300M 10358  10362  10368  10533M
             10557  10561  10567  10910M 10993  10997  11003  11206M 11238  11242  11248  11697M 11725  11729  11735
             14366M 14697  14701  14707  14868M 14923  14927  14933  15099M 15149  15153  15159  15325M 15438  15442
             15448  15580M 15666  15670  15676  16182M 16213  16217  16223  16378M 16464  16468  16474  16674M 16701
             16705  16711  16871M
    12(C)      951U  2004U  2261   2270   2621M  2648   2657   2702M  2719   2728   2826M  2865   2874   3265M  3336
              3345   3609M  3650   3659   3918M  3958   3967   4161M  4225   4234   5000M  5024   5033   5078M  5095
              5104   5265M  5358   5367   5685M  5729   5738   6062M  6103   6112   6966M  7007   7016   7331M  7373
              7382   7949M  7990   7999   8208M  8246   8255   8336M  8472   8481   9313M  9369   9378   9581M  9611
              9620   9789M  9884   9893  10300M 10359  10368  10533M 10558  10567  10910M 10994  11003  11206M 11239
             11248  11697M 11726  11735  14366M 14698  14707  14868M 14924  14933  15099M 15150  15159  15325M 15439
             15448  15580M 15667  15676  16182M 16214  16223  16378M 16465  16474  16674M 16702  16711  16871M
1         General Purpose Register Cross Reference                                                                          Page  116
    13(D)      947U  2260   2264M  2267   2270   2272   2273M  2273   2617M  2621   2623   2647   2651M  2654   2657
              2658   2659M  2659   2698M  2702   2704   2718   2722M  2725   2728   2729   2730M  2730   2756M  2756N
              2809M  2822M  2826   2828   2864   2868M  2871   2874   2876   2877M  2877   3261M  3265   3267   3335
              3339M  3342   3345   3347   3348M  3348   3605M  3609   3611   3649   3653M  3656   3659   3661   3662M
              3662   3914M  3918   3920   3957   3961M  3964   3967   3969   3970M  3970   4157M  4161   4163   4224
              4228M  4231   4234   4236   4237M  4237   4996M  5000   5002   5023   5027M  5030   5033   5034   5035M
              5035   5074M  5078   5080   5094   5098M  5101   5104   5105   5106M  5106   5132M  5132N  5248M  5261M
              5265   5267   5357   5361M  5364   5367   5369   5370M  5370   5681M  5685   5687   5728   5732M  5735
              5738   5740   5741M  5741   6058M  6062   6064   6102   6106M  6109   6112   6114   6115M  6115   6962M
              6966   6968   7006   7010M  7013   7016   7018   7019M  7019   7327M  7331   7333   7372   7376M  7379
              7382   7384   7385M  7385   7945M  7949   7951   7989   7993M  7996   7999   8001   8002M  8002   8204M
              8208   8210   8245   8249M  8252   8255   8257   8258M  8258   8332M  8336   8338   8471   8475M  8478
              8481   8483   8484M  8484   9309M  9313   9315   9368   9372M  9375   9378   9380   9381M  9381   9577M
              9581   9583   9610   9614M  9617   9620   9622   9623M  9623   9785M  9789   9791   9883   9887M  9890
              9893   9895   9896M  9896  10296M 10300  10302  10358  10362M 10365  10368  10369  10370M 10370  10529M
             10533  10535  10557  10561M 10564  10567  10568  10569M 10569  10906M 10910  10912  10993  10997M 11000
             11003  11005  11006M 11006  11202M 11206  11208  11238  11242M 11245  11248  11249  11250M 11250  11606
             11607M 11607  11637M 11693M 11697  11699  11725  11729M 11732  11735  11736  11737M 11737  14362M 14366
             14368  14697  14701M 14704  14707  14708  14709M 14709  14864M 14868  14870  14923  14927M 14930  14933
             14935  14936M 14936  15069  15070M 15070  15078M 15079  15095M 15099  15101  15149  15153M 15156  15159
             15161  15162M 15162  15295  15296M 15296  15304M 15305  15321M 15325  15327  15438  15442M 15445  15448
             15450  15451M 15451  15576M 15580  15582  15666  15670M 15673  15676  15678  15679M 15679  16178M 16182
             16184  16213  16217M 16220  16223  16224  16225M 16225  16374M 16378  16380  16464  16468M 16471  16474
             16476  16477M 16477  16670M 16674  16676  16701  16705M 16708  16711  16713  16714M 16714  16867M 16871
             16873
    14(E)      943U  2260   2262M  2264M  2267   2347M  2348M  2348B  2352M  2353M  2353B  2385M  2386M  2386B  2423M
              2424M  2424B  2435M  2436M  2436B  2491M  2492M  2492B  2518M  2519M  2519B  2550M  2551M  2551B  2566M
              2567M  2567B  2597M  2598M  2598B  2623M  2626B  2647   2649M  2651M  2654   2704M  2707B  2718   2720M
              2722M  2725   2776M  2777M  2777B  2792M  2793M  2793B  2828M  2831B  2864   2866M  2868M  2871   2951M
              2952M  2952B  2984M  2985M  2985B  2994M  2995M  2995B  3017M  3018M  3018B  3055M  3056M  3056B  3106M
              3107M  3107B  3117M  3118M  3118B  3172M  3173M  3173B  3223M  3224M  3224B  3235M  3236M  3236B  3241M
              3242M  3242B  3267M  3270B  3335   3337M  3339M  3342   3422M  3423M  3423B  3427M  3428M  3428B  3460M
              3461M  3461B  3498M  3499M  3499B  3509M  3510M  3510B  3565M  3566M  3566B  3576M  3577M  3577B  3585M
              3586M  3586B  3611M  3614B  3649   3651M  3653M  3656   3737M  3738M  3738B  3742M  3743M  3743B  3769M
              3770M  3770B  3780M  3781M  3781B  3801M  3802M  3802B  3816M  3817M  3817B  3849M  3850M  3850B  3868M
              3869M  3869B  3873M  3874M  3874B  3895M  3896M  3896B  3920M  3923B  3957   3959M  3961M  3964   4068M
              4069M  4069B  4083M  4084M  4084B  4110M  4111M  4111B  4132M  4133M  4133B  4163M  4166B  4224   4226M
              4228M  4231   4325M  4326M  4326B  4330M  4331M  4331B  4364M  4365M  4365B  4402M  4403M  4403B  4424M
              4425M  4425B  4454M  4455M  4455B  4464M  4465M  4465B  4480M  4481M  4481B  4512M  4513M  4513B  4528M
              4529M  4529B  4578M  4579M  4579B  4610M  4611M  4611B  4626M  4627M  4627B  4656M  4657M  4657B  4683M
              4684M  4684B  4704M  4705M  4705B  4782M  4783M  4783B  4797M  4798M  4798B  4886M  4887M  4887B  4976M
              4977M  4977B  5002M  5005B  5023   5025M  5027M  5030   5080M  5083B  5094   5096M  5098M  5101   5136M
              5137M  5137B  5152M  5153M  5153B  5184M  5185M  5185B  5200M  5201M  5201B  5267M  5270B  5357   5359M
              5361M  5364   5446M  5447M  5447B  5452M  5453M  5453B  5486M  5487M  5487B  5524M  5525M  5525B  5536M
              5537M  5537B  5570M  5571M  5571B  5608M  5609M  5609B  5620M  5621M  5621B  5654M  5655M  5655B  5687M
              5690B  5728   5730M  5732M  5735   5817M  5818M  5818B  5823M  5824M  5824B  5857M  5858M  5858B  5896M
              5897M  5897B  5906M  5907M  5907B  5933M  5934M  5934B  5943M  5944M  5944B  5970M  5971M  5971B  6064M
              6067B  6102   6104M  6106M  6109   6191M  6192M  6192B  6196M  6197M  6197B  6230M  6231M  6231B  6268M
              6269M  6269B  6279M  6280M  6280B  6396M  6397M  6397B  6447M  6448M  6448B  6466M  6467M  6467B  6493M
              6494M  6494B  6502M  6503M  6503B  6529M  6530M  6530B  6562M  6563M  6563B  6595M  6596M  6596B  6716M
              6717M  6717B  6750M  6751M  6751B  6769M  6770M  6770B  6784M  6785M  6785B  6805M  6806M  6806B  6836M
              6837M  6837B  6857M  6858M  6858B  6892M  6893M  6893B  6913M  6914M  6914B  6933M  6934M  6934B  6968M
              6971B  7006   7008M  7010M  7013   7095M  7096M  7096B  7101M  7102M  7102B  7192M  7193M  7193B  7214M
              7215M  7215B  7229M  7230M  7230B  7234M  7235M  7235B  7249M  7250M  7250B  7272M  7273M  7273B  7288M
              7289M  7289B  7333M  7336B  7372   7374M  7376M  7379   7461M  7462M  7462B  7466M  7467M  7467B  7500M
              7501M  7501B  7538M  7539M  7539B  7549M  7550M  7550B  7659M  7660M  7660B  7695M  7696M  7696B  7724M
              7725M  7725B  7852M  7853M  7853B  7888M  7889M  7889B  7917M  7918M  7918B  7951M  7954B  7989   7991M
              7993M  7996   8078M  8079M  8079B  8084M  8085M  8085B  8176M  8177M  8177B  8210M  8213B  8245   8247M
              8249M  8252   8314M  8315M  8315B  8338M  8341B  8471   8473M  8475M  8478   8538M  8539M  8539B  8574M
1         General Purpose Register Cross Reference                                                                          Page  117
              8575M  8575B  8668M  8669M  8669B  8807M  8808M  8808B  8827M  8828M  8828B  9069M  9070M  9070B  9175M
              9176M  9176B  9234M  9235M  9235B  9315M  9318B  9368   9370M  9372M  9375   9583M  9586B  9610   9612M
              9614M  9617   9791M  9794B  9883   9885M  9887M  9890  10007M 10008M 10008B 10034M 10035M 10035B 10046M
             10047M 10047B 10053M 10054M 10054B 10060M 10061M 10061B 10067M 10068M 10068B 10074M 10075M 10075B 10126M
             10127M 10127B 10221M 10222M 10222B 10261M 10262M 10262B 10302M 10305B 10358  10360M 10362M 10365  10424M
             10425M 10425B 10475M 10476M 10476B 10508M 10509M 10509B 10535M 10538B 10557  10559M 10561M 10564  10623M
             10624M 10624B 10642M 10643M 10643B 10661M 10662M 10662B 10676M 10677M 10677B 10702M 10703M 10703B 10717M
             10718M 10718B 10722M 10723M 10723B 10740M 10741M 10741B 10773M 10774M 10774B 10792M 10793M 10793B 10811M
             10812M 10812B 10826M 10827M 10827B 10852M 10853M 10853B 10867M 10868M 10868B 10872M 10873M 10873B 10894M
             10895M 10895B 10912M 10915B 10993  10995M 10997M 11000  11098M 11099M 11099B 11125M 11126M 11126B 11135M
             11136M 11136B 11151M 11152M 11152B 11172M 11173M 11173B 11208M 11211B 11238  11240M 11242M 11245  11310M
             11311M 11311B 11352M 11353M 11353B 11357M 11358M 11358B 11375M 11376M 11376B 11396M 11397M 11397B 11434M
             11435M 11435B 11453M 11454M 11454B 11491M 11492M 11492B 11533M 11534M 11534B 11555M 11556M 11556B 11570M
             11571M 11571B 11588M 11589M 11589B 11603M 11604M 11604B 11634M 11635M 11635B 11651M 11652M 11652B 11673M
             11674M 11674B 11699M 11702B 11725  11727M 11729M 11732  11820M 11821M 11821B 11825M 11826M 11826B 11843M
             11844M 11844B 11864M 11865M 11865B 11896M 11897M 11897B 11917M 11918M 11918B 11953M 11954M 11954B 11974M
             11975M 11975B 11997M 11998M 11998B 12096M 12097M 12097B 12144M 12145M 12145B 12159M 12160M 12160B 12180M
             12181M 12181B 12195M 12196M 12196B 12216M 12217M 12217B 12264M 12265M 12265B 12279M 12280M 12280B 12300M
             12301M 12301B 12315M 12316M 12316B 12335M 12336M 12336B 12363M 12364M 12364B 12398M 12399M 12399B 12426M
             12427M 12427B 12469M 12470M 12470B 12488M 12489M 12489B 12540M 12541M 12541B 12555M 12556M 12556B 12576M
             12577M 12577B 12591M 12592M 12592B 12612M 12613M 12613B 12627M 12628M 12628B 12647M 12648M 12648B 12662M
             12663M 12663B 12683M 12684M 12684B 12698M 12699M 12699B 12746M 12747M 12747B 12766M 12767M 12767B 12781M
             12782M 12782B 12802M 12803M 12803B 12817M 12818M 12818B 12841M 12842M 12842B 12856M 12857M 12857B 12904M
             12905M 12905B 12924M 12925M 12925B 12939M 12940M 12940B 12961M 12962M 12962B 12976M 12977M 12977B 12997M
             12998M 12998B 13012M 13013M 13013B 13032M 13033M 13033B 13047M 13048M 13048B 13068M 13069M 13069B 13083M
             13084M 13084B 13140M 13141M 13141B 13176M 13177M 13177B 13212M 13213M 13213B 13248M 13249M 13249B 13284M
             13285M 13285B 13320M 13321M 13321B 13356M 13357M 13357B 13392M 13393M 13393B 13428M 13429M 13429B 13447M
             13448M 13448B 13468M 13469M 13469B 13525M 13526M 13526B 13561M 13562M 13562B 13597M 13598M 13598B 13633M
             13634M 13634B 13669M 13670M 13670B 13705M 13706M 13706B 13741M 13742M 13742B 13777M 13778M 13778B 13813M
             13814M 13814B 13849M 13850M 13850B 13885M 13886M 13886B 13921M 13922M 13922B 13957M 13958M 13958B 13993M
             13994M 13994B 14029M 14030M 14030B 14065M 14066M 14066B 14089M 14090M 14090B 14117M 14118M 14118B 14152M
             14153M 14153B 14180M 14181M 14181B 14223M 14224M 14224B 14242M 14243M 14243B 14294M 14295M 14295B 14309M
             14310M 14310B 14346M 14347M 14347B 14368M 14371B 14697  14699M 14701M 14704  14750M 14751M 14751B 14782M
             14783M 14783B 14798M 14799M 14799B 14870M 14873B 14923  14925M 14927M 14930  15101M 15104B 15149  15151M
             15153M 15156  15327M 15330B 15385B 15438  15440M 15442M 15445  15494M 15495M 15495B 15582M 15585B 15666
             15668M 15670M 15673  16184M 16187B 16213  16215M 16217M 16220  16380M 16383B 16464  16466M 16468M 16471
             16518M 16519M 16519B 16560M 16561M 16561B 16589M 16590M 16590B 16608M 16609M 16609B 16649M 16650M 16650B
             16676M 16679B 16701  16703M 16705M 16708  16755M 16756M 16756B 16794M 16795M 16795B 16823M 16824M 16824B
             16842M 16843M 16843B 16873M 16876B
    15(F)      939U  2260   2261M  2262B  2264M  2325   2344M  2365   2382M  2403   2420M  2448   2471   2488M  2515M
              2547M  2563M  2594M  2625M  2625   2647   2648M  2649B  2651M  2706M  2706   2718   2719M  2720B  2722M
              2754   2773M  2789M  2810M  2830M  2830   2864   2865M  2866B  2868M  2929   2948M  2981M  3007   3035
              3052M  3103M  3130   3152   3169M  3220M  3269M  3269   3335   3336M  3337B  3339M  3400   3419M  3440
              3457M  3478   3495M  3522   3545   3562M  3582M  3613M  3613   3649   3650M  3651B  3653M  3715   3734M
              3766M  3798M  3813M  3846M  3865M  3892M  3922M  3922   3957   3958M  3959B  3961M  4023   4065M  4080M
              4107M  4129M  4165M  4165   4224   4225M  4226B  4228M  4303   4322M  4344   4361M  4382   4399M  4421M
              4451M  4461M  4477M  4509M  4525M  4575M  4607M  4623M  4680M  4701M  4779M  4794M  4816M  4817M  4817
              4826M  4835M  4835   4842   4883M  4912M  4913M  4913   4922M  4931M  4931   4938   4973M  5004M  5004
              5023   5024M  5025B  5027M  5082M  5082   5094   5095M  5096B  5098M  5130   5133M  5149M  5181M  5197M
              5249M  5269M  5269   5357   5358M  5359B  5361M  5423   5443M  5466   5483M  5504   5521M  5550   5567M
              5588   5605M  5651M  5689M  5689   5728   5729M  5730B  5732M  5794   5814M  5837   5854M  5859M  5876
              5893M  5898M  5930M  5935M  5967M  5972M  6039M  6039   6066M  6066   6102   6103M  6104B  6106M  6168
              6188M  6210   6227M  6248   6265M  6393M  6444M  6490M  6526M  6559M  6592M  6713M  6747M  6766M  6781M
              6802M  6833M  6854M  6889M  6910M  6930M  6970M  6970   7006   7007M  7008B  7010M  7072   7092M  7189M
              7211M  7226M  7246M  7269M  7285M  7335M  7335   7372   7373M  7374B  7376M  7438   7458M  7480   7497M
              7518   7535M  7656M  7692M  7721M  7849M  7885M  7914M  7953M  7953   7989   7990M  7991B  7993M  8055
              8075M  8173M  8212M  8212   8245   8246M  8247B  8249M  8309   8340M  8340   8471   8472M  8473B  8475M
              8535M  8571M  8665M  8863   8877   8886M  8888   9088   9194   9275M  9275   9281M  9287M  9317M  9317
              9368   9369M  9370B  9372M  9539M  9539   9556M  9585M  9585   9610   9611M  9612B  9614M  9766M  9793M
1         General Purpose Register Cross Reference                                                                          Page  118
              9793   9883   9884M  9885B  9887M  9939M  9939N  9941   9968   9971   9975M  9976M  9977  10031M 10041M
             10048M 10055M 10062M 10069M 10121M 10216M 10258M 10304M 10304  10358  10359M 10360B 10362M 10421M 10537M
             10537  10557  10558M 10559B 10561M 10620M 10639M 10658M 10673M 10699M 10714M 10737M 10770M 10789M 10808M
             10823M 10849M 10864M 10891M 10914M 10914  10993  10994M 10995B 10997M 11122M 11210M 11210  11238  11239M
             11240B 11242M 11349M 11372M 11393M 11431M 11450M 11488M 11530M 11552M 11567M 11585M 11600M 11631M 11648M
             11670M 11701M 11701  11725  11726M 11727B 11729M 11817M 11840M 11861M 11893M 11914M 11950M 11971M 11994M
             12093M 12141M 12156M 12177M 12192M 12213M 12261M 12276M 12297M 12312M 12332M 12360M 12395M 12423M 12466M
             12485M 12537M 12552M 12573M 12588M 12609M 12624M 12644M 12659M 12680M 12695M 12743M 12763M 12778M 12799M
             12814M 12838M 12853M 12901M 12921M 12936M 12958M 12973M 12994M 13009M 13029M 13044M 13065M 13080M 13137M
             13173M 13209M 13245M 13281M 13317M 13353M 13389M 13425M 13444M 13465M 13522M 13558M 13594M 13630M 13666M
             13702M 13738M 13774M 13810M 13846M 13882M 13918M 13954M 13990M 14026M 14062M 14086M 14114M 14149M 14177M
             14220M 14239M 14291M 14306M 14343M 14370M 14370  14697  14698M 14699B 14701M 14747M 14779M 14795M 14800M
             14829M 14848M 14848  14872M 14872  14923  14924M 14925B 14927M 14991M 15051M 15051  15057M 15069  15075M
             15079M 15103M 15103  15149  15150M 15151B 15153M 15217M 15277M 15277  15288M 15295  15301M 15305M 15329M
             15329  15354U 15438  15439M 15440B 15442M 15549M 15549  15555M 15584M 15584  15666  15667M 15668B 15670M
             16151M 16151  16153M 16153  16158M 16186M 16186  16213  16214M 16215B 16217M 16342M 16342  16358M 16382M
             16382  16464  16465M 16466B 16468M 16520  16530M 16530  16557M 16586M 16605M 16646M 16678M 16678  16701
             16702M 16703B 16705M 16768  16791M 16820M 16839M 16875M 16875

1DEBUG    Diagnostic Cross Reference and Assembler Summary                                                                  Page  119
-                                                                                            HLASM R4.0  2002/06/06 10.06
0     No Statements Flagged in this Assembly
 HIGH LEVEL ASSEMBLER, 5696-234, RELEASE 4.0, PTF UQ57391
0SYSTEM: OS/390 02.10.00            JOBNAME: WIN#DEBU    STEPNAME: ASM        PROCSTEP: ASM
0Datasets Allocated for this Assembly
  Con DDname   Dataset Name                                 Volume  Member
   P1 SYSIN    SYS02157.T100619.RA000.WIN#DEBU.SYSIN.H01
   L1 SYSLIB   WYL.GA.MCL.WINGS.MACLIB                      STR211
   L2          WYL.GG.SYS.MACLIB                            STR210
   L3          SYS3.IS.MACLIB                               SYSA03
   L4          SYS3.MACLIB                                  SYSA03
   L5          SYS1.MACLIB                                  OS02AD
   L6          SYS1.MODGEN                                  OS02AD
   L7          SYS4.MACLIB                                  SYSA04
      SYSLIN   WYL.GA.MCL.WINGS.OBJECT                      STR203  DEBUG
      SYSPRINT SYS02157.T100619.RA000.WIN#DEBU.PRINT.H01    SCR003
      SYSTERM  GA$MCL.WIN#DEBU.JOB01164.D0000102.?

    9460K allocated to Buffer Pool,         2352K would be required for this to be an In-Storage Assembly
    2764 Primary Input Records Read         4458 Library Records Read                  0 Work File Reads
       0 ASMAOPT Records Read               8436 Primary Print Records Written         0 Work File Writes
     302 Punch Records Written                 0 ADATA Records Written
0Assembly Start Time: 10.06.20 Stop Time: 10.06.22 Processor Time: 00.00.01.4335
 Return Code 000
