1         High Level Assembler Option Summary                   (PTF UQ57391)                                               Page    1
-                                                                                            HLASM R4.0  2002/06/26 11.18
0  No Overriding ASMAOPT Parameters
   Overriding Parameters-  TERM,RENT,NOXREF,NODXREF,LINECOUNT(32767),NORLD,USING(WARN(11))
   No Process Statements


   Options for this Assembly
0  NOADATA
     ALIGN
   NOASA
     BATCH
     CODEPAGE(047C)
   NOCOMPAT
   NODBCS
   NODECK
 3 NODXREF
     ESD
   NOEXIT
     FLAG(0,ALIGN,CONT,NOIMPLEN,NOPAGE0,PUSH,RECORD,NOSUBSTR,USING0)
   NOFOLD
   NOGOFF
   NOINFO
     LANGUAGE(EN)
   NOLIBMAC
 3   LINECOUNT(32767)
     LIST(121)
     MXREF(SOURCE)
     OBJECT
     OPTABLE(UNI,NOLIST)
   NOPCONTROL
   NOPESTOP
   NOPROFILE
   NORA2
 3   RENT
 3 NORLD
     RXREF
     SIZE(MAX)
     SYSPARM()
 3   TERM(WIDE)
   NOTEST
     THREAD
   NOTRANSLATE
 3   USING(NOLIMIT,MAP,WARN(11))
 3 NOXREF

   No Overriding DD Names

1DUMPER   External Symbol Dictionary                                                                                        Page    2
-Symbol   Type   Id     Address  Length     LD ID  Flags Alias-of                            HLASM R4.0  2002/06/26 11.18
0DUMPER    SD 00000001 00000000 00000E28             00
 DUMPINIT  LD          00000000           00000001
 DUMPFMT   LD          000002F6           00000001
 AMODE31   ER 00000002
 BTD       ER 00000003
 FINDDD    ER 00000004
 PRTINIT   ER 00000005
 PRTCLOSE  ER 00000006
 SEG       ER 00000007
 SEGT      ER 00000008
 SEGDC     ER 00000009
 SEGWR     ER 0000000A
 SEGB      ER 0000000B
 SEGHX     ER 0000000C
 SEGLOC    ER 0000000D
 FMTTIME   ER 0000000E
 SEGCOL    ER 0000000F
 SEGLOC    LD          00000CB8           00000001
 SYMDUMP   LD          00000E10           00000001

1DUMPER   Dump Formatter                                                                                                    Page    3
0Loc    Object Code    Addr1 Addr2  Stmt Lv Lineno    Source Statement                    (Asmedit 3.3)  HLASM R4.0  2002/06/26 11.18
+___    ______ ____    _____ _____  ____ __ ______    ______ _________
0                                      2    00002000  ********************************************************************
                                       3    00003000  *** %%Module: wings asm dumper;                                    *
                                       4    00004000  ********************************************************************
                                       5    00005000  ***                                                                *
                                       6    00006000  ***                                                                *
                                       7    00007000  ***  WINGS -- FILE SERVER DUMP FORMATTER.                          *
                                       8    00008000  ***                                                                *
                                       9    00009000  ***    This module is the dump formatter.  Each task should call   *
                                      10    00010000  ***    DUMPINIT to initialize the STAE exit for that task.         *
                                      11    00011000  ***                                                                *
                                      12    00012000  ***    Created, 11/28/90, Jim Nisbet                               *
                                      13    00013000  ***                                                                *
                                      14    00014000  ***                                                                *
                                      15    00015000  ***  Modifications:                                                *
                                      16    00016000  ***  2002/06/18  mcl  dump reason code, check for supv state       *
                                      17    00016100  ***  1995/02/15  ml   co-routine parm pointer in TVT               *
                                      18    00017000  ***  1991/04/01  PJG  Dynamic allocation and re-entrant code       *
                                      19    00018000  ***  1990/12/17  Niz  Cleanup.                                     *
                                      20    00019000  ***  1990/11/28  Niz  Initial version.                             *
                                      21    00020000  ***                                                                *
                                      22    00021000  ********************************************************************
                                      23    00022000  DUMPER   HIBAL ASSOC=YES
                                    1007    00023000           REGS  FSR,,,,,,,BR,WAR,,,TVTR,(GVTR,LSR),SPR,RAR
                                    1117    00024000
                                    1118    00025000           SYSDEFN
                                    1119    00026000
                                    1120    00027000           COPY  TRCENTRY            Trace table format
                                    1121=   00001000 =¿þþþþþþþþþþþþþþþþþþþþþþþþþþþþþþþþþþþþþþþþþþþþþþþþþþþþþþþþþþþþþþþþþþþþþÜ
                                    1122=   00002000 =Ÿ                                                                     Ÿ
                                    1123=   00003000 =Ÿ        Trace table entry format.                                    Ÿ
                                    1124=   00004000 =Ÿ                                                                     Ÿ
                                                      ¾þþþþþþþþþþþþþþþþþþþþþþþþþþþþþþþþþþþþþþþþþþþþþþþþþþþþþþþþþþþþþþþþþþþþþ»
0                                   1125    00005000 =TRCNENT# EQU   200,,C'N'           Default number of trace entries
                                    1126    00006000 =
 000000                00000 00050  1127    00007000 =TRCENTRY RECORD BEGIN
 000000                             1135  1 00008000 =TRCCLOCK   DS    D                   Time stamp (STCK format)
 000008                             1136  1 00009000 =TRCNAME    DS    CL8                 Routine name or trace id
 000010                             1137  1 00010000 =TRCREGS    DS    16F                 Registers
 000050                00050 00050  1138    00011000 =         END
                                    1147    00028000  *
 000000                00000 0003C  1148    00029000  SEGCB    RECORD 'SEGCB'
 000000 00                          1158  1 03-SEGCB +$$$SEGCB0   DS   0F
 SEGCBCOD.SEGCBSEG 01 EQ
 SEGCBCOD.SEGCBWR  02 EQ
 SEGCBCOD.SEGCBCLR 03 EQ
 SEGCBCOD.SEGCBSPP 04 EQ
 SEGCBCOD.SEGCBOVF 05 EQ
 SEGCBCOD.SEGCBCR  06 EQ
 SEGCBCOD.SEGCBMAR 07 EQ
 000001 00                          1233  1 03-SEGCB +           DC    X'00'               Reserved
 000002 0000                              1          +
 000004 00000000                    1234  1 03-SEGCB +SEGCBMAXF   DC   A(0)                Maximum buffer length
 000008 00000000                    1235  1 03-SEGCB +SEGCBMRKF   DC   A(0)                Length at last mark
 00000C 00000000                    1236  1 03-SEGCB +SEGCBLENF   DC   A(0)                Current length
 000010 00000000                    1237  1 03-SEGCB +SEGCBINDF   DC   A(0)                Overflow/indent count
1DUMPER   Dump Formatter                                                                                                    Page    4
0Loc    Object Code    Addr1 Addr2  Stmt Lv Lineno    Source Statement           (Hibal 5, Asmedit 3.3)  HLASM R4.0  2002/06/26 11.18
+___    ______ ____    _____ _____  ____ __ ______    ______ _________
0000014 00000000                    1238  1 03-SEGCB +SEGCBERR   DC    A(0)                Address of error recovery routine
 000018 0000000000000000            1239  1 03-SEGCB +           DC    2F'0'               Reserved
 000020 00000000                    1240  1 03-SEGCB +SEGCBLOC   DC    A(0)                Location of buffer
 000024 00000000                    1241  1 03-SEGCB +SEGCBRTN   DC    A(0)                Processing routine
 000028 0000000000000000            1242  1 03-SEGCB +           DC    4F'0'               Reserved
 000038 00000000       0003C 0003C  1243    03-SEGCB +SEGCBUSR DC    A(0)                USER field
                                    1253    00030000  *
 000000                00000 00008  1254    00031000  SUX      RECORD BEGIN              Seg User Extension (^SEGCBUSR)
 000000 00                          1262  1 00032000  SUXFLAG    FLAG
 SUXFLAG.SUXFNOSTA 80 ONES          1266  1 00033000             FLAG  SUXFNOSTAMP         - No timestamp
 000001                             1271  1 00034000  SUXCC      DS    C                   Next CC char to use
 000004                             1272  1 00035000  SUXDCBP    DS    A                   DCB ptr
 000008                00008 00008  1273    00036000           END
                                    1282    00037000  *
 000000                00000 00E28  1283    00038000           PUSH  DSECTS              Common DSECTS
                                    6826    00080000
 USING  GVT,R12                     6827    00081000           USING GVT                 Universal assumption
 USING  TVT,R11                     6836    00082000           USING TVT                 Universal assumption
1DUMPER   Initialize Dump Formatter                                                                                         Page    5
0Current Usings:  (TVT,R11) (GVT,R12)
0Loc    Object Code    Addr1 Addr2  Stmt Lv Lineno    Source Statement           (Hibal 5, Asmedit 3.3)  HLASM R4.0  2002/06/26 11.18
+___    ______ ____    _____ _____  ____ __ ______    ______ _________
0                                   6846    00084000  ¿þþþþþþþþþþþþþþþþþþþþþþþþþþþþþþþþþþþþþþþþþþþþþþþþþþþþþþþþþþþþþþþþþþþþþÜ
                                    6847    00085000  Ÿ                                                                     Ÿ
                                    6848    00086000  Ÿ  DUMPINIT -- Routine to initialize the dump formatter's             Ÿ
                                    6849    00087000  Ÿ    ESTAE exit, so we will get control to produce a formatted        Ÿ
                                    6850    00088000  Ÿ    dump.                                                            Ÿ
                                    6851    00089000  Ÿ                                                                     Ÿ
                                    6852    00090000  Ÿ    On entry:                                                        Ÿ
                                    6853    00091000  Ÿ      R1 - co-routine dump formatter address (0=none)                Ÿ
                                    6854    00092000  Ÿ      R0 - address to be passed to co-routine 0=SDWA                 Ÿ
                                    6855    00093000  Ÿ                                                                     Ÿ
                                    6856    00094000  Ÿ    On exit, R15 (and cc):                                           Ÿ
                                    6857    00095000  Ÿ      0 - ok                                                         Ÿ
                                    6858    00096000  Ÿ                                                                     Ÿ
                                                      ¾þþþþþþþþþþþþþþþþþþþþþþþþþþþþþþþþþþþþþþþþþþþþþþþþþþþþþþþþþþþþþþþþþþþþþ»
0000000                00000 00018  6859    00097000  DINITWA  RECORD BEGIN
                                    6867  1 00098000  DINSTAEL   ESTAE *-*,PURGE=NONE,ASYNCH=YES,TERM=YES,MF=L
                                    6869  1          +*    MACDATE   10/01/94                                        @G860P1C
 000000                             6871  1 01-ESTAE +           DS    0F
 000000 16                          6872  1 01-ESTAEC+DINSTAEL   DC    AL1(22)                 FLAGS FOR TCB,PURGE,ASYNCH,
                                          1          +                                         AND CANCEL                  @D1C
 000001 000000                      6873  1 01-ESTAE +           DC    AL3(0)                  FIELD NO LONGER USED  @G860P1C
 000004 00000000                    6874  1 01-ESTAE +           DC    A(0)                    PARM. LIST ADDR. NOT SPECIFIED
 000008 00000000                    6875  1 01-ESTAE +           DC    A(0)                    TCB NOT SPECIFIED
 00000C 40                          6876  1 01-ESTAE +           DC    AL1(64)                 FLAGS
 00000D 01                          6877  1 01-ESTAE +           DC    AL1(1)                  THIRD FLAG BYTE       @G860P1C
 00000E 0000                        6878  1 01-ESTAE +           DC    AL2(0)                  RESERVED              @G860P1C
 000010 00000000                    6879  1 01-ESTAE +           DC    A(0)                    TOKEN VALUE AREA      @G81CP2F
 000014 00000000                    6880  1 01-ESTAE +           DC    AL4(*-*)                FOUR BYTE EXIT ADDR   @G860P1C
 000018                00018 00018  6881    00099000           END
                                    6890    00100000  þþþþ
 000000 90DF B0D4            000D4  6891    00101000  DUMPINIT XPROC DINITWA
 000004 58F0 C014/0DEF       00014  6904             +
 00000A C4E4D4D7C9D5C9E3            6906             +
 000012 98DF B0D4            000D4  6907             +
 000016 50E0 D000            00000  6910             +
 00001A 900C D004/188D       00004  6913             +
 000020 41D0 D050/0D70       00050  6916             +
 USING  *,R7                        6948    00102000           FAIL  (GVT,NE,'GVT'),'Bad GVT ptr.'
 USING  DINITWA-(4+52),R8
 000026 D502 7A8C C000 00AB2 00000  6961             +
 00002C 4780 701A            00040  6962             +
 000030 FEDC0C                      6967  1          +
 000033 C2818440C7E5E340            6968             +
 000040                             6974    00103000           FAIL  (TVT,NE,'TVT'),'Bad TVT ptr.'
 000040 D502 7A8F B000 00AB5 00000  6987             +
 000046 4780 7034            0005A  6988             +
 00004A FEDC0C                      6993  1          +
 00004D C2818440E3E5E340            6994             +
 00005A 5010 B0F8            000F8  7000    00104000           ST    R1,TVTDUMPR         Save DUMP co-routine addr
 00005E 5000 B10C            0010C  7001    00105000           ST    R0,TVTDUMPX         save parm address
                                    7002    00106000
 000062 4120 B000            00000  7003    00107000           LA    R2,TVT
 000066 4110 8038            00000  7004    00108000           ESTAE ESTAE,TERM=YES,PARAM=(R2),MF=(E,DINSTAEL)
1DUMPER   Initialize Dump Formatter                                                                                         Page    6
0Current Usings:  (*,R7) (DINITWA-(4+52),R8) (TVT,R11) (GVT,R12)
0Loc    Object Code    Addr1 Addr2  Stmt Lv Lineno    Source Statement           (Hibal 5, Asmedit 3.3)  HLASM R4.0  2002/06/26 11.18
+___    ______ ____    _____ _____  ____ __ ______    ______ _________
000006A 4100 7092            000B8  7011             +
 00006E 5001 0014            00014  7012             +
 000072 94BF 1000      00000        7013             +
 000076 9610 1000      00000        7014             +
 00007A 5020 1004            00004  7015             +
 00007E 9640 100C      0000C        7016             +
 000082 94F7 1000      00000        7017             +
 000086 94E4 100C      0000C        7018             +
 00008A 9201 100D      0000D        7019             +
 00008E D701 100E 100E 0000E 0000E  7020             +
 000094 4100 0100/0A3C       00100  7021             +
 00009A 12FF/4780 7082       000A8  7023    00109000           IF    (R15,NZ),'QSNAP "ESTAE exit not set."'
 0000A0 0ADE/0113                   7040  1          +
 0000A4 4100 7A92            00AB8  7042             +
 0000A8 1BFF                        7047    00110000           CLEAR R15                 A-ok
 0000AA 18D8/980C D004       00004  7051    00111000           PEND
 DROP   DINITWA-(4+52),R8
 DROP   *,R7
 0000B0 58E0 D000/12FF       00000  7072             +
 0000B6 07FE                        7075             +
1DUMPER   ESTAE Exit Routine                                                                                                Page    7
0Current Usings:  (TVT,R11) (GVT,R12)
0Loc    Object Code    Addr1 Addr2  Stmt Lv Lineno    Source Statement           (Hibal 5, Asmedit 3.3)  HLASM R4.0  2002/06/26 11.18
+___    ______ ____    _____ _____  ____ __ ______    ______ _________
0                                   7077    00113000  ¿þþþþþþþþþþþþþþþþþþþþþþþþþþþþþþþþþþþþþþþþþþþþþþþþþþþþþþþþþþþþþþþþþþþþþÜ
                                    7078    00114000  Ÿ                                                                     Ÿ
                                    7079    00115000  Ÿ   ESTAE exit routine (entered via SYNCH from MVS).                  Ÿ
                                    7080    00116000  Ÿ                                                                     Ÿ
                                    7081    00117000  Ÿ     This routine sets up our environment (stack, 31-bit, etc.)      Ÿ
                                    7082    00118000  Ÿ     and then calls ESTAEFMT.                                        Ÿ
                                    7083    00119000  Ÿ                                                                     Ÿ
                                                      ¾þþþþþþþþþþþþþþþþþþþþþþþþþþþþþþþþþþþþþþþþþþþþþþþþþþþþþþþþþþþþþþþþþþþþþ»
00000B8                             7084    00120000           DS    0H
 USING  ESTAE,R15                   7085    00121000  ESTAE    WITH  (ESTAE,R15),BEGIN
 0000B8 5900 F8B0            00968  7100  1 00122000             IF    (R0,EQ,12),BEGIN    No SDWA...
 0000BC 4770 F00C            000C4  7112  1          +
 0000C0 1BFF                        7117  2 00123000               CLEAR R15                 Abend, no retries
 0000C2 07FE                        7121  2 00124000               BR    R14
 0000C4                             7122  1 00125000             END
                                    7126  1 00126000  **mcl-   QSNAP 'DUMPER ESTAE'
                                    7127  1 00127000  **mcl-   QSNAP (0,13,14,15)
 0000C4 900F D000            00000  7128  1 00128000             STM   R0,R15,@R13         Save regs
 0000C8 18AD                        7129  1 00129000             LR    R10,R13             Save save area ptr
 DROP   ESTAE,R15                   7130    00130000           END
                                    7138    00131000
 0000CA 0D70                        7139    00132000           BASE
 USING  *,R7
 0000CC 1861                        7153    00133000           LR    R6,R1               SDWA ptr
 USING  SDWA,R6                     7154    00134000           USING SDWA,R6
                                    7163    00135000           ¿þþþþþþþþþþþþþþþþþþþþþþþþþþþþþþþþþþþþþþþþþþþþÜ
                                    7164    00136000           Ÿ  Set up our normal operating environment.  Ÿ
                                    7165    00137000           ¾þþþþþþþþþþþþþþþþþþþþþþþþþþþþþþþþþþþþþþþþþþþþ»
 0000CE 58B0 6000            00000  7166    00138000           L     TVTR,SDWAPARM       PARM is our TVT ptr
 0000D2                             7167    00139000           FAIL  (TVT,NE,'TVT'),'Bad TVT ptr.'
 0000D2 D502 79E9 B000 00AB5 00000  7180             +
 0000D8 4780 7020            000EC  7181             +
 0000DC FEDC0C                      7186  1          +
 0000DF C2818440E3E5E340            7187             +
 0000EC 58C0 B090            00090  7193    00140000           L     GVTR,TVTGVTP        Get GVT ptr from TVT
 0000F0                             7194    00141000           FAIL  (GVT,NE,'GVT'),'Bad GVT ptr.'
 0000F0 D502 79E6 C000 00AB2 00000  7207             +
 0000F6 4780 703E            0010A  7208             +
 0000FA FEDC0C                      7213  1          +
 0000FD C2818440C7E5E340            7214             +
                                    7220    00142000  *
 00010A 947F B09E      0009E        7221    00143000           CLEAR TVTFTRC             Turn off tracing
                                    7228    00144000
 00010E 0700/4510 704C       00118  7229    00145000           GETMAIN R,LV=32*1024      Get a new stack
 000114 00008000                    7233             +
 000118 5800 1000/0A0A       00000  7234             +
 00011E 18D1                        7236    00146000           LR    SPR,R1              Set stack
 000120 1881                        7237    00147000           LR    WAR,R1              Ditto
                                    7238    00148000
 000122 58E0 78A0/0DEE       0096C  7239    00149000           VCALL AMODE31             Switch to 31-bit mode
1DUMPER   ESTAE Exit Routine                                                                                                Page    8
0Current Usings:  (SDWA,R6) (*,R7) (TVT,R11) (GVT,R12)
0Loc    Object Code    Addr1 Addr2  Stmt Lv Lineno    Source Statement           (Hibal 5, Asmedit 3.3)  HLASM R4.0  2002/06/26 11.18
+___    ______ ____    _____ _____  ____ __ ______    ______ _________
0                                   7243    00150000           ¿þþþþþþþþþþþþþþþþþþþþÜ
                                    7244    00151000           Ÿ  Format the dump.  Ÿ
                                    7245    00152000           ¾þþþþþþþþþþþþþþþþþþþþ»
 000128 4110 6000            00000  7246    00153000           LA    R1,SDWA
 00012C 58E0 78A4/0DEE       00970  7247    00154000           ACALL ESTAEFMT            Do ESTAE formatting
                                    7251    00155000           ¿þþþþþþþþþþþþþþþþþþþþþþÜ
                                    7252    00156000           Ÿ  Continue abending.  Ÿ
                                    7253    00157000           ¾þþþþþþþþþþþþþþþþþþþþþþ»
 000132 4110 6000            00000  7254    00158000           LA    R1,SDWA             Needed for SETRP
 000136 0700           00138 00136  7255    00159000           SETRP RC=0                Continue abending
 000136 9200 10FC      000FC        7261             +
 00013A 980F A000            00000  7262    00160000           LM    R0,R15,@R10         Restore regs
 00013E 1BFF                        7263    00161000           CLEAR R15                 No retries
 000140 07FE                        7267    00162000           BR    R14
                                    7268    00163000
 DROP   SDWA,R6                     7269    00164000           DROP  SDWA,BR
 DROP   *,R7
                                    7283    00165000           ¿þþþþþþþþþþþþþþþþþþþþþþþÜ
                                    7284    00166000           Ÿ  Model SYSPRINT DCB.  Ÿ
                                    7285    00167000           ¾þþþþþþþþþþþþþþþþþþþþþþþ»
                                    7286    00168000C MDLPRDCX DCB   DDNAME=SYSPRINT,DSORG=PS,MACRF=PL,
 000142 0000                                00169000                 RECFM=VBA,LRECL=200,BLKSIZE=6233,EXLST=ESTPREXL
 000144 0000000000000000            7293             +
 000154 00000000/00                 7294             +
 000159 000001/0000                 7297             +
 00015E 4000/00000001               7299             +
 000164 00/000001/54                7302             +
 000169 0001A4                      7305             +
 00016C E2E8E2D7D9C9D5E3            7307             +
 000174 02/00/0048/00               7308             +
 000179 000001                      7313             +
 00017C 00000001/0000               7314             +
 000182 1859/00000000               7316             +
 000188 00000001                    7318             +
 00018C 00000001                    7320             +
 000190 00000001/0000               7321             +
 000196 00C8/00/000001              7323             +
 00019C 00000000                    7326             +
 0001A0 00000001                    7327             +
                                    7328    00170000  MDLPRDCB EQU   MDLPRDCX,*-MDLPRDCX,C'X'
                                    7329    00171000
 0001A4 910001A8                    7330    00172000  ESTPREXL DC    0A(0),X'91',AL3(ESTPRAEX)  DCB abend exit
                                    7331    00173000
 USING  *,R15                       7332    00174000  ESTPRAEX WITH  (*,R15),BEGIN
 0001A8 9204 1003      00003        7348  1 00175000             MVI   @R1+3,4             Tell OS to ignore the abend
 0001AC 07FE                        7349  1 00176000             BR    R14                 Return
 DROP   *,R15                       7350    00177000           END
1DUMPER   ESTAE Exit Routine                                                                                                Page    9
0Current Usings:  (TVT,R11) (GVT,R12)
0Loc    Object Code    Addr1 Addr2  Stmt Lv Lineno    Source Statement           (Hibal 5, Asmedit 3.3)  HLASM R4.0  2002/06/26 11.18
+___    ______ ____    _____ _____  ____ __ ______    ______ _________
0                                   7359    00179000  ¿þþþþþþþþþþþþþþþþþþþþþþþþþþþþþþþþþþþþþþþþþþþþþþþþþþþþþþþþþþþþþþþþþþþþþÜ
                                    7360    00180000  Ÿ                                                                     Ÿ
                                    7361    00181000  Ÿ  ESTAEFMT -- Routine to open a DUMP data set and format a dump.     Ÿ
                                    7362    00182000  Ÿ                                                                     Ÿ
                                    7363    00183000  Ÿ    On entry:                                                        Ÿ
                                    7364    00184000  Ÿ      R1 - SDWA ptr (0=none)                                         Ÿ
                                    7365    00185000  Ÿ                                                                     Ÿ
                                                      ¾þþþþþþþþþþþþþþþþþþþþþþþþþþþþþþþþþþþþþþþþþþþþþþþþþþþþþþþþþþþþþþþþþþþþþ»
0000000                00000 00080  7366    00186000  ESTWA    RECORD BEGIN
 000000                             7374  1 00187000  ESTSDWA    DS    A                   SDWA ptr
 000004 00000000                    7375  1 00188000  EST99CBP   DC    A(0)                POINTER TO SVC99 CONTROL
 000008 0000000000000000            7376  1 00189000  EST99CB    DC    XL20'00'            SVC99 ALLOCATION BLOCK
 00001C 00000000                    7377  1 00190000  EST99US    DC    A(0)                POINTER TO DDNAME ALLOCATION
 000020 00000000                    7378  1 00191000             DC    A(0)                POINTER TO SYSOUT CLASS
 000024 00000000                    7379  1 00192000             DC    A(0)                POINTER TO FREE=CLOSE
 000028 000000000000                7380  1 00193000  EST99T1    DC    AL2(0,0,0)
 00002E                             7381  1 00194000  ESTDDNAM   DS    CL8                 DDNAME area
 000036 0000000000005C              7382  1 00195000  EST99T2    DC    AL2(0,0,0),CL1'*'
 00003D 000000000000                7383  1 00196000  EST99T3    DC    AL2(0,0,0)
                                    7384  1 00197000
                                    7385  1 00198000  ESTPRSEG   SEGCB
 000044 00                          7386  1 01-SEGCB +$$$SEGCB26   DS  0F
 ESTPRSEGCOD.ESTPR 01 EQ
 ESTPRSEGCOD.ESTPR 02 EQ
 ESTPRSEGCOD.ESTPR 03 EQ
 ESTPRSEGCOD.ESTPR 04 EQ
 ESTPRSEGCOD.ESTPR 05 EQ
 ESTPRSEGCOD.ESTPR 06 EQ
 ESTPRSEGCOD.ESTPR 07 EQ
 000045 00                          7461  1 01-SEGCB +           DC    X'00'               Reserved
 000046 0000                              1          +
 000048 00000000                    7462  1 01-SEGCB +ESTPRSEGMAXF   DC A(0)               Maximum buffer length
 00004C 00000000                    7463  1 01-SEGCB +ESTPRSEGMRKF   DC A(0)               Length at last mark
 000050 00000000                    7464  1 01-SEGCB +ESTPRSEGLENF   DC A(0)               Current length
 000054 00000000                    7465  1 01-SEGCB +ESTPRSEGINDF   DC A(0)               Overflow/indent count
 000058 00000000                    7466  1 01-SEGCB +ESTPRSEGERR   DC A(0)                Address of error recovery routine
 00005C 0000000000000000            7467  1 01-SEGCB +           DC    2F'0'               Reserved
 000064 00000000                    7468  1 01-SEGCB +ESTPRSEGLOC   DC A(0)                Location of buffer
 000068 00000000                    7469  1 01-SEGCB +ESTPRSEGRTN   DC A(0)                Processing routine
 00006C 0000000000000000            7470  1 01-SEGCB +           DC    4F'0'               Reserved
 00007C 00000000                    7471  1 01-SEGCB +ESTPRSEGUSR   DC A(0)                USER field
                                    7472  1 01-SEGCB +ESTPRSEG   EQU   $$$SEGCB26,*-$$$SEGCB26,C'X'
 000080                00080 00080  7473    00199000           END
                                    7482    00200000  þþþþ
 0001AE 90DF B0D4            000D4  7483    00201000  ESTAEFMT PROC  ESTWA
 0001B2 58F0 C014/0DEF       00014  7494             +
 0001B8 C5E2E3C1C5C6D4E3            7496             +
 0001C0 98DF B0D4            000D4  7497             +
 0001C4 50E0 D000            00000  7500             +
 0001C8 900C D004/188D       00004  7503             +
 0001CE 41D0 D0B8/0D70       000B8  7506             +
 0001D4 5010 8038            00000  7538    00202000           ST    R1,ESTSDWA          Save SDWA ptr
 USING  *,R7
1DUMPER   ESTAE Exit Routine                                                                                                Page   10
0Current Usings:  (*,R7) (ESTWA-(4+52),R8) (TVT,R11) (GVT,R12)
0Loc    Object Code    Addr1 Addr2  Stmt Lv Lineno    Source Statement           (Hibal 5, Asmedit 3.3)  HLASM R4.0  2002/06/26 11.18
+___    ______ ____    _____ _____  ____ __ ______    ______ _________
0USING  ESTWA-(4+52),R8
                                    7539    00203000  þþþþ
 0001D8 0ADE/0108                   7540    00205000           QSNAP 'ESTAEFMT'
 0001DC 4100 776C            00940  7544             +
 0001E0 0ADE/020400                 7545    00206000           QSNAP (R14,R15,R0,R1)
 0001E5 EF0100                      7549             +
 0001E8 0ADE                        7550    00206010           QSNAP @R1,64              a bit of the SDWA ml20020618
 0001EA 084000001000                7553             +
                                    7554    00206020  * 2002/06/18 mcl see if we're in supv state -- shouldn't be
 0001F0 1B11/070D                   7555    00206030           TESTAUTH STATE=YES        RC=0 is bad news here
 0001F4 BF14 701F/0A77       001F3  7559             +
 0001FA 12FF/4770 7042       00216  7561    00206040           IF    (R15,Z),BEGIN       in supervisor state
 000200 0ADE/0124                   7575  1 00206050             QSNAP 'ESTAEFMT entered in supervisor state'
 000204 4100 77A0            00974  7579  1          +
 000208 4510 703C            00210  7580  1 00206060             MODESET MODE=PROB         get out
 00020C 00000004                    7584  1          +
 000210 5810 1000/0A6B       00000  7585  1          +
 000216                             7587    00206070           END   ,                   (supervisor state)
0                                   7592    00206090  *  If cancel w/o dump, don't build dumpfile.   ml 2002/06/25
0000216 5810 8038            00000  7594    00206110           L     R1,ESTSDWA          restore SDWA ptr
 USING  SDWA,R1                     7595    00206120           WITH  (SDWA,R1),BEGIN
 00021A                             7609  1 00206950             IF    (SDWAABCC+1,EQ,=X'2220'),ESTAEXIT
 00021A D501 7870 1005 00A44 00005  7620  1          +
 000220 4780 7114            002E8  7623  1          +
 DROP   SDWA,R1                     7629    00206960           END   ,                   (with SDWA)
                                                               ¿þþþþþþþþþþþþþþþþþþþþþþþþÜ
0                                   7638    00206980           Ÿ  Open an output file.  Ÿ
                                                               ¾þþþþþþþþþþþþþþþþþþþþþþþþ»
0000224 D207 8066 7774 0002E 00948  7640    00207000           MVC   ESTDDNAM,=CL8'DUMPxxxx'
 00022A                             7641    00208000           IF    (TVTSEQ,NZ),'L R15,TVTSEQ'    Use task sequence numbr
 00022A D603 B010 B010 00010 00010  7651             +
 000230 4780 7064            00238  7652             +
 000234 58F0 B010            00010  7658             +
 000238 7068           00238 00232  7663    00209000           ELSE  'L R15,TVTNO'                 Else use task number
 000238 47F0 706C            00240  7668             +
 00023C 58F0 B00C            0000C  7675             +
 000240 5AF0 77C4            00998  7680    00210000           A     R15,=A(100000)      Force high order zeros
 000244 4100 0004            00004  7681    00211000           BTD   ESTDDNAM+4,4,(R15)  Put taskno in DDNAME
 000248 4110 806A            00032  7698             +
 00024C 58E0 77C8/0DEE       0099C  7701             +
 000252 4110 8066            0002E  7703    00212000           LA    R1,ESTDDNAM         Dump file ddname
 000256 58E0 77CC/0DEE       009A0  7704    00213000           XCALL FINDDD              Locate any existing ddname
 00025C 4780 70EA            002BE  7708    00214000           IF    NZ,BEGIN            None found - allocate one
 000260                             7719  1 00215000             CLEAR EST99CB             Clear svc99 control block
 000260 D713 8040 8040 00008 00008  7725  1          +
 000266 4110 8040            00008  7726  1 00216000             LA    R1,EST99CB          Address of svc99 control block
 00026A 5010 803C            00004  7727  1 00217000             ST    R1,EST99CBP           save in rb pointer
 00026E 9680 803C      00004        7728  1 00218000             OI    EST99CBP,X'80'          mark as last parameter
 USING  S99RB,R1                    7729  1 00219000             WITH  (S99RB,R1),BEGIN    address SVC99 area
 000272 9214 1000      00000        7743  2 00220000               MVI   S99RBLN,20          Set length of control block
1DUMPER   ESTAE Exit Routine                                                                                                Page   11
0Current Usings:  (S99RB,R1) (*,R7) (ESTWA-(4+52),R8) (TVT,R11) (GVT,R12)
0Loc    Object Code    Addr1 Addr2  Stmt Lv Lineno    Source Statement           (Hibal 5, Asmedit 3.3)  HLASM R4.0  2002/06/26 11.18
+___    ______ ____    _____ _____  ____ __ ______    ______ _________
0000276 9201 1001      00001        7744  2 00221000               MVI   S99VERB,S99VRBAL    Set for allocation request
 00027A 9220 1002      00002        7745  2 00222000               MVI   S99FLG11,S99NOMNT   Set no mounting allowed
 00027E 4120 8054            0001C  7746  2 00223000               LA    R2,EST99US          Address of text unit list
 000282 5020 1008            00008  7747  2 00224000               ST    R2,S99TXTPP         Save in svc99 control block
 000286 4120 8060            00028  7748  2 00225000               LA    R2,EST99T1          Address of ddname unit
 00028A 5020 8054            0001C  7749  2 00226000               ST    R2,EST99US+0        Save in text unit pointer
 00028E 4120 806E            00036  7750  2 00227000               LA    R2,EST99T2          Address of msgclass unit
 000292 5020 8058            00020  7751  2 00228000               ST    R2,EST99US+4        Save in text unit pointer
 000296 4120 8075            0003D  7752  2 00229000               LA    R2,EST99T3          Address of free=close
 00029A 5020 805C            00024  7753  2 00230000               ST    R2,EST99US+8        Save in text unit pointer
 00029E 9680 805C      00024        7754  2 00231000               OI    EST99US+8,X'80'     Mark last unit pointer in list
 0002A2 D205 8060 7872 00028 00A46  7755  2 00232000               MVC   EST99T1(6),=AL2(DALDDNAM,1,8)
 0002A8 D205 806E 7878 00036 00A4C  7756  2 00233000               MVC   EST99T2(6),=AL2(DALSYSOU,1,1)
 0002AE 92C1 8074      0003C        7757  2 00234000               MVI   EST99T2+6,C'A'
 0002B2 D205 8075 787E 0003D 00A52  7758  2 00235000               MVC   EST99T3(6),=AL2(DALCLOSE,0,0)
 0002B8 4110 803C            00004  7759  2 00236000               LA    R1,EST99CBP         Point to svc parameter list
 0002BC 0A63                        7760  2 00237000               DYNALLOC ,                Allocate print file
 DROP   S99RB,R1                    7763  1 00238000             END   ,                     (with S99RB)
 0002BE                             7771    00239000           END   ,                     (allocate one)
 0002BE 4110 8066            0002E  7775    00240000           LA    R1,ESTDDNAM         Dump file ddname
 0002C2 41F0 807C            00044  7776    00241000           LA    R15,ESTPRSEG        Our SEGCB
 0002C6 58E0 77D0/0DEE       009A4  7777    00242000           VCALL PRTINIT             Open our DUMP dataset
 0002CC 4770 7114            002E8  7781    00243000           IF    Z,BEGIN             It opened...
                                    7792  1 00244000             ¿þþþþþþþþþþþþþþþþþþþþþþþþþþþþþÜ
                                    7793  1 00245000             Ÿ  Produce a formatted dump.  Ÿ
                                    7794  1 00246000             ¾þþþþþþþþþþþþþþþþþþþþþþþþþþþþþ»
 0002D0 5810 8038            00000  7795  1 00247000             L     R1,ESTSDWA
 0002D4 41F0 807C            00044  7796  1 00248000             LA    R15,ESTPRSEG
 0002D8 58E0 77D4/0DEE       009A8  7797  1 00249000             ACALL DUMPFMT             Format a dump
                                    7801  1 00250000             ¿þþþþþþþþþþþþþþþþþþþþþþþþþþÜ
                                    7802  1 00251000             Ÿ  Close the output file.  Ÿ
                                    7803  1 00252000             ¾þþþþþþþþþþþþþþþþþþþþþþþþþþ»
 0002DE 41F0 807C            00044  7804  1 00253000             LA    R15,ESTPRSEG
 0002E2 58E0 77D8/0DEE       009AC  7805  1 00254000             VCALL PRTCLOSE            Close it
 0002E8                             7809    00255000           END   ,                     (it opened)
00002E8                             7814    00256100  ESTAEXIT LABEL ,
 0002E8 18D8/980C D004       00004  7816    00257000           PEND
 DROP   ESTWA-(4+52),R8
 DROP   *,R7
 0002EE 58E0 D000/12FF       00000  7837             +
 0002F4 07FE                        7840             +
                                    7841    00258000
                                    7842    00259000           SEGDEF DUMMY              (Neatness)
1DUMPER   Dump Formatter Routine                                                                                            Page   12
0Current Usings:  (TVT,R11) (GVT,R12)
0Loc    Object Code    Addr1 Addr2  Stmt Lv Lineno    Source Statement           (Hibal 5, Asmedit 3.3)  HLASM R4.0  2002/06/26 11.18
+___    ______ ____    _____ _____  ____ __ ______    ______ _________
0                                   7844    00261000  ¿þþþþþþþþþþþþþþþþþþþþþþþþþþþþþþþþþþþþþþþþþþþþþþþþþþþþþþþþþþþþþþþþþþþþþÜ
                                    7845    00262000  Ÿ                                                                     Ÿ
                                    7846    00263000  Ÿ  DUMPFMT -- Routine to format a dump.                               Ÿ
                                    7847    00264000  Ÿ                                                                     Ÿ
                                    7848    00265000  Ÿ    On entry:                                                        Ÿ
                                    7849    00266000  Ÿ      R1 - SDWA ptr (0 = not available)                              Ÿ
                                    7850    00267000  Ÿ      R15- SEGCB ptr                                                 Ÿ
                                    7851    00268000  Ÿ                                                                     Ÿ
                                                      ¾þþþþþþþþþþþþþþþþþþþþþþþþþþþþþþþþþþþþþþþþþþþþþþþþþþþþþþþþþþþþþþþþþþþþþ»
0000000                00000 00008  7852    00269000  DFMTWA   RECORD BEGIN
 000000                             7860  1 00270000  DFMTSGP    DS    A                   SEGCB ptr
 000004                             7861  1 00271000  DFMTSDWA   DS    A                   SDWA ptr
 000008                00008 00008  7862    00272000           END
                                    7871    00273000  þþþþ
 0002F6 90DF B0D4            000D4  7872    00274000  DUMPFMT  XPROC DFMTWA
 0002FA 58F0 C014/0DEF       00014  7885             +
 000300 C4E4D4D7C6D4E340            7887             +
 000308 98DF B0D4            000D4  7888             +
 00030C 50E0 D000            00000  7891             +
 000310 900C D004/188D       00004  7894             +
 000316 41D0 D040/0D70       00040  7897             +
 00031C 5010 803C            00004  7929    00275000           ST    R1,DFMTSDWA         Save SDWA ptr
 USING  *,R7
 USING  DFMTWA-(4+52),R8
 000320 50F0 8038            00000  7930    00276000           ST    R15,DFMTSGP         Save SEGCB ptr
                                    7931    00277000           SEGDEF L:DFMTSGP
                                    7932    00278000  *
                                    7933    00279000  **mcl-   QSNAP 'DUMPFMT'
 000324 4110 77AF            00ACB  7934    00280000           SEG   'TASKNAME='         REPORT SUB-TASK NAME
 000328 4100 0009            00009  7938             +
 00032C 58F0 8038            00000  7944             +
 000330 58E0 7694/0DEE       009B0  7947             +
 000336 4110 B014            00014  7949    00281000           SEGT  TVTNAME             SET TASK NAME
 00033A 4100 0008            00008  7964             +
 00033E 58F0 8038            00000  7970             +
 000342 58E0 7698/0DEE       009B4  7973             +
 000348 4110 773C            00A58  7975    00282000           SEG   ',SEQUENCE='        REPORT TASK SEQUENCE NUMBER
 00034C 4100 000A            0000A  7979             +
 000350 58F0 8038            00000  7985             +
 000354 58E0 7694/0DEE       009B0  7988             +
 00035A 5810 B010/1B00       00010  7990    00283000           SEGDC TVTSEQ              SET SEQUENCE NUMBER
 000360 58F0 8038            00000  8004             +
 000364 58E0 769C/0DEE       009B8  8007             +
 00036A 1B00/58F0 8038       00000  8009    00284000           SEGWR ,
 000370 58E0 76A0/0DEE       009BC  8029             +
 000376 41A0 8038            00000  8031    00285000           LA    R10,DFMTWA
 USING  DFMTWA,R10                  8032    00286000           WITH  (DFMTWA,R10)
                                    8045    00287000           ¿þþþþþþþþþþþþþþþþþþþþþþþþþþþþþþþþþþþþþþþþþþþþþþþþþþÜ
                                    8046    00288000           Ÿ  Display PSW and registers from STAE work area.  Ÿ
                                    8047    00289000           ¾þþþþþþþþþþþþþþþþþþþþþþþþþþþþþþþþþþþþþþþþþþþþþþþþþþ»
 00037A 5860 A004/1266       00004  8048    00290000           IF    ('LT R6,DFMTSDWA',NZ),BEGIN
 000380 4780 707C            00398  8059             +
 USING  SDWA,R6                     8064  1 00291000             WITH  (SDWA,R6)
1DUMPER   Dump Formatter Routine                                                                                            Page   13
0Current Usings:  (SDWA,R6) (*,R7) (DFMTWA-(4+52),R8) (DFMTWA,R10) (TVT,R11) (GVT,R12)
0Loc    Object Code    Addr1 Addr2  Stmt Lv Lineno    Source Statement           (Hibal 5, Asmedit 3.3)  HLASM R4.0  2002/06/26 11.18
+___    ______ ____    _____ _____  ____ __ ______    ______ _________
0000384 4110 6000            00000  8077  1 00292000             LA    R1,SDWA
 000388 58E0 76A4/0DEE       009C0  8078  1 00293000             ACALL FMTSDWA             Format SDWA
 00038E                             8082  1 00295000             IF    (SDWAABCC+1,EQ,=X'2220'),DFMTEXIT
 00038E D501 7728 6005 00A44 00005  8093  1          +
 000394 4780 7100            0041C  8096  1          +
 DROP   SDWA,R6                     8102    00296000           END
                                    8111    00297000           ¿þþþþþþþþþþþþþþþþþþþþþþþþþþþþþþþþÜ
                                    8112    00298000           Ÿ  Display current symbol table  Ÿ
                                    8113    00299000           ¾þþþþþþþþþþþþþþþþþþþþþþþþþþþþþþþþ»
 000398                             8114    00300000           IF    (TVTSYMTB,NZ),BEGIN
 000398 D603 B0E0 B0E0 000E0 000E0  8124             +
 00039E 4780 708C            003A8  8125             +
 0003A2 58E0 76A8/0DEE       009C4  8130  1 00301000             ACALL FMTSYMTB            Format the symbol table
 0003A8                             8134    00302000           END
                                    8138    00303000           ¿þþþþþþþþþþþþþþþþþþþþþþþþÜ
                                    8139    00304000           Ÿ  Display trace table.  Ÿ
                                    8140    00305000           ¾þþþþþþþþþþþþþþþþþþþþþþþþ»
 0003A8 58E0 76AC/0DEE       009C8  8141    00306000           ACALL FMTTRC              Format trace table
                                    8145    00307000           ¿þþþþþþþþþþþþþþþþþþþþþþþþþþþþþþþþþþþþÜ
                                    8146    00308000           Ÿ  Call dump formatting co-routine.  Ÿ
                                    8147    00309000           ¾þþþþþþþþþþþþþþþþþþþþþþþþþþþþþþþþþþþþ»
 0003AE 58E0 B0F8/12EE       000F8  8148    00310000           IF    ('LT RAR,TVTDUMPR',NZ),BEGIN  Co-routine...
 0003B4 4780 70B8            003D4  8159             +
 0003B8 5810 B10C            0010C  8164  1 00311000             L     R1,TVTDUMPX         ->parm POINTER or =0
 0003BC 1211/4780 70AA       003C6  8165  1 00312000             IF    (R1,NZ),'L R1,@R1'  snap the pointer
 0003C2 5810 1000            00000  8180  1          +
 0003C6 70AE           003C6 003C0  8185  1 00313000             ELSE  'L R1,DFMTSDWA'     no parm, use SDWA
 0003C6 47F0 70B2            003CE  8190  1          +
 0003CA 5810 A004            00004  8197  1          +
 0003CE 58F0 A000            00000  8202  1 00314000             SEGLD ,                   R15 = SEGCB ptr
 0003D2 0DEE                        8208  1 00315000             BASR  RAR,RAR
 0003D4                             8209    00316000           END   ,
                                    8213    00317000           ¿þþþþþþþþþþþþþþþþþþþþþþþþþþÜ
                                    8214    00318000           Ÿ  Format control blocks.  Ÿ
                                    8215    00319000           ¾þþþþþþþþþþþþþþþþþþþþþþþþþþ»
 0003D4 4110 76B0            009CC  8216    00320000           SEGWR 'Dumper done.'
 0003D8 4100 000C            0000C  8221             +
 0003DC 58F0 A000            00000  8227             +
 0003E0 58E0 76A0/0DEE       009BC  8230             +
                                    8232    00321000
 0003E6 4110 7746            00A62  8233    00322000           SEGWR 'First part of GVT:'
 0003EA 4100 0012            00012  8238             +
 0003EE 58F0 A000            00000  8244             +
 0003F2 58E0 76A0/0DEE       009BC  8247             +
 0003F8 4110 77B8            00AD4  8249    00323000           SEGWR ' '
 0003FC 4100 0001            00001  8254             +
 000400 58F0 A000            00000  8260             +
 000404 58E0 76A0/0DEE       009BC  8263             +
                                    8265    00324000           AGO   .TEMP
                                    8266    00337000  .TEMP    ANOP
                                    8267    00338000
 00040A 4110 77B8            00AD4  8268    00339000           SEGWR ' '
 00040E 4100 0001            00001  8273             +
 000412 58F0 A000            00000  8279             +
1DUMPER   Dump Formatter Routine                                                                                            Page   14
0Current Usings:  (*,R7) (DFMTWA-(4+52),R8) (DFMTWA,R10) (TVT,R11) (GVT,R12)
0Loc    Object Code    Addr1 Addr2  Stmt Lv Lineno    Source Statement           (Hibal 5, Asmedit 3.3)  HLASM R4.0  2002/06/26 11.18
+___    ______ ____    _____ _____  ____ __ ______    ______ _________
0000416 58E0 76A0/0DEE       009BC  8282             +
 00041C 18D8/980C D004       00004  8284    00340000  DFMTEXIT PEND
 DROP   DFMTWA,R10
 DROP   DFMTWA-(4+52),R8
 DROP   *,R7
 000422 58E0 D000/12FF       00000  8311             +
 000428 07FE                        8314             +
1DUMPER   Dump Formatter Routine                                                                                            Page   15
0Current Usings:  (TVT,R11) (GVT,R12)
0Loc    Object Code    Addr1 Addr2  Stmt Lv Lineno    Source Statement           (Hibal 5, Asmedit 3.3)  HLASM R4.0  2002/06/26 11.18
+___    ______ ____    _____ _____  ____ __ ______    ______ _________
0                                   8316    00342000  ¿þþþþþþþþþþþþþþþþþþþþþþþþþþþþþþþþþþþþþþþþþþþþþþþþþþþþþþþþþþþþþþþþþþþþþÜ
                                    8317    00343000  Ÿ                                                                     Ÿ
                                    8318    00344000  Ÿ  FMTSDWA -- Format the STAE work area (SDWA).                       Ÿ
                                    8319    00345000  Ÿ                                                                     Ÿ
                                    8320    00346000  Ÿ    On entry:                                                        Ÿ
                                    8321    00347000  Ÿ      R1 - SDWA ptr                                                  Ÿ
                                    8322    00348000  Ÿ                                                                     Ÿ
                                                      ¾þþþþþþþþþþþþþþþþþþþþþþþþþþþþþþþþþþþþþþþþþþþþþþþþþþþþþþþþþþþþþþþþþþþþþ»
000042A 90DF B0D4            000D4  8323    00349000  FMTSDWA  PROC
 00042E 58F0 C014/0DEF       00014  8333             +
 000434 C6D4E3E2C4E6C140            8335             +
 00043C 98DF B0D4            000D4  8336             +
 000440 50E0 D000            00000  8339             +
 000444 900C D004/188D       00004  8342             +
 00044A 41D0 D038/0D70       00038  8344             +
 USING  *,R7                        8367    00350000           WITH  (DFMTWA,R10)        Entry assumption
 USING  DFMTWA,R10
                                    8380    00351000
 000450 1861                        8381    00352000           LR    R6,R1
 USING  SDWA,R6                     8382    00353000           WITH  (SDWA,R6)
                                    8395    00353010  * 2002/06/18 mcl:  look for extension to get reason code
 000452 5830 6170            00170  8396    00353020           L     R3,SDWAXPAD         ->exten. addr list
 USING  SDWAPTRS,R3                 8397    00353030           WITH  (SDWAPTRS,R3),BEGIN
 000456 5850 3004            00004  8411  1 00353040             L     R5,SDWASRVP         ->extension
 DROP   SDWAPTRS,R3                 8412    00353050           END   ,                   (with R3)
 USING  SDWARC1,R5                  8420    00353060           WITH  (SDWARC1,R5)        SDWA extension
                                    8433    00354000           ¿þþþþþþþþþþþþþþþþþþþþþþþþþÜ
                                    8434    00355000           Ÿ  Write out abend text.  Ÿ
                                    8435    00356000           ¾þþþþþþþþþþþþþþþþþþþþþþþþþ»
 00045A 4110 7685            00AD5  8436    00357000           SEGB  'ABEND, code ='
 00045E 4100 000D            0000D  8441             +
 000462 58F0 A000            00000  8447             +
 000466 58E0 7588/0DEE       009D8  8450             +
 00046C 1F22/BF27 6005       00005  8452    00358000           L3    R2,SDWAABCC+1
 000472 5920 758C            009DC  8458    00359000           IF    (R2,GT,4095),BEGIN  SYSTEM ABEND
 000476 47D0 7082            004D2  8470             +
 00047A 4110 7692            00AE2  8475  1 00360000             SEG   'S'
 00047E 4100 0001            00001  8479  1          +
 000482 58F0 A000            00000  8485  1          +
 000486 58E0 7560/0DEE       009B0  8488  1          +
 00048C 1812                        8490  1 00361000             LR    R1,R2
 00048E 8810 000C            0000C  8491  1 00362000             SRL   R1,12
 000492 4100 0003            00003  8492  1 00363000             SEGHX (R1),3
 000496 58F0 A000            00000  8508  1          +
 00049A 58E0 7590/0DEE       009E0  8511  1          +
                                    8513  1 00363100  * 2002/06/18 mcl:  reason code
 0004A0 9104 6004      00004        8514  1 00363200             IF    (SDWACMPF.SDWARCF,AND,(R5,NZ)),BEGIN got a code
 0004A4 47E0 7082/1255       004D2  8527  1          +
 0004AA 4780 7082            004D2  8538  1          +
 0004AE 4110 7693            00AE3  8543  2 00363300               SEG   '-'
 0004B2 4100 0001            00001  8547  2          +
 0004B6 58F0 A000            00000  8553  2          +
 0004BA 58E0 7560/0DEE       009B0  8556  2          +
1DUMPER   Dump Formatter Routine                                                                                            Page   16
0Current Usings:  (SDWARC1,R5) (SDWA,R6) (*,R7) (DFMTWA,R10) (TVT,R11) (GVT,R12)
0Loc    Object Code    Addr1 Addr2  Stmt Lv Lineno    Source Statement           (Hibal 5, Asmedit 3.3)  HLASM R4.0  2002/06/26 11.18
+___    ______ ____    _____ _____  ____ __ ______    ______ _________
00004C0 5810 502C            0002C  8558  2 00363400               SEGHX SDWACRC,8           code is a fullword
 0004C4 4100 0008            00008  8569  2          +
 0004C8 58F0 A000            00000  8575  2          +
 0004CC 58E0 7590/0DEE       009E0  8578  2          +
 0004D2                             8580  1 00363500             END   ,                   (got a code)
 0004D2                             8584    00364000           END   ,                   (SYSTEM)
 0004D2 7086           004D2 00478  8588    00365000           ELSE  BEGIN               USER ABEND
 0004D2 47F0 70A6            004F6  8593             +
 0004D6 4110 7694            00AE4  8599  1 00366000             SEG   'U'
 0004DA 4100 0001            00001  8603  1          +
 0004DE 58F0 A000            00000  8609  1          +
 0004E2 58E0 7560/0DEE       009B0  8612  1          +
 0004E8 1812/1B00                   8614  1 00367000             SEGDC (R2)
 0004EC 58F0 A000            00000  8628  1          +
 0004F0 58E0 7568/0DEE       009B8  8631  1          +
 0004F6                             8633    00368000           END   ,                   (USER)
 0004F6 1B00/58F0 A000       00000  8637    00369000           SEGWR
 0004FC 58E0 756C/0DEE       009BC  8657             +
                                    8659    00370000
 000502 4110 7684            00AD4  8660    00371000           SEGWR ' '
 000506 4100 0001            00001  8665             +
 00050A 58F0 A000            00000  8671             +
 00050E 58E0 756C/0DEE       009BC  8674             +
                                    8676    00372000
 000514                             8677    00373000           IF    (SDWAABCC+1,EQ,=X'2220'),ESTEXIT  Exit if cancel
 000514 D501 75F4 6005 00A44 00005  8688             +
 00051A 4780 71E4            00634  8691             +
                                    8697    00374000           ¿þþþþþþþþþþþþþþþþþþþþþþþþþþþþþþÜ
                                    8698    00375000           Ÿ  Display PSW and registers.  Ÿ
                                    8699    00376000           ¾þþþþþþþþþþþþþþþþþþþþþþþþþþþþþþ»
 00051E 4110 7684            00AD4  8700    00377000           SEGWR ' '
 000522 4100 0001            00001  8705             +
 000526 58F0 A000            00000  8711             +
 00052A 58E0 756C/0DEE       009BC  8714             +
 000530 4110 7695            00AE5  8716    00378000           SEG   'PSW addr = '
 000534 4100 000B            0000B  8720             +
 000538 58F0 A000            00000  8726             +
 00053C 58E0 7560/0DEE       009B0  8729             +
 000542 1F00/4300 6071       00071  8731    00379000           LC    R0,SDWAILC1
 000548 5810 606C            0006C  8736    00380000           L     R1,SDWANXT1
 00054C 58F0 A000            00000  8737    00381000           SEGLD
 000550 58E0 7594/0DEE       009E4  8743    00382000           ACALL DISPPSW
 000556 1B00/58F0 A000       00000  8747    00383000           SEGWR
 00055C 58E0 756C/0DEE       009BC  8767             +
                                    8769    00384000
 000562 4110 76A0            00AF0  8770    00385000           SEG   'SVC PSW addr = '
 000566 4100 000F            0000F  8774             +
 00056A 58F0 A000            00000  8780             +
 00056E 58E0 7560/0DEE       009B0  8783             +
 000574 1F00/4300 6081       00081  8785    00386000           LC    R0,SDWAILC2
 00057A 5810 607C            0007C  8790    00387000           L     R1,SDWANXT2
 00057E 58F0 A000            00000  8791    00388000           SEGLD
 000582 58E0 7594/0DEE       009E4  8797    00389000           ACALL DISPPSW
 000588 1B00/58F0 A000       00000  8801    00390000           SEGWR
1DUMPER   Dump Formatter Routine                                                                                            Page   17
0Current Usings:  (SDWARC1,R5) (SDWA,R6) (*,R7) (DFMTWA,R10) (TVT,R11) (GVT,R12)
0Loc    Object Code    Addr1 Addr2  Stmt Lv Lineno    Source Statement           (Hibal 5, Asmedit 3.3)  HLASM R4.0  2002/06/26 11.18
+___    ______ ____    _____ _____  ____ __ ______    ______ _________
000058E 58E0 756C/0DEE       009BC  8821             +
                                    8823    00391000
 000594 4110 7684            00AD4  8824    00392000           SEGWR ' '
 000598 4100 0001            00001  8829             +
 00059C 58F0 A000            00000  8835             +
 0005A0 58E0 756C/0DEE       009BC  8838             +
 0005A6 4110 7624            00A74  8840    00393000           SEGWR 'Registers:'
 0005AA 4100 000A            0000A  8845             +
 0005AE 58F0 A000            00000  8851             +
 0005B2 58E0 756C/0DEE       009BC  8854             +
 0005B8 1B00/58F0 A000       00000  8856    00394000           SEGWR
 0005BE 58E0 756C/0DEE       009BC  8876             +
 0005C4 4120 6018            00018  8878    00395000           LA    R2,SDWAGRSV         Register area
 0005C8 1B33                        8879    00396000           CLEAR R3                  Counter
 0005CA 5930 7598            009E8  8883    00397000           WHILE (R3,LE,15),BEGIN
 0005CE 4730 71E4            00634  8897             +
 0005D2 4110 76AF            00AFF  8902  1 00398000             SEG   '  R'
 0005D6 4100 0003            00003  8906  1          +
 0005DA 58F0 A000            00000  8912  1          +
 0005DE 58E0 7560/0DEE       009B0  8915  1          +
 0005E4 1813/1B00                   8917  1 00399000             SEGDC (R3)
 0005E8 58F0 A000            00000  8931  1          +
 0005EC 58E0 7568/0DEE       009B8  8934  1          +
 0005F2 4110 76B2            00B02  8936  1 00400000             SEG   '='
 0005F6 4100 0001            00001  8940  1          +
 0005FA 58F0 A000            00000  8946  1          +
 0005FE 58E0 7560/0DEE       009B0  8949  1          +
 000604 5810 2000            00000  8951  1 00401000             SEGLOC L:@R2
 000608 58F0 A000            00000  8961  1          +
 00060C 58E0 759C/0DEE       009EC  8964  1          +
 000612 4120 2004            00004  8966  1 00402000             LA    R2,@R2+4            Next register location
 000616 4130 3001            00001  8967  1 00403000             LA    R3,@R3+1            Next register
 00061A 1803                        8968  1 00404000             LR    R0,R3
 00061C 5400 75A0            009F0  8969  1 00405000             N     R0,=A(3)            Time for a new line?
 000620 4770 71E0/1B00       00630  8970  1 00406000             IF    Z,'SEGWR'           Yep
 000626 58F0 A000            00000  8999  2          +
 00062A 58E0 756C/0DEE       009BC  9002  1          +
 000630 47F0 717A            005CA  9008    00407000           END
                                    9013    00408000
 000634 18D8/980C D004       00004  9014    00409000  ESTEXIT  PEND
 DROP   SDWARC1,R5
 DROP   SDWA,R6
 DROP   DFMTWA,R10
 DROP   *,R7
 00063A 58E0 D000/12FF       00000  9046             +
 000640 07FE                        9049             +
1DUMPER   Dump Formatter Routine                                                                                            Page   18
0Current Usings:  (TVT,R11) (GVT,R12)
0Loc    Object Code    Addr1 Addr2  Stmt Lv Lineno    Source Statement           (Hibal 5, Asmedit 3.3)  HLASM R4.0  2002/06/26 11.18
+___    ______ ____    _____ _____  ____ __ ______    ______ _________
0                                   9051    00411000  ¿þþþþþþþþþþþþþþþþþþþþþþþþþþþþþþþþþþþþþþþþþþþþþþþþþþþþþþþþþþþþþþþþþþþþþÜ
                                    9052    00412000  Ÿ                                                                     Ÿ
                                    9053    00413000  Ÿ  FMTSYMTB -- Format this task's symbol table.                       Ÿ
                                    9054    00414000  Ÿ                                                                     Ÿ
                                                      ¾þþþþþþþþþþþþþþþþþþþþþþþþþþþþþþþþþþþþþþþþþþþþþþþþþþþþþþþþþþþþþþþþþþþþþ»
0000642 90DF B0D4            000D4  9055    00415000  FMTSYMTB PROC
 000646 58F0 C014/0DEF       00014  9065             +
 00064C C6D4E3E2E8D4E3C2            9067             +
 000654 98DF B0D4            000D4  9068             +
 000658 50E0 D000            00000  9071             +
 00065C 900C D004/188D       00004  9074             +
 000662 41D0 D038/0D70       00038  9076             +
 USING  *,R7                        9099    00416000           WITH  (DFMTWA,R10),BEGIN
 USING  DFMTWA,R10
 000668 4110 746C            00AD4  9113  1 00417000             SEGWR ' '
 00066C 4100 0001            00001  9118  1          +
 000670 58F0 A000            00000  9124  1          +
 000674 58E0 7354/0DEE       009BC  9127  1          +
 00067A 4110 738C            009F4  9129  1 00418000             SEGWR 'Symbol table'
 00067E 4100 000C            0000C  9134  1          +
 000682 58F0 A000            00000  9140  1          +
 000686 58E0 7354/0DEE       009BC  9143  1          +
 00068C 4110 7398            00A00  9145  1 00419000             SEGWR '    Symbol   Address  Length'
 000690 4100 001C            0001C  9150  1          +
 000694 58F0 A000            00000  9156  1          +
 000698 58E0 7354/0DEE       009BC  9159  1          +
 00069E 4110 73B4            00A1C  9161  1 00420000             SEGWR '    ------   -------  ------'
 0006A2 4100 001C            0001C  9166  1          +
 0006A6 58F0 A000            00000  9172  1          +
 0006AA 58E0 7354/0DEE       009BC  9175  1          +
 0006B0 5830 B0E0            000E0  9177  1 00421000             L     R3,TVTSYMTB         SET FIRST ADDRESS OF TABLE
 0006B4 1233/4780 70C0       00728  9178  1 00422000             WHILE (R3,NZ),BEGIN       PRINT SYMBOL TABLE
 USING  SYMENTRY,R3                 9194  2 00423000               WITH  (SYMENTRY,R3),BEGIN
 0006BA 4110 73D0            00A38  9208  3 00424000                 SEG   '    '              ADD SPACERS
 0006BE 4100 0004            00004  9212  3          +
 0006C2 58F0 A000            00000  9218  3          +
 0006C6 58E0 7348/0DEE       009B0  9221  3          +
 0006CC 4110 3004            00004  9223  3 00425000                 SEGB  SYMNAME             ADD SYMBOL NAME
 0006D0 4100 0008            00008  9238  3          +
 0006D4 58F0 A000            00000  9244  3          +
 0006D8 58E0 7370/0DEE       009D8  9247  3          +
 0006DE 5810 300C            0000C  9249  3 00426000                 SEGHX SYMLOC,8            ADD LOCATION
 0006E2 4100 0008            00008  9260  3          +
 0006E6 58F0 A000            00000  9266  3          +
 0006EA 58E0 7378/0DEE       009E0  9269  3          +
 0006F0 4110 746C            00AD4  9271  3 00427000                 SEG   ' '
 0006F4 4100 0001            00001  9275  3          +
 0006F8 58F0 A000            00000  9281  3          +
 0006FC 58E0 7348/0DEE       009B0  9284  3          +
 000702 5810 3010            00010  9286  3 00428000                 SEGHX SYMLEN,8            ADD LENGTH
 000706 4100 0008            00008  9297  3          +
 00070A 58F0 A000            00000  9303  3          +
 00070E 58E0 7378/0DEE       009E0  9306  3          +
1DUMPER   Dump Formatter Routine                                                                                            Page   19
0Current Usings:  (SYMENTRY,R3) (*,R7) (DFMTWA,R10) (TVT,R11) (GVT,R12)
0Loc    Object Code    Addr1 Addr2  Stmt Lv Lineno    Source Statement           (Hibal 5, Asmedit 3.3)  HLASM R4.0  2002/06/26 11.18
+___    ______ ____    _____ _____  ____ __ ______    ______ _________
0000714 1B00/58F0 A000       00000  9308  3 00429000                 SEGWR ,                   WRITE SYMBOL ENTRY
 00071A 58E0 7354/0DEE       009BC  9328  3          +
 000720 5830 3000            00000  9330  3 00430000                 L     R3,SYMNEXT          CHAIN TO NEXT SYMBOL
 DROP   SYMENTRY,R3                 9331  2 00431000               END   ,
 000724 47F0 704C            006B4  9339  1 00432000             END   ,
 DROP   DFMTWA,R10                  9344    00433000           END   ,
 000728 18D8/980C D004       00004  9352    00434000           PEND
 DROP   *,R7
 00072E 58E0 D000/12FF       00000  9368             +
 000734 07FE                        9371             +
1DUMPER   Dump Formatter Routine                                                                                            Page   20
0Current Usings:  (TVT,R11) (GVT,R12)
0Loc    Object Code    Addr1 Addr2  Stmt Lv Lineno    Source Statement           (Hibal 5, Asmedit 3.3)  HLASM R4.0  2002/06/26 11.18
+___    ______ ____    _____ _____  ____ __ ______    ______ _________
0                                   9373    00436000  ¿þþþþþþþþþþþþþþþþþþþþþþþþþþþþþþþþþþþþþþþþþþþþþþþþþþþþþþþþþþþþþþþþþþþþþÜ
                                    9374    00437000  Ÿ                                                                     Ÿ
                                    9375    00438000  Ÿ  FMTTRC -- Format this task's trace table.                          Ÿ
                                    9376    00439000  Ÿ                                                                     Ÿ
                                                      ¾þþþþþþþþþþþþþþþþþþþþþþþþþþþþþþþþþþþþþþþþþþþþþþþþþþþþþþþþþþþþþþþþþþþþþ»
0000000                00000 00010  9377    00440000  FTRCWA   RECORD BEGIN
 000000                             9385  1 00441000  FTRCWORK   DS    CL16                Work area
 000010                00010 00010  9386    00442000           END
                                    9395    00443000  þþþþ
 000736 90DF B0D4            000D4  9396    00444000  FMTTRC   PROC  FTRCWA
 00073A 58F0 C014/0DEF       00014  9407             +
 000740 C6D4E3E3D9C34040            9409             +
 000748 98DF B0D4            000D4  9410             +
 00074C 50E0 D000            00000  9413             +
 000750 900C D004/188D       00004  9416             +
 000756 41D0 D048/0D70       00048  9419             +
 USING  *,R7                        9451    00445000           WITH  (DFMTWA,R10)        Entry assumption
 USING  FTRCWA-(4+52),R8
 USING  DFMTWA,R10
                                    9464    00446000
 00075C 4110 7378            00AD4  9465    00447000           SEGWR ' '
 000760 4100 0001            00001  9470             +
 000764 58F0 A000            00000  9476             +
 000768 58E0 7260/0DEE       009BC  9479             +
 00076E 4110 73A7            00B03  9481    00448000           SEG   'Trace table entries (table @ '
 000772 4100 001D            0001D  9485             +
 000776 58F0 A000            00000  9491             +
 00077A 58E0 7254/0DEE       009B0  9494             +
 000780 5810 B0C8            000C8  9496    00449000           SEGHX L:TVTTRBEG,8
 000784 4100 0008            00008  9507             +
 000788 58F0 A000            00000  9513             +
 00078C 58E0 7284/0DEE       009E0  9516             +
 000792 4110 73C4            00B20  9518    00450000           SEG   '/'
 000796 4100 0001            00001  9522             +
 00079A 58F0 A000            00000  9528             +
 00079E 58E0 7254/0DEE       009B0  9531             +
 0007A4 5810 B0D0            000D0  9533    00451000           SEGHX L:TVTTREND,8
 0007A8 4100 0008            00008  9544             +
 0007AC 58F0 A000            00000  9550             +
 0007B0 58E0 7284/0DEE       009E0  9553             +
 0007B6 4110 73C5            00B21  9555    00452000           SEG   ' cur='
 0007BA 4100 0005            00005  9559             +
 0007BE 58F0 A000            00000  9565             +
 0007C2 58E0 7254/0DEE       009B0  9568             +
 0007C8 5810 B0CC            000CC  9570    00453000           SEGHX L:TVTTRCUR,8
 0007CC 4100 0008            00008  9581             +
 0007D0 58F0 A000            00000  9587             +
 0007D4 58E0 7284/0DEE       009E0  9590             +
 0007DA 4110 73CA            00B26  9592    00454000           SEGWR ')'
 0007DE 4100 0001            00001  9597             +
 0007E2 58F0 A000            00000  9603             +
 0007E6 58E0 7260/0DEE       009BC  9606             +
 0007EC 4110 7378            00AD4  9608    00455000           SEGWR ' '
1DUMPER   Dump Formatter Routine                                                                                            Page   21
0Current Usings:  (*,R7) (FTRCWA-(4+52),R8) (DFMTWA,R10) (TVT,R11) (GVT,R12)
0Loc    Object Code    Addr1 Addr2  Stmt Lv Lineno    Source Statement           (Hibal 5, Asmedit 3.3)  HLASM R4.0  2002/06/26 11.18
+___    ______ ____    _____ _____  ____ __ ______    ______ _________
00007F0 4100 0001            00001  9613             +
 0007F4 58F0 A000            00000  9619             +
 0007F8 58E0 7260/0DEE       009BC  9622             +
 0007FE 4110 71F4            00950  9624    00456000           SEG   '  Time        ID        '
 000802 4100 0018            00018  9628             +
 000806 58F0 A000            00000  9634             +
 00080A 58E0 7254/0DEE       009B0  9637             +
 000810 4110 7322            00A7E  9639    00457000           SEGWR 'R0        R1        R14                        R15'
 000814 4100 0032            00032  9644             +
 000818 58F0 A000            00000  9650             +
 00081C 58E0 7260/0DEE       009BC  9653             +
 000822 5840 B0CC            000CC  9655    00458000           L     R4,TVTTRCUR         Most recent entry address
 000826                             9656    00459000           LOOP  BEGIN
 000826 4144 0050            00050  9662  1 00460000             LA    R4,L'TRCENTRY(R4)   Step to next entry
 00082A 5940 B0D0            000D0  9663  1 00461000             IF    (R4,GE,TVTTREND),'L R4,TVTTRBEG'  Check for wrap
 00082E 4750 70DA            00836  9675  1          +
 000832 5840 B0C8            000C8  9681  1          +
 USING  TRCENTRY,R4                 9686  1 00462000             WITH  (TRCENTRY,R4)
 000836                             9699  1 00463000             IF    (TRCCLOCK,NZ),BEGIN  Display this entry...
 000836 D607 4000 4000 00000 00000  9709  1          +
 00083C 4780 71A2            008FE  9710  1          +
 000840 9801 4000            00000  9715  2 00464000               LM    R0,R1,TRCCLOCK
 000844 41F0 8038            00000  9716  2 00465000               LA    R15,FTRCWORK        Work area
 000848 58E0 72E0/0DEE       00A3C  9717  2 00466000               VCALL FMTTIME             Format time
 00084E 58F0 A000            00000  9721  2 00467000               SEGB  (R1),(R0)
 000852 58E0 727C/0DEE       009D8  9741  2          +
 000858 4110 4008            00008  9743  2 00468000               SEG   TRCNAME             Trace id
 00085C 4100 0008            00008  9757  2          +
 000860 58F0 A000            00000  9763  2          +
 000864 58E0 7254/0DEE       009B0  9766  2          +
 00086A 4110 7354            00AB0  9768  2 00469000               SEG   '  '
 00086E 4100 0002            00002  9772  2          +
 000872 58F0 A000            00000  9778  2          +
 000876 58E0 7254/0DEE       009B0  9781  2          +
 00087C 5810 4010            00010  9783  2 00470000               SEGHX L:TRCREGS,8         R0
 000880 4100 0008            00008  9794  2          +
 000884 58F0 A000            00000  9800  2          +
 000888 58E0 7284/0DEE       009E0  9803  2          +
 00088E 4110 7354            00AB0  9805  2 00471000               SEG   '  '
 000892 4100 0002            00002  9809  2          +
 000896 58F0 A000            00000  9815  2          +
 00089A 58E0 7254/0DEE       009B0  9818  2          +
 0008A0 5810 4014            00014  9820  2 00472000               SEGHX L:TRCREGS+4,8       R1
 0008A4 4100 0008            00008  9831  2          +
 0008A8 58F0 A000            00000  9837  2          +
 0008AC 58E0 7284/0DEE       009E0  9840  2          +
 0008B2 4110 7354            00AB0  9842  2 00473000               SEG   '  '
 0008B6 4100 0002            00002  9846  2          +
 0008BA 58F0 A000            00000  9852  2          +
 0008BE 58E0 7254/0DEE       009B0  9855  2          +
 0008C4 5810 4048            00048  9857  2 00474000               SEGLOC L:TRCREGS+14*4     R14
 0008C8 58F0 A000            00000  9867  2          +
 0008CC 58E0 7290/0DEE       009EC  9870  2          +
 0008D2 4100 0046            00046  9872  2 00475000               SEGCOL 70
1DUMPER   Dump Formatter Routine                                                                                            Page   22
0Current Usings:  (TRCENTRY,R4) (*,R7) (FTRCWA-(4+52),R8) (DFMTWA,R10) (TVT,R11) (GVT,R12)
0Loc    Object Code    Addr1 Addr2  Stmt Lv Lineno    Source Statement           (Hibal 5, Asmedit 3.3)  HLASM R4.0  2002/06/26 11.18
+___    ______ ____    _____ _____  ____ __ ______    ______ _________
00008D6 58F0 A000            00000  9885  2          +
 0008DA 58E0 72E4/0DEE       00A40  9888  2          +
 0008E0 5810 404C            0004C  9890  2 00476000               SEGHX L:TRCREGS+15*4,8    R15
 0008E4 4100 0008            00008  9901  2          +
 0008E8 58F0 A000            00000  9907  2          +
 0008EC 58E0 7284/0DEE       009E0  9910  2          +
 0008F2 1B00/58F0 A000       00000  9912  2 00477000               SEGWR ,
 0008F8 58E0 7260/0DEE       009BC  9932  2          +
 0008FE                             9934  1 00478000             END
 0008FE 5940 B0CC            000CC  9938  1 00479000             IF    (R4,EQ,TVTTRCUR),EXIT  Check if done
 000902 4780 71AE            0090A  9952  1          +
 000906 47F0 70CA            00826  9958    00480000           END
 DROP   TRCENTRY,R4
                                    9968    00481000
 00090A 4110 7378            00AD4  9969    00482000           SEGWR ' '
 00090E 4100 0001            00001  9974             +
 000912 58F0 A000            00000  9980             +
 000916 58E0 7260/0DEE       009BC  9983             +
 00091C 4110 7378            00AD4  9985    00483000           SEGWR ' '
 000920 4100 0001            00001  9990             +
 000924 58F0 A000            00000  9996             +
 000928 58E0 7260/0DEE       009BC  9999             +
 00092E 18D8/980C D004       00004 10001    00484000           PEND
 DROP   DFMTWA,R10
 DROP   FTRCWA-(4+52),R8
 DROP   *,R7
 000934 58E0 D000/12FF       00000 10027             +
 00093A 07FE                       10030             +
                                   10031    00485000
                                   10032    00486000           SEGDEF DUMMY              (Neatness)
                                   10033    00487000
                                   10034    00488000           QLTORG
1DUMPER   Subroutines                                                                                                       Page   23
0Current Usings:  (TVT,R11) (GVT,R12)
0Loc    Object Code    Addr1 Addr2  Stmt Lv Lineno    Source Statement           (Hibal 5, Asmedit 3.3)  HLASM R4.0  2002/06/26 11.18
+___    ______ ____    _____ _____  ____ __ ______    ______ _________
0                                  10107    00490000  ¿þþþþþþþþþþþþþþþþþþþþþþþþþþþþþþþþþþþþþþþþþþþþþþþþþþþþþþþþþþþþþþþþþþþþþÜ
                                   10108    00491000  Ÿ                                                                     Ÿ
                                   10109    00492000  Ÿ  DISPPSW -- Routine to seg PSW addr and the instruction it          Ÿ
                                   10110    00493000  Ÿ    points to.                                                       Ÿ
                                   10111    00494000  Ÿ                                                                     Ÿ
                                   10112    00495000  Ÿ    On entry:                                                        Ÿ
                                   10113    00496000  Ÿ      R0 - PSW instruction length (in bytes)                         Ÿ
                                   10114    00497000  Ÿ      R1 - PSW IA address                                            Ÿ
                                   10115    00498000  Ÿ      R15- SEGCB ptr                                                 Ÿ
                                   10116    00499000  Ÿ                                                                     Ÿ
                                                      ¾þþþþþþþþþþþþþþþþþþþþþþþþþþþþþþþþþþþþþþþþþþþþþþþþþþþþþþþþþþþþþþþþþþþþþ»
0000000                00000 00009 10117    00500000  DPSWWA   RECORD BEGIN
 000000                            10125  1 00501000  DPSWSGP    DS    A                   SEGCB ptr
 000004                            10126  1 00502000  DPSWOTOK   DS    A                   Previous ESPIE token
 000008 00                         10127  1 00503000  DPSWSTAT   FLAG ,
 DPSWSTAT.DSPWEPIE 80 ONES         10131  1 00503100             FLAG  DSPWEPIE            ESPIE set
 000009                00009 00009 10136    00503200           END
                                   10145    00504000  þþþþ
 000B28 90DF B0D4            000D4 10146    00505000  DISPPSW  PROC  DPSWWA
 000B2C 58F0 C014/0DEF       00014 10157             +
 000B32 C4C9E2D7D7E2E640           10159             +
 000B3A 98DF B0D4            000D4 10160             +
 000B3E 50E0 D000            00000 10163             +
 000B42 900C D004/188D       00004 10166             +
 000B48 41D0 D044/0D70       00044 10169             +
 000B4E 50F0 8038            00000 10201    00506000           ST    R15,DPSWSGP
 USING  *,R7
 USING  DPSWWA-(4+52),R8
                                   10202    00507000           SEGDEF L:DPSWSGP
                                   10203    00508000
 000B52 4150 1000            00000 10204    00509000           LA    R5,@R1              PSW IA address
 000B56 1F50                       10205    00510000           SLR   R5,R0               Back up to actual instruction
 000B58 1815/58F0 8038       00000 10206    00511000           SEGLOC (R5)
 000B5E 58E0 723A/0DEE       00D88 10219             +
                                   10221    00512000
 000B64 1B11/070D                  10222    00512100           TESTAUTH STATE=YES        RC=0 is bad news here
 000B68 BF14 7019/0A77       00B67 10226             +
 000B6E 12FF/4770 7038       00B86 10228    00512200           IF    (R15,Z),BEGIN       in supervisor state
 000B74 0ADE/0123                  10242  1 00512300             QSNAP 'DISPPSW entered in supervisor state'
 000B78 4100 7260            00DAE 10246  1          +
 000B7C 947F 8040      00008       10247  1 00512400             CLEAR DSPWEPIE            don't attempt SPIE
 000B80                            10254  1 00512500             CLEAR DPSWOTOK            no prev token
 000B80 D703 803C 803C 00004 00004 10260  1          +
 000B86                            10261    00512600           END   ,                   (supervisor state)
 000B86 703C           00B86 00B72 10265    00513000           ELSE  BEGIN               problem state
 000B86 47F0 707A            00BC8 10270             +
 000B8A 0700/0ADE/0111             10276  1 00513010             QSNAP 'DISPPSW-ESPIE SET'
 000B90 4100 7283            00DD1 10280  1          +
 000B94 1B44                       10281  1 00513100             CLEAR R4                  Pre-set no message indication
 000B96 0700/4D10 705E       00BAC 10285  1 00514000             ESPIE SET,DPSWERR,(4,5)   Catch addressing exceptions
 000B9C 00000CB0                   10290  1          +
 000BA0 00000000/0C00              10291  1          +
 000BA6 0000/00000000              10293  1          +
1DUMPER   Subroutines                                                                                                       Page   24
0Current Usings:  (*,R7) (DPSWWA-(4+52),R8) (TVT,R11) (GVT,R12)
0Loc    Object Code    Addr1 Addr2  Stmt Lv Lineno    Source Statement           (Hibal 5, Asmedit 3.3)  HLASM R4.0  2002/06/26 11.18
+___    ______ ____    _____ _____  ____ __ ______    ______ _________
0000BAC 4100 0004            00004 10295  1          +
 000BB0 41F0 001C/0A6D       0001C 10296  1          +
 000BB6 5010 803C            00004 10298  1 00515000             ST    R1,DPSWOTOK         Save previous ESPIE token
 000BBA 9680 8040      00008       10299  1 00516000             SET   DSPWEPIE
                                   10305  1 00516100
 000BBE 0700/0ADE/0113             10306  1 00517000             QSNAP 'DISPPSW-after ESPIE'
 000BC4 4100 7294            00DE2 10310  1          +
 000BC8                            10311    00517100           END   ,                      (problem state)
 000BC8 D505 5000 5000 00000 00000 10315    00517200           CLC   @R5(6),@R5          May cause addressing exception
 000BCE 1845                       10316    00518000           LR    R4,R5               Save valid data ptr for below
                                   10317    00519000
 000BD0                            10318    00520000           IF    (@R5,EQ,X'FEDC'),BEGIN  Fail pseudo-instruction...
 000BD0 D501 725A 5000 00DA8 00000 10328             +
 000BD6 4770 70A4            00BF2 10329             +
 000BDA 1FFF/43F0 5002       00002 10334  1 00521000             LC    R15,@R5+2           Text len
 000BE0 06F0/12FF                  10341  1 00522000             CMPR  R15,@R5+3,@R5+3     May cause addressing exception
 000BE4 4740 709E            00BEC 10354  1          +
 000BE8 44F0 72BC            00E0A 10360  2          +
 000E09 00                                3          +
 000E0A D500 5003 5003 00003 00003 10367  2          +
 000BEC 4140 5002            00002 10379  1 00523000             LA    R4,@R5+2
 000BF0 1344                       10380  1 00524000             LCR   R4,R4
 000BF2                            10381    00525000           END
                                   10385    00526000
 000BF2 5810 803C            00004 10386    00527000  DPSWCONT L     R1,DPSWOTOK         Previous ESPIE token
 000BF6 9180 8040      00008       10387    00528000           IF    (DSPWEPIE),BEGIN    we have issued ESPIE
 000BFA 47E0 70C2            00C10 10397             +
 000BFE 4100 0008            00008 10402  1 00528010             ESPIE RESET,(1)           Restore SPIE
 000C02 41F0 001C/0A6D       0001C 10405  1          +
 000C08 0ADE/0113                  10407  1 00528100             QSNAP 'DISPPSW-after reset'
 000C0C 4100 72A7            00DF5 10411  1          +
 000C10                            10412    00529000           END   ,                      (we issued ESPIE)
                                   10416    00529100           ¿þþþþþþþþþþþþþþþþþþþþþþþþþþþþþþþþþþþÜ
                                   10417    00530000           Ÿ  Display additional information.  Ÿ
                                   10418    00531000           ¾þþþþþþþþþþþþþþþþþþþþþþþþþþþþþþþþþþþ»
 000C10 1244/4780 7154       00CA2 10419    00532000           IF    (R4,NZ),BEGIN       Additional info possible...
 000C16 4110 723E            00D8C 10433  1 00533000             SEG   ' -- '
 000C1A 4100 0004            00004 10437  1          +
 000C1E 58F0 8038            00000 10443  1          +
 000C22 58E0 7242/0DEE       00D90 10446  1          +
                                   10448  1 00534000
 000C28 1244/47D0 712E       00C7C 10449  1 00535000             IF    (R4,POS),BEGIN      Display instruction...
 000C2E 4810 4000            00000 10463  2 00536000               SEGHX LH:@R4,4
 000C32 4100 0004            00004 10473  2          +
 000C36 58F0 8038            00000 10479  2          +
 000C3A 58E0 7246/0DEE       00D94 10482  2          +
 000C40 1B00/58F0 8038       00000 10484  2 00537000               SEGB
 000C46 58E0 724A/0DEE       00D98 10504  2          +
 000C4C 4810 4002            00002 10506  2 00538000               SEGHX LH:@R4+2,4
 000C50 4100 0004            00004 10516  2          +
 000C54 58F0 8038            00000 10522  2          +
 000C58 58E0 7246/0DEE       00D94 10525  2          +
 000C5E 1B00/58F0 8038       00000 10527  2 00539000               SEGB
 000C64 58E0 724A/0DEE       00D98 10547  2          +
1DUMPER   Subroutines                                                                                                       Page   25
0Current Usings:  (*,R7) (DPSWWA-(4+52),R8) (TVT,R11) (GVT,R12)
0Loc    Object Code    Addr1 Addr2  Stmt Lv Lineno    Source Statement           (Hibal 5, Asmedit 3.3)  HLASM R4.0  2002/06/26 11.18
+___    ______ ____    _____ _____  ____ __ ______    ______ _________
0000C6A 4810 4004            00004 10549  2 00540000               SEGHX LH:@R4+4,4
 000C6E 4100 0004            00004 10559  2          +
 000C72 58F0 8038            00000 10565  2          +
 000C76 58E0 7246/0DEE       00D94 10568  2          +
 000C7C                            10570  1 00541000             END
                                   10574  1 00542000
 000C7C 7132           00C7C 00C2C 10575  1 00543000             ELSE  BEGIN               Fail text...
 000C7C 47F0 7154            00CA2 10580  1          +
 000C80 4110 5003/1F00       00003 10586  2 00544000               SETMSG @R5+3,LC:@R5+2
 000C86 4300 5002            00002 10602  2          +
 000C8A 1200/4770 714A       00C98 10603  2 00545000               IF    (R0,Z),'SETMSG "FAIL"'
 000C90 4110 724E            00D9C 10620  3          +
 000C94 4100 0004            00004 10621  2          +
 000C98 58F0 8038            00000 10626  2 00546000               SEG   (R1),(R0)
 000C9C 58E0 7242/0DEE       00D90 10645  2          +
 000CA2                            10647  1 00547000             END
 000CA2                            10651    00548000           END
 000CA2 18D8/980C D004       00004 10655    00549000           PEND
 DROP   DPSWWA-(4+52),R8
 DROP   *,R7
 000CA8 58E0 D000/12FF       00000 10676             +
 000CAE 07FE                       10679             +
                                   10680    00550000
 USING  *,R15                      10681    00551000  DPSWERR  WITH  (*,R15),BEGIN       ESPIE exit...
 USING  EPIE,R1                    10697  1 00552000             WITH  (EPIE,R1)
 000CB0 D203 104C F0F0 0004C 00DA0 10710  1 00553000             MVC   EPIEIA,=A(X'80000000'+DPSWCONT)  Resume address
 000CB6 07FE                       10711  1 00554000             BR    R14
 DROP   EPIE,R1                    10712    00555000           END
 DROP   *,R15
                                   10725    00556000
                                   10726    00557000           SEGDEF DUMMY              (Neatness)
1DUMPER   Subroutines                                                                                                       Page   26
0Current Usings:  (TVT,R11) (GVT,R12)
0Loc    Object Code    Addr1 Addr2  Stmt Lv Lineno    Source Statement           (Hibal 5, Asmedit 3.3)  HLASM R4.0  2002/06/26 11.18
+___    ______ ____    _____ _____  ____ __ ______    ______ _________
0                                  10728    00559000  ¿þþþþþþþþþþþþþþþþþþþþþþþþþþþþþþþþþþþþþþþþþþþþþþþþþþþþþþþþþþþþþþþþþþþþþÜ
                                   10729    00560000  Ÿ                                                                     Ÿ
                                   10730    00561000  Ÿ  SEGLOC -- Routine to seg an address plus "symbol+offset"           Ÿ
                                   10731    00562000  Ÿ    if possible.                                                     Ÿ
                                   10732    00563000  Ÿ                                                                     Ÿ
                                   10733    00564000  Ÿ    On entry:                                                        Ÿ
                                   10734    00565000  Ÿ      R1 - address                                                   Ÿ
                                   10735    00566000  Ÿ      R15- SEGCB ptr                                                 Ÿ
                                   10736    00567000  Ÿ                                                                     Ÿ
                                                      ¾þþþþþþþþþþþþþþþþþþþþþþþþþþþþþþþþþþþþþþþþþþþþþþþþþþþþþþþþþþþþþþþþþþþþþ»
0000000                00000 0000C 10737    00568000  SEGLWA   RECORD BEGIN
 000000                            10745  1 00569000  SEGLNAME   DS    CL8                 Symbol name
 000008                            10746  1 00570000  SEGLOFFS   DS    F                   Offset from symbol
 00000C                0000C 0000C 10747    00571000           END
                                   10756    00572000  þþþþ
 000CB8 90DF B0D4            000D4 10757    00573000  SEGLOC   XPROC SEGLWA
 000CBC 58F0 C014/0DEF       00014 10770             +
 000CC2 E2C5C7D3D6C34040           10772             +
 000CCA 98DF B0D4            000D4 10773             +
 000CCE 50E0 D000            00000 10776             +
 000CD2 900C D004/188D       00004 10779             +
 000CD8 41D0 D044/0D70       00044 10782             +
 USING  *,R7                       10814    00574000           CLEAR SEGLWA
 USING  SEGLWA-(4+52),R8
 000CDE D70B 8038 8038 00000 00000 10820             +
                                   10821    00575000
 000CE4 1861                       10822    00576000           LR    R6,R1               Save address
 000CE6 185F                       10823    00577000           LR    R5,R15              SEGCB ptr
                                   10824    00578000           SEGDEF (R5)
                                   10825    00579000           ¿þþþþþþþþþþþþþþþþþþþþþÜ
                                   10826    00580000           Ÿ  Absolute address.  Ÿ
                                   10827    00581000           ¾þþþþþþþþþþþþþþþþþþþþþ»
 000CE8 1816/4100 0008       00008 10828    00582000           SEGHX (R6),8
 000CEE 18F5/58E0 70B6       00D94 10845             +
 000CF4 0DEE                       10849             +
                                   10850    00583000           ¿þþþþþþþþþþþþþþþþþþþþþþþþþþþþþþþþÜ
                                   10851    00584000           Ÿ  Find closest symbol address.  Ÿ
                                   10852    00585000           ¾þþþþþþþþþþþþþþþþþþþþþþþþþþþþþþþþ»
 000CF6 4160 6000            00000 10853    00586000           LA    R6,@R6              Drop high bit
                                   10854    00587000
 000CFA 5840 B0E0            000E0 10855    00588000           L     R4,TVTSYMTB         Symbol table ptr
 000CFE 1244/4780 7096       00D74 10856    00589000           WHILE (R4,NZ),BEGIN       Go through symbol table...
 USING  SYMENTRY,R4                10872  1 00590000             WITH  (SYMENTRY,R4)
 000D04 1826                       10885  1 00591000             LR    R2,R6
 000D06 5B20 400C            0000C 10886  1 00592000             S     R2,SYMLOC           Caclulate offset from symbol
 000D0A 4740 708E            00D6C 10887  1 00593000             IF    ~NEG,BEGIN          We have the offset...
 000D0E 5920 4010            00010 10898  2 00594000               IF    (R2,LT,SYMLEN),BEGIN  It's our symbol...
 000D12 47B0 708E            00D6C 10910  2          +
 000D16 4110 70CC            00DAA 10915  3 00595000                 SEG   ' ('
 000D1A 4100 0002/18F5       00002 10919  3          +
 000D20 58E0 70B2/0DEE       00D90 10928  3          +
 000D26 4110 4004            00004 10930  3 00596000                 SEGT  SYMNAME             Symbol
 000D2A 4100 0008/18F5       00008 10945  3          +
1DUMPER   Subroutines                                                                                                       Page   27
0Current Usings:  (SYMENTRY,R4) (*,R7) (SEGLWA-(4+52),R8) (TVT,R11) (GVT,R12)
0Loc    Object Code    Addr1 Addr2  Stmt Lv Lineno    Source Statement           (Hibal 5, Asmedit 3.3)  HLASM R4.0  2002/06/26 11.18
+___    ______ ____    _____ _____  ____ __ ______    ______ _________
0000D30 58E0 70C6/0DEE       00DA4 10954  3          +
 000D36 1222/47D0 707A       00D58 10956  3 00597000                 IF    (R2,POS),'SEG "+0"; SEGHX (R2)'  Plus offset
 000D3C 4110 70CE            00DAC 10974  4          +
 000D40 4100 0002/18F5       00002 10975  4          +
 000D46 58E0 70B2/0DEE       00D90 10984  4          +
 000D4C 1812/1B00/18F5             10990  4          +
 000D52 58E0 70B6/0DEE       00D94 11003  3          +
 000D58 4110 712A            00E08 11009  3 00598000                 SEG   ')'
 000D5C 4100 0001/18F5       00001 11013  3          +
 000D62 58E0 70B2/0DEE       00D90 11022  3          +
 000D68 47F0 7096            00D74 11024  3 00599000                 EXIT  SEGLOC
 000D6C                            11027  2 00600000               END
 000D6C                            11031  1 00601000             END
                                   11035  1 00602000
 000D6C 5840 4000            00000 11036  1 00603000             L     R4,SYMNEXT          Get next SYMENTRY ptr
 000D70 47F0 7020            00CFE 11037    00604000           END
 DROP   SYMENTRY,R4
                                   11047    00605000
 000D74 18D8/980C D004       00004 11048    00606000           PEND
 DROP   SEGLWA-(4+52),R8
 DROP   *,R7
 000D7A 58E0 D000/12FF       00000 11069             +
 000D80 07FE                       11072             +
                                   11073    00607000
                                   11074    00608000           SEGDEF DUMMY              (Neatness)
                                   11075    00609000
                                   11076    00610000           QLTORG
                                   11104    00611000  DUMPERX  EQU   *-DUMPER            Module length
                                   11105    00612000
 000E10                            11106    00613000           DC    0D'0'               FORCE OUT TO DOUBLE WORD
                                   11107    00614000           ENTRY SYMDUMP             DEFINE SYMBOL ENTRY FOR DUMPER
 000E10 C4E4D4D7C5D94040           11108    00615000  SYMDUMP  DC    CL8'DUMPER',A(DUMPER),A(DUMPERX)
 000E20 00000000                   11109    00616000           DC    A(0)                End of symbols
 000E28                00E28 00E28 11110    00617000           END   .

1DUMPER   Macro and Copy Code Source Summary                                                                                Page   28
- Con Source                                        Volume    Members                        HLASM R4.0  2002/06/26 11.18
0     PRIMARY INPUT                                           CSECT    DROP     END      EX       LTORG    POP
                                                              PRINT    PUSH     START    USING
   L1 WYL.GA.MCL.WINGS.MACLIB                       STR211    BTD      DVTAREA  DVWA     FAIL     GVT      LCLDBWA  PROC
                                                              PTRACE   REG      SEGLOC   SYMTAB   TPENTRY  TRCENTRY TVT
                                                              XCALL    XPROC
   L2 WYL.GG.SYS.MACLIB                             STR210    $BC      $BFLKUP  $BV      $CCLKUP  $CRS     $CSS     $L
                                                              $LA      $LBLAD   $LEXP    $LOR     $REL     $RGLKUP
                                                              $USLKUP  ACALL    BASE     BEGIN    CLEAR    CMPR
                                                              CSECT    DATA     DECR     DEFCC    DROP     DTEX     ELSE
                                                              END      EX       EXIT     FLAG     GEN      HIBAL
                                                              IDENT    IF       LABEL    LC       LCM      LOOP     LS
                                                              LT       LTORG    L3       PEND     POP      PRINT    PUSH
                                                              QLTORG   RECORD   REGS     SET      SETMSG   START
                                                              USING    VCALL    WHILE    WITH
   L3 SYS3.IS.MACLIB                                SYSA03    SEG      SEGB     SEGCB    SEGCOL   SEGDC    SEGDEF
                                                              SEGHX    SEGLD    SEGT     SEGWR    SYSDEFN
   L4 SYS3.MACLIB                                   SYSA03    QSNAP
   L5 SYS1.MACLIB                                   OS02AD    CVT      DCB      DCBD     DYNALLOC ESPIE    ESTAE
                                                              GETMAIN  IEFSJDKY IEFZB4D0 IEFZB4D2 IHASDWA  IHAVRA
                                                              IHBINNRA IHB01    MODESET  SETRP    SPLEVEL  SYSSTATE
                                                              TESTAUTH

1DUMPER   Using Map                                                                                                         Page   29
-                                                                                            HLASM R4.0  2002/06/26 11.18
   Stmt  -----Location----- Action ----------------Using----------------- Reg Max    Last  Label and Using Text
           Count      Id           Type          Value    Range     Id        Disp   Stmt
0   941  00000000  00000001 USING  ORDINARY    00000000 00001000 FFFFFFF0  15 000          @R15,15
    945  00000000  00000001 USING  ORDINARY    00000000 00001000 FFFFFFF1  14 000          @R14,14
    949  00000000  00000001 USING  ORDINARY    00000000 00001000 FFFFFFF2  13 000    7128  @R13,13
    953  00000000  00000001 USING  ORDINARY    00000000 00001000 FFFFFFF3  12 000          @R12,12
    957  00000000  00000001 USING  ORDINARY    00000000 00001000 FFFFFFF4  11 000          @R11,11
    961  00000000  00000001 USING  ORDINARY    00000000 00001000 FFFFFFF5  10 000    7262  @R10,10
    965  00000000  00000001 USING  ORDINARY    00000000 00001000 FFFFFFF6   9 000          @R9,9
    969  00000000  00000001 USING  ORDINARY    00000000 00001000 FFFFFFF7   8 000          @R8,8
    973  00000000  00000001 USING  ORDINARY    00000000 00001000 FFFFFFF8   7 000          @R7,7
    977  00000000  00000001 USING  ORDINARY    00000000 00001000 FFFFFFF9   6 000          @R6,6
    981  00000000  00000001 USING  ORDINARY    00000000 00001000 FFFFFFFA   5 000          @R5,5
    985  00000000  00000001 USING  ORDINARY    00000000 00001000 FFFFFFFB   4 000          @R4,4
    989  00000000  00000001 USING  ORDINARY    00000000 00001000 FFFFFFFC   3 000          @R3,3
    993  00000000  00000001 USING  ORDINARY    00000000 00001000 FFFFFFFD   2 004    8966  @R2,2
    997  00000000  00000001 USING  ORDINARY    00000000 00001000 FFFFFFFE   1 003    7348  @R1,1
   1001  00000000  00000001 USING  ORDINARY    00000000 00001000 FFFFFFFF   0 000          @R0,0
   1002  00000000  00000001 DROP                                            0              0
   6834  00000000  00000001 USING  ORDINARY    00000000 00001000 FFFFFFE9  12 000    7207  GVT,GVTR
   6843  00000000  00000001 USING  ORDINARY    00000000 00001000 FFFFFFE8  11 10C   10855  TVT,TVTR
   6930  00000026  00000001 USING  ORDINARY    00000026 00001000 00000001   7 A92    7042  $$$12B,7
   6944  00000026  00000001 USING  ORDINARY    FFFFFFC8 00001000 FFFFFFCE   8 038    7009  DINITWA-(4+52),R8
   7057  000000AA  00000001 USING  ORDINARY    00000000 00001000 FFFFFFF7   8 000          @R8,8
   7062  000000AA  00000001 USING  ORDINARY    00000000 00001000 FFFFFFF8   7 000          @R7,7
   7094  000000B8  00000001 USING  ORDINARY    000000B8 00001000 00000001  15 8B0    7112  ESTAE,R15
   7136  000000CA  00000001 USING  ORDINARY    00000000 00001000 FFFFFFF0  15 000          @R15,15
   7151  000000CC  00000001 USING  ORDINARY    000000CC 00001000 00000001   7 9E9    7249  $$$20B,7
   7161  000000CE  00000001 USING  ORDINARY    00000000 00001000 FFFFFFD9   6 000    7254  SDWA,R6
   7275  00000142  00000001 USING  ORDINARY    00000000 00001000 FFFFFFF9   6 000          @R6,6
   7281  00000142  00000001 USING  ORDINARY    00000000 00001000 FFFFFFF8   7 000          @R7,7
   7342  000001A8  00000001 USING  ORDINARY    000001A8 00001000 00000001  15 000          $$$25B,R15
   7356  000001AE  00000001 USING  ORDINARY    00000000 00001000 FFFFFFF0  15 000          @R15,15
   7520  000001D4  00000001 USING  ORDINARY    000001D4 00001000 00000001   7 87E    7807  $$$35B,7
   7534  000001D4  00000001 USING  ORDINARY    FFFFFFC8 00001000 FFFFFFCD   8 07C    7804  ESTWA-(4+52),R8
   7604  0000021A  00000001 USING  ORDINARY    00000000 00001000 FFFFFFD9   1 005    7620  SDWA,R1
   7635  00000224  00000001 USING  ORDINARY    00000000 00001000 FFFFFFFE   1 000          @R1,1
   7738  00000272  00000001 USING  ORDINARY    00000000 00001000 FFFFFFE1   1 008    7747  S99RB,R1
   7769  000002BE  00000001 USING  ORDINARY    00000000 00001000 FFFFFFFE   1 000   10204  @R1,1
   7822  000002E8  00000001 USING  ORDINARY    00000000 00001000 FFFFFFF7   8 000          @R8,8
   7827  000002E8  00000001 USING  ORDINARY    00000000 00001000 FFFFFFF8   7 000          @R7,7
   7911  0000031C  00000001 USING  ORDINARY    0000031C 00001000 00000001   7 7B8    8282  $$$44B,7
   7925  0000031C  00000001 USING  ORDINARY    FFFFFFC8 00001000 FFFFFFCC   8 03C    8031  DFMTWA-(4+52),R8
   8041  0000037A  00000001 USING  ORDINARY    00000000 00001000 FFFFFFCC  10 004    8279  DFMTWA,R10
   8073  00000384  00000001 USING  ORDINARY    00000000 00001000 FFFFFFD9   6 005    8093  SDWA,R6
   8107  00000398  00000001 USING  ORDINARY    00000000 00001000 FFFFFFF9   6 000          @R6,6
   8291  0000041C  00000001 USING  ORDINARY    00000000 00001000 FFFFFFF5  10 000          @R10,10
   8296  0000041C  00000001 USING  ORDINARY    00000000 00001000 FFFFFFF7   8 000          @R8,8
   8301  0000041C  00000001 USING  ORDINARY    00000000 00001000 FFFFFFF8   7 000          @R7,7
   8358  00000450  00000001 USING  ORDINARY    00000450 00001000 00000001   7 6B2    9011  $$$53B,7
   8376  00000450  00000001 USING  ORDINARY    00000000 00001000 FFFFFFCC  10 000    8999  DFMTWA,R10
   8391  00000452  00000001 USING  ORDINARY    00000000 00001000 FFFFFFD9   6 170    8878  SDWA,R6
   8406  00000456  00000001 USING  ORDINARY    00000000 00001000 FFFFFFD4   3 004    8411  SDWAPTRS,R3
   8418  0000045A  00000001 USING  ORDINARY    00000000 00001000 FFFFFFFC   3 001    8967  @R3,3
   8429  0000045A  00000001 USING  ORDINARY    00000000 00001000 FFFFFFD8   5 02C    8562  SDWARC1,R5
1DUMPER   Using Map                                                                                                         Page   30
   9021  00000634  00000001 USING  ORDINARY    00000000 00001000 FFFFFFFA   5 003   10602  @R5,5
   9026  00000634  00000001 USING  ORDINARY    00000000 00001000 FFFFFFF9   6 000   10853  @R6,6
   9031  00000634  00000001 USING  ORDINARY    00000000 00001000 FFFFFFF5  10 000          @R10,10
   9036  00000634  00000001 USING  ORDINARY    00000000 00001000 FFFFFFF8   7 000          @R7,7
   9090  00000668  00000001 USING  ORDINARY    00000668 00001000 00000001   7 46C    9342  $$$65B,7
   9108  00000668  00000001 USING  ORDINARY    00000000 00001000 FFFFFFCC  10 000    9325  DFMTWA,R10
   9203  000006BA  00000001 USING  ORDINARY    00000000 00001000 FFFFFFE7   3 010    9330  SYMENTRY,R3
   9337  00000724  00000001 USING  ORDINARY    00000000 00001000 FFFFFFFC   3 000          @R3,3
   9350  00000728  00000001 USING  ORDINARY    00000000 00001000 FFFFFFF5  10 000          @R10,10
   9358  00000728  00000001 USING  ORDINARY    00000000 00001000 FFFFFFF8   7 000          @R7,7
   9433  0000075C  00000001 USING  ORDINARY    0000075C 00001000 00000001   7 3CA    9999  $$$70B,7
   9447  0000075C  00000001 USING  ORDINARY    FFFFFFC8 00001000 FFFFFFCB   8 038    9716  FTRCWA-(4+52),R8
   9460  0000075C  00000001 USING  ORDINARY    00000000 00001000 FFFFFFCC  10 000    9996  DFMTWA,R10
   9695  00000836  00000001 USING  ORDINARY    00000000 00001000 FFFFFFEF   4 04C    9894  TRCENTRY,R4
   9963  00000906  00000001 USING  ORDINARY    00000000 00001000 FFFFFFFB   4 004   10552  @R4,4
  10007  0000092E  00000001 USING  ORDINARY    00000000 00001000 FFFFFFF5  10 000          @R10,10
  10012  0000092E  00000001 USING  ORDINARY    00000000 00001000 FFFFFFF7   8 000          @R8,8
  10017  0000092E  00000001 USING  ORDINARY    00000000 00001000 FFFFFFF8   7 000          @R7,7
  10183  00000B4E  00000001 USING  ORDINARY    00000B4E 00001000 00000001   7 2BC   10645  $$$77B,7
  10197  00000B4E  00000001 USING  ORDINARY    FFFFFFC8 00001000 FFFFFFCA   8 040   10642  DPSWWA-(4+52),R8
  10336  00000BDA  00000001 DROP                                           15              15
  10340  00000BE0  00000001 USING  ORDINARY    00000000 00001000 FFFFFFF0  15 000          @R15,15
  10661  00000CA2  00000001 USING  ORDINARY    00000000 00001000 FFFFFFF7   8 000          @R8,8
  10666  00000CA2  00000001 USING  ORDINARY    00000000 00001000 FFFFFFF8   7 000          @R7,7
  10691  00000CB0  00000001 USING  ORDINARY    00000CB0 00001000 00000001  15 0F0   10710  $$$90B,R15
  10706  00000CB0  00000001 USING  ORDINARY    00000000 00001000 FFFFFFCF   1 04C   10710  EPIE,R1
  10717  00000CB8  00000001 USING  ORDINARY    00000000 00001000 FFFFFFFE   1 000          @R1,1
  10723  00000CB8  00000001 USING  ORDINARY    00000000 00001000 FFFFFFF0  15 000          @R15,15
  10796  00000CDE  00000001 USING  ORDINARY    00000CDE 00001000 00000001   7 12A   11045  $$$92B,7
  10810  00000CDE  00000001 USING  ORDINARY    FFFFFFC8 00001000 FFFFFFC9   8 038   10820  SEGLWA-(4+52),R8
  10881  00000D04  00000001 USING  ORDINARY    00000000 00001000 FFFFFFE7   4 010   11036  SYMENTRY,R4
  11042  00000D70  00000001 USING  ORDINARY    00000000 00001000 FFFFFFFB   4 000          @R4,4
  11054  00000D74  00000001 USING  ORDINARY    00000000 00001000 FFFFFFF7   8 000          @R8,8
  11059  00000D74  00000001 USING  ORDINARY    00000000 00001000 FFFFFFF8   7 000          @R7,7

1         General Purpose Register Cross Reference                                                                          Page   31
- Register  References (M=modified, B=branch, U=USING, D=DROP, N=index)                      HLASM R4.0  2002/06/26 11.18
0    0(0)     1001U  1002D  6913   7001   7011M  7012   7021M  7042M  7070M  7111   7128   7234M  7262M  7503   7544M
              7579M  7691M  7835M  7894   7938M  7964M  7979M  7998M  7998   8020M  8020   8221M  8238M  8254M  8273M
              8309M  8342   8441M  8479M  8502M  8547M  8569M  8603M  8622M  8622   8648M  8648   8665M  8705M  8720M
              8734M  8734   8735M  8758M  8758   8774M  8788M  8788   8789M  8812M  8812   8829M  8845M  8867M  8867
              8906M  8925M  8925   8940M  8968M  8969M  8993M  8993   9044M  9074   9118M  9134M  9150M  9166M  9212M
              9238M  9260M  9275M  9297M  9319M  9319   9366M  9416   9470M  9485M  9507M  9522M  9544M  9559M  9581M
              9597M  9613M  9628M  9644M  9715M  9757M  9772M  9794M  9809M  9831M  9846M  9879M  9901M  9923M  9923
              9974M  9990M 10025M 10166  10205  10246M 10280M 10295M 10310M 10404M 10411M 10437M 10473M 10495M 10495
             10516M 10538M 10538  10559M 10601M 10601  10602M 10611M 10611  10621M 10674M 10779  10839M 10919M 10945M
             10975M 10994M 10994  11013M 11067M
     1(1)      997U  6913   7000   7009M  7012N  7013   7014   7015   7016   7017   7018   7019   7020   7020   7070M
              7128   7153   7232M  7234   7236   7237   7246M  7254M  7261   7262M  7503   7538   7556M  7556   7559M
              7583M  7585M  7585   7594M  7604U  7635U  7698M  7703M  7726M  7727   7738U  7759M  7769U  7775M  7795M
              7835M  7894   7929   7937M  7959M  7978M  7994M  8077M  8164M  8173M  8173   8180M  8197M  8220M  8237M
              8253M  8272M  8309M  8342   8381   8440M  8478M  8490M  8491M  8546M  8562M  8602M  8618M  8664M  8704M
              8719M  8736M  8773M  8790M  8828M  8844M  8905M  8921M  8939M  8955M  9044M  9074   9117M  9133M  9149M
              9165M  9211M  9233M  9253M  9274M  9290M  9366M  9416   9469M  9484M  9500M  9521M  9537M  9558M  9574M
              9596M  9612M  9627M  9643M  9715M  9752M  9771M  9787M  9808M  9824M  9845M  9861M  9894M  9973M  9989M
             10025M 10166  10210M 10223M 10223  10226M 10288M 10298  10386M 10436M 10466M 10509M 10552M 10594M 10620M
             10674M 10706U 10717U 10779  10822  10832M 10918M 10940M 10974M 10990M 11012M 11067M
     2(2)      993U  6913   7003M  7015   7070M  7128   7262M  7503   7746M  7747   7748M  7749   7750M  7751   7752M
              7753   7835M  7894   8309M  8342   8456M  8456   8457M  8469   8490   8618   8878M  8966M  9044M  9074
              9366M  9416  10025M 10166  10674M 10779  10885M 10886M 10909  10964M 10964  10990  11067M
     3(3)      989U  6913   7070M  7128   7262M  7503   7835M  7894   8309M  8342   8396M  8406U  8418U  8882M  8882
              8896   8921   8967M  8968   9044M  9074   9177M  9188M  9188   9203U  9330M  9337U  9366M  9416  10025M
             10166  10674M 10779  11067M
     4(4)      985U  6913   7070M  7128   7262M  7503   7835M  7894   8309M  8342   9044M  9074   9366M  9416   9655M
              9662M  9662N  9674   9681M  9695U  9949   9963U 10025M 10166  10284M 10284  10316M 10379M 10380M 10380
             10427M 10427  10457M 10457  10674M 10779  10855M 10866M 10866  10881U 11036M 11042U 11067M
     5(5)      981U  6913   7070M  7128   7262M  7503   7835M  7894   8309M  8342   8411M  8429U  8537M  8537   9021U
              9044M  9074   9366M  9416  10025M 10166  10204M 10205M 10210  10316  10674M 10779  10823M 10845  10925
             10951  10981  11000  11019  11067M
     6(6)      977U  6913   7070M  7128   7153M  7161U  7262M  7275U  7503   7835M  7894   8057M  8058M  8058   8073U
              8107U  8309M  8342   8381M  8391U  9026U  9044M  9074   9366M  9416  10025M 10166  10674M 10779  10822M
             10832  10853M 10885  11067M
     7(7)      973U  6913   6919M  6930U  7062U  7070M  7128   7141M  7151U  7262M  7281U  7503   7509M  7520U  7827U
              7835M  7894   7900M  7911U  8301U  8309M  8342   8347M  8358U  9036U  9044M  9074   9079M  9090U  9358U
              9366M  9416   9422M  9433U 10017U 10025M 10166  10172M 10183U 10666U 10674M 10779  10785M 10796U 11059U
             11067M
     8(8)      969U  6913   6915M  6944U  7057U  7066   7070M  7128   7237M  7262M  7503   7505M  7534U  7822U  7831
              7835M  7894   7896M  7925U  8296U  8305   8309M  8342   8343M  9040   9044M  9074   9075M  9362   9366M
              9416   9418M  9447U 10012U 10021  10025M 10166  10168M 10197U 10661U 10670  10674M 10779  10781M 10810U
             11054U 11063  11067M
     9(9)      965U  6913   7070M  7128   7262M  7503   7835M  7894   8309M  8342   9044M  9074   9366M  9416  10025M
             10166  10674M 10779  11067M
    10(A)      961U  6913   7070M  7128   7129M  7262M  7503   7835M  7894   8031M  8041U  8291U  8309M  8342   8376U
              9031U  9044M  9074   9108U  9350U  9366M  9416   9460U 10007U 10025M 10166  10674M 10779  11067M
    11(B)      957U  2606B  2607B  6843U  6903   6907   6913   7070M  7128   7166M  7262M  7493   7497   7503   7835M
              7884   7888   7894   8309M  8332   8336   8342   9044M  9064   9068   9074   9366M  9406   9410   9416
             10025M 10156  10160  10166  10674M 10769  10773  10779  11067M
    12(C)      953U  6834U  6904   6913   7070M  7128   7193M  7262M  7494   7503   7835M  7885   7894   8309M  8333
              8342   9044M  9065   9074   9366M  9407   9416  10025M 10157  10166  10674M 10770  10779  11067M
    13(D)      949U  6903   6907M  6910   6913   6915   6916M  6916   7066M  7070   7072   7128   7129   7236M  7262M
              7493   7497M  7500   7503   7505   7506M  7506   7558B  7831M  7835   7837   7884   7888M  7891   7894
              7896   7897M  7897   8305M  8309   8311   8332   8336M  8339   8342   8343   8344M  8344   9040M  9044
1         General Purpose Register Cross Reference                                                                          Page   32
              9046   9064   9068M  9071   9074   9075   9076M  9076   9362M  9366   9368   9406   9410M  9413   9416
              9418   9419M  9419  10021M 10025  10027  10156  10160M 10163  10166  10168  10169M 10169  10225B 10670M
             10674  10676  10769  10773M 10776  10779  10781  10782M 10782  11063M 11067  11069
    14(E)      945U  6903   6905M  6907M  6910   7072M  7075B  7121B  7128   7241M  7242M  7242B  7249M  7250M  7250B
              7262M  7267B  7349B  7493   7495M  7497M  7500   7701M  7702M  7702B  7706M  7707M  7707B  7779M  7780M
              7780B  7799M  7800M  7800B  7807M  7808M  7808B  7837M  7840B  7884   7886M  7888M  7891   7947M  7948M
              7948B  7973M  7974M  7974B  7988M  7989M  7989B  8007M  8008M  8008B  8029M  8030M  8030B  8080M  8081M
              8081B  8132M  8133M  8133B  8143M  8144M  8144B  8157M  8158M  8158   8208M  8208B  8230M  8231M  8231B
              8247M  8248M  8248B  8263M  8264M  8264B  8282M  8283M  8283B  8311M  8314B  8332   8334M  8336M  8339
              8450M  8451M  8451B  8488M  8489M  8489B  8511M  8512M  8512B  8556M  8557M  8557B  8578M  8579M  8579B
              8612M  8613M  8613B  8631M  8632M  8632B  8657M  8658M  8658B  8674M  8675M  8675B  8714M  8715M  8715B
              8729M  8730M  8730B  8745M  8746M  8746B  8767M  8768M  8768B  8783M  8784M  8784B  8799M  8800M  8800B
              8821M  8822M  8822B  8838M  8839M  8839B  8854M  8855M  8855B  8876M  8877M  8877B  8915M  8916M  8916B
              8934M  8935M  8935B  8949M  8950M  8950B  8964M  8965M  8965B  9002M  9003M  9003B  9046M  9049B  9064
              9066M  9068M  9071   9127M  9128M  9128B  9143M  9144M  9144B  9159M  9160M  9160B  9175M  9176M  9176B
              9221M  9222M  9222B  9247M  9248M  9248B  9269M  9270M  9270B  9284M  9285M  9285B  9306M  9307M  9307B
              9328M  9329M  9329B  9368M  9371B  9406   9408M  9410M  9413   9479M  9480M  9480B  9494M  9495M  9495B
              9516M  9517M  9517B  9531M  9532M  9532B  9553M  9554M  9554B  9568M  9569M  9569B  9590M  9591M  9591B
              9606M  9607M  9607B  9622M  9623M  9623B  9637M  9638M  9638B  9653M  9654M  9654B  9719M  9720M  9720B
              9741M  9742M  9742B  9766M  9767M  9767B  9781M  9782M  9782B  9803M  9804M  9804B  9818M  9819M  9819B
              9840M  9841M  9841B  9855M  9856M  9856B  9870M  9871M  9871B  9888M  9889M  9889B  9910M  9911M  9911B
              9932M  9933M  9933B  9983M  9984M  9984B  9999M 10000M 10000B 10027M 10030B 10156  10158M 10160M 10163
             10219M 10220M 10220B 10446M 10447M 10447B 10482M 10483M 10483B 10504M 10505M 10505B 10525M 10526M 10526B
             10547M 10548M 10548B 10568M 10569M 10569B 10645M 10646M 10646B 10676M 10679B 10711B 10769  10771M 10773M
             10776  10848M 10849M 10849B 10928M 10929M 10929B 10954M 10955M 10955B 10984M 10985M 10985B 11003M 11004M
             11004B 11022M 11023M 11023B 11069M 11072B
    15(F)      941U  3068M  3068   6903   6904M  6905B  6907M  7031M  7031   7050M  7050   7074M  7074   7094U  7120M
              7120   7128   7136U  7262M  7266M  7266   7342U  7356U  7493   7494M  7495B  7497M  7569M  7569   7658M
              7675M  7680M  7776M  7796M  7804M  7839M  7839   7884   7885M  7886B  7888M  7930   7944M  7970M  7985M
              8004M  8026M  8207M  8227M  8244M  8260M  8279M  8313M  8313   8332   8333M  8334B  8336M  8447M  8485M
              8508M  8553M  8575M  8609M  8628M  8654M  8671M  8711M  8726M  8742M  8764M  8780M  8796M  8818M  8835M
              8851M  8873M  8912M  8931M  8946M  8961M  8999M  9048M  9048   9064   9065M  9066B  9068M  9124M  9140M
              9156M  9172M  9218M  9244M  9266M  9281M  9303M  9325M  9370M  9370   9406   9407M  9408B  9410M  9476M
              9491M  9513M  9528M  9550M  9565M  9587M  9603M  9619M  9634M  9650M  9716M  9738M  9763M  9778M  9800M
              9815M  9837M  9852M  9867M  9885M  9907M  9929M  9980M  9996M 10029M 10029  10156  10157M 10158B 10160M
             10201  10216M 10236M 10236  10296M 10336D 10338M 10338  10339M 10340U 10344M 10353M 10353  10360  10405M
             10443M 10479M 10501M 10522M 10544M 10565M 10642M 10678M 10678  10691U 10723U 10769  10770M 10771B 10773M
             10823  10845M 10925M 10951M 10981M 11000M 11019M 11071M 11071

1DUMPER   Diagnostic Cross Reference and Assembler Summary                                                                  Page   33
-                                                                                            HLASM R4.0  2002/06/26 11.18
0     No Statements Flagged in this Assembly
 HIGH LEVEL ASSEMBLER, 5696-234, RELEASE 4.0, PTF UQ57391
0SYSTEM: OS/390 02.10.00            JOBNAME: WIN#DUMP    STEPNAME: ASM        PROCSTEP: ASM
0Datasets Allocated for this Assembly
  Con DDname   Dataset Name                                 Volume  Member
   P1 SYSIN    SYS02177.T111808.RA000.WIN#DUMP.SYSIN.H01
   L1 SYSLIB   WYL.GA.MCL.WINGS.MACLIB                      STR211
   L2          WYL.GG.SYS.MACLIB                            STR210
   L3          SYS3.IS.MACLIB                               SYSA03
   L4          SYS3.MACLIB                                  SYSA03
   L5          SYS1.MACLIB                                  OS02AD
   L6          SYS1.MODGEN                                  OS02AD
   L7          SYS4.MACLIB                                  SYSA04
      SYSLIN   WYL.GA.MCL.WINGS.OBJECT                      STR203  DUMPER
      SYSPRINT SYS02177.T111808.RA000.WIN#DUMP.PRINT.H01    SCR003
      SYSTERM  GA$MCL.WIN#DUMP.JOB08783.D0000103.?

    9452K allocated to Buffer Pool,         3336K would be required for this to be an In-Storage Assembly
     661 Primary Input Records Read        19444 Library Records Read                  0 Work File Reads
       0 ASMAOPT Records Read               2569 Primary Print Records Written         0 Work File Writes
      90 Punch Records Written                 0 ADATA Records Written
0Assembly Start Time: 11.18.10 Stop Time: 11.18.13 Processor Time: 00.00.00.8764
 Return Code 000
