1         High Level Assembler Option Summary                   (PTF UQ57391)                                               Page    1
-                                                                                            HLASM R4.0  2002/06/20 12.00
0  No Overriding ASMAOPT Parameters
   Overriding Parameters-  TERM,RENT,NOXREF,NODXREF,LINECOUNT(32767),NORLD,USING(WARN(11))
   No Process Statements


   Options for this Assembly
0  NOADATA
     ALIGN
   NOASA
     BATCH
     CODEPAGE(047C)
   NOCOMPAT
   NODBCS
   NODECK
 3 NODXREF
     ESD
   NOEXIT
     FLAG(0,ALIGN,CONT,NOIMPLEN,NOPAGE0,PUSH,RECORD,NOSUBSTR,USING0)
   NOFOLD
   NOGOFF
   NOINFO
     LANGUAGE(EN)
   NOLIBMAC
 3   LINECOUNT(32767)
     LIST(121)
     MXREF(SOURCE)
     OBJECT
     OPTABLE(UNI,NOLIST)
   NOPCONTROL
   NOPESTOP
   NOPROFILE
   NORA2
 3   RENT
 3 NORLD
     RXREF
     SIZE(MAX)
     SYSPARM()
 3   TERM(WIDE)
   NOTEST
     THREAD
   NOTRANSLATE
 3   USING(NOLIMIT,MAP,WARN(11))
 3 NOXREF

   No Overriding DD Names

1MONITOR  External Symbol Dictionary                                                                                        Page    2
-Symbol   Type   Id     Address  Length     LD ID  Flags Alias-of                            HLASM R4.0  2002/06/20 12.00
0MONITOR   SD 00000001 00000000 00003658             00
 MONI2170  LD          00000000           00000001
 STARTUP   LD          00000018           00000001
 GVT       ER 00000002
 AMODE31   ER 00000003
 ADDSYM    ER 00000004
 SYMUTILS  ER 00000005
 SYMDUMP   ER 00000006
 SYMSCANN  ER 00000007
 SYMDEBUG  ER 00000008
 DUMPINIT  ER 00000009
 PRTINIT   ER 0000000A
 WTOINIT   ER 0000000B
 SETAUXSG  ER 0000000C
 SEGWR     ER 0000000D
 SEGT      ER 0000000E
 SEG       ER 0000000F
 SEGHX     ER 00000010
 MCMDINIT  ER 00000011
 SETCONID  ER 00000012
 SCINIT    ER 00000013
 SCAN      ER 00000014
 DEQSTR    ER 00000015
 SEGDC     ER 00000016
 FMTTIME   ER 00000017
 DINTCONV  ER 00000018
 SEGB      ER 00000019
 FMTRCLCK  ER 0000001A
 SCTELL    ER 0000001B
 SHOWC     ER 0000001C
 SHOWG     ER 0000001D
 DISASMC   ER 0000001E
 SHOWA     ER 0000001F
 PATCHC    ER 00000020
 AMODE24   ER 00000021
 RTRIM     ER 00000022
 SYMMONIT  LD          00003640           00000001

1MONITOR  Wings Task Monitor                                                                                                Page    3
0Loc    Object Code    Addr1 Addr2  Stmt Lv Lineno    Source Statement                    (Asmedit 3.3)  HLASM R4.0  2002/06/20 12.00
+___    ______ ____    _____ _____  ____ __ ______    ______ _________
0                                      2    00002000  ********************************************************************
                                       3    00003000  *** %%Module: wings asm monitor;                                   *
                                       4    00004000  ********************************************************************
                                       5    00005000  ***                                                                *
                                       6    00006000  ***                                                                *
                                       7    00007000  ***  WINGS -- FILE SERVER MONITOR.                                 *
                                       8    00008000  ***                                                                *
                                       9    00009000  ***    This is an attacher and subtask monitor.  It handles        *
                                      10    00010000  ***    subtask creation, monitoring and termination.  The subtasks *
                                      11    00011000  ***    communicate by using common information in the GVT.  The    *
                                      12    00012000  ***    monitor creates a task vector table (TVT) for each subtask  *
                                      13    00013000  ***    it starts.                                                  *
                                      14    00014000  ***                                                                *
                                      15    00015000  ***    Some of this code came from a program called HAWK written   *
                                      16    00016000  ***    some 13 years ago.                                          *
                                      17    00017000  ***                                                                *
                                      18    00018000  ***                                                                *
                                      19    00019000  ***  Modifications:                                                *
                                      20    00019100  ***    2002/06/19  mcl  report TCB addr of each subtask on start   *
                                      21    00020000  ***                     or STATUS cmd; lower prio for subtasks     *
                                      22    00020100  ***    1996/10/10  mcl  TZ adjustments in timestamp                *
                                      23    00021000  ***    1996/03/04  mcl  cancel offending task if queue lock fail   *
                                      24    00022000  ***    1996/02/20  mcl  LOGREL command                             *
                                      25    00024000  ***    1994/02/15  MCL  fix EOTASK, was assuming regs loaded       *
                                      26    00025000  ***                     Timestamp in STATUS, init TVTACCT          *
                                      27    00026000  ***    1994/02/02  MCL  STATUS cmd handle bytes>2147483647         *
                                      28    00027000  ***    1994/02/01  MCL  fix STAI option and parm address           *
                                      29    00030000  ***    1990/11/26  Niz  Initial version.                           *
                                      30    00031000  ***                                                                *
                                      31    00032000  ********************************************************************
                                      32    00033000  MONITOR  HIBAL ASSOC=YES
                                    1016    00034000
                                    1017    00035000           REGS  FSR,,,,,,,BR,WAR,,TVTR,MTVTR,(GVTR,LSR),SPR,RAR
                                    1140    00036000
                                    1141    00037000           SYSDEFN
                                    1142    00038000
                                    1143    00039000           IDENT 2170                11:11:32 06/19/2002 MCL
                                    1146             +
                                    1147    01-IDENT +         ENTRY MONI2170
                                    1148             +
 000000 16D4D6D5C9F2F1F7            1149    01-IDENT +MONI2170 DC    AL1(22),C'MONI2170,20JUN02,12:00'
                                    1150             +*
                                    1152    00040000  *
 000017                00000 03658  1153    00041000           PUSH  DSECTS
                                    7694    00071000
 USING  GVT,R12                     7695    00072000           USING GVT                 Universal assumption
 USING  MTVT,R11                    7704    00073000           USING MTVT                Universal assumption
                                    7713    00074000
                                    7714    00075000           PTRACE DUMMY,TVTREG=MTVTR  Define TVT ptr
                                    7716    00076000
1MONITOR  (MONI2170) (12:00) (20JUN02) Wings work areas                                                                     Page    4
0Current Usings:  (MTVT,R11) (GVT,R12)
0Loc    Object Code    Addr1 Addr2  Stmt Lv Lineno    Source Statement           (Hibal 5, Asmedit 3.3)  HLASM R4.0  2002/06/20 12.00
+___    ______ ____    _____ _____  ____ __ ______    ______ _________
0                                   7719    00079000           COPY  TPENTRY             TRAP ENTRY
                                    7720=   00001000 =¿þþþþþþþþþþþþþþþþþþþþþþþþþþþþþþþþþþþþþþþþþþþþþþþþþþþþþþþþþþþþþþþþþþþþþÜ
                                    7721=   00002000 =Ÿ                                                                     Ÿ
                                    7722=   00003000 =Ÿ  TRAP ENTRY                                                         Ÿ
                                    7723=   00004000 =Ÿ                                                                     Ÿ
                                    7724=   00005000 =Ÿ                                                                     Ÿ
                                    7725=   00006000 =Ÿ  NOTE:                                                              Ÿ
                                    7726=   00007000 =Ÿ  BECAUSE WE MAY BE DEBUGGING SHARED CODE (EXECUTED BY OTHER         Ÿ
                                    7727=   00008000 =Ÿ  SUBTASKS) WE NEVER DELETE TRAP ENTRIES.  WE MERELY MARK THEM       Ÿ
                                    7728=   00009000 =Ÿ  AS OFF.  WE ALLOW A TOTAL OF TPMAXCNT TRAPS.  CLEARED TRAPS        Ÿ
                                    7729=   00010000 =Ÿ  STILL COUNT.                                                       Ÿ
                                    7730=   00011000 =Ÿ                                                                     Ÿ
                                                      ¾þþþþþþþþþþþþþþþþþþþþþþþþþþþþþþþþþþþþþþþþþþþþþþþþþþþþþþþþþþþþþþþþþþþþþ»
0                                   7731    00012000 =TPMAXCNT EQU   128
                                    7732    00013000 =TRAPCODE EQU   X'00A9'             TRAP OPCODE, CAUSES 0C1
                                    7733    00014000 =
 000000                00000 00008  7734    00015000 =TPENTRY  RECORD BEGIN
 000000                             7742  1 00016000 =TPADDR     DS    F
 000004                             7743  1 00017000 =TPOPCODE   DS    H
 000006 00                          7744  1 00018000 =TPFLAG1    FLAG
 TPFLAG1.TPFOFF    80 ONES          7748  1 00019000 =           FLAG  TPFOFF              TRAP NOT ACTIVE
 000007 00                          7753  1 00020000 =TPFLAG2    FLAG
 000008                             7757  1 00021000 =TPNEXT     DS    0F
 000008                00008 00008  7758    00022000 =         END
1MONITOR  (MONI2170) (12:00) (20JUN02) Wings work areas                                                                     Page    5
0Current Usings:  (MTVT,R11) (GVT,R12)
0Loc    Object Code    Addr1 Addr2  Stmt Lv Lineno    Source Statement           (Hibal 5, Asmedit 3.3)  HLASM R4.0  2002/06/20 12.00
+___    ______ ____    _____ _____  ____ __ ______    ______ _________
0                                   7768    00081000           COPY  DVWA                GLOBAL DEBUG AREA
                                    7769=   00001000 =¿þþþþþþþþþþþþþþþþþþþþþþþþþþþþþþþþþþþþþþþþþþþþþþþþþþþþþþþþþþþþþþþþþþþþþÜ
                                    7770=   00002000 =Ÿ                                                                     Ÿ
                                    7771=   00003000 =Ÿ  DVWA - debug work area                                             Ÿ
                                    7772=   00004000 =Ÿ                                                                     Ÿ
                                    7773=   00004500 =Ÿ  Revised 1994/06/06 mcl                                             Ÿ
                                    7774=   00005000 =Ÿ                                                                     Ÿ
                                    7775=   00006000 =Ÿ  notes:                                                             Ÿ
                                    7776=   00007000 =Ÿ  work area should be initialized to zero by monitor.                Ÿ
                                    7777=   00008000 =Ÿ  debugger and debuggee should re-initialize fields                  Ÿ
                                    7778=   00009000 =Ÿ  they control as is appropriate. (in case there has                 Ÿ
                                    7779=   00010000 =Ÿ  been previous debugging session, now cleared.)                     Ÿ
                                    7780=   00011000 =Ÿ                                                                     Ÿ
                                    7781=   00012000 =Ÿ  We must be careful about multi-processor environment.              Ÿ
                                    7782=   00013000 =Ÿ  Lock rules are complicated.  A simpler rules would                 Ÿ
                                    7783=   00014000 =Ÿ  be nice, but for now they are:                                     Ÿ
                                    7784=   00015000 =Ÿ                                                                     Ÿ
                                    7785=   00016000 =Ÿ  Simple rules are:                                                  Ÿ
                                    7786=   00017000 =Ÿ  DebuggER must obtain DBERTCBP lock (R).  Debugger can              Ÿ
                                    7787=   00018000 =Ÿ  change all fields that belong to debugger.  Debugger               Ÿ
                                    7788=   00019000 =Ÿ  can set DebuggEE at any time, unless DebuggEE is                   Ÿ
                                    7789=   00020000 =Ÿ  locked (E).  Debuggee can change any debuggEE fields               Ÿ
                                    7790=   00021000 =Ÿ  while it holds Debuggee lock (E).                                  Ÿ
                                    7791=   00022000 =Ÿ                                                                     Ÿ
                                    7792=   00023000 =Ÿ  A bit more complex is that if there is no debuggee,                Ÿ
                                    7793=   00024000 =Ÿ  any task can jump in and become the debuggee by setting            Ÿ
                                    7794=   00025000 =Ÿ  itself as the DVEETCBP and obtaining the debuggEE lock (E).        Ÿ
                                    7795=   00026000 =Ÿ                                                                     Ÿ
                                    7796=   00027000 =Ÿ  Also note that either Debugger/Debuggee can set the SYMBOL         Ÿ
                                    7797=   00028000 =Ÿ  Table pointer if it owns the respective lock, they should          Ÿ
                                    7798=   00029000 =Ÿ  be setting it to the same thing.  Also POST/WAIT stuff is          Ÿ
                                    7799=   00030000 =Ÿ  shared between Debugger/Debuggee in a obvious fashion.             Ÿ
                                    7800=   00031000 =Ÿ                                                                     Ÿ
                                    7801=   00032000 =Ÿ  notes:                                                             Ÿ
                                    7802=   00033000 =Ÿ    [cs] - compare and swap field                                    Ÿ
                                    7803=   00034000 =Ÿ    [cds] - compare and swap double fields                           Ÿ
                                    7804=   00035000 =Ÿ                                                                     Ÿ
                                    7805=   00036000 =Ÿ    R   - debuggeR lock                                              Ÿ
                                    7806=   00037000 =Ÿ          this lock may be obtained by any debuger [cs]              Ÿ
                                    7807=   00038000 =Ÿ    E   - debuggeE lock                                              Ÿ
                                    7808=   00039000 =Ÿ          this lock may be obtained only by debuggee [cds]           Ÿ
                                    7809=   00040000 =Ÿ    r   - may be set by debuger (owner of R)                         Ÿ
                                    7810=   00041000 =Ÿ    e   - may be set by debugee (owner of E)                         Ÿ
                                    7811=   00042000 =Ÿ  x r   - may be set by debugger (owner of R); also if               Ÿ
                                    7812=   00043000 =Ÿ          no debugger/debuggee it may be set by any subtask          Ÿ
                                    7813=   00044000 =Ÿ          needing to be debugged                                     Ÿ
                                    7814=   00045000 =Ÿ                                                                     Ÿ
                                                      ¾þþþþþþþþþþþþþþþþþþþþþþþþþþþþþþþþþþþþþþþþþþþþþþþþþþþþþþþþþþþþþþþþþþþþþ»
0000000                00000 00434  7815    00046000 =DVWA     RECORD BEGIN
 000000                             7823  1 00047000 =DVERTCBP   DS    F                 R CURRENT DEBUGGER TCB PTR  [cs]
 000004                             7824  1 00048000 =DVERTVTP   DS    A                   Current debuggee TVT PTR
 000008                             7825  1 00049000 =DSALIGN    DS    0D                  ALIGN ON DWORD FOR CDS
 000008                             7826  1 00050000 =DVEETCBP   DS    F               x r CURRENT DEBUGGEE TCB PTR  [cds]
1MONITOR  (MONI2170) (12:00) (20JUN02) Wings work areas                                                                     Page    6
0Current Usings:  (MTVT,R11) (GVT,R12)
0Loc    Object Code    Addr1 Addr2  Stmt Lv Lineno    Source Statement           (Hibal 5, Asmedit 3.3)  HLASM R4.0  2002/06/20 12.00
+___    ______ ____    _____ _____  ____ __ ______    ______ _________
000000C                             7827  1 00051000 =DVEEACTV   DS    F                 E DEBUGEE ACTIVE (TCB PTR)  [cds !]
 000010                             7828  1 00052000 =DVERECB    DS    F               r,e POST BY DEBUGGEE, POST TO BREAK
 000014                             7829  1 00053000 =DVEEECB    DS    F               r,e POST BY DEBUGGER, POST BREAK DONE
 000018 00                          7830  1 00054000 =DVFLAGS    FLAG  ,
 DVFLAGS.DVFNEWIA  80 ONES          7834  1 00055000 =           FLAG  DVFNEWIA          r NEW IA SET WITH PIA INSTRUCTION
 DVFLAGS.DVFIRUPT  40 ONES          7839  1 00056000 =           FLAG  DVFIRUPT          e INTERRUPT, NOT TRAP
 00001C                             7844  1 00057000 =DVEPIEP    DS    F                 e EPIE PTR
 000020                             7845  1 00058000 =DVSYMP     DS    F               r,e SYMBOL TABLE PTR
                                    7846  1 00059000 =*                                r TRAP AREA (next line)
 000024                             7847  1 00060000 =DVTRAPS    DS    XL(L'TPENTRY*(TPMAXCNT+2))
 000434                00434 00434  7848    00061000 =         END
1MONITOR  (MONI2170) (12:00) (20JUN02) Wings work areas                                                                     Page    7
0Current Usings:  (MTVT,R11) (GVT,R12)
0Loc    Object Code    Addr1 Addr2  Stmt Lv Lineno    Source Statement           (Hibal 5, Asmedit 3.3)  HLASM R4.0  2002/06/20 12.00
+___    ______ ____    _____ _____  ____ __ ______    ______ _________
0                                   7858    00083000           COPY  LCLDBWA             LOCAL (ESPIE) DEBUG AREA
                                    7859=   00001000 =¿þþþþþþþþþþþþþþþþþþþþþþþþþþþþþþþþþþþþþþþþþþþþþþþþþþþþþþþþþþþþþþþþþþþþþÜ
                                    7860=   00002000 =Ÿ                                                                     Ÿ
                                    7861=   00003000 =Ÿ  LCLDBWA - local work area for espie routine                        Ÿ
                                    7862=   00004000 =Ÿ                                                                     Ÿ
                                    7863=   00005000 =Ÿ                                                                     Ÿ
                                    7864=   00006000 =Ÿ  NOTE: LDBBKPP may not be set, BKWA may need to be loaded           Ÿ
                                    7865=   00007000 =Ÿ      in another (global) manner. Work in progress.                  Ÿ
                                    7866=   00008000 =Ÿ                                                                     Ÿ
                                                      ¾þþþþþþþþþþþþþþþþþþþþþþþþþþþþþþþþþþþþþþþþþþþþþþþþþþþþþþþþþþþþþþþþþþþþþ»
0000000                00000 00168  7867    00009000 =LCLDBWA  RECORD BEGIN
 000000                             7875  1 00010000 =LDBTCBP    DS    F                   TCB ADDRESS
 000004                             7876  1 00011000 =LDBEPIEP   DS    F                   EPIE PTR
 000008                             7877  1 00012000 =LDBDVWAP   DS    F                   GLOBAL DEBUG WORK AREA PTR
 00000C                             7878  1 00012100 =LDBSYMP    DS    F                   SYMBOL TABLE POINTER
 000010 00                          7879  1 00012200 =LDBFLAGS   FLAG  ,
 LDBFLAGS.LDBFNEWI 80 ONES          7883  1 00012300 =           FLAG  LDBFNEWIA           NEW INSTRUCTION ADDRESS
 000014                             7888  1 00012400 =           DS    0F                  ALIGNMENT
 000014                             7889  1 00013000 =LDBINST1   DS    XL6                 INSTR EXECUTION AREA1 (CURR)
 00001A                             7890  1 00014000 =LDBINST2   DS    XL6                 INSTR EXECUTION AREA2 (CONT)
 000020                             7891  1 00015000 =LDBCURR    DS    A                   CURRENT INSTR ADDR (AS IN PIE)
 000024                             7892  1 00016000 =LDBNEXT    DS    A                   NEXT INSTR (AS TO CONTINUE)
 000028                             7893  1 00017000 =LDBSREGS   DS    16F                 SAVE REGS (0-15)
 000068                             7894  1 00018000 =LDBSTACK   DS    XL256               SPIE STACK AREA (SMALL)
 000168                00168 00168  7895    00019000 =         END
                                    7904    00084000  *
1MONITOR  (MONI2170) (12:00) (20JUN02) Wings work areas                                                                     Page    8
0Current Usings:  (MTVT,R11) (GVT,R12)
0Loc    Object Code    Addr1 Addr2  Stmt Lv Lineno    Source Statement           (Hibal 5, Asmedit 3.3)  HLASM R4.0  2002/06/20 12.00
+___    ______ ____    _____ _____  ____ __ ______    ______ _________
0                                   7906    00086000  ¿þþþþþþþþþþþþþþþþþþþþþþþþþþþþþþþþþþþþþþþþþþþþþþþþþþþþþþþþþþþþþþþþþþþþþÜ
                                    7907    00087000  Ÿ                                                                     Ÿ
                                    7908    00088000  Ÿ  Global Vector Table                                                Ÿ
                                    7909    00089000  Ÿ                                                                     Ÿ
                                                      ¾þþþþþþþþþþþþþþþþþþþþþþþþþþþþþþþþþþþþþþþþþþþþþþþþþþþþþþþþþþþþþþþþþþþþþ»
0000000                00000 0063C  7910    00090000  GVT      RECORD BEGIN
                                    7918  1 00091000             COPY  GVT                 Global vector table
                                    7919= 1 00001000 =¿þþþþþþþþþþþþþþþþþþþþþþþþþþþþþþþþþþþþþþþþþþþþþþþþþþþþþþþþþþþþþþþþþþþþþÜ
                                    7920= 1 00002000 =Ÿ                                                                     Ÿ
                                    7921= 1 00003000 =Ÿ  Global Vector Table.                                               Ÿ
                                    7922= 1 00004000 =Ÿ                                                                     Ÿ
                                    7923= 1 00004500 =Ÿ  revised 1996/02/29  mcl  dsn enqueue lock word                     Ÿ
                                    7924= 1 00005000 =Ÿ  revised 1994/07/06, mcl                                            Ÿ
                                    7925= 1 00006000 =Ÿ                                                                     Ÿ
                                          1           ¾þþþþþþþþþþþþþþþþþþþþþþþþþþþþþþþþþþþþþþþþþþþþþþþþþþþþþþþþþþþþþþþþþþþþþ»
0000000                             7927  1 00008000 =GVTSTART   DS    0D
 000000 C7E5E340                    7928  1 00009000 =           DC    CL4'GVT'            Self-identification
                                    7929  1 00010000 =GVTASMDT   DC    CL8'&SYSDATE'       ASM date
 000004 F0F661F2F061F0F2                  1 00010000 +GVTASMDT   DC    CL8'06/20/02'       ASM date
                                    7930  1 00011000 =GVTASMTM   DC    CL8'&SYSTIME'       ASM time
 00000C F1F24BF0F0404040                  1 00011000 +GVTASMTM   DC    CL8'12.00'          ASM time
                                    7931= 1 00012000 =           ¿þþþþþþþþþþþþþþþþþþþþþþþþþÜ
                                    7932= 1 00013000 =           Ÿ  Common address table.  Ÿ
                                    7933= 1 00014000 =           ¾þþþþþþþþþþþþþþþþþþþþþþþþþ»
 000014 00000000                    7934  1 00015000 =GVTTRACE   DC    V(PTRACE)           PTRACE routine addr
 000018 FFFFFFFFFFFFFFFF            7935  1 00016000 =           DC    4F'-1'              Reserved
                                    7936= 1 00017000 =           ¿þþþþþþþþþþþþþþþþþþþþþþþþÜ
                                    7937= 1 00018000 =           Ÿ  General information.  Ÿ
                                    7938= 1 00019000 =           ¾þþþþþþþþþþþþþþþþþþþþþþþþ»
 000028 0000000000000000            7939  1 00020000 =GVTTIME    DC    D'0'                Start time
 000030 E6C9D5C7E2404040            7940  1 00021000 =GVTJOBNM   DC    CL8'WINGS'          Our job name
 000038 F0F0F0F0                    7941  1 00022000 =GVTJOBNO   DC    CL4'0000'           Our job number
 00003C 4040404040404040            7942  1 00023000 =GVTACCT    DC    CL8' '              Our account (uuu$gg format)
 000044 4040404040404040            7943  1 00024000 =GVTNOTFY   DC    CL8' '              WTO notification account
                                    7944  1 00025000 =
 00004C 00                          7945  1 00026000 =GVTFLAG    FLAG
 GVTFLAG.GVTFTEST  80 ONES          7949  1 00027000 =           FLAG  GVTFTEST            - This is a test version
 GVTFLAG.GVTFDIE   40 ONES          7954  1 00028000 =           FLAG  GVTFDIE             - Die when all subtasks stop
 GVTFLAG.GVTFNOSTA 20 ONES          7959  1 00029000 =           FLAG  GVTFNOSTART         - Don't start subtasks
                                    7964  1 00030000 =
 00004D 00                          7965  1 00031000 =GVTHXDFL   FLAG ,                    HEXDUMP routine flags
 GVTHXDFL.HXDFLEBC 80 ONES          7969  1 00032000 =           FLAG  HXDFLEBC             - CHARS=EBCDIC
 GVTHXDFL.HXDFLADD 40 ONES          7974  1 00033000 =           FLAG  HXDFLADD             - FORMAT=ADDRESS
                                    7979  1 00034000 =
 00004E 0000                              1
 000050 00000000                    7980  1 00035000 =GVTTVTID   DC    F'0'                Last TVT # assigned
 000054 00000000                    7981  1 00036000 =GVTNTASK   DC    F'0'                No. of tasks currently active
 000058 00000000                    7982  1 00037000 =GVTTSKID   DC    F'0'                Last subtask # started (attached)
 00005C FFFFFFFFFFFFFFFF            7983  1 00038000 =           DC    2F'-1'              Reserved
                                    7984  1 00039000 =
 000064 E6C9D5C7E2E5F0F0            7985  1 00040000 =GVTPATHN   DC    CL8'WINGSV00'       Default path name
                                    7986  1 00041000 =
1MONITOR  (MONI2170) (12:00) (20JUN02) Wings work areas                                                                     Page    9
0Current Usings:  (MTVT,R11) (GVT,R12)
0Loc    Object Code    Addr1 Addr2  Stmt Lv Lineno    Source Statement           (Hibal 5, Asmedit 3.3)  HLASM R4.0  2002/06/20 12.00
+___    ______ ____    _____ _____  ____ __ ______    ______ _________
000006C 00000000                    7987  1 00042000 =GVTTVTQH   DC    A(0)                TVT queue head
 000070 00000000                    7988  1 00043000 =GVTTVTQT   DC    A(0)                TVT queue tail
 000074 00000000                    7989  1 00044010 =GVTQLOCK   DC    A(0)                Internal dataset enqueue lock word
 000078 FFFFFFFFFFFFFFFF            7990  1 00044200 =           DC    3F'-1'              Reserved
 000084                             7991  1 00045000 =GVTECBPT   DS    A(0)                Address of monitor request ECB
                                    7992  1 00046000 =
 000088 00000000                    7993  1 00047000 =GVTVOLT    DC    A(0)                Volume table list head
 00008C 00                          7994  1 00048000 =GVTVOLTF   FLAG  ,                   Volume table flags
 GVTVOLTF.GVTVOLTV 80 ONES          7998  1 00049000 =           FLAG  GVTVOLTVALID        - volume table is valid
 GVTVOLTF.GVTVOLTE 40 ONES          8003  1 00050000 =           FLAG  GVTVOLTERR          - volume table is in error
 GVTVOLTF.GVTVOLTI 20 ONES          8008  1 00051000 =           FLAG  GVTVOLTINT          - Internal command in progress
 00008D 000000                      8013  1 00052000 =           DC    AL3(0)              Reserved
 000090 FFFFFFFFFFFFFFFF            8014  1 00053000 =           DC    3F'-1'              Reserved
                                    8015  1 00054000 =
 00009C 00000000                    8016  1 00055000 =GVTACEE    DC    A(0)                Racf ACEE chain
 0000A0 00                          8017  1 00056000 =GVTACEEF   FLAG  ,                   Define acee processing flags
 GVTACEEF.GVTACEEA 80 ONES          8021  1 00057000 =           FLAG  GVTACEEABRT          - Abort processing active
 0000A1 000000                      8026  1 00058000 =           DC    AL3(0)              Reserved
 0000A4 FFFFFFFFFFFFFFFF            8027  1 00059000 =           DC    3F'-1'              Reserved
                                    8028  1 00060000 =
 0000B0 E6E8D34BC7E24BE6            8029  1 00061000 =GVTPDSN    DC    CL44'WYL.GS.WYL.WINGS.PARMS'
                                    8030  1 00062000 =
 0000DC 00000000                          1
 0000E0                             8031  1 00063000 =           DC    0D'0'               align
 0000E0 4040404040404040            8032  1 00064000 =GVTBLANK   DC    CL256' '            Blanks
 0001E0 0000000000000000            8033  1 00065000 =GVTZERO    DC    XL8'00'             Zeros
 0001E8 FFFFFFFFFFFFFFFF            8034  1 00066000 =           DC    4F'-1'              Reserved
                                    8035  1 00067000 =GVT$HEX    EQU   *-240               Translate table
 0001F8 F0F1F2F3F4F5F6F7            8036  1 00068000 =           DC    C'0123456789ABCDEF'   for hex dump
                                    8037  1 00069000 =
 000208                             8038  1 00070000 =           DS    0D                  Align on double word
 000208                             8039  1 00071000 =GVTDVWA    DS    XL(L'DVWA)          Debug work area (global)
                                    8040  1 00072000 =GVTEND     EQU   *                   End of GVT
 00063C                0063C 0063C  8041    00092000           END
1MONITOR  (MONI2170) (12:00) (20JUN02) Wings work areas                                                                     Page   10
0Current Usings:  (MTVT,R11) (GVT,R12)
0Loc    Object Code    Addr1 Addr2  Stmt Lv Lineno    Source Statement           (Hibal 5, Asmedit 3.3)  HLASM R4.0  2002/06/20 12.00
+___    ______ ____    _____ _____  ____ __ ______    ______ _________
0                                   8051    00094000  ¿þþþþþþþþþþþþþþþþþþþþþþþþþþþþþþþþþþþþþþþþþþþþþþþþþþþþþþþþþþþþþþþþþþþþþÜ
                                    8052    00095000  Ÿ                                                                     Ÿ
                                    8053    00096000  Ÿ  Task Vector Table                                                  Ÿ
                                    8054    00097000  Ÿ                                                                     Ÿ
                                                      ¾þþþþþþþþþþþþþþþþþþþþþþþþþþþþþþþþþþþþþþþþþþþþþþþþþþþþþþþþþþþþþþþþþþþþþ»
0000000                00000 00400  8055    00098000  TVT      RECORD BEGIN
                                    8063  1 00099000             COPY  TVT
                                    8064= 1 00001000 =¿þþþþþþþþþþþþþþþþþþþþþþþþþþþþþþþþþþþþþþþþþþþþþþþþþþþþþþþþþþþþþþþþþþþþþÜ
                                    8065= 1 00002000 =Ÿ                                                                     Ÿ
                                    8066= 1 00003000 =Ÿ  Task Vector Table.                                                 Ÿ
                                    8067= 1 00004000 =Ÿ                                                                     Ÿ
                                    8068= 1 00005000 =Ÿ        All TVTs are 4K in length.                                   Ÿ
                                    8069= 1 00006000 =Ÿ                                                                     Ÿ
                                    8070= 1 00007000 =Ÿ        The first 1K of the TVT is common for all tasks.             Ÿ
                                    8071= 1 00008000 =Ÿ        The remaining 3K is a subtask specific extension.            Ÿ
                                    8072= 1 00009000 =Ÿ                                                                     Ÿ
                                    8073= 1 00009100 =Ÿ        1996/06/03 mcl  TVTSENDXMSGS                                 Ÿ
                                    8074= 1 00009110 =Ÿ        1996/03/04 mcl  queue lock fail flag, move NOFWE to TVTOSFIL Ÿ
                                    8075= 1 00009200 =Ÿ        1996/02/29 mcl  cmd to spin off log file; TVTNOFWE flag      Ÿ
                                    8076= 1 00010000 =Ÿ                                                                     Ÿ
                                    8077= 1 00011000 =Ÿ                                                                     Ÿ
                                          1           ¾þþþþþþþþþþþþþþþþþþþþþþþþþþþþþþþþþþþþþþþþþþþþþþþþþþþþþþþþþþþþþþþþþþþþþ»
-                                         1
 000000                             8079  1 00013000 =TVTSTART   DS    0D
 000000                             8080  1 00014000 =TVTID      DS    CL4'TVT'            Self-identification
                                    8081  1 00015000 =TVTSIZE#   EQU   4096,,C'N'          Length of TVT+extensions
 000004                             8082  1 00016000 =TVTTLEN    DS    AL2                 Total length
                                    8083  1 00017000 =
 000008                             8084  1 00018000 =TVTLINK    DS    A                   Ptr to next TVT (0=last)
                                    8085= 1 00019000 =           ¿þþþþþþþþþþþþþþþþþþþþþþþþþþþÜ
                                    8086= 1 00020000 =           Ÿ  Task DEFINE Information  Ÿ
                                    8087= 1 00021000 =           ¾þþþþþþþþþþþþþþþþþþþþþþþþþþþ»
 00000C                             8088  1 00022000 =TVTNO      DS    F                   Task identification number
 000010 00000000                    8089  1 00023000 =TVTSEQ     DC    A(0)                Global task sequence number
 000014                             8090  1 00024000 =TVTNAME    DS    CL8                 Subtask name
 00001C                             8091  1 00025000 =TVTLMOD    DS    CL8                 Load module name
                                    8092  1 00026000 =
 000024                             8093  1 00027000 =TVTPLIST   DS    4A                  tvt ptr, parm ptr, 0, 0
 000034                             8094  1 00028000 =TVTPLEN    DS    H                   Parm length
 000036                             8095  1 00029000 =TVTPTXT    DS    CL80                Parm text
                                    8096  1 00030000 =
 000088                             8097  1 00031000 =TVTRESTART   DS  F                   Restart allowed
 00008C                             8098  1 00032000 =TVTRESCNT    DS  F                   Restart count
                                    8099= 1 00033000 =       ¿þþþþþþþþþþþþþþþþþþþþþþþÜ
                                    8100= 1 00034000 =       Ÿ  Important addresses  Ÿ
                                    8101= 1 00035000 =       ¾þþþþþþþþþþþþþþþþþþþþþþþ»
 000090 00000000                    8102  1 00036000 =TVTGVTP    DC    A(0)                Address of the GVT
 000094 00000000                    8103  1 00037000 =TVTASCBP   DC    A(0)                Our ASCB address
 000098 00000000                    8104  1 00038000 =TVTTCBP    DC    A(0)                Our TCB address
                                    8105  1 00039000 =*
                                    8106  1 00040000 =*
1MONITOR  (MONI2170) (12:00) (20JUN02) Wings work areas                                                                     Page   11
0Current Usings:  (MTVT,R11) (GVT,R12)
0Loc    Object Code    Addr1 Addr2  Stmt Lv Lineno    Source Statement           (Hibal 5, Asmedit 3.3)  HLASM R4.0  2002/06/20 12.00
+___    ______ ____    _____ _____  ____ __ ______    ______ _________
0                                   8107= 1 00041000 =      ¿þþþþþþþþþþþþþþþþþþþþþþþþþþþþþþþþþþþþþþþþþþþþþþþþþþþþþÜ
                                    8108= 1 00042000 =      Ÿ  All fields below TVTCLEAR are initialized to zero  Ÿ
                                    8109= 1 00043000 =      Ÿ  before subtask is attached.  (or restarted!!)      Ÿ
                                    8110= 1 00044000 =      ¾þþþþþþþþþþþþþþþþþþþþþþþþþþþþþþþþþþþþþþþþþþþþþþþþþþþþþ»
                                    8111  1 00045000 =TVTCLEAR   EQU   *
                                    8112= 1 00046000 =           ¿þþþþþþþþþþþþþþþþþþþþþþþþþþþþÜ
                                    8113= 1 00047000 =           Ÿ  Define global TVT flags.  Ÿ
                                    8114= 1 00048000 =           ¾þþþþþþþþþþþþþþþþþþþþþþþþþþþþ»
 00009C 00                          8115  1 00049000 =TVTFLAG    FLAG  ,                   Misc flags
 TVTFLAG.TVTFSUSPE 80 ONES          8119  1 00050000 =           FLAG  TVTFSUSPEND         - Task is suspended
 TVTFLAG.TVTFQUISC 40 ONES          8124  1 00051000 =           FLAG  TVTFQUISCE          - Quisce processing
 TVTFLAG.TVTFSTOPP 20 ONES          8129  1 00052000 =           FLAG  TVTFSTOPPING        - TVT is stopping
 TVTFLAG.TVTFABEND 10 ONES          8134  1 00053000 =           FLAG  TVTFABENDING        - TVT is abending
 TVTFLAG.TVTFNORES 08 ONES          8139  1 00054000 =           FLAG  TVTFNORESTART       - Do not restart this TVT task
 TVTFLAG.TVTFSPINL 04 ONES          8144  1 00055000 =           FLAG  TVTFSPINLOG         - spin off the logfile
                                    8149  1 00055100 =
 00009D 00                          8150  1 00056000 =TVTSTATE   FLAG  ,                   Task state
 TVTSTATE.TVTSTINI 00 EQ            8154  1 00057000 =           FLAG  (TVTSTINIT,0,EQ)     - Initializing
 TVTSTATE.TVTSTWAI 01 EQ            8164  1 00058000 =           FLAG  (TVTSTWAITING,1,EQ)  - Waiting for work
 TVTSTATE.TVTSTBUS 02 EQ            8174  1 00059000 =           FLAG  (TVTSTBUSY,2,EQ)     - Doing work
                                    8184  1 00060000 =
 00009E 00                          8185  1 00061000 =TVTFLAG3   FLAG  ,                   General flags
 TVTFLAG3.TVTFTRC  80 ONES          8189  1 00062000 =           FLAG  TVTFTRC             - Tracing active
 TVTFLAG3.TVTESTAE 40 ONES          8194  1 00063000 =           FLAG  TVTESTAE            - ESTAE environment active
 TVTFLAG3.TVTNOEST 20 ONES          8199  1 00064000 =           FLAG  TVTNOEST            - Bypass ESTAE environment
 TVTFLAG3.TVTFABND 10 ONES          8204  1 00065000 =           FLAG  TVTFABND            - Abend in progress
 TVTFLAG3.TVTBATCH 08 ONES          8209  1 00066000 =           FLAG  TVTBATCH            - Batch test mode
 TVTFLAG3.TVTREPT  04 ONES          8214  1 00067000 =           FLAG  TVTREPT             - Report file open
 TVTFLAG3.TVTWEIRD 02 ONES          8219  1 00068000 =           FLAG  TVTWEIRD            - Weird processing mode
 TVTFLAG3.TVTFDBUG 01 ONES          8224  1 00069000 =           FLAG  TVTFDBUG            - Debug mode (set debug ESPIE)
                                    8229  1 00070000 =
 00009F 00                          8230  1 00071000 =TVTFLAG4   FLAG  ,
 TVTFLAG4.TVTFOSFI 80 ONES          8234  1 00072000 =           FLAG  TVTFOSFILE          - OSFILE type loadmodule
                                    8239  1 00073000 =
 0000A0 00                          8240  1 00074000 =TVTFLAG5   FLAG  ,                   Subtask post of monitor
 TVTFLAG5.TVTFPOST 80 ONES          8244  1 00075000 =           FLAG  TVTFPOST            - This subtask posted monitor
 TVTFLAG5.TVTFEOTA 40 ONES          8249  1 00076000 =           FLAG  TVTFEOTASK          - End of subtask post
 TVTFLAG5.TVTFCMD  20 ONES          8254  1 00077000 =           FLAG  TVTFCMD             - Monitor command post
 TVTFLAG5.TVTFQLFA 10 ONES          8259  1 00078000 =           FLAG  TVTFQLFAIL          - could not obtain internal
                                    8264  1 00078100 =*                                    enqueue lock          ml960304
                                    8265  1 00079000 =*
 0000A1 00                          8266  1 00080000 =TVTFLAG6   FLAG  ,                   Monitor post of subtask
 TVTFLAG6.TVTFSTOP 80 ONES          8270  1 00081000 =           FLAG  TVTFSTOP            - request subtask termination
 TVTFLAG6.TVTFSTAT 40 ONES          8275  1 00082000 =           FLAG  TVTFSTATUS          - reqst subtask status (not used)
                                    8280  1 00083000 =
 0000A2 00                          8281  1 00084000 =TVTFLAG7   FLAG  ,
 TVTFLAG7.TVTXDBUG 80 ONES          8285  1 00084500 =           FLAG  TVTXDBUG            extra debugging flag
 TVTFLAG7.TVTSENDX 40 ONES          8290  1 00085000 =           FLAG  TVTSENDXMSGS        send extra info messages
                                    8295  1 00085100 =
 0000A3 00                          8296  1 00086000 =TVTFLAG8   FLAG  ,
1MONITOR  (MONI2170) (12:00) (20JUN02) Wings work areas                                                                     Page   12
0Current Usings:  (MTVT,R11) (GVT,R12)
0Loc    Object Code    Addr1 Addr2  Stmt Lv Lineno    Source Statement           (Hibal 5, Asmedit 3.3)  HLASM R4.0  2002/06/20 12.00
+___    ______ ____    _____ _____  ____ __ ______    ______ _________
0                                   8300= 1 00087000 =           ¿þþþþþþþþþþþþþþþþþþþþþþþþþþþþþÜ
                                    8301= 1 00088000 =           Ÿ                             Ÿ
                                    8302= 1 00089000 =           Ÿ  General task information.  Ÿ
                                    8303= 1 00090000 =           ¾þþþþþþþþþþþþþþþþþþþþþþþþþþþþþ»
 0000A4                             8304  1 00091000 =TVTUID     DS    CL5                 Current user at death
 0000A9                             8305  1 00092000 =TVTCODES   DS    CL3                 Abend system/user codes
 0000AC                             8306  1 00093000 =TVTREASN   DS    F                   Abend reason code
 0000B0                             8307  1 00094000 =TVTECBRQ   DS    F                   Request of subtask ECB
 0000B4                             8308  1 00095000 =TVTECBCM   DS    F                   Request complete ECB
 0000B8                             8309  1 00096000 =TVTMONCM   DS    F                   Monitor cmd/reqst complete ECB
 0000BC                             8310  1 00097000 =TVTRSPBF   DS    F                   Request response buffer
 0000C0                             8311  1 00098000 =TVTRSPLN   DS    F                   Request response buffer len
 0000C4                             8312  1 00099000 =TVTTIME    DS    F                   Time of last abend
                                    8313= 1 00100000 =           ¿þþþþþþþþþþþþþþþþþþþþþþþþþþþþþþþþÜ
                                    8314= 1 00101000 =           Ÿ  Define trace table pointers.  Ÿ
                                    8315= 1 00102000 =           ¾þþþþþþþþþþþþþþþþþþþþþþþþþþþþþþþþ»
 0000C8                             8316  1 00103000 =TVTTRBEG   DS    A                   Trace table start
 0000CC                             8317  1 00104000 =TVTTRCUR   DS    A                   Most recent trace table entry
 0000D0                             8318  1 00105000 =TVTTREND   DS    A                   Trace table end
 0000D4                             8319  1 00106000 =TVTTRSAV   DS    3A                  Trace register save area
                                    8320= 1 00107000 =           ¿þþþþþþþþþþþþþþþþþþþþþþþþþþþþþþþþþþþþþþÜ
                                    8321= 1 00108000 =           Ÿ  Define global pointers within TVT.  Ÿ
                                    8322= 1 00109000 =           ¾þþþþþþþþþþþþþþþþþþþþþþþþþþþþþþþþþþþþþþ»
 0000E0 00000000                    8323  1 00110000 =TVTSYMTB   DC    A(0)                Anchor address for symbol table
 0000E4 00000000                    8324  1 00111000 =TVTWTIME   DC    A(0)                Periodic timer fire (.01) seconds
 0000E8 00000000                    8325  1 00112000 =TVTSTMID   DC    A(0)                STIMERM timer identification
 0000EC 00000000                    8326  1 00113000 =TVTSAVE    DC    A(0)                Address of vs save area
 0000F0 00000000                    8327  1 00114000 =TVTRETCD   DC    A(0)                Global process return code
 0000F4 00000000                    8328  1 00115000 =TVTESTAK   DC    A(0)                Address of ESTAE save stack
 0000F8 00000000                    8329  1 00116000 =TVTDUMPR   DC    A(0)                Dump formatter co-routine (0=none)
 0000FC 00000000                    8330  1 00117000 =TVTTASKP   DC    A(0)                TASKLIB DCB ptr
 000100 00000000                    8331  1 00118000 =TVTBFTIM   DC    A(0)                Time-out value for buffer full
 000104 00000000                    8332  1 00119000 =TVTBETIM   DC    A(0)                Pause time after buffer-empty
 000108 00000000                    8333  1 00120000 =TVTSTPTR   DC    A(0)                Pointer to start of save stack
 00010C 00000000                    8334  1 00121000 =TVTDUMPX   DC    A(0)                Address to be passed to co-routine
                                    8335  1 00121100 =*                                  (0=use SDWA)      **MOVE THIS**
 000110 00000000                    8336  1 00121110 =TVTQWTIM   DC    A(0)                enqueued dataset wait retry time,
                                    8337  1 00121120 =*                                  centiseconds      **MOVE THIS**
 000114 FFFFFFFFFFFFFFFF            8338  1 00121200 =           DC    5F'-1'              Reserved
                                    8339= 1 00122000 =           ¿þþþþþþþþþþþþþþþþþþþþþþþþþþþþþþþþþþþþþþþþþþþþþþþþþþþþþþþþþÜ
                                    8340= 1 00123000 =           Ÿ  Define SVC 99 dynamic allocate initial parameter list  Ÿ
                                    8341= 1 00124000 =           ¾þþþþþþþþþþþþþþþþþþþþþþþþþþþþþþþþþþþþþþþþþþþþþþþþþþþþþþþþþ»
 000128 00000000                    8342  1 00125000 =TVTDYNBF   DC    A(0)                Address of dynamic allocation
 00012C 000000000000                8343  1 00126000 =TVTDYNWP   DC    AL2(0,0,0)          Work area for text unit buildup
 000132 0000000000000000            8344  1 00127000 =TVTDYNWT   DC    XL44'00'            Reserve space
-                                   8346= 1 00129000 =      ¿þþþþþþþþþþþþþþþþþþþþþþþþþþþþþþþþþþþþþþþþþþþÜ
                                    8347= 1 00130000 =      Ÿ  True user identification of client path  Ÿ
                                    8348= 1 00131000 =      ¾þþþþþþþþþþþþþþþþþþþþþþþþþþþþþþþþþþþþþþþþþþþ»
 00015E 0000                              1
 000160                             8349  1 00132000 =           DC    0F'0'               align
 000160                             8350  1 00132100 =TVTACCT    DS    0CL5                Requestor's account (uuugg)
 000160                             8351  1 00133000 =TVTUSER    DS    CL3                 .uuu
1MONITOR  (MONI2170) (12:00) (20JUN02) Wings work areas                                                                     Page   13
0Current Usings:  (MTVT,R11) (GVT,R12)
0Loc    Object Code    Addr1 Addr2  Stmt Lv Lineno    Source Statement           (Hibal 5, Asmedit 3.3)  HLASM R4.0  2002/06/20 12.00
+___    ______ ____    _____ _____  ____ __ ______    ______ _________
0000163                             8352  1 00134000 =TVTGROUP   DS    CL2                 .gg
 000165 00                          8353  1 00135000 =TVTAFIFL   DC    AL1(0)              Keyword record IFL flags
 000166 00                          8354  1 00136000 =TVTAKAFL   DC    AL1(0)              Keyword record AFL flags
 000167 00                                1
 000168 0000                        8355  1 00137000 =TVTLINE    DC    H'0'                Requestor's line-number
                                    8356  1 00138000 =
 00016A 0000                              1
 00016C 00000000                    8357  1 00139000 =TVTLGBEG   DC    A(0)                Log buffer start
 000170 00000000                    8358  1 00140000 =TVTLGCUR   DC    A(0)                Most recent log buffer entry
 000174 00000000                    8359  1 00141000 =TVTLGEND   DC    A(0)                Log buffer end
                                    8360  1 00142000 =LOGCNT     EQU   60                  Log buffer entry count
                                    8361  1 00143000 =LOGLEN     EQU   100                 Log buffer entry length
0000178 00000000                    8363  1 00145000 =TVTRCYST   DC    A(0)                Error recovery stack
                                    8364  1 00146000 =*                                  (offset to last entry used)
 00017C 0000000000000000            8365  1 00146100 =           DC    16A(0)              Error recovery routines
 0001BC FFFFFFFF                    8366  1 00147000 =TVTRLAST   DC    A(-1)               Recovery stack overflow check
-                                   8368= 1 00149000 =      ¿þþþþþþþþþþþþþþþþþþþþþþþþþþþþþþþþþþþþþþþþþþþþþþþþþþþþþþþþþþþþþþþþþþþÜ
                                    8369= 1 00150000 =      Ÿ  Info on most recent request                            ML940204  Ÿ
                                    8370= 1 00151000 =      ¾þþþþþþþþþþþþþþþþþþþþþþþþþþþþþþþþþþþþþþþþþþþþþþþþþþþþþþþþþþþþþþþþþþþ»
 0001C0                             8371  1 00152000 =           DS    0D
 0001C0                             8372  1 00153000 =TVTLRCLK   DS    2F                  Time stamp at path open ML940204
 0001C8                             8373  1 00154000 =TVTLACLK   DS    2F                  Time stamp last action taken
-                                   8375= 1 00156000 =           ¿þþþþþþþþþþþþþþþþþþþÜ
                                    8376= 1 00157000 =           Ÿ  Global counters  Ÿ
                                    8377= 1 00158000 =           ¾þþþþþþþþþþþþþþþþþþþ»
 0001D0 00000000                    8378  1 00159000 =TVTCNTPOPENS     DC    A(0)          Total path opens
 0001D4 00000000                    8379  1 00160000 =TVTCNTPCLOSE     DC    A(0)          Total path closes
 0001D8 00000000                    8380  1 00161000 =TVTCNTREQ        DC    A(0)          Total requests
 0001DC 00000000                    8381  1 00162000 =TVTCNTUSE        DC    A(0)          Total use requests
 0001E0 00000000                    8382  1 00163000 =TVTCNTSAVE       DC    A(0)          Total save requests
 0001E4 0000000000000000            8383  1 00164000 =                 DC    7A(0)         Reserved
 000200 00000000                    8384  1 00165000 =TVTCNTSENT       DC    A(0)          Total scom writes
 000204 00000000                    8385  1 00166000 =TVTCNTRECVD      DC    A(0)          Total scom reads
 000208 0000000000000000            8386  1 00167000 =TVTCNTBSENT      DC    2A(0)         Total bytes sent
 000210 0000000000000000            8387  1 00168000 =TVTCNTBRECVD     DC    2A(0)         Total bytes recieved
                                    8388= 1 00169000 =           ¿þþþþþþþþþþþþþþþþþþþþþþþþþþþþÜ
                                    8389= 1 00170000 =           Ÿ  LOCAL DEBUGGER WORK AREA  Ÿ
                                    8390= 1 00171000 =           ¾þþþþþþþþþþþþþþþþþþþþþþþþþþþþ»
 000218                             8391  1 00172000 =           DS    0D
 000218                             8392  1 00173000 =TVTLCLDB   DS    XL(L'LCLDBWA)
                                    8393  1 00174000 =
 000380                             8394  1 00175000 =           DS    0S(TVTSTART+1024-*) Do not overflow TVT Header area
                                    8395  1 00176000 =
 000380                00380 00400  8396  1 00177000 =           ORG   TVTSTART+1024       Basic TVT is always 1024 bytes
 000400                00400 00400  8397    00100000           END
                                    8406    00101000  *
                                    8407    00102000           COPY  TRCENTRY            Trace table format
                                    8408=   00001000 =¿þþþþþþþþþþþþþþþþþþþþþþþþþþþþþþþþþþþþþþþþþþþþþþþþþþþþþþþþþþþþþþþþþþþþþÜ
                                    8409=   00002000 =Ÿ                                                                     Ÿ
1MONITOR  (MONI2170) (12:00) (20JUN02) Wings work areas                                                                     Page   14
0Current Usings:  (MTVT,R11) (GVT,R12)
0Loc    Object Code    Addr1 Addr2  Stmt Lv Lineno    Source Statement           (Hibal 5, Asmedit 3.3)  HLASM R4.0  2002/06/20 12.00
+___    ______ ____    _____ _____  ____ __ ______    ______ _________
0                                   8410=   00003000 =Ÿ        Trace table entry format.                                    Ÿ
                                    8411=   00004000 =Ÿ                                                                     Ÿ
                                                      ¾þþþþþþþþþþþþþþþþþþþþþþþþþþþþþþþþþþþþþþþþþþþþþþþþþþþþþþþþþþþþþþþþþþþþþ»
0                                   8412    00005000 =TRCNENT# EQU   200,,C'N'           Default number of trace entries
                                    8413    00006000 =
 000000                00000 00050  8414    00007000 =TRCENTRY RECORD BEGIN
 000000                             8422  1 00008000 =TRCCLOCK   DS    D                   Time stamp (STCK format)
 000008                             8423  1 00009000 =TRCNAME    DS    CL8                 Routine name or trace id
 000010                             8424  1 00010000 =TRCREGS    DS    16F                 Registers
 000050                00050 00050  8425    00011000 =         END
1MONITOR  (MONI2170) (12:00) (20JUN02) Wings work areas                                                                     Page   15
0Current Usings:  (MTVT,R11) (GVT,R12)
0Loc    Object Code    Addr1 Addr2  Stmt Lv Lineno    Source Statement           (Hibal 5, Asmedit 3.3)  HLASM R4.0  2002/06/20 12.00
+___    ______ ____    _____ _____  ____ __ ______    ______ _________
0000017                00000 03658  8435    00104000  MONITOR  CSECT
                                    8437    00105000  ¿þþþþþþþþþþþþþþþþþþþþþþþþþþþþþþþþþþþþþþþþþþþþþþþþþþþþþþþþþþþþþþþþþþþþþÜ
                                    8438    00106000  Ÿ                                                                     Ÿ
                                    8439    00107000  Ÿ  Monitor's Task Vector Table                                        Ÿ
                                    8440    00108000  Ÿ                                                                     Ÿ
                                                      ¾þþþþþþþþþþþþþþþþþþþþþþþþþþþþþþþþþþþþþþþþþþþþþþþþþþþþþþþþþþþþþþþþþþþþþ»
0000000                00000 004FC  8441    00109000  MTVT     RECORD BEGIN
 000000                             8449  1 00110000  MTVTPFX    DS    XL(L'TVT)           Common section
                                    8450  1 00111000             ¿þþþþþþþþþþþþþþþþþþþþþþþþþþþþþþþþÜ
                                    8451  1 00112000             Ÿ  Monitor private information.  Ÿ
                                    8452  1 00113000             ¾þþþþþþþþþþþþþþþþþþþþþþþþþþþþþþþþ»
 000400                             8453  1 00114000  MTVTPARM   DS    A                   Addr of OS parms
 000404                             8454  1 00115000  MTVTCOMP   DS    A                   OS comm area ptr
 000408                             8455  1 00116000  MTVTSTKP   DS    A                   Our stack ptr
                                    8456  1 00117000
 00040C                             8457  1 00118000  MTVTECBL   DS    A                     A(CSCB ECB) -- for stop/modify
 000410                             8458  1 00119000             DS    AL1(128),AL3(MTVTECB) Our ECB
                                    8459  1 00120000
 000414 00000000                    8460  1 00121000  MTVTECB    DC    F'0'
                                    8461  1 00122000
 000418 00                          8462  1 00123000  MTVTFLAG   FLAG
 MTVTFLAG.MTVTFINE 80 ONES          8466  1 00124000             FLAG  MTVTFINEOF          - End of file reached on SYSIN
                                    8471  1 00125000
 000419                             8472  1 00126000  MTVTUCM    DS    X                   Ucmid of requesting console
                                    8473  1 00127000
 00041C                             8474  1 00128000  MTVTOSRA   DS    A                   OS return addr
 000420 00000000                    8475  1 00129000  MTVTRC     DC    F'0'                OS return code
                                    8476  1 00130000
                                    8477  1 00131000             SCANCB PFX=MTVTSCN        Scanner control block
 000424                             8478  1 01-SCANC +MTVTSCNCB   DS   0F
 000424                             8479  1 01-SCANC +MTVTSCNVAL   DS  A                       Value returned
 000428                             8480  1 01-SCANC +MTVTSCNKW   DS   CL8                     Current key word
 000430                             8481  1 01-SCANC +MTVTSCNLEN   DS  A                       Length left to scan
 000434                             8482  1 01-SCANC +MTVTSCNLOC   DS  A                       Next thing to scan
 000438                             8483  1 01-SCANC +MTVTSCNRA   DS   A                       Return address
 00043C                             8484  1 01-SCANC +MTVTSCNPRT   DS  A                       Routing table address
 000440                             8485  1 01-SCANC +MTVTSCNCLT   DS  A                       Scan type
                                    8486  1          +*                                          0 = Normal scan
                                    8487  1          +*                                          4 = Expression isolation
                                    8488  1          +*                                          8 = Expression scan
                                    8489  1 01-SCANC +MTVTSCNCBL   EQU *-MTVTSCNCB
                                    8490  1 00132000
 000444                             8491  1 00133000  MTVTCURSG   DS   A                   CURRENT seg control block addr
                                    8492  1 00134000
                                    8493  1 00135000  MTVTPRSG   SEGCB ,                   MONPRINT seg control block
 000448 00                          8494  1 01-SEGCB +$$$SEGCB11   DS  0F
 MTVTPRSGCOD.MTVTP 01 EQ
 MTVTPRSGCOD.MTVTP 02 EQ
 MTVTPRSGCOD.MTVTP 03 EQ
 MTVTPRSGCOD.MTVTP 04 EQ
 MTVTPRSGCOD.MTVTP 05 EQ
 MTVTPRSGCOD.MTVTP 06 EQ
 MTVTPRSGCOD.MTVTP 07 EQ
1MONITOR  (MONI2170) (12:00) (20JUN02) Wings work areas                                                                     Page   16
0Current Usings:  (MTVT,R11) (GVT,R12)
0Loc    Object Code    Addr1 Addr2  Stmt Lv Lineno    Source Statement           (Hibal 5, Asmedit 3.3)  HLASM R4.0  2002/06/20 12.00
+___    ______ ____    _____ _____  ____ __ ______    ______ _________
0000449 00                          8569  1 01-SEGCB +           DC    X'00'               Reserved
 00044A 0000                              1          +
 00044C 00000000                    8570  1 01-SEGCB +MTVTPRSGMAXF   DC A(0)               Maximum buffer length
 000450 00000000                    8571  1 01-SEGCB +MTVTPRSGMRKF   DC A(0)               Length at last mark
 000454 00000000                    8572  1 01-SEGCB +MTVTPRSGLENF   DC A(0)               Current length
 000458 00000000                    8573  1 01-SEGCB +MTVTPRSGINDF   DC A(0)               Overflow/indent count
 00045C 00000000                    8574  1 01-SEGCB +MTVTPRSGERR   DC A(0)                Address of error recovery routine
 000460 0000000000000000            8575  1 01-SEGCB +           DC    2F'0'               Reserved
 000468 00000000                    8576  1 01-SEGCB +MTVTPRSGLOC   DC A(0)                Location of buffer
 00046C 00000000                    8577  1 01-SEGCB +MTVTPRSGRTN   DC A(0)                Processing routine
 000470 0000000000000000            8578  1 01-SEGCB +           DC    4F'0'               Reserved
 000480 00000000                    8579  1 01-SEGCB +MTVTPRSGUSR   DC A(0)                USER field
                                    8580  1 01-SEGCB +MTVTPRSG   EQU   $$$SEGCB11,*-$$$SEGCB11,C'X'
                                    8581  1 00136000
                                    8582  1 00137000  MTVTWTOSG   SEGCB ,                  WTO seg control block
 000484 00                          8583  1 01-SEGCB +$$$SEGCB19   DS  0F
 MTVTWTOSGCOD.MTVT 01 EQ
 MTVTWTOSGCOD.MTVT 02 EQ
 MTVTWTOSGCOD.MTVT 03 EQ
 MTVTWTOSGCOD.MTVT 04 EQ
 MTVTWTOSGCOD.MTVT 05 EQ
 MTVTWTOSGCOD.MTVT 06 EQ
 MTVTWTOSGCOD.MTVT 07 EQ
 000485 00                          8658  1 01-SEGCB +           DC    X'00'               Reserved
 000486 0000                              1          +
 000488 00000000                    8659  1 01-SEGCB +MTVTWTOSGMAXF   DC A(0)              Maximum buffer length
 00048C 00000000                    8660  1 01-SEGCB +MTVTWTOSGMRKF   DC A(0)              Length at last mark
 000490 00000000                    8661  1 01-SEGCB +MTVTWTOSGLENF   DC A(0)              Current length
 000494 00000000                    8662  1 01-SEGCB +MTVTWTOSGINDF   DC A(0)              Overflow/indent count
 000498 00000000                    8663  1 01-SEGCB +MTVTWTOSGERR   DC A(0)               Address of error recovery routine
 00049C 0000000000000000            8664  1 01-SEGCB +           DC    2F'0'               Reserved
 0004A4 00000000                    8665  1 01-SEGCB +MTVTWTOSGLOC   DC A(0)               Location of buffer
 0004A8 00000000                    8666  1 01-SEGCB +MTVTWTOSGRTN   DC A(0)               Processing routine
 0004AC 0000000000000000            8667  1 01-SEGCB +           DC    4F'0'               Reserved
 0004BC 00000000                    8668  1 01-SEGCB +MTVTWTOSGUSR   DC A(0)               USER field
                                    8669  1 01-SEGCB +MTVTWTOSG   EQU  $$$SEGCB19,*-$$$SEGCB19,C'X'
                                    8670  1 00138000
                                    8671  1 00139000  MTVTCMDSG   SEGCB ,                  MONCMD seg control block
 0004C0 00                          8672  1 01-SEGCB +$$$SEGCB27   DS  0F
 MTVTCMDSGCOD.MTVT 01 EQ
 MTVTCMDSGCOD.MTVT 02 EQ
 MTVTCMDSGCOD.MTVT 03 EQ
 MTVTCMDSGCOD.MTVT 04 EQ
 MTVTCMDSGCOD.MTVT 05 EQ
 MTVTCMDSGCOD.MTVT 06 EQ
 MTVTCMDSGCOD.MTVT 07 EQ
 0004C1 00                          8747  1 01-SEGCB +           DC    X'00'               Reserved
 0004C2 0000                              1          +
 0004C4 00000000                    8748  1 01-SEGCB +MTVTCMDSGMAXF   DC A(0)              Maximum buffer length
 0004C8 00000000                    8749  1 01-SEGCB +MTVTCMDSGMRKF   DC A(0)              Length at last mark
 0004CC 00000000                    8750  1 01-SEGCB +MTVTCMDSGLENF   DC A(0)              Current length
 0004D0 00000000                    8751  1 01-SEGCB +MTVTCMDSGINDF   DC A(0)              Overflow/indent count
 0004D4 00000000                    8752  1 01-SEGCB +MTVTCMDSGERR   DC A(0)               Address of error recovery routine
 0004D8 0000000000000000            8753  1 01-SEGCB +           DC    2F'0'               Reserved
1MONITOR  (MONI2170) (12:00) (20JUN02) Wings work areas                                                                     Page   17
0Current Usings:  (MTVT,R11) (GVT,R12)
0Loc    Object Code    Addr1 Addr2  Stmt Lv Lineno    Source Statement           (Hibal 5, Asmedit 3.3)  HLASM R4.0  2002/06/20 12.00
+___    ______ ____    _____ _____  ____ __ ______    ______ _________
00004E0 00000000                    8754  1 01-SEGCB +MTVTCMDSGLOC   DC A(0)               Location of buffer
 0004E4 00000000                    8755  1 01-SEGCB +MTVTCMDSGRTN   DC A(0)               Processing routine
 0004E8 0000000000000000            8756  1 01-SEGCB +           DC    4F'0'               Reserved
 0004F8 00000000                    8757  1 01-SEGCB +MTVTCMDSGUSR   DC A(0)               USER field
                                    8758  1 01-SEGCB +MTVTCMDSG   EQU  $$$SEGCB27,*-$$$SEGCB27,C'X'
 0004FC                004FC 004FC  8759    00140000           END
                                    8768    00141000  *
                                    8769    00142000           SEGDEF DUMMY              (Neatness)
                                    8770    00143000
1MONITOR  (MONI2170) (12:00) (20JUN02) Local Macros                                                                         Page   18
0Current Usings:  (MTVT,R11) (GVT,R12)
0Loc    Object Code    Addr1 Addr2  Stmt Lv Lineno    Source Statement           (Hibal 5, Asmedit 3.3)  HLASM R4.0  2002/06/20 12.00
+___    ______ ____    _____ _____  ____ __ ______    ______ _________
0                                   8772    00145000  *
                                    8773    00146000  *  2 macros to push and pop SCANNER state as expected
                                    8774    00147000  *  by monitors version of the scanner.  We must push
                                    8775    00148000  *  the return address and the scancb pointer (r15).
                                    8776    00149000  *  we do not normally push the loc,len... as we want
                                    8777    00150000  *  that part to continue to increment as stuff is
                                    8778    00151000  *  scanned off.  essentially we just want to be able
                                    8779    00152000  *  to continue a scan in a scan routine.  so ...
                                    8780    00153000  *
                                    8781    00154000  *  NOTE: ARGS TO SCPUSH, SCPOP ARE IGNORED.
                                    8782    00155000  *
                                    8783    00156000  *  NOTE, CAUTION !! AHHHGG !!::
                                    8784    00157000  *  IT IS TRUE THOUGH I CAN NOT BELIEVE IT !!
                                    8785    00158000  *  R15 MUST BE SET TO SCANCB POINTER FOR A ROUTINE
                                    8786    00159000  *  TO RETURN TO THE SCANNER! YUCK.  IT IS PUSHED
                                    8787    00160000  *  AND POPPED BY SCPUSH,SCPOP !!
                                    8788    00161000  *
                                    8789    00162000  *  ** FREE REGISTER R15 **
                                    8790    00163000  *
                                    8791    00164000  *  OPPRESSIVE USAGE BY ORVYL SCANNER IS TERRIBLE.
                                    8792    00165000  *
                                    8793    00166000  *
                                    8794    00167000           MACRO
                                    8795    00168000  &L       SCPUSH &M,&N
                                    8796    00169000  &L       ST    R15,@R13
                                    8797    00170000           MVC   @R13+4(4),MTVTSCNRA
                                    8798    00171000           LA    R13,8(R13)
                                    8799    00172000           MEND
                                    8800    00173000  *
                                    8801    00174000  *
                                    8802    00175000           MACRO
                                    8803    00176000  &L       SCPOP &M,&N
                                    8804    00177000           S     R13,=A(8)
                                    8805    00178000           L     R15,@R13
                                    8806    00179000           MVC   MTVTSCNRA,@R13+4
                                    8807    00180000           MEND
                                    8808    00181000
1MONITOR  (MONI2170) (12:00) (20JUN02) Monitor initialization                                                               Page   19
0Current Usings:  (MTVT,R11) (GVT,R12)
0Loc    Object Code    Addr1 Addr2  Stmt Lv Lineno    Source Statement           (Hibal 5, Asmedit 3.3)  HLASM R4.0  2002/06/20 12.00
+___    ______ ____    _____ _____  ____ __ ______    ______ _________
0000017                00000 03658  8810    00183000  MONITOR  CSECT
                                    8812    00184000           ¿þþþþþþþþþþþþþþþþþþþÜ
                                    8813    00185000           Ÿ  Initialization.  Ÿ
                                    8814    00186000           ¾þþþþþþþþþþþþþþþþþþþ»
                                    8815    00187000           ENTRY STARTUP             OS entry point is here
 000017 00/0D70                     8816    00188000  STARTUP  BASE
 USING  *,R7
 00001A 58C0 729E            002B8  8830    00189000           L     GVTR,=V(GVT)        Global vector table
 00001E 1BAA                        8831    00190000           CLEAR TVTR                No task vector table yet
 000020 1BDD/1B88                   8835    00191000           CLEAR SPR,WAR             No stack yet
 000024 186E                        8841    00192000           LR    R6,R14              Save OS return addr
 000026 1851                        8842    00193000           LR    R5,R1               Save OS parm ptr
 000028 B205 C028      00028        8843    00194000           STCK  GVTTIME             timestamp startup       ML940329
 00002C 5800 C028            00028  8844    00195000           L     R0,GVTTIME          time, left part
 000030 5810 0010            00010  8845    00196000           L     R1,CVTPTR
 000034 5E00 1130            00130  8846    00197000           WITH  (CVT,R1),'AL R0,CVTTZ'  Time zone adjustment
 USING  CVT,R1
 DROP   CVT,R1
 000038 5000 C028            00028  8870    00198000           ST    R0,GVTTIME          save adjusted (local) time
                                    8871    00199000           ¿þþþþþþþþþþþþþþþþþþþþþþþþþþþþþþþþþþÜ
                                    8872    00200000           Ÿ  Create and initialize our TVT.  Ÿ
                                    8873    00201000           ¾þþþþþþþþþþþþþþþþþþþþþþþþþþþþþþþþþþ»
 00003C 5800 72A2            002BC  8874    00202000           L     R0,=A(TVTSIZE#)
 000040 4510 702A/0A0A       00044  8875    00203000           GETMAIN R,LV=(0)          Allocate memory for TVT
 000046 18B1                        8879    00204000           LR    MTVTR,R1
 DROP   MTVT,R11                    8880    00205000           WITH  (TVT,MTVTR),BEGIN
 USING  TVT,R11
 000048 18EB/58F0 72A2       002BC  8897  1 00206000             ZOT   TVT,L:=A(TVTSIZE#)  Zero entire TVT
 00004E 1B11/0EE0                   8910  1          +
 000052 D203 B000 72A6 00000 002C0  8912  1 00207000             MVC   TVTID,=C'TVT '      Set self identification
 000058 D201 B004 72EE 00004 00308  8913  1 00208000             MVC   TVTTLEN,=AL2(TVTSIZE#)  Set length
                                    8914  1 00209000
 00005E D207 B014 727E 00014 00298  8915  1 00210000             MVC   TVTNAME,=CL8'MONITOR'  Set our task name
 000064 D204 B160 72F6 00160 00310  8916  1 00211000             MVC   TVTACCT,=C'*****'   No user ID
 00006A D203 B1C0 C028 001C0 00028  8917  1 00212000             MVC   TVTLRCLK,GVTTIME    Initial time-stamp
 000070 D203 B1C8 B1C0 001C8 001C0  8918  1 00213000             MVC   TVTLACLK,TVTLRCLK   copy to "latest"
 000076 1BFF                        8919  1 00216000             CLEAR R15                 monitor is task zero  ml20020620
 000078 50F0 C058            00058  8923  1 00216100             ST    R15,GVTTSKID
 00007C 50F0 B00C            0000C  8924  1 00216200             ST    R15,TVTNO           Save our task number
 000080 50F0 B010            00010  8925  1 00218000             ST    R15,TVTSEQ
                                    8926  1 00219000
 000084 4110 C000            00000  8927  1 00220000             LA    R1,GVT
 000088 5010 B090            00090  8928  1 00221000             ST    R1,TVTGVTP          Save GVT ptr
                                    8929  1 00222000
 00008C 5810 0010            00010  8930  1 00223000             L     R1,CVTPTR
 000090 5810 1000            00000  8931  1 00224000             WITH  (CVT,R1),'L R1,CVTTCBP'  TCB Words
 USING  CVT,R1
 DROP   CVT,R1
 000094 D203 B098 1004 00098 00004  8955  1 00225000             MVC   TVTTCBP,@R1+4       Save our TCB ptr
                                    8956  1 00226000  *
1MONITOR  (MONI2170) (12:00) (20JUN02) Monitor initialization                                                               Page   20
0Current Usings:  (*,R7) (TVT,R11) (GVT,R12)
0Loc    Object Code    Addr1 Addr2  Stmt Lv Lineno    Source Statement           (Hibal 5, Asmedit 3.3)  HLASM R4.0  2002/06/20 12.00
+___    ______ ____    _____ _____  ____ __ ______    ______ _________
0                                   8957  1 00227000             ¿þþþþþþþþþþþþþþþþþþþþþþÜ
                                    8958  1 00228000             Ÿ  Build trace table.  Ÿ
                                    8959  1 00229000             ¾þþþþþþþþþþþþþþþþþþþþþþ»
 00009A 4120 0050            00050  8960  1 00230000             LA    R2,L'TRCENTRY
 00009E 4C20 72F0            0030A  8961  1 00231000             MH    R2,=AL2(TRCNENT#)   Total length of trace table
 0000A2 1802                        8962  1 00232000             LR    R0,R2
 0000A4 4510 708E/0A0A       000A8  8963  1 00233000             GETMAIN R,LV=(0)          Get memory for it
 0000AA 5010 B0C8            000C8  8967  1 00234000             ST    R1,TVTTRBEG         Start of trace table
 0000AE 5010 B0CC            000CC  8968  1 00235000             ST    R1,TVTTRCUR         Current trace table entry
 0000B2 1A21                        8969  1 00236000             AR    R2,R1
 0000B4 5020 B0D0            000D0  8970  1 00237000             ST    R2,TVTTREND         End of trace table
                                    8971  1 00238000
 0000B8 9680 B09E      0009E        8972  1 00239000             SET   TVTFTRC             This TVT can handle tracing
                                    8978  1 00240000             ¿þþþþþþþþþþþþþþþþþþþþþþþþþþþþþÜ
                                    8979  1 00241000             Ÿ  Put our TVT on the queue.  Ÿ
                                    8980  1 00242000             ¾þþþþþþþþþþþþþþþþþþþþþþþþþþþþþ»
 0000BC 50B0 C06C            0006C  8981  1 00243000             ST    MTVTR,GVTTVTQH      We are the queue head
 0000C0 50B0 C070            00070  8982  1 00244000             ST    MTVTR,GVTTVTQT      We are the queue tail
 DROP   TVT,R11                     8983    00245000           END
 USING  MTVT,R11
                                    8998    00246000
 0000C4 4110 B414            00414  8999    00247000           LA    R1,MTVTECB          Put monitor request ECB addr
 0000C8 5010 C084            00084  9000    00248000           ST    R1,GVTECBPT         into GVT
                                    9001    00249000
 0000CC 5060 B41C            0041C  9002    00250000           ST    R6,MTVTOSRA         OS return address
 0000D0 D203 B400 5000 00400 00000  9003    00251000           MVC   MTVTPARM,@R5        OS parameter ptr
                                    9004    00252000           ¿þþþþþþþþþþþþþþþþþþþþþþþþþþþÜ
                                    9005    00253000           Ÿ  Set up a program stack.  Ÿ
                                    9006    00254000           ¾þþþþþþþþþþþþþþþþþþþþþþþþþþþ»
 0000D6 5800 72AA            002C4  9007    00255000           L     R0,=A(64*1024)      64K stack
 0000DA 4510 70C4/0A0A       000DE  9008    00256000           GETMAIN R,LV=(0)          Get stack space
 0000E0 5010 B408            00408  9012    00257000           ST    R1,MTVTSTKP         Save our stack ptr
 0000E4 58D0 B408            00408  9013    00258000           L     SPR,MTVTSTKP        Stack ptr
 0000E8 188D                        9014    00259000           LR    WAR,SPR             Ditto
                                    9015    00260000           ¿þþþþþþþþþþþþþþþþþþþþþþþþþþþÜ
                                    9016    00261000           Ÿ  General initialization.  Ÿ
                                    9017    00262000           ¾þþþþþþþþþþþþþþþþþþþþþþþþþþþ»
 0000EA 58E0 72AE/0DEE       002C8  9018    00263000           VCALL AMODE31             Switch to 31-bit mode
                                    9022    00264000
 0000F0 5810 0010            00010  9023    00265000           L     R1,CVTPTR
 0000F4 5810 1000            00000  9024    00266000           WITH  (CVT,R1),'L R1,CVTTCBP'  TCB Words
 USING  CVT,R1
 DROP   CVT,R1
 0000F8 5810 1004            00004  9048    00267000           L     R1,@R1+4            Our (current) tcb
 0000FC 5810 100C            0002C  9049    00268000           WITH  (TCB,R1),'L R1,TCBTIO'  TIOT
 USING  TCB,R1
 DROP   TCB,R1
 000100 D207 C030 1000 00030 00000  9073    00269000           MVC   GVTJOBNM,@R1        Save jobname
 000106 186D/41D0 D01C       0001C  9074    00270000           XPUSH ,,28,PTR=R6         Room for various HASPSERV stuff
 00010C 1B00/1816/1BFF              9077    00271000           HASPSERV JOBACCT,(R6)
 000112 0AFE                        9091             +
 000114 4770 710E            00128  9092    00272000           IF    Z,BEGIN             We have the account info...
 000118 D202 C03C 6000 0003C 00000  9103  1 00273000             MVC   GVTACCT(3),@R6      uuu
 00011E 925B C03F      0003F        9104  1 00274000             MVI   GVTACCT+3,C'$'         $
1MONITOR  (MONI2170) (12:00) (20JUN02) Monitor initialization                                                               Page   21
0Current Usings:  (*,R7) (MTVT,R11) (GVT,R12)
0Loc    Object Code    Addr1 Addr2  Stmt Lv Lineno    Source Statement           (Hibal 5, Asmedit 3.3)  HLASM R4.0  2002/06/20 12.00
+___    ______ ____    _____ _____  ____ __ ______    ______ _________
0000122 D201 C040 6003 00040 00003  9105  1 00275000             MVC   GVTACCT+4(2),@R6+3      gg
 000128                             9106    00276000           END
 000128 4100 0001/1816       00001  9110    00277000           HASPSERV JOBINFO,(R6)     Get jobno etc.
 00012E 1BFF/0AFE                   9126             +
 000132 4770 7122            0013C  9128    00278000           IF    Z,BEGIN
 000136 D203 C038 6000 00038 00000  9139  1 00279000             MVC   GVTJOBNO,@R6        Copy job number
 00013C                             9140    00280000           END
 00013C 4BD0 72F2            0030C  9144    00281000           XPOP  ,,28
                                    9146    00282000  *
                                    9147    00283000  *                                  Subpool 2 will be shared,
 000140 4100 0100            00100  9148    00284000           LA    R0,256
 000144 5600 72B2            002CC  9149    00285000           O     R0,=X'02000000'
 000148 4510 7132/0A0A       0014C  9150    00286000           GETMAIN R,LV=(0)          Get a bit, just to set up SP=2
                                    9154    00287000           ¿þþþþþþþþþþþþþþþþþþþþþþþþÜ
                                    9155    00288000           Ÿ  Make a symbol table.  Ÿ
                                    9156    00289000           ¾þþþþþþþþþþþþþþþþþþþþþþþþ»
 00014E 182D/41D0 D010       00010  9157    00290000           XPUSH ,,16,PTR=R2         Get stack space
 DROP   MTVT,R11                    9160    00291000           WITH  (TVT,MTVTR),BEGIN
 USING  TVT,R11
 000154 18F2                        9177  1 00292000             ADDSYM ENTRY=(R2),NAME='GVT',LOC=(GVTR),LEN=L:=A(L'GVT)
 000156 D207 F000 7286 00000 002A0  9183  1          +
 00015C 50C0 F008            00008  9185  1          +
 000160 5810 72B6            002D0  9190  1          +
 000164 5010 F00C            0000C  9191  1          +
 000168 4110 B0E0            000E0  9198  1          +
 00016C 58E0 72BA/0DEE       002D4  9201  1          +
 000172 18F2                        9203  1 00293000             ADDSYM ENTRY=(R2),NAME='MTVT',LOC=(MTVTR),LEN=LH:TVTTLEN
 000174 D207 F000 728E 00000 002A8  9209  1          +
 00017A 50B0 F008            00008  9211  1          +
 00017E 4810 B004            00004  9215  1          +
 000182 5010 F00C            0000C  9216  1          +
 000186 4110 B0E0            000E0  9223  1          +
 00018A 58E0 72BA/0DEE       002D4  9226  1          +
 000190 58F0 72BE            002D8  9228  1 00294000             ADDSYM ENTRY=L:=A(SYMMONIT)  MONITOR symbols
 000194 4110 B0E0            000E0  9240  1          +
 000198 58E0 72BA/0DEE       002D4  9243  1          +
 00019E 58F0 72C2            002DC  9245  1 00295000             ADDSYM ENTRY=L:=V(SYMUTILS)  UTILS symbols
 0001A2 4110 B0E0            000E0  9257  1          +
 0001A6 58E0 72BA/0DEE       002D4  9260  1          +
 0001AC 58F0 72C6            002E0  9262  1 00296000             ADDSYM ENTRY=L:=V(SYMDUMP)   DUMPER symbols
 0001B0 4110 B0E0            000E0  9274  1          +
 0001B4 58E0 72BA/0DEE       002D4  9277  1          +
 0001BA 58F0 72CA            002E4  9279  1 00297000             ADDSYM ENTRY=L:=V(SYMSCANN)  SCANNER symbols
 0001BE 4110 B0E0            000E0  9291  1          +
 0001C2 58E0 72BA/0DEE       002D4  9294  1          +
 0001C8 58F0 72CE            002E8  9296  1 00298000             ADDSYM ENTRY=L:=V(SYMDEBUG)  DEBUG symbols
 0001CC 4110 B0E0            000E0  9308  1          +
 0001D0 58E0 72BA/0DEE       002D4  9311  1          +
 DROP   TVT,R11                     9313    00299000           END
 USING  MTVT,R11
 0001D6 4BD0 72F4            0030E  9328    00300000           XPOP  ,,16
1MONITOR  (MONI2170) (12:00) (20JUN02) Monitor initialization                                                               Page   22
0Current Usings:  (*,R7) (MTVT,R11) (GVT,R12)
0Loc    Object Code    Addr1 Addr2  Stmt Lv Lineno    Source Statement           (Hibal 5, Asmedit 3.3)  HLASM R4.0  2002/06/20 12.00
+___    ______ ____    _____ _____  ____ __ ______    ______ _________
0                                   9330    00301000           ¿þþþþþþþþþþþþþþþþþþþþþþþþþþþþþþÜ
                                    9331    00302000           Ÿ                              Ÿ
                                    9332    00303000           Ÿ  Initialize dump formatter.  Ÿ
                                    9333    00304000           ¾þþþþþþþþþþþþþþþþþþþþþþþþþþþþþþ»
 0001DA 1B11                        9334    00305000           CLEAR R1                  No local dump formatting routine
 0001DC 58E0 72D2/0DEE       002EC  9338    00306000           VCALL DUMPINIT            Initialize dump formatter
                                    9342    00307000           ¿þþþþþþþþþþþþþþþþþþþþþþþþþþþþþþþþþþþþþþþþþþþþþÜ
                                    9343    00308000           Ÿ  Init SEG routines (WTO, MONPRINT, MONCMD)  Ÿ
                                    9344    00309000           ¾þþþþþþþþþþþþþþþþþþþþþþþþþþþþþþþþþþþþþþþþþþþþþ»
 0001E2 4110 7296            002B0  9345    00310000           LA    R1,=CL8'MONPRINT'
 0001E6 41F0 B448            00448  9346    00311000           LA    R15,MTVTPRSG
 0001EA 58E0 72D6/0DEE       002F0  9347    00312000           VCALL PRTINIT             Initialize output SEGCB
                                    9351    00313000  *
                                    9352    00314000  *        LA    R15,MTVTCMDSG
                                    9353    00315000  *        VCALL MCMDINIT            Initialize Monitor CMD SEGCB
                                    9354    00316000  *        COMMENT                   done later for each command
                                    9355    00317000  *
 0001F0 41F0 B484            00484  9356    00318000           LA    R15,MTVTWTOSG
 0001F4 58E0 72DA/0DEE       002F4  9357    00319000           VCALL WTOINIT             Initialize WTO SEGCB
 0001FA 41F0 B484            00484  9361    00320000           LA    R15,MTVTWTOSG
 0001FE 4100 B448            00448  9362    00321000           LA    R0,MTVTPRSG
 000202 58E0 72DE/0DEE       002F8  9363    00322000           VCALL SETAUXSG            Set auxiliary WTO seg
                                    9367    00323000  *
                                    9368    00324000  **       SEGWR 'WTO log test',,MTVTWTOSG
                                    9369    00325000  **       SEGWR 'Print log test',,MTVTPRSG
                                    9370    00326000           SEGDEF MTVTPRSG           (monitor default)
                                    9371    00327000           ¿þþþþþþþþþþþþþþþþþþþþþþþþþþþþþþþþþþþþþþþþþþþþþÜ
                                    9372    00328000           Ÿ  Establish operator STOP/MODIFY interface.  Ÿ
                                    9373    00329000           ¾þþþþþþþþþþþþþþþþþþþþþþþþþþþþþþþþþþþþþþþþþþþþþ»
 000208 4120 B404            00404  9374    00330000           LA    R2,MTVTCOMP
 00020C 4510 7202            0021C  9375    00331000           EXTRACT (R2),'S',FIELDS=COMM
 000210 00000000                    9378             +
 000214 00000000/01/00              9379             +
 00021A 0000/5021 0000       00000  9382             +
 000220 0A28                        9384             +
 000222 5860 B404            00404  9385    00332000           L     R6,MTVTCOMP         OS comm area (in CSCB)
 USING  COM,R6                      9386    00333000           WITH  (COM,R6),BEGIN
 000226 4110 0002/1111       00002  9400  1 00334000             QEDIT ORIGIN=COMCIBPT,CIBCTR=2  Queue depth of two
 00022C 4100 6004/1100       00004  9403  1          +
 000232 0A22                        9405  1          +
                                    9406  1 00335000
 000234 5810 6000            00000  9407  1 00336000             L     R1,COMECBPT         A(stop/modify ecb)
 000238 4110 1000            00000  9408  1 00337000             LA    R1,@R1
 00023C 5010 B40C            0040C  9409  1 00338000             ST    R1,MTVTECBL         Put addr in our ECB list
 000240 4110 B414            00414  9410  1 00339000             LA    R1,MTVTECB          Main ECB
 000244 5010 B410            00410  9411  1 00340000             ST    R1,MTVTECBL+4       Save main ECB ptr
 000248 9680 B410      00410        9412  1 00341000             SET   MTVTECBL+4.X'80'    Set end of list
                                    9419  1 00342000
 00024C 5850 6004            00004  9420  1 00343000             L     R5,COMCIBPT         Ptr to first CIB
 000250 4150 5000            00000  9421  1 00344000             LA    R5,@R5
 000254 1255/4780 7250       0026A  9422  1 00345000             IF    (R5,NZ),BEGIN       Do if CIB present...
 USING  CIB,R5                      9436  2 00346000               WITH  (CIB,R5)
                                    9449  2 00347000  *
                                    9450  2 00348000  *                 Delete start CIB if any
1MONITOR  (MONI2170) (12:00) (20JUN02) Monitor initialization                                                               Page   23
0Current Usings:  (CIB,R5) (COM,R6) (*,R7) (MTVT,R11) (GVT,R12)
0Loc    Object Code    Addr1 Addr2  Stmt Lv Lineno    Source Statement           (Hibal 5, Asmedit 3.3)  HLASM R4.0  2002/06/20 12.00
+___    ______ ____    _____ _____  ____ __ ______    ______ _________
000025A 9504 5004      00004        9451  2 00349000               IF    (CIBVERB,EQ,CIBSTART),BEGIN  Start CIB...
 00025E 4770 7250            0026A  9464  2          +
 000262 1115/4100 6004       00004  9469  3 00350000                 QEDIT ORIGIN=COMCIBPT,BLOCK=(R5)  Free it
 000268 0A22                        9472  3          +
 00026A                             9473  2 00351000               END
 DROP   CIB,R5                      9477  1 00352000             END
 DROP   COM,R6                      9486    00353000           END
                                    9494    00354000           ¿þþþþþþþþþþþþþþþþÜ
                                    9495    00355000           Ÿ  Set defaults  Ÿ
                                    9496    00356000           ¾þþþþþþþþþþþþþþþþ»
 00026A 9640 C04C      0004C        9497    00357000           SET   GVTFDIE
                                    9503    00358000           ¿þþþþþþþþþþþþþþþþþþþþþþþþþþþþþþþþþþþþþþÜ
                                    9504    00359000           Ÿ  Process EXEC statment PARM= parms.  Ÿ
                                    9505    00360000           ¾þþþþþþþþþþþþþþþþþþþþþþþþþþþþþþþþþþþþþþ»
 00026E 5820 B400            00400  9506    00361000           L     R2,MTVTPARM         R2 - EXEC .. PARM= .. address
 000272 1222/4780 726C       00286  9507    00362000           IF    (R2,NZ),BEGIN
 000278 4800 2000            00000  9521  1 00363000             LH    R0,@R2              R1,R0 - PARM loc len
 00027C 4110 2002            00002  9522  1 00364000             LA    R1,@R2+2
 000280 58E0 72E2/0DEE       002FC  9523  1 00365000             ACALL DOPARM
 000286                             9527    00366000           END
                                    9531    00367000           ¿þþþþþþþþþþþþþþþþþþþþþÜ
                                    9532    00368000           Ÿ  Read SYSIN lines.  Ÿ
                                    9533    00369000           ¾þþþþþþþþþþþþþþþþþþþþþ»
 000286 58E0 72E6/0DEE       00300  9534    00370000           ACALL DOSYSIN
                                    9538    00371000  *
                                    9539    00372000  *  go wait for console commands.
                                    9540    00373000  *
 00028C 58E0 72EA/07FE       00304  9541    00374000           GO    MAINLOOP            Main code
 000292 0D00                        9546             +
 DROP   *,R7                        9548    00375000           DROP  BR
                                    9555    00376000
                                    9556    00377000           QLTORG
1MONITOR  (MONI2170) (12:00) (20JUN02) Main loop                                                                            Page   24
0Current Usings:  (MTVT,R11) (GVT,R12)
0Loc    Object Code    Addr1 Addr2  Stmt Lv Lineno    Source Statement           (Hibal 5, Asmedit 3.3)  HLASM R4.0  2002/06/20 12.00
+___    ______ ____    _____ _____  ____ __ ______    ______ _________
0                                   9598    00379000  ¿þþþþþþþþþþþþþþþþþþþþþþþþþþþþþþþþþþþþþþþþþþþþþþþþþþþþþþþþþþþþþþþþþþþþþÜ
                                    9599    00380000  Ÿ                                                                     Ÿ
                                    9600    00381000  Ÿ        Main loop.                                                   Ÿ
                                    9601    00382000  Ÿ                                                                     Ÿ
                                                      ¾þþþþþþþþþþþþþþþþþþþþþþþþþþþþþþþþþþþþþþþþþþþþþþþþþþþþþþþþþþþþþþþþþþþþþ»
0000315 00/0D70                     9602    00383000  MAINLOOP BASE
 USING  *,R7
 000318 58D0 B408            00408  9616    00384000           L     SPR,MTVTSTKP        Reset stack ptrs
 00031C 188D                        9617    00385000           LR    WAR,SPR             Ditto
                                    9618    00386000           ¿þþþþþþþþþþþþþþþþþþþþþþþþþþþþþþþþþþþþþÜ
                                    9619    00387000           Ÿ  Check to see if it's time to die.  Ÿ
                                    9620    00388000           ¾þþþþþþþþþþþþþþþþþþþþþþþþþþþþþþþþþþþþþ»
 00031E 9140 C04C      0004C        9621    00389000           IF    (GVTFDIE,AND,(GVTNTASK,Z)),BEGIN
 000322 47E0 7034            0034C  9633             +
 000326 D603 C054 C054 00054 00054  9645             +
 00032C 4770 7034            0034C  9646             +
 000330 4110 7080            00398  9651  1 00390000             SEGWR 'Monitor terminated.  (all tasks have ended)'
 000334 4100 002B            0002B  9656  1          +
 000338 41F0 B448            00448  9664  1          +
 00033C 58E0 7070/0DEE       00388  9667  1          +
 000342 58F0 B420            00420  9669  1 00391000             L     R15,MTVTRC          Return code
 000346 58E0 B41C            0041C  9670  1 00392000             L     R14,MTVTOSRA        Our return address
 00034A 07FE                        9671  1 00393000             BR    R14                 Return to our creator
 00034C                             9672    00394000           END
                                    9676    00395000           ¿þþþþþþþþþþþþþþÜ
                                    9677    00396000           Ÿ  Main wait.  Ÿ
                                    9678    00397000           ¾þþþþþþþþþþþþþþ»
 00034C 4100 0001            00001  9679    00398000           WAIT  ECBLIST=MTVTECBL
 000350 4110 B40C/1311       0040C  9684             +
 000356 0A01                        9686             +
                                    9687    00399000
 000358 9140 B414      00414        9688    00400000           IF    MTVTECB.X'40',BEGIN  Our ECB is posted...
 00035C 47E0 7054            0036C  9699             +
 000360                             9704  1 00401000             CLEAR MTVTECB             Reset it for next time
 000360 D703 B414 B414 00414 00414  9710  1          +
 000366 58E0 7074/0DEE       0038C  9711  1 00402000             ACALL TASKPOST            Check for subtask posts
 00036C                             9715    00403000           END
                                    9719    00404000
 00036C 5810 B40C            0040C  9720    00405000           L     R1,MTVTECBL         Stop/modify ecb
 000370 9140 1000      00000        9721    00406000           IF    @R1.X'40',BEGIN     Posted...
 000374 47E0 7066            0037E  9732             +
 000378 58E0 7078/0DEE       00390  9737  1 00407000             ACALL OPERPOST            Check for operator commands
 00037E                             9741    00408000           END
                                    9745    00409000
 00037E 58E0 707C/07FE       00394  9746    00410000           GO    MAINLOOP            Start main loop
 000384 0D00                        9751             +
                                    9753    00411000
 DROP   *,R7                        9754    00412000           DROP  BR
                                    9761    00413000
                                    9762    00414000           QLTORG
1MONITOR  (MONI2170) (12:00) (20JUN02) Main loop                                                                            Page   25
0Current Usings:  (MTVT,R11) (GVT,R12)
0Loc    Object Code    Addr1 Addr2  Stmt Lv Lineno    Source Statement           (Hibal 5, Asmedit 3.3)  HLASM R4.0  2002/06/20 12.00
+___    ______ ____    _____ _____  ____ __ ______    ______ _________
0                                   9780    00416000  ¿þþþþþþþþþþþþþþþþþþþþþþþþþþþþþþþþþþþþþþþþþþþþþþþþþþþþþþþþþþþþþþþþþþþþþÜ
                                    9781    00417000  Ÿ                                                                     Ÿ
                                    9782    00418000  Ÿ  TASKPOST -- Routine to check for posts by any of our subtasks.     Ÿ
                                    9783    00419000  Ÿ                                                                     Ÿ
                                    9784    00420000  Ÿ                                                                     Ÿ
                                                      ¾þþþþþþþþþþþþþþþþþþþþþþþþþþþþþþþþþþþþþþþþþþþþþþþþþþþþþþþþþþþþþþþþþþþþþ»
00003C4 90DF B0D4            000D4  9785    00421000  TASKPOST PROC
 0003C8 58F0 C014/0DEF       00014  9795             +
 0003CE E3C1E2D2D7D6E2E3            9797             +
 0003D6 98DF B0D4            000D4  9798             +
 0003DA 50E0 D000            00000  9801             +
 0003DE 900C D004/188D       00004  9804             +
 0003E4 41D0 D038/0D70       00038  9806             +
 USING  *,R7                        9829    00422000  *
 0003EA 58A0 C06C            0006C  9830    00423000           L     TVTR,GVTTVTQH       First TVT is dummy (MTVT)
 USING  TVT,R10                     9831    00424000           WITH  TVT
                                    9843    00425000
                                    9844    00426000           SEGDEF MTVTWTOSG
                                    9845    00427000  *
                                                               ¿þþþþþþþþþþþþþþþþþþþþþþþþþþþþþþþþþþþþþþþþÜ
                                    9846    00428000           Ÿ                  I                     Ÿ
                                    9847    00429000           Ÿ  LOOP PROCESSING REQUESTS FOR MONITOR  Ÿ
                                    9848    00430000           Ÿ                                        Ÿ
                                    9849    00431000           ¾þþþþþþþþþþþþþþþþþþþþþþþþþþþþþþþþþþþþþþþþ»
 0003EE 58A0 A008/12AA       00008  9850    00432000           WHILE ('LT TVTR,TVTLINK',NZ),BEGIN
 0003F4 4780 7188            00572  9863             +
 0003F8 9180 A0A0      000A0        9868  1 00433000             IF    TVTFPOST,BEGIN      IF ACTION REQUESTED, DO IT TO IT
 0003FC 47E0 7184            0056E  9878  1          +
 000400 947F A0A0      000A0        9883  2 00434000               CLEAR TVTFPOST
                                    9890  2 00435000               ¿þþþþþþþþþþþþþþþþþþþþþþþÜ
                                    9891  2 00436000               Ÿ  MONITOR CMD REQUEST  Ÿ
                                    9892  2 00437000               ¾þþþþþþþþþþþþþþþþþþþþþþþ»
 000404 9120 A0A0      000A0        9893  2 00438000               IF    TVTFCMD,BEGIN
 000408 47E0 702C            00416  9903  2          +
 00040C 94DF A0A0      000A0        9908  3 00439000                 CLEAR TVTFCMD
 000410 58E0 7326/0DEE       00710  9915  3 00440000                 ACALL CMDREQST
 000416                             9919  2 00441000               END   ,                      (monitor cmd request)
                                    9923  2 00442000               ¿þþþþþþþþþþþþþþþþþþþþþþþþþþþþþþþþþÜ
                                    9924  2 00443000               Ÿ  internal enqueue lock failure  Ÿ
                                    9925  2 00444000               ¾þþþþþþþþþþþþþþþþþþþþþþþþþþþþþþþþþ»
 000416 9110 A0A0      000A0        9926  2 00445000               IF    TVTFQLFAIL,BEGIN       somebody's hogging the queue
 00041A 47E0 706E            00458  9936  2          +
 00041E 0700/0ADE/0126              9941  3 00446000                 QSNAP 'Monitor posted with queue lock failure'
 000424 4100 7356            00740  9945  3          +
 000428 0ADE                        9946  3 00447000                 QSNAP GVTQLOCK
 00042A 08100000C074                9949  3          +
 000430 5810 C074            00074  9950  3 00448000                 L     R1,GVTQLOCK         Queue lock word ->holder's TVT
 000434 1211/4780 7058       00442  9951  3 00449000                 IF    (R1,NZ),BEGIN       don't bother unless good pointer
 00043A 1831                        9965  4 00450000                   LR    R3,R1               save a copy
 00043C 58E0 732A/0DEE       00714  9966  4 00451000                   ACALL CANTASK
 000442                             9970  3 00452000                 END   ,                      (good pointer)
 000442                             9974  3 00453000                 CLEAR GVTQLOCK            dequeue the queue
 000442 D703 C074 C074 00074 00074  9980  3          +
1MONITOR  (MONI2170) (12:00) (20JUN02) Main loop                                                                            Page   26
0Current Usings:  (*,R7) (TVT,R10) (MTVT,R11) (GVT,R12)
0Loc    Object Code    Addr1 Addr2  Stmt Lv Lineno    Source Statement           (Hibal 5, Asmedit 3.3)  HLASM R4.0  2002/06/20 12.00
+___    ______ ____    _____ _____  ____ __ ______    ______ _________
0000448 94EF A0A0      000A0        9981  3 00454000                 CLEAR TVTFQLFAIL          request is completed
0                                   9989  3 00456000  *   POST TASK, CMD COMPLETE
 00044C 4110 A0B8            000B8  9990  3 00457000                 LA    R1,TVTMONCM
 000450 1B00/4110 1000       00000  9991  3 00458000                 POST  (R1),0
 000456 0A02                        9996  3          +
 000458                             9997  2 00459000               END   ,                      (Queue lock fail)
0                                  10002  2 00461000               ¿þþþþþþþþþþþþþþþþþþþþþþþþþþþþþþþþÜ
                                   10003  2 00462000               Ÿ  END OF TASK CLEAN UP REQUEST  Ÿ
                                   10004  2 00463000               ¾þþþþþþþþþþþþþþþþþþþþþþþþþþþþþþþþ»
 000458 9140 A0A0      000A0       10005  2 00464000               IF    TVTFEOTASK,BEGIN
 00045C 47E0 7184            0056E 10015  2          +
 000460 94BF A0A0      000A0       10020  3 00465000                 CLEAR TVTFEOTASK
                                   10027  3 00466000  *                                  GIVE END OF TASK MSG
 000464 9120 A09C      0009C       10028  3 00467000                 IF    TVTFSTOPPING,BEGIN  stop
 000468 47E0 70B2            0049C 10038  3          +
 00046C 4110 A014            00014 10043  4 00468000                   SEGT  TVTNAME
 000470 4100 0008            00008 10058  4          +
 000474 41F0 B484            00484 10066  4          +
 000478 58E0 732E/0DEE       00718 10069  4          +
 00047E 4110 737C            00766 10071  4 00469000                   SEG   ' stopped.'
 000482 4100 0009            00009 10075  4          +
 000486 41F0 B484            00484 10083  4          +
 00048A 58E0 7332/0DEE       0071C 10086  4          +
 000490 1B00/41F0 B484       00484 10088  4 00470000                   SEGWR
 000496 58E0 7336/0DEE       00720 10110  4          +
 00049C                            10112  3 00471000                 END   ,                      (stop)
 00049C 70B6           0049C 0046A 10116  3 00472000                 ELSEIF TVTFABENDING,BEGIN    abend
 00049C 47F0 7108            004F2 10122  3          +
 0004A0 9110 A09C      0009C       10134  3          +
 0004A4 47E0 7108            004F2 10135  3          +
 0004A8 4110 A014            00014 10140  4 00473000                   SEGT  TVTNAME
 0004AC 4100 0008            00008 10155  4          +
 0004B0 41F0 B484            00484 10163  4          +
 0004B4 58E0 732E/0DEE       00718 10166  4          +
 0004BA 4110 7385            0076F 10168  4 00474000                   SEG   ' abended.  System abend code='
 0004BE 4100 001D            0001D 10172  4          +
 0004C2 41F0 B484            00484 10180  4          +
 0004C6 58E0 7332/0DEE       0071C 10183  4          +
 0004CC 1F33/BF37 A0A9       000A9 10185  4 00475000                   L3    R3,TVTCODES
 0004D2 8830 000C            0000C 10191  4 00476000                   SRL   R3,12
 0004D6 1813/4100 0003       00003 10192  4 00477000                   SEGHX (R3),3
 0004DC 41F0 B484            00484 10211  4          +
 0004E0 58E0 733A/0DEE       00724 10214  4          +
 0004E6 1B00/41F0 B484       00484 10216  4 00478000                   SEGWR
 0004EC 58E0 7336/0DEE       00720 10238  4          +
 0004F2                            10240  3 00479000                 END   ,                      (abend)
 0004F2 710C           004F2 004A6 10244  3 00480000                 ELSE  BEGIN               other
 0004F2 47F0 713C            00526 10249  3          +
 0004F6 4110 A014            00014 10255  4 00481000                   SEGT  TVTNAME
 0004FA 4100 0008            00008 10270  4          +
 0004FE 41F0 B484            00484 10278  4          +
 000502 58E0 732E/0DEE       00718 10281  4          +
1MONITOR  (MONI2170) (12:00) (20JUN02) Main loop                                                                            Page   27
0Current Usings:  (*,R7) (TVT,R10) (MTVT,R11) (GVT,R12)
0Loc    Object Code    Addr1 Addr2  Stmt Lv Lineno    Source Statement           (Hibal 5, Asmedit 3.3)  HLASM R4.0  2002/06/20 12.00
+___    ______ ____    _____ _____  ____ __ ______    ______ _________
0000508 4110 73A2            0078C 10283  4 00482000                   SEG   ' stopped. (termination status unknown.)'
 00050C 4100 0027            00027 10287  4          +
 000510 41F0 B484            00484 10295  4          +
 000514 58E0 7332/0DEE       0071C 10298  4          +
 00051A 1B00/41F0 B484       00484 10300  4 00483000                   SEGWR
 000520 58E0 7336/0DEE       00720 10322  4          +
 000526                            10324  3 00484000                 END   ,                   (other)
                                   10328  3 00485000  *                                  DETACH TASK
 000526                            10329  3 00486000                 IF    (TVTTCBP,NZ),BEGIN
 000526 D603 A098 A098 00098 00098 10339  3          +
 00052C 4780 715C            00546 10340  3          +
 000530 4110 A098/0A3E       00098 10345  4 00487000                   DETACH TVTTCBP
 000536                            10350  4 00488000                   CLEAR TVTTCBP
 000536 D703 A098 A098 00098 00098 10356  4          +
 00053C 58F0 C054/06F0       00054 10357  4 00489000                   DECR  R15,GVTNTASK
 000542 50F0 C054            00054 10361  4          +
 000546                            10362  3 00490000                 END   ,                   (tcbp)
                                   10366  3 00491000  *                                  RESTART TASK IF APPROPRIATE
 000546                            10367  3 00492000                 IF    ((TVTRESCNT,LT,TVTRESTART),AND,~TVTFNORESTART),BEGIN
 000546 D503 A08C A088 0008C 00088 10381  3          +
 00054C 47B0 7184            0056E 10382  3          +
 000550 9108 A09C      0009C       10393  3          +
 000554 4710 7184            0056E 10394  3          +
 000558 41F0 0001            00001 10399  4 00493000                   INCR  R15,TVTRESCNT
 00055C 5EF0 A08C            0008C 10403  4          +
 000560 50F0 A08C            0008C 10404  4          +
 000564 4110 A000            00000 10405  4 00494000                   LA    R1,TVT
 000568 58E0 733E/0DEE       00728 10406  4 00495000                   ACALL STRTTASK
 00056E                            10410  3 00496000                 END
 00056E                            10414  2 00497000               END
                                   10418  2 00498000
 00056E                            10419  1 00499000             END   , this task requests work
 00056E 47F0 7004            003EE 10423    00500000           END   , loop thru all subtasks
                                   10428    00501000
 000572 18D8/980C D004       00004 10429    00502000           PEND
 DROP   TVT,R10
 DROP   *,R7
 000578 58E0 D000/12FF       00000 10450             +
 00057E 07FE                       10453             +
1MONITOR  (MONI2170) (12:00) (20JUN02) Main loop                                                                            Page   28
0Current Usings:  (MTVT,R11) (GVT,R12)
0Loc    Object Code    Addr1 Addr2  Stmt Lv Lineno    Source Statement           (Hibal 5, Asmedit 3.3)  HLASM R4.0  2002/06/20 12.00
+___    ______ ____    _____ _____  ____ __ ______    ______ _________
0                                  10455    00504000  *
                                   10456    00505000  *  CMDREQST -
                                   10457    00506000  *
                                   10458    00507000  *  PROCESS COMMAND REQUEST FROM SUBTASK
                                   10459    00508000  *
                                   10460    00509000  *
 000000                00000 00505 10461    00510000  CRWA     RECORD BEGIN
 000000                            10469  1 00511000  CRCMDLEN   DS    F
 000004                            10470  1 00512000  CRCMD      DS    XL256
 000104                            10471  1 00513000  CRSEGBF    DS    XL1025
 000505                00505 00505 10472    00514000           END
                                   10481    00515000  *
                                   10482    00516000  *
 000580 90DF B0D4            000D4 10483    00517000  CMDREQST PROC  CRWA
 000584 58F0 C014/0DEF       00014 10494             +
 00058A C3D4C4D9C5D8E2E3           10496             +
 000592 98DF B0D4            000D4 10497             +
 000596 50E0 D000            00000 10500             +
 00059A 900C D004/188D       00004 10503             +
 0005A0 41D0 D540/0D70       00540 10506             +
 USING  *,R7                       10538    00518000           WITH  TVT
 USING  CRWA-(4+52),R8
 USING  TVT,R10
                                   10550    00519000  *
                                   10551    00520000  *                                  MOVE CMD TO STACK
 0005A6 5820 A0BC            000BC 10552    00521000           L     R2,TVTRSPBF         R2,R3 - CMD LOC LEN
 0005AA 5830 2000            00000 10553    00522000           L     R3,@R2
 0005AE 5930 7186            0072C 10554    00523000           CEIL  R3,256
 0005B2 47D0 7014            005BA 10563             +
 0005B6 5830 7186            0072C 10568             +
 0005BA 5030 8038            00000 10573    00524000           ST    R3,CRCMDLEN
 0005BE 4120 2004            00004 10574    00525000           LA    R2,@R2+4
 0005C2 4140 803C            00004 10575    00526000           LA    R4,CRCMD
 0005C6 1853                       10576    00527000           LR    R5,R3
 0005C8 0E42                       10577    00528000           MVCL  R4,R2
                                   10578    00529000  *
                                   10579    00530000  *                                  INIT CMD OUTPUT SEG BUFFER
 0005CA 4100 0400            00400 10580    00531000           LA    R0,1024
 0005CE 4110 813C            00104 10581    00532000           LA    R1,CRSEGBF
 0005D2 4120 A000            00000 10582    00533000           LA    R2,TVT
 0005D6 41F0 B4C0            004C0 10583    00534000           LA    R15,MTVTCMDSG
 0005DA 58E0 718A/0DEE       00730 10584    00535000           VCALL MCMDINIT
                                   10588    00536000  *
                                   10589    00537000  *                                  PROCESS COMMAND
 0005E0 5800 8038            00000 10590    00538000           L     R0,CRCMDLEN
 0005E4 4110 803C            00004 10591    00539000           LA    R1,CRCMD
 0005E8 41F0 B4C0            004C0 10592    00540000           LA    R15,MTVTCMDSG       R15 - SEGCB
 0005EC 58E0 718E/0DEE       00734 10593    00541000           ACALL DOCMD               PROCESS COMMAND
                                   10597    00542000  *
                                   10598    00543000  *                                  POST TASK, CMD COMPLETE
 0005F2 4110 A0B8            000B8 10599    00544000           LA    R1,TVTMONCM
 0005F6 1B00/4110 1000       00000 10600    00545000           POST  (R1),0
 0005FC 0A02                       10605             +
                                   10606    00546000
1MONITOR  (MONI2170) (12:00) (20JUN02) Main loop                                                                            Page   29
0Current Usings:  (MTVT,R11) (GVT,R12)
0Loc    Object Code    Addr1 Addr2  Stmt Lv Lineno    Source Statement           (Hibal 5, Asmedit 3.3)  HLASM R4.0  2002/06/20 12.00
+___    ______ ____    _____ _____  ____ __ ______    ______ _________
00005FE 18D8/980C D004       00004 10607    00547000           PEND
 DROP   TVT,R10
 DROP   CRWA-(4+52),R8
 DROP   *,R7
 000604 58E0 D000/12FF       00000 10633             +
 00060A 07FE                       10636             +
                                   10637    00548000
                                   10638    00549000           SEGDEF MTVTPRSG           (monitor default)
1MONITOR  (MONI2170) (12:00) (20JUN02) Main loop                                                                            Page   30
0Current Usings:  (MTVT,R11) (GVT,R12)
0Loc    Object Code    Addr1 Addr2  Stmt Lv Lineno    Source Statement           (Hibal 5, Asmedit 3.3)  HLASM R4.0  2002/06/20 12.00
+___    ______ ____    _____ _____  ____ __ ______    ______ _________
0                                  10640    00551000  ¿þþþþþþþþþþþþþþþþþþþþþþþþþþþþþþþþþþþþþþþþþþþþþþþþþþþþþþþþþþþþþþþþþþþþþÜ
                                   10641    00552000  Ÿ                                                                     Ÿ
                                   10642    00553000  Ÿ  OPERPOST -- Routine to check to see if we have any operator        Ÿ
                                   10643    00554000  Ÿ    MODIFY or STOP commands from the console.                        Ÿ
                                   10644    00555000  Ÿ                                                                     Ÿ
                                                      ¾þþþþþþþþþþþþþþþþþþþþþþþþþþþþþþþþþþþþþþþþþþþþþþþþþþþþþþþþþþþþþþþþþþþþþ»
000060C 90DF B0D4            000D4 10645    00556000  OPERPOST PROC
 000610 58F0 C014/0DEF       00014 10655             +
 000616 D6D7C5D9D7D6E2E3           10657             +
 00061E 98DF B0D4            000D4 10658             +
 000622 50E0 D000            00000 10661             +
 000626 900C D004/188D       00004 10664             +
 00062C 41D0 D038/0D70       00038 10666             +
 USING  *,R7                       10689    00557000  *
                                   10690    00558000  *                                  Get CIB
 000632 5860 B404            00404 10691    00559000           L     R6,MTVTCOMP
 USING  COM,R6                     10692    00560000           WITH  (COM,R6)
 000636 1F55/BF57 6005       00005 10705    00561000           IF    ('L3 R5,COMCIBPT+1',Z),EXIT  That's odd
 00063C 4780 70C8            006FA 10720             +
 USING  CIB,R5                     10726    00562000           WITH  (CIB,R5)
                                   10739    00563000  *
                                   10740    00564000  *                                  Save, set console ID
 000640 D200 B419 500C 00419 0000C 10741    00565000           MVC   MTVTUCM,CIBCONID    Save ucm id for reply msg
 000646 41F0 B484            00484 10742    00566000           LA    R15,MTVTWTOSG
 00064A 1F00/4300 500C       0000C 10743    00567000           LC    R0,CIBCONID
 000650 58E0 7106/0DEE       00738 10748    00568000           VCALL SETCONID            Set console ID for WTO SEG
                                   10752    00569000           ¿þþþþþþþþþþþþþþþþþþþþþþþþþþþþþþþþþþþþþþþþþþþþþþþþþþþÜ
                                   10753    00570000           Ÿ  We have a command from the OS MODIFY interface.  Ÿ
                                   10754    00571000           ¾þþþþþþþþþþþþþþþþþþþþþþþþþþþþþþþþþþþþþþþþþþþþþþþþþþþ»
 000656 9544 5004      00004       10755    00572000           IF    (CIBVERB,EQ,CIBMODFY),BEGIN  OS modify command...
 00065A 4770 7084            006B6 10768             +
 00065E 184D/41D0 D088       00088 10773  1 00573000             XPUSH ,,133,PTR=R4        Room for command
 000664 4830 500E            0000E 10776  1 00574000             LH    R3,CIBDATLN         Command len
 000668 5930 710A            0073C 10777  1 00575000             IF    (R3,GT,133),'LA R3,133'
 00066C 47D0 7042            00674 10789  1          +
 000670 4130 0085            00085 10795  1          +
 000674 12F3/47D0 704E       00680 10800  1 00576000             IF    ('LTR R15,R3',POS),'DEX R15,"MVC @R4,CIBDATA"'
 00067A 06F0/44F0 719C       007CE 10816  2          +
 0007CD 00                                3          +
 0007CE D200 4000 5010 00000 00010 10825  2          +
 000680 1115/4100 6004       00004 10837  1 00577000             QEDIT ORIGIN=COMCIBPT,BLOCK=(R5)
 000686 0A22                       10840  1          +
                                   10841  1 00578000  *
                                   10842  1 00579000  *                                  PROCESS COMMENT
 000688 4110 7181            007B3 10843  1 00580000             SEG   'Command: '
 00068C 4100 0009            00009 10847  1          +
 000690 41F0 B448            00448 10855  1          +
 000694 58E0 70EA/0DEE       0071C 10858  1          +
 00069A 1814/1803                  10860  1 00581000             SEGWR (R4),(R3)
 00069E 41F0 B448            00448 10881  1          +
 0006A2 58E0 70EE/0DEE       00720 10884  1          +
 0006A8 1814                       10886  1 00582000             LR    R1,R4
 0006AA 1803                       10887  1 00583000             LR    R0,R3
1MONITOR  (MONI2170) (12:00) (20JUN02) Main loop                                                                            Page   31
0Current Usings:  (CIB,R5) (COM,R6) (*,R7) (MTVT,R11) (GVT,R12)
0Loc    Object Code    Addr1 Addr2  Stmt Lv Lineno    Source Statement           (Hibal 5, Asmedit 3.3)  HLASM R4.0  2002/06/20 12.00
+___    ______ ____    _____ _____  ____ __ ______    ______ _________
00006AC 41F0 B484            00484 10888  1 00584000             LA    R15,MTVTWTOSG
 0006B0 58E0 7102/0DEE       00734 10889  1 00585000             ACALL DOCMD
 0006B6                            10893    00586000           END
                                   10897    00587000           ¿þþþþþþþþþþþþþþþþþþþþþþþþþþþþþþþþþþþþþþþþþþÜ
                                   10898    00588000           Ÿ  We have a request to shutdown from OS.  Ÿ
                                   10899    00589000           ¾þþþþþþþþþþþþþþþþþþþþþþþþþþþþþþþþþþþþþþþþþþ»
 0006B6 9540 5004      00004       10900    00590000           IF    (CIBVERB,EQ,CIBSTOP),BEGIN  OS stop command...
 0006BA 4770 70BC            006EE 10913             +
 0006BE 9640 C04C      0004C       10918  1 00591000             SET   GVTFDIE             Die when everything stops
 0006C2 1115/4100 6004       00004 10924  1 00592000             QEDIT ORIGIN=COMCIBPT,BLOCK=(R5)  Free it
 0006C8 0A22                       10927  1          +
 0006CA 4110 718A            007BC 10928  1 00593000             SEGWR 'Command: STOP ALL' Treat stop, as STOP ALL command
 0006CE 4100 0011            00011 10933  1          +
 0006D2 41F0 B448            00448 10941  1          +
 0006D6 58E0 70EE/0DEE       00720 10944  1          +
 0006DC 4110 70D6            00708 10946  1 00594000             SETMSG 'STOP ALL'
 0006E0 4100 0008            00008 10949  1          +
 0006E4 41F0 B484            00484 10950  1 00595000             LA    R15,MTVTWTOSG
 0006E8 58E0 7102/0DEE       00734 10951  1 00596000             ACALL DOCMD
 0006EE                            10955    00597000           END
                                   10959    00598000  *
                                   10960    00599000  *                                  Clear Console ID
 0006EE 1B00                       10961    00600000           CLEAR R0
 0006F0 41F0 B484            00484 10965    00601000           LA    R15,MTVTWTOSG
 0006F4 58E0 7106/0DEE       00738 10966    00602000           VCALL SETCONID
                                   10970    00603000
 0006FA 18D8/980C D004       00004 10971    00604000           PEND
 DROP   CIB,R5
 DROP   COM,R6
 DROP   *,R7
 000700 58E0 D000/12FF       00000 10997             +
 000706 07FE                       11000             +
                                   11001    00605000
                                   11002    00606000           QLTORG
1MONITOR  (MONI2170) (12:00) (20JUN02) Process Monitor Command                                                              Page   32
0Current Usings:  (MTVT,R11) (GVT,R12)
0Loc    Object Code    Addr1 Addr2  Stmt Lv Lineno    Source Statement           (Hibal 5, Asmedit 3.3)  HLASM R4.0  2002/06/20 12.00
+___    ______ ____    _____ _____  ____ __ ______    ______ _________
0                                  11034    00608000  *
                                   11035    00609000  *  DOCMD - process monitor commands
                                   11036    00610000  *
                                   11037    00611000  *
                                   11038    00612000  *  On entry:
                                   11039    00613000  *    R1, R0 - Command location, length
                                   11040    00614000  *    R15 - response SEGCB pointer (zero if none)
                                   11041    00615000  *
                                   11042    00616000  *  On exit:
                                   11043    00617000  *    R15 - return code (not set, not used)
                                   11044    00618000  *    We do not set return code because who cares.
                                   11045    00619000  *    And what is a bad command anyway.  If you start
                                   11046    00620000  *    an already started task is that an error ?
                                   11047    00621000  *    Information about the completion of a command
                                   11048    00622000  *    is always seg'ed to the R15 SEGCB.
                                   11049    00623000  *
                                   11050    00624000  *   NOTES:
                                   11051    00625000  *   If WTO seg routine is specified. all output is
                                   11052    00626000  *   sent as well to the print log.  (work in progress)
                                   11053    00627000  *   the initial command is also seg'd to print log
                                   11054    00628000  *   if command is from the console.
                                   11055    00629000  *
                                   11056    00630000  *
 000000                00000 0000C 11057    00631000  DOCMDWA  RECORD BEGIN
 000000                            11065  1 00632000  DOCMDLOC   DS    A
 000004                            11066  1 00633000  DOCMDLEN   DS    F
 000008                            11067  1 00634000  DOCMDSGB   DS    A
 00000C                0000C 0000C 11068    00635000           END
                                   11077    00636000  *
                                   11078    00637000  *
 0007D4 90DF B0D4            000D4 11079    00638000  DOCMD    PROC  DOCMDWA
 0007D8 58F0 C014/0DEF       00014 11090             +
 0007DE C4D6C3D4C4404040           11092             +
 0007E6 98DF B0D4            000D4 11093             +
 0007EA 50E0 D000            00000 11096             +
 0007EE 900C D004/188D       00004 11099             +
 0007F4 41D0 D044/0D70       00044 11102             +
 USING  *,R7                       11134    00639000  *
 USING  DOCMDWA-(4+52),R8
 0007FA                            11135    00640000           CLEAR DOCMDWA
 0007FA D70B 8038 8038 00000 00000 11141             +
 000800 5010 8038            00000 11142    00641000           ST    R1,DOCMDLOC
 000804 5000 803C            00004 11143    00642000           ST    R0,DOCMDLEN
 000808 50F0 8040            00008 11144    00643000           ST    R15,DOCMDSGB
 00080C 50F0 B444            00444 11145    00644000           ST    R15,MTVTCURSG       SET CURRENT SEG RTN
                                   11146    00645000           SEGDEF L:MTVTCURSG
                                   11147    00646000  *
                                   11148    00647000  *                                  SCAN CONTROL BLOCK
 000810 5810 8038            00000 11149    00648000           SCINIT L:DOCMDLOC,L:DOCMDLEN,MTVTSCNCB
 000814 5800 803C            00004 11159             +
 000818 41F0 B424            00424 11166             +
 00081C 58E0 7536/0DEE       00D30 11169             +
 000822 5810 753A            00D34 11171    00649000           SCAN   L:=A(CMDPRT),MTVTSCNCB
 000826 41F0 B424            00424 11183             +
1MONITOR  (MONI2170) (12:00) (20JUN02) Process Monitor Command                                                              Page   33
0Current Usings:  (*,R7) (DOCMDWA-(4+52),R8) (MTVT,R11) (GVT,R12)
0Loc    Object Code    Addr1 Addr2  Stmt Lv Lineno    Source Statement           (Hibal 5, Asmedit 3.3)  HLASM R4.0  2002/06/20 12.00
+___    ______ ____    _____ _____  ____ __ ______    ______ _________
000082A 58E0 753E/0DEE       00D38 11186             +
 000830 47B0 705C            00856 11188    00650000           IF    M,BEGIN
 000834 1300                       11199  1 00651000             LCR   R0,R0
 000836 1810/1801                  11200  1 00652000             SEG  (R0),(R1)
 00083A 58F0 B444            00444 11218  1          +
 00083E 58E0 7542/0DEE       00D3C 11221  1          +
 000844 4110 75BC            00DB6 11223  1 00653000             SEGWR ': invalid option/command.'
 000848 4100 0019            00019 11228  1          +
 00084C 58F0 B444            00444 11234  1          +
 000850 58E0 7546/0DEE       00D40 11237  1          +
 000856                            11239    00654000           END
                                   11243    00655000
 000856 18D8/980C D004       00004 11244    00656000           PEND
 DROP   DOCMDWA-(4+52),R8
 DROP   *,R7
 00085C 58E0 D000/12FF       00000 11265             +
 000862 07FE                       11268             +
1MONITOR  (MONI2170) (12:00) (20JUN02) Monitor Commands                                                                     Page   34
0Current Usings:  (MTVT,R11) (GVT,R12)
0Loc    Object Code    Addr1 Addr2  Stmt Lv Lineno    Source Statement           (Hibal 5, Asmedit 3.3)  HLASM R4.0  2002/06/20 12.00
+___    ______ ____    _____ _____  ____ __ ______    ______ _________
0                                  11270    00658000           ¿þþþþþþþþþþþþþþþþþþÜ
                                   11271    00659000           Ÿ  Command table.  Ÿ
                                   11272    00660000           ¾þþþþþþþþþþþþþþþþþþ»
 000864                            11273    00661000  CMDPRT   SCKW  HELP,HELP,A
 000864 0B0008E4C8C5D3D7           11274             +
 00086C 000008E46F                 11275    00662000           SCKW  ?,HELP
 000871                            11277    00663000           SCKW  DEFINE,DEFINE,A
 000871 0D0009F4C4C5C6C9           11278             +
 00087B                            11279    00664000           SCKW  START,START,A
 00087B 0C000F22E2E3C1D9           11280             +
 000884                            11281    00665000           SCKW  STOP,STOP,A
 000884 0B001158E2E3D6D7           11282             +
 00088C                            11283    00666000           SCKW  CANCEL,CANCEL,A
 00088C 0D001354C3C1D5C3           11284             +
 000896                            11285    00667000           SCKW  SUSPEND,SUSPEND,A
 000896 0E0015C6E2E4E2D7           11286             +
 0008A1                            11287    00668000           SCKW  LOGREL,SPINLOG,A
 0008A1 0D00174AD3D6C7D9           11288             +
 0008AB                            11289    00669000           SCKW  RESUME,RESUME,A
 0008AB 0D001896D9C5E2E4           11290             +
 0008B5                            11291    00670000           SCKW  STATUS,STATUS,A
 0008B5 0D001C20E2E3C1E3           11292             +
 0008BF                            11293    00671000           SCKW  TRACE,SHOTRACE,A    PJG WISH LIST
 0008BF 0C0022CEE3D9C1C3           11294             +
 0008C8 0100200AE2C3               11295    00672000           SCKW  SC,SHOWCORE
 0008CE 0100253EC4C3               11297    00673000           SCKW  DC,DISASMBL
 0008D4 01002678E2C1               11299    00674000           SCKW  SA,SHOWADDR
 0008DA 010027B2D7C3               11301    00675000           SCKW  PC,PTCHCORE
 0008E0 FF00295E                   11303    00676000           SCKW  ,BADCMD
1MONITOR  (MONI2170) (12:00) (20JUN02) HELP Command                                                                         Page   35
0Current Usings:  (MTVT,R11) (GVT,R12)
0Loc    Object Code    Addr1 Addr2  Stmt Lv Lineno    Source Statement           (Hibal 5, Asmedit 3.3)  HLASM R4.0  2002/06/20 12.00
+___    ______ ____    _____ _____  ____ __ ______    ______ _________
0                                  11306    00678000  ¿þþþþþþþþþþþþþþþþþþþþþþþþþþþþþþþþþþþþþþþþþþþþþþþþþþþþþþþþþþþþþþþþþþþþþÜ
                                   11307    00679000  Ÿ                                                                     Ÿ
                                   11308    00680000  Ÿ        HELP command.                                                Ÿ
                                   11309    00681000  Ÿ                                                                     Ÿ
                                                      ¾þþþþþþþþþþþþþþþþþþþþþþþþþþþþþþþþþþþþþþþþþþþþþþþþþþþþþþþþþþþþþþþþþþþþþ»
00008E4 90DF B0D4            000D4 11310    00682000  HELP     CPROC
 0008E8 58F0 C014/0DEF       00014 11320             +
 0008EE C8C5D3D740404040           11322             +
 0008F6 98DF B0D4            000D4 11323             +
 0008FA 58E0 F014            00014 11324             +
 0008FE 50E0 D000            00000 11327             +
 000902 900C D004/188D       00004 11330             +
 000908 41D0 D038/0D70       00038 11332             +
 00090E 4110 74C1            00DCF 11355    00683000           SEGWR 'Commands are:'
 USING  *,R7
 000912 4100 000D            0000D 11360             +
 000916 58F0 B444            00444 11366             +
 00091A 58E0 7432/0DEE       00D40 11369             +
 000920 4110 74CE            00DDC 11371    00684000           SEGWR 'DEFINE task-name MODULE load-module-name ..'
 000924 4100 002B            0002B 11376             +
 000928 58F0 B444            00444 11382             +
 00092C 58E0 7432/0DEE       00D40 11385             +
 000932 4110 74F9            00E07 11387    00685000           SEGWR 'STATUS <task-name> | ALL [FULL]'
 000936 4100 001F            0001F 11392             +
 00093A 58F0 B444            00444 11398             +
 00093E 58E0 7432/0DEE       00D40 11401             +
 000944 4110 7518            00E26 11403    00686000           SEGWR 'START <task-name> | ALL'
 000948 4100 0017            00017 11408             +
 00094C 58F0 B444            00444 11414             +
 000950 58E0 7432/0DEE       00D40 11417             +
 000956 4110 7452            00D60 11419    00687000           SEGWR 'STOP <task-name> | ALL'
 00095A 4100 0016            00016 11424             +
 00095E 58F0 B444            00444 11430             +
 000962 58E0 7432/0DEE       00D40 11433             +
 000968 4110 73DA            00CE8 11435    00688000           SEGWR 'CANCEL <task-name> | ALL'
 00096C 4100 0018            00018 11440             +
 000970 58F0 B444            00444 11446             +
 000974 58E0 7432/0DEE       00D40 11449             +
 00097A 4110 752F            00E3D 11451    00689000           SEGWR 'SUSPEND <task-name> | ALL'
 00097E 4100 0019            00019 11456             +
 000982 58F0 B444            00444 11462             +
 000986 58E0 7432/0DEE       00D40 11465             +
 00098C 4110 73F2            00D00 11467    00690000           SEGWR 'LOGREL <task-name> | ALL'
 000990 4100 0018            00018 11472             +
 000994 58F0 B444            00444 11478             +
 000998 58E0 7432/0DEE       00D40 11481             +
 00099E 4110 740A            00D18 11483    00691000           SEGWR 'RESUME <task-name> | ALL'
 0009A2 4100 0018            00018 11488             +
 0009A6 58F0 B444            00444 11494             +
 0009AA 58E0 7432/0DEE       00D40 11497             +
 0009B0 4110 7548            00E56 11499    00692000           SEGWR 'TRACE task-name'
 0009B4 4100 000F            0000F 11504             +
 0009B8 58F0 B444            00444 11510             +
1MONITOR  (MONI2170) (12:00) (20JUN02) HELP Command                                                                         Page   36
0Current Usings:  (*,R7) (MTVT,R11) (GVT,R12)
0Loc    Object Code    Addr1 Addr2  Stmt Lv Lineno    Source Statement           (Hibal 5, Asmedit 3.3)  HLASM R4.0  2002/06/20 12.00
+___    ______ ____    _____ _____  ____ __ ______    ______ _________
00009BC 58E0 7432/0DEE       00D40 11513             +
 0009C2 4110 7557            00E65 11515    00693000           SEGWR 'SC <task-name> location'
 0009C6 4100 0017            00017 11520             +
 0009CA 58F0 B444            00444 11526             +
 0009CE 58E0 7432/0DEE       00D40 11529             +
 0009D4 4110 756E            00E7C 11531    00694000           SEGWR 'PC <task-name> location value VER value'
 0009D8 4100 0027            00027 11536             +
 0009DC 58F0 B444            00444 11542             +
 0009E0 58E0 7432/0DEE       00D40 11545             +
 0009E6 18D8/980C D004       00004 11547    00695000           PEND
 DROP   *,R7
 0009EC 58E0 D000/12FF       00000 11563             +
 0009F2 07FE                       11566             +
1MONITOR  (MONI2170) (12:00) (20JUN02) DEFINE Command                                                                       Page   37
0Current Usings:  (MTVT,R11) (GVT,R12)
0Loc    Object Code    Addr1 Addr2  Stmt Lv Lineno    Source Statement           (Hibal 5, Asmedit 3.3)  HLASM R4.0  2002/06/20 12.00
+___    ______ ____    _____ _____  ____ __ ______    ______ _________
0                                  11568    00697000  ¿þþþþþþþþþþþþþþþþþþþþþþþþþþþþþþþþþþþþþþþþþþþþþþþþþþþþþþþþþþþþþþþþþþþþþÜ
                                   11569    00698000  Ÿ                                                                     Ÿ
                                   11570    00699000  Ÿ        DEFINE Command.                                              Ÿ
                                   11571    00700000  Ÿ                                                                     Ÿ
                                                      ¾þþþþþþþþþþþþþþþþþþþþþþþþþþþþþþþþþþþþþþþþþþþþþþþþþþþþþþþþþþþþþþþþþþþþþ»
00009F4 90DF B0D4            000D4 11572    00701000  DEFINE   PROC
 0009F8 58F0 C014/0DEF       00014 11582             +
 0009FE C4C5C6C9D5C54040           11584             +
 000A06 98DF B0D4            000D4 11585             +
 000A0A 50E0 D000            00000 11588             +
 000A0E 900C D004/188D       00004 11591             +
 000A14 41D0 D038/0D70       00038 11593             +
 000A1A 50F0 D000            00000 11616    00702000           SCPUSH
 USING  *,R7
 000A1E D203 D004 B438 00004 00438 11618             +
 000A24 41DD 0008            00008 11619             +
                                   11620    00703000
 000A28 1B11/41F0 B424       00424 11621    00704000           SCAN  ,MTVTSCNCB
 000A2E 58E0 731E/0DEE       00D38 11635             +
 000A34 4770 7034            00A4E 11637    00705000           IF    Z,BEGIN
 000A38 4110 7489            00EA3 11648  1 00706000             SEGWR 'Missing task name'
 000A3C 4100 0011            00011 11653  1          +
 000A40 58F0 B444            00444 11659  1          +
 000A44 58E0 7326/0DEE       00D40 11662  1          +
 000A4A 47F0 70AE            00AC8 11664  1 00707000             B     DEFINEXX
 000A4E                            11665    00708000           END
                                   11669    00709000           ¿þþþþþþþþþþþþþþþþþþþþþþþÜ
                                   11670    00710000           Ÿ  Find existing task.  Ÿ
                                   11671    00711000           ¾þþþþþþþþþþþþþþþþþþþþþþþ»
 000A4E 4110 B428            00428 11672    00712000           LA    R1,MTVTSCNKW        Task name
 000A52 58E0 732A/0DEE       00D44 11673    00713000           ACALL FINDTVT             Get corresponding task
 000A58 4780 706A            00A84 11677    00714000           IF    NZ,BEGIN
 000A5C 4110 B428            00428 11688  1 00715000             SEGT MTVTSCNKW,L'MTVTSCNKW
 000A60 4100 0008            00008 11705  1          +
 000A64 58F0 B444            00444 11711  1          +
 000A68 58E0 732E/0DEE       00D48 11714  1          +
 000A6E 4110 735C            00D76 11716  1 00716000             SEGWR ': task previously defined.'
 000A72 4100 001A            0001A 11721  1          +
 000A76 58F0 B444            00444 11727  1          +
 000A7A 58E0 7326/0DEE       00D40 11730  1          +
 000A80 47F0 70AE            00AC8 11732  1 00717000             B     DEFINEXX
 000A84                            11733    00718000           END
                                   11737    00719000           ¿þþþþþþþþþþþþþþþþþþþþþþÜ
                                   11738    00720000           Ÿ  Create a new task.  Ÿ
                                   11739    00721000           ¾þþþþþþþþþþþþþþþþþþþþþþ»
 000A84 4770 7078            00A92 11740    00722000           IF    Z,BEGIN             Create new task block...
 000A88 4110 B428            00428 11751  1 00723000             LA    R1,MTVTSCNKW        Task name
 000A8C 58E0 7332/0DEE       00D4C 11752  1 00724000             ACALL MAKETVT             Make a new task
 000A92                            11756    00725000           END
                                   11760    00726000
 000A92 18AF                       11761    00727000           LR    TVTR,R15
 USING  TVT,R10                    11762    00728000           WITH  TVT
1MONITOR  (MONI2170) (12:00) (20JUN02) DEFINE Command                                                                       Page   38
0Current Usings:  (*,R7) (TVT,R10) (MTVT,R11) (GVT,R12)
0Loc    Object Code    Addr1 Addr2  Stmt Lv Lineno    Source Statement           (Hibal 5, Asmedit 3.3)  HLASM R4.0  2002/06/20 12.00
+___    ______ ____    _____ _____  ____ __ ______    ______ _________
0                                  11774    00729000           ¿þþþþþþþþþþþþþþþþþþþþþþþþþþþÜ
                                   11775    00730000           Ÿ  Process DEFINE options.  Ÿ
                                   11776    00731000           ¾þþþþþþþþþþþþþþþþþþþþþþþþþþþ»
 000A94 5810 7336            00D50 11777    00732000           SCAN  L:=A(DEFPRT),MTVTSCNCB
 000A98 41F0 B424            00424 11789             +
 000A9C 58E0 731E/0DEE       00D38 11792             +
 000AA2 47B0 70AE            00AC8 11794    00733000           IF    M,BEGIN
 000AA6 1300                       11805  1 00734000             LCR   R0,R0
 000AA8 1810/1801                  11806  1 00735000             SEG  (R0),(R1)
 000AAC 58F0 B444            00444 11824  1          +
 000AB0 58E0 7322/0DEE       00D3C 11827  1          +
 000AB6 4110 749A            00EB4 11829  1 00736000             SEGWR ': invalid option.'
 000ABA 4100 0011            00011 11834  1          +
 000ABE 58F0 B444            00444 11840  1          +
 000AC2 58E0 7326/0DEE       00D40 11843  1          +
 000AC8                            11845    00737000           END
                                   11849    00738000
 000AC8                            11850    00739000  DEFINEXX LABEL ,
 000AC8 5BD0 733A            00D54 11852    00740000           SCPOP
 000ACC 58F0 D000            00000 11854             +
 000AD0 D203 B438 D004 00438 00004 11855             +
 000AD6 18D8/980C D004       00004 11856    00741000           PEND
 DROP   TVT,R10
 DROP   *,R7
 000ADC 58E0 D000/12FF       00000 11877             +
 000AE2 07FE                       11880             +
1MONITOR  (MONI2170) (12:00) (20JUN02) DEFINE Command                                                                       Page   39
0Current Usings:  (MTVT,R11) (GVT,R12)
0Loc    Object Code    Addr1 Addr2  Stmt Lv Lineno    Source Statement           (Hibal 5, Asmedit 3.3)  HLASM R4.0  2002/06/20 12.00
+___    ______ ____    _____ _____  ____ __ ______    ______ _________
0                                  11882    00743000  *
                                   11883    00744000  *        DEFINE Command Options.
                                   11884    00745000  *
 000AE4                            11885    00746000  DEFPRT   SCKW  MODULE,MODULE,(A,P)
 000AE4 8D000B12D4D6C4E4           11886             +
 000AEE                            11887    00747000           SCKW  PARM,PARM,(A,P)
 000AEE 8B000B6ED7C1D9D4           11888             +
 000AF6                            11889    00748000           SCKW  RESTART,REST,(A,P,I)
 000AF6 CE000C32D9C5E2E3           11890             +
 000B01                            11891    00749000           SCKW  NORESTART,NOREST
 000B01 07000CACD5D6D9C5           11892             +
 000B0D FF0029D0                   11893    00750000           SCKW  ,INVALID
                                   11895    00751000  *
                                   11896    00752000  *
 000B12 90DF B0D4            000D4 11897    00753000  MODULE   PROC
 000B16 58F0 C014/0DEF       00014 11907             +
 000B1C D4D6C4E4D3C54040           11909             +
 000B24 98DF B0D4            000D4 11910             +
 000B28 50E0 D000            00000 11913             +
 000B2C 900C D004/188D       00004 11916             +
 000B32 41D0 D038/0D70       00038 11918             +
 000B38 1200/4770 7022       00B5A 11941    00754000           IF    (R0,Z),BEGIN
 USING  *,R7
 000B3E 4110 738D            00EC5 11955  1 00755000             SEGWR 'Missing MODULE load-module-name'
 000B42 4100 001F            0001F 11960  1          +
 000B46 58F0 B444            00444 11966  1          +
 000B4A 58E0 7208/0DEE       00D40 11969  1          +
 000B50                            11971  1 00756000             CLEAR  MTVTSCNLEN         Stop scan
 000B50 D703 B430 B430 00430 00430 11977  1          +
 000B56 47F0 7028            00B60 11978  1 00757000             EXIT  MODULE
 000B5A                            11981    00758000           END
 USING  TVT,R10                    11985    00759000           WITH  TVT
 000B5A D207 A01C B428 0001C 00428 11997    00760000           MVC   TVTLMOD,MTVTSCNKW
 000B60 18D8/980C D004       00004 11998    00761000           PEND
 DROP   TVT,R10
 DROP   *,R7
 000B66 58E0 D000/12FF       00000 12019             +
 000B6C 07FE                       12022             +
                                   12023    00762000
 000B6E 90DF B0D4            000D4 12024    00763000  PARM     PROC
 000B72 58F0 C014/0DEF       00014 12034             +
 000B78 D7C1D9D440404040           12036             +
 000B80 98DF B0D4            000D4 12037             +
 000B84 50E0 D000            00000 12040             +
 000B88 900C D004/188D       00004 12043             +
 000B8E 41D0 D038/0D70       00038 12045             +
 000B94 50F0 D000            00000 12068    00764000           SCPUSH
 USING  *,R7
 000B98 D203 D004 B438 00004 00438 12070             +
 000B9E 41DD 0008            00008 12071             +
 USING  TVT,R10                    12072    00765000           WITH  TVT
 000BA2 1200/4770 7030       00BC4 12084    00766000           IF    (R0,Z),BEGIN
 000BA8 4110 7350            00EE4 12098  1 00767000             SEGWR 'Missing PARM string'
 000BAC 4100 0013            00013 12103  1          +
1MONITOR  (MONI2170) (12:00) (20JUN02) DEFINE Command                                                                       Page   40
0Current Usings:  (*,R7) (TVT,R10) (MTVT,R11) (GVT,R12)
0Loc    Object Code    Addr1 Addr2  Stmt Lv Lineno    Source Statement           (Hibal 5, Asmedit 3.3)  HLASM R4.0  2002/06/20 12.00
+___    ______ ____    _____ _____  ____ __ ______    ______ _________
0000BB0 58F0 B444            00444 12109  1          +
 000BB4 58E0 71AC/0DEE       00D40 12112  1          +
 000BBA                            12114  1 00768000             CLEAR  MTVTSCNLEN         Stop scan
 000BBA D703 B430 B430 00430 00430 12120  1          +
 000BC0 47F0 7082            00C16 12121  1 00769000             B     PARMXX
 000BC4                            12122    00770000           END
 000BC4 5900 71C4            00D58 12126    00771000           IF    (R0,GE,L'TVTPTXT),BEGIN
 000BC8 4750 7054            00BE8 12138             +
 000BCC 4110 7363            00EF7 12143  1 00772000             SEGWR 'PARM string too long.'
 000BD0 4100 0015            00015 12148  1          +
 000BD4 58F0 B444            00444 12154  1          +
 000BD8 58E0 71AC/0DEE       00D40 12157  1          +
 000BDE                            12159  1 00773000             CLEAR  MTVTSCNLEN         Stop scan
 000BDE D703 B430 B430 00430 00430 12165  1          +
 000BE4 47F0 7082            00C16 12166  1 00774000             B     PARMXX
 000BE8                            12167    00775000           END
 000BE8 41F0 A036            00036 12171    00776000           LA    R15,TVTPTXT
 000BEC 58E0 71C8/0DEE       00D5C 12172    00777000           VCALL DEQSTR
 000BF2 47B0 707E            00C12 12176    00778000           IF    NEG,BEGIN
 000BF6 4110 71FC            00D90 12187  1 00779000             SEGWR 'PARM string not quoted.  PARM ignored.'
 000BFA 4100 0026            00026 12192  1          +
 000BFE 58F0 B444            00444 12198  1          +
 000C02 58E0 71AC/0DEE       00D40 12201  1          +
 000C08                            12203  1 00780000             CLEAR  MTVTSCNLEN         Stop scan
 000C08 D703 B430 B430 00430 00430 12209  1          +
 000C0E 47F0 7082            00C16 12210  1 00781000             B     PARMXX
 000C12                            12211    00782000           END
 000C12 4000 A034            00034 12215    00783000           STH   R0,TVTPLEN
 000C16                            12216    00784000  PARMXX   LABEL ,
 000C16 5BD0 71C0            00D54 12218    00785000           SCPOP
 000C1A 58F0 D000            00000 12220             +
 000C1E D203 B438 D004 00438 00004 12221             +
 000C24 18D8/980C D004       00004 12222    00786000           PEND
 DROP   TVT,R10
 DROP   *,R7
 000C2A 58E0 D000/12FF       00000 12243             +
 000C30 07FE                       12246             +
                                   12247    00787000
 000C32 90DF B0D4            000D4 12248    00788000  REST     PROC
 000C36 58F0 C014/0DEF       00014 12258             +
 000C3C D9C5E2E340404040           12260             +
 000C44 98DF B0D4            000D4 12261             +
 000C48 50E0 D000            00000 12264             +
 000C4C 900C D004/188D       00004 12267             +
 000C52 41D0 D038/0D70       00038 12269             +
 000C58 50F0 D000            00000 12292    00789000           SCPUSH
 USING  *,R7
 000C5C D203 D004 B438 00004 00438 12294             +
 000C62 41DD 0008            00008 12295             +
 000C66 5830 F000            00000 12296    00790000           L     R3,@R15             RESTART COUNT
 000C6A 1233/4770 7034       00C8C 12297    00791000           IF    (R3,Z),BEGIN
 000C70 4110 72B4            00F0C 12311  1 00792000             SEGWR 'Missing RESTART count'
 000C74 4100 0015            00015 12316  1          +
 000C78 58F0 B444            00444 12322  1          +
1MONITOR  (MONI2170) (12:00) (20JUN02) DEFINE Command                                                                       Page   41
0Current Usings:  (*,R7) (MTVT,R11) (GVT,R12)
0Loc    Object Code    Addr1 Addr2  Stmt Lv Lineno    Source Statement           (Hibal 5, Asmedit 3.3)  HLASM R4.0  2002/06/20 12.00
+___    ______ ____    _____ _____  ____ __ ______    ______ _________
0000C7C 58E0 70E8/0DEE       00D40 12325  1          +
 000C82                            12327  1 00793000             CLEAR  MTVTSCNLEN         Stop scan
 000C82 D703 B430 B430 00430 00430 12333  1          +
 000C88 47F0 7038            00C90 12334  1 00794000             B     RESTXX
 000C8C                            12335    00795000           END
 USING  TVT,R10                    12339    00796000           WITH  TVT
 000C8C 5030 A088            00088 12351    00797000           ST    R3,TVTRESTART
 000C90                            12352    00798000  RESTXX   LABEL ,
 000C90 5BD0 70FC            00D54 12354    00799000           SCPOP
 000C94 58F0 D000            00000 12356             +
 000C98 D203 B438 D004 00438 00004 12357             +
 000C9E 18D8/980C D004       00004 12358    00800000           PEND
 DROP   TVT,R10
 DROP   *,R7
 000CA4 58E0 D000/12FF       00000 12379             +
 000CAA 07FE                       12382             +
                                   12383    00801000
 000CAC 90DF B0D4            000D4 12384    00802000  NOREST   PROC
 000CB0 58F0 C014/0DEF       00014 12394             +
 000CB6 D5D6D9C5E2E34040           12396             +
 000CBE 98DF B0D4            000D4 12397             +
 000CC2 50E0 D000            00000 12400             +
 000CC6 900C D004/188D       00004 12403             +
 000CCC 41D0 D038/0D70       00038 12405             +
 USING  *,R7                       12428    00803000           WITH  TVT
 USING  TVT,R10
 000CD2                            12440    00804000           CLEAR TVTRESTART
 000CD2 D703 A088 A088 00088 00088 12446             +
 000CD8 18D8/980C D004       00004 12447    00805000           PEND
 DROP   TVT,R10
 DROP   *,R7
 000CDE 58E0 D000/12FF       00000 12468             +
 000CE4 07FE                       12471             +
                                   12472    00806000
                                   12473    00807000           QLTORG
1MONITOR  (MONI2170) (12:00) (20JUN02) START Command                                                                        Page   42
0Current Usings:  (MTVT,R11) (GVT,R12)
0Loc    Object Code    Addr1 Addr2  Stmt Lv Lineno    Source Statement           (Hibal 5, Asmedit 3.3)  HLASM R4.0  2002/06/20 12.00
+___    ______ ____    _____ _____  ____ __ ______    ______ _________
0                                  12519    00809000  ¿þþþþþþþþþþþþþþþþþþþþþþþþþþþþþþþþþþþþþþþþþþþþþþþþþþþþþþþþþþþþþþþþþþþþþÜ
                                   12520    00810000  Ÿ                                                                     Ÿ
                                   12521    00811000  Ÿ  START Command.                                                     Ÿ
                                   12522    00812000  Ÿ                                                                     Ÿ
                                                      ¾þþþþþþþþþþþþþþþþþþþþþþþþþþþþþþþþþþþþþþþþþþþþþþþþþþþþþþþþþþþþþþþþþþþþþ»
0000F22 90DF B0D4            000D4 12523    00813000  START    PROC
 000F26 58F0 C014/0DEF       00014 12533             +
 000F2C E2E3C1D9E3404040           12535             +
 000F34 98DF B0D4            000D4 12536             +
 000F38 50E0 D000            00000 12539             +
 000F3C 900C D004/188D       00004 12542             +
 000F42 41D0 D038/0D70       00038 12544             +
 000F48 50F0 D000            00000 12567    00814000           SCPUSH
 USING  *,R7
 000F4C D203 D004 B438 00004 00438 12569             +
 000F52 41DD 0008            00008 12570             +
 USING  TVT,R10                    12571    00815000           WITH  TVT
                                   12583    00816000  *
                                   12584    00817000  *                                  Scan for task name
                                   12585    00818000  *                                  Find task TVT
 000F56 58E0 7B18/0DEE       01A60 12586    00819000           ACALL SCANTASK
 000F5C 4770 7060            00FA8 12590    00820000           IF    NZ,STARTXX
                                   12604    00821000  *
                                   12605    00822000  *                                  If start all tasks
 000F60                            12606    00823000           IF    (@R1,EQ,'ALL '),BEGIN
 000F60 D503 7B1C 1000 01A64 00000 12616             +
 000F66 4770 7042            00F8A 12617             +
 000F6A 58A0 C06C            0006C 12622  1 00824000             L     TVTR,GVTTVTQH       First TVT is dummy (MTVT)
 000F6E 58A0 A008/12AA       00008 12623  1 00825000             WHILE ('LT TVTR,TVTLINK',NZ),BEGIN
 000F74 4780 7042            00F8A 12636  1          +
 000F78                            12641  2 00826000               CLEAR TVTRESCNT           CLEAR RESTART COUNT
 000F78 D703 A08C A08C 0008C 0008C 12647  2          +
 000F7E 181A                       12648  2 00827000               LR    R1,TVTR
 000F80 58E0 7B20/0DEE       01A68 12649  2 00828000               ACALL STRTTASK
 000F86 47F0 7026            00F6E 12653  1 00829000             END
 000F8A                            12658    00830000           END
                                   12662    00831000  *
                                   12663    00832000  *                                  If start specific task
 000F8A 7046           00F8A 00F68 12664    00833000           ELSE  BEGIN
 000F8A 47F0 7060            00FA8 12669             +
 000F8E 58E0 7B24/0DEE       01A6C 12675  1 00834000             ACALL FINDTASK
 000F94 12FF/4780 7060       00FA8 12679  1 00835000             IF    (R15,Z),STARTXX
 000F9A 181F                       12696  1 00836000             LR    R1,R15
 000F9C                            12697  1 00837000             CLEAR TVTRESCNT           CLEAR RESTART COUNT
 000F9C D703 A08C A08C 0008C 0008C 12703  1          +
 000FA2 58E0 7B20/0DEE       01A68 12704  1 00838000             ACALL STRTTASK
 000FA8                            12708    00839000           END
                                   12712    00840000
 000FA8                            12713    00841000  STARTXX  LABEL ,
 000FA8 5BD0 7B28            01A70 12715    00842000           SCPOP
 000FAC 58F0 D000            00000 12717             +
 000FB0 D203 B438 D004 00438 00004 12718             +
 000FB6 18D8/980C D004       00004 12719    00843000           PEND
1MONITOR  (MONI2170) (12:00) (20JUN02) START Command                                                                        Page   43
0Current Usings:  (MTVT,R11) (GVT,R12)
0Loc    Object Code    Addr1 Addr2  Stmt Lv Lineno    Source Statement           (Hibal 5, Asmedit 3.3)  HLASM R4.0  2002/06/20 12.00
+___    ______ ____    _____ _____  ____ __ ______    ______ _________
0DROP   TVT,R10
 DROP   *,R7
 000FBC 58E0 D000/12FF       00000 12740             +
 000FC2 07FE                       12743             +
1MONITOR  (MONI2170) (12:00) (20JUN02) START Command                                                                        Page   44
0Current Usings:  (MTVT,R11) (GVT,R12)
0Loc    Object Code    Addr1 Addr2  Stmt Lv Lineno    Source Statement           (Hibal 5, Asmedit 3.3)  HLASM R4.0  2002/06/20 12.00
+___    ______ ____    _____ _____  ____ __ ______    ______ _________
0                                  12745    00845000  ¿þþþþþþþþþþþþþþþþþþþþþþþþþþþþþþþþþþþþþþþþþþþþþþþþþþþþþþþþþþþþþþþþþþþþþÜ
                                   12746    00846000  Ÿ                                                                     Ÿ
                                   12747    00847000  Ÿ  STRTTASK -- Routine to attach a subtask.                           Ÿ
                                   12748    00848000  Ÿ                                                                     Ÿ
                                   12749    00849000  Ÿ    On entry:                                                        Ÿ
                                   12750    00850000  Ÿ      R1 - TVT ptr                                                   Ÿ
                                   12751    00851000  Ÿ                                                                     Ÿ
                                                      ¾þþþþþþþþþþþþþþþþþþþþþþþþþþþþþþþþþþþþþþþþþþþþþþþþþþþþþþþþþþþþþþþþþþþþþ»
0000FC4 90DF B0D4            000D4 12752    00852000  STRTTASK PROC
 000FC8 58F0 C014/0DEF       00014 12762             +
 000FCE E2E3D9E3E3C1E2D2           12764             +
 000FD6 98DF B0D4            000D4 12765             +
 000FDA 50E0 D000            00000 12768             +
 000FDE 900C D004/188D       00004 12771             +
 000FE4 41D0 D038/0D70       00038 12773             +
 000FEA 1861                       12796    00853000           LR    R6,R1               Task ptr
 USING  *,R7
 USING  TVT,R6                     12797    00854000           WITH  (TVT,R6)
                                   12810    00855000
 000FEC                            12811    00856000           IF    (TVTTCBP,NZ),BEGIN  Task is active...
 000FEC D603 6098 6098 00098 00098 12821             +
 000FF2 4780 7040            0102A 12822             +
 000FF6 4110 6014            00014 12827  1 00857000             SEGT  TVTNAME
 000FFA 4100 0008            00008 12842  1          +
 000FFE 58F0 B444            00444 12848  1          +
 001002 58E0 7A8A/0DEE       01A74 12851  1          +
 001008 4110 7ADE            01AC8 12853  1 00858000             SEG   ' is already active'
 00100C 4100 0012            00012 12857  1          +
 001010 58F0 B444            00444 12863  1          +
 001014 58E0 7A8E/0DEE       01A78 12866  1          +
 00101A 1B00/58F0 B444       00444 12868  1 00859000             SEGWR
 001020 58E0 7A92/0DEE       01A7C 12888  1          +
 001026 47F0 7118            01102 12890  1 00860000             EXIT  STRTTASK
 00102A                            12893    00861000           END
                                   12897    00862000  *
                                   12898    00863000  *                                  Initialize TVT for start
 00102A 4110 6000            00000 12899    00864000           LA    R1,TVT
 00102E 58E0 7A96/0DEE       01A80 12900    00865000           ACALL INITTVT
 001034 41F0 0001            00001 12904    00866000           INCR  R15,GVTTSKID        SET UNIQUE TASK SEQ #
 001038 5EF0 C058            00058 12908             +
 00103C 50F0 C058            00058 12909             +
 001040 50F0 6010            00010 12910    00867000           ST    R15,TVTSEQ
                                   12911    00868000
 001044 4150 7126            01110 12912    00869000           LA    R5,STRTATCH         Attach param list
 USING  ATTCHLST,R5                12913    00870000           WITH  (ATTCHLST,R5),BEGIN
 001048 D207 501C 601C 0001C 0001C 12927  1 00871000             MVC   ATPRGNM,TVTLMOD     Eploc=
                                   12928  1 00872000  *        LA    R2,TVTECB           ** DEBUG ** REMOVE TVTECB !
                                   12929  1 00873000  *        ST    R2,ATECBADR         Ecb=
 00104E 4130 6000            00000 12930  1 00874000             LA    R3,TVT
 001052 5030 5028            00028 12931  1 00875000             ST    R3,ATSTAIAD         Stai= parameter addr ML940201
 DROP   ATTCHLST,R5                12932    00876000           END
 001056 4110 6024            00024 12940    00877000           LA    R1,TVTPLIST         Param ptr
                                   12941    00878000  *
1MONITOR  (MONI2170) (12:00) (20JUN02) START Command                                                                        Page   45
0Current Usings:  (TVT,R6) (*,R7) (MTVT,R11) (GVT,R12)
0Loc    Object Code    Addr1 Addr2  Stmt Lv Lineno    Source Statement           (Hibal 5, Asmedit 3.3)  HLASM R4.0  2002/06/20 12.00
+___    ______ ____    _____ _____  ____ __ ______    ______ _________
0                                  12942    00879000  *                                  DO ATTACH !
 00105A 41F0 7126            01110 12943    00880000           ATTACH SF=(E,STRTATCH)
 00105E 9248 F037      00037       12949             +
 001062 9680 F008      00008       12950             +
 001066 94FF F03C      0003C       12951             +
 00106A 9201 F03D/0A2A 0003D       12952             +
                                   12954    00881000
 001070 5010 6098            00098 12955    00882000           ST    R1,TVTTCBP          Save TCB addr
 001074 41F0 0001            00001 12956    00883000           INCR  R15,GVTNTASK
 001078 5EF0 C054            00054 12960             +
 00107C 50F0 C054            00054 12961             +
                                   12962    00884000  *
                                   12963    00885000  *         COMMENT                   WRITE OUT task started msg
                                   12964    00886000  *         TIME  BIN
                                   12965    00887000  *         LA    R15,MTVTPRSG
                                   12966    00888000  *         VCALL SEGDAY
                                   12967    00889000  *         SEGCOL 45
 001080 4110 6014            00014 12968    00890000           SEGT  TVTNAME
 001084 4100 0008            00008 12983             +
 001088 58F0 B444            00444 12989             +
 00108C 58E0 7A8A/0DEE       01A74 12992             +
 001092                            12994    00891000           IF    (TVTNAME,NE,TVTLMOD),BEGIN
 001092 D507 6014 601C 00014 0001C 13006             +
 001098 4780 70E8            010D2 13007             +
 00109C 4110 7AF0            01ADA 13012  1 00892000             SEG   ' ('
 0010A0 4100 0002            00002 13016  1          +
 0010A4 58F0 B444            00444 13022  1          +
 0010A8 58E0 7A8E/0DEE       01A78 13025  1          +
 0010AE 4110 601C            0001C 13027  1 00893000             SEGT  TVTLMOD
 0010B2 4100 0008            00008 13042  1          +
 0010B6 58F0 B444            00444 13048  1          +
 0010BA 58E0 7A8A/0DEE       01A74 13051  1          +
 0010C0 4110 7B50            01B3A 13053  1 00894000             SEG   ')'
 0010C4 4100 0001            00001 13057  1          +
 0010C8 58F0 B444            00444 13063  1          +
 0010CC 58E0 7A8E/0DEE       01A78 13066  1          +
 0010D2                            13068    00895000           END
 0010D2 4110 7AF2            01ADC 13072    00896000           SEG   ' started, TCB='
 0010D6 4100 000E            0000E 13076             +
 0010DA 58F0 B444            00444 13082             +
 0010DE 58E0 7A8E/0DEE       01A78 13085             +
 0010E4 5810 6098            00098 13087    00897000           SEGHX TVTTCBP,8           Report TCB address  mcl20020619
 0010E8 4100 0008            00008 13098             +
 0010EC 58F0 B444            00444 13104             +
 0010F0 58E0 7A9A/0DEE       01A84 13107             +
 0010F6 1B00/58F0 B444       00444 13109    00897100           SEGWR
 0010FC 58E0 7A92/0DEE       01A7C 13129             +
                                   13131    00898000
 001102 18D8/980C D004       00004 13132    00899000           PEND
 DROP   TVT,R6
 DROP   *,R7
 001108 58E0 D000/12FF       00000 13153             +
 00110E 07FE                       13156             +
                                   13157    00899100  * 2002/06/19 mcl:  DPMOD=-1 so monitor higher than subtask
1MONITOR  (MONI2170) (12:00) (20JUN02) START Command                                                                        Page   46
0Current Usings:  (MTVT,R11) (GVT,R12)
0Loc    Object Code    Addr1 Addr2  Stmt Lv Lineno    Source Statement           (Hibal 5, Asmedit 3.3)  HLASM R4.0  2002/06/20 12.00
+___    ______ ____    _____ _____  ____ __ ______    ______ _________
0                                  13158    00900000  *
                                   13159    00901000C STRTATCH ATTACH EP=*-*,ESTAI=(STAI,*-*),ETXR=EOTASK,DPMOD=-1,
 001110 0000112C                            00902000                 SHSPV=2,SZERO=NO,SF=L
 001114 00000000                   13166             +
 001118 80000000                   13167             +
 00111C 00000000                   13168             +
 001120 00000002                   13169             +
 001124 000035DA/FFFF              13170             +
 00112A 00/08                      13172             +
 00112C 5C605C4040404040           13174             +
 001134 00000000                   13175             +
 001138 00000000                   13176             +
 00113C 0000359A                   13177             +
 001140 00000000/0E/00             13178             +
 001146 0048/00000000              13181             +
 00114C 01/01                      13183             +
 00114E 0000000000000000           13185             +
1MONITOR  (MONI2170) (12:00) (20JUN02) STOP Command                                                                         Page   47
0Current Usings:  (MTVT,R11) (GVT,R12)
0Loc    Object Code    Addr1 Addr2  Stmt Lv Lineno    Source Statement           (Hibal 5, Asmedit 3.3)  HLASM R4.0  2002/06/20 12.00
+___    ______ ____    _____ _____  ____ __ ______    ______ _________
0                                  13187    00904000  ¿þþþþþþþþþþþþþþþþþþþþþþþþþþþþþþþþþþþþþþþþþþþþþþþþþþþþþþþþþþþþþþþþþþþþþÜ
                                   13188    00905000  Ÿ                                                                     Ÿ
                                   13189    00906000  Ÿ  STOP Command.                                                      Ÿ
                                   13190    00907000  Ÿ                                                                     Ÿ
                                                      ¾þþþþþþþþþþþþþþþþþþþþþþþþþþþþþþþþþþþþþþþþþþþþþþþþþþþþþþþþþþþþþþþþþþþþþ»
0000000                00000 0000C 13191    00908000  STPWA    RECORD BEGIN
 000000                            13199  1 00909000  STPTASK    DS    CL8
 000008                            13200  1 00910000  STPPCODE   DS    F
 00000C                0000C 0000C 13201    00911000           END
                                   13210    00912000  *
                                   13211    00913000  *
 001158 90DF B0D4            000D4 13212    00914000  STOP     PROC  STPWA
 00115C 58F0 C014/0DEF       00014 13223             +
 001162 E2E3D6D740404040           13225             +
 00116A 98DF B0D4            000D4 13226             +
 00116E 50E0 D000            00000 13229             +
 001172 900C D004/188D       00004 13232             +
 001178 41D0 D044/0D70       00044 13235             +
 USING  *,R7                       13267    00915000           CLEAR STPWA
 USING  STPWA-(4+52),R8
 00117E D70B 8038 8038 00000 00000 13273             +
 001184 50F0 D000            00000 13274    00916000           SCPUSH ,
 001188 D203 D004 B438 00004 00438 13276             +
 00118E 41DD 0008            00008 13277             +
 USING  TVT,R10                    13278    00917000           WITH  TVT
                                   13290    00918000  *
                                   13291    00919000  *                                  Scan for task name
                                   13292    00920000  *                                  Find task TVT
 001192 58E0 78E2/0DEE       01A60 13293    00921000           ACALL SCANTASK
 001198 4770 7072            011F0 13297    00922000           IF    NZ,STOPXX
 00119C D207 8038 1000 00000 00000 13311    00923000           MVC   STPTASK,@R1
                                   13312    00924000  *
                                   13313    00925000  *                                  Scan for stop post code
                                   13314    00926000  *        ACALL SCANNUMB
                                   13315    00927000  *        IF    POS,STOPXX
 0011A2 1B00                       13316    00928000           CLEAR R0
 0011A4 5000 8040            00008 13320    00929000           ST    R0,STPPCODE
                                   13321    00930000  *
                                   13322    00931000  *                                  If stop all tasks
 0011A8 4110 8038            00000 13323    00932000           LA    R1,STPTASK
 0011AC                            13324    00933000           IF    (@R1,EQ,'ALL '),BEGIN
 0011AC D503 78E6 1000 01A64 00000 13334             +
 0011B2 4770 7056            011D4 13335             +
 0011B6 58A0 C06C            0006C 13340  1 00934000             L     TVTR,GVTTVTQH       First TVT is dummy (MTVT)
 0011BA 58A0 A008/12AA       00008 13341  1 00935000             WHILE ('LT TVTR,TVTLINK',NZ),BEGIN
 0011C0 4780 7056            011D4 13354  1          +
 0011C4 181A                       13359  2 00936000               LR    R1,TVTR
 0011C6 5800 8040            00008 13360  2 00937000               L     R0,STPPCODE
 0011CA 58E0 790A/0DEE       01A88 13361  2 00938000               ACALL STOPTASK
 0011D0 47F0 703C            011BA 13365  1 00939000             END
 0011D4                            13370    00940000           END
                                   13374    00941000  *
                                   13375    00942000  *                                  If stop specific task
1MONITOR  (MONI2170) (12:00) (20JUN02) STOP Command                                                                         Page   48
0Current Usings:  (*,R7) (STPWA-(4+52),R8) (TVT,R10) (MTVT,R11) (GVT,R12)
0Loc    Object Code    Addr1 Addr2  Stmt Lv Lineno    Source Statement           (Hibal 5, Asmedit 3.3)  HLASM R4.0  2002/06/20 12.00
+___    ______ ____    _____ _____  ____ __ ______    ______ _________
00011D4 705A           011D4 011B4 13376    00943000           ELSE  BEGIN
 0011D4 47F0 7072            011F0 13381             +
 0011D8 58E0 78EE/0DEE       01A6C 13387  1 00944000             ACALL FINDTASK
 0011DE 12FF/4780 7072       011F0 13391  1 00945000             IF    (R15,Z),STOPXX
 0011E4 181F                       13408  1 00946000             LR    R1,R15
 0011E6 5800 8040            00008 13409  1 00947000             L     R0,STPPCODE
 0011EA 58E0 790A/0DEE       01A88 13410  1 00948000             ACALL STOPTASK
 0011F0                            13414    00949000           END
                                   13418    00950000
 0011F0                            13419    00951000  STOPXX   LABEL ,
 0011F0 5BD0 78F2            01A70 13421    00952000           SCPOP
 0011F4 58F0 D000            00000 13423             +
 0011F8 D203 B438 D004 00438 00004 13424             +
 0011FE 18D8/980C D004       00004 13425    00953000           PEND
 DROP   TVT,R10
 DROP   STPWA-(4+52),R8
 DROP   *,R7
 001204 58E0 D000/12FF       00000 13451             +
 00120A 07FE                       13454             +
1MONITOR  (MONI2170) (12:00) (20JUN02) STOP Command                                                                         Page   49
0Current Usings:  (MTVT,R11) (GVT,R12)
0Loc    Object Code    Addr1 Addr2  Stmt Lv Lineno    Source Statement           (Hibal 5, Asmedit 3.3)  HLASM R4.0  2002/06/20 12.00
+___    ______ ____    _____ _____  ____ __ ______    ______ _________
0                                  13456    00955000  *
                                   13457    00956000  *  STOP TASK
                                   13458    00957000  *
                                   13459    00958000  *  ON ENTRY:
                                   13460    00959000  *    R1 - TASK TVT PTR
                                   13461    00960000  *    R0 - POST CODE
                                   13462    00961000  *
                                   13463    00962000  *
 00120C 90DF B0D4            000D4 13464    00963000  STOPTASK PROC  ,
 001210 58F0 C014/0DEF       00014 13474             +
 001216 E2E3D6D7E3C1E2D2           13476             +
 00121E 98DF B0D4            000D4 13477             +
 001222 50E0 D000            00000 13480             +
 001226 900C D004/188D       00004 13483             +
 00122C 41D0 D038/0D70       00038 13485             +
 001232 18A1                       13508    00964000           LR    TVTR,R1
 USING  *,R7
 USING  TVT,R10                    13509    00965000           WITH  TVT
 001234                            13521    00966000           IF    (TVTTCBP,NZ),BEGIN  Task is active...
 001234 D603 A098 A098 00098 00098 13531             +
 00123A 4780 70E0            01312 13532             +
 00123E 9180 A09C      0009C       13537  1 00967000             IF    TVTFSUSPEND,BEGIN   Already suspended...
 001242 47E0 7044            01276 13547  1          +
 001246 4110 A014            00014 13552  2 00968000               SEGT  TVTNAME
 00124A 4100 0008            00008 13567  2          +
 00124E 58F0 B444            00444 13573  2          +
 001252 58E0 7842/0DEE       01A74 13576  2          +
 001258 4110 77EE            01A20 13578  2 00969000               SEG   ' is suspended. Task not stopped.'
 00125C 4100 0020            00020 13582  2          +
 001260 58F0 B444            00444 13588  2          +
 001264 58E0 7846/0DEE       01A78 13591  2          +
 00126A 1B00/58F0 B444       00444 13593  2 00970000               SEGWR
 001270 58E0 784A/0DEE       01A7C 13613  2          +
 001276                            13615  1 00971000             END
 001276 7048           01276 01244 13619  1 00972000             ELSE  BEGIN
 001276 47F0 70E0            01312 13624  1          +
 00127A                            13630  2 00973000               IF    (TVTECBRQ,NZ),BEGIN
 00127A D603 A0B0 A0B0 000B0 000B0 13640  2          +
 001280 4780 709A            012CC 13641  2          +
 001284 9680 A0A1      000A1       13646  3 00974000                 SET   TVTFSTOP
 001288 9620 A09C      0009C       13652  3 00975000                 SET   TVTFSTOPPING
 00128C 5810 A0B0            000B0 13658  3 00976000                 L     R1,TVTECBRQ
 001290 1800/4110 1000       00000 13659  3 00977000                 POST  (R1),(R0)           OR WHATEVER ...
 001296 0A02                       13664  3          +
 001298 9608 A09C      0009C       13665  3 00978000                 SET   TVTFNORESTART
 00129C 4110 A014            00014 13671  3 00979000                 SEGT  TVTNAME
 0012A0 4100 0008            00008 13686  3          +
 0012A4 58F0 B444            00444 13692  3          +
 0012A8 58E0 7842/0DEE       01A74 13695  3          +
 0012AE 4110 78B8            01AEA 13697  3 00980000                 SEG   ' will be stopped. '
 0012B2 4100 0012            00012 13701  3          +
 0012B6 58F0 B444            00444 13707  3          +
 0012BA 58E0 7846/0DEE       01A78 13710  3          +
 0012C0 1B00/58F0 B444       00444 13712  3 00981000                 SEGWR
1MONITOR  (MONI2170) (12:00) (20JUN02) STOP Command                                                                         Page   50
0Current Usings:  (*,R7) (TVT,R10) (MTVT,R11) (GVT,R12)
0Loc    Object Code    Addr1 Addr2  Stmt Lv Lineno    Source Statement           (Hibal 5, Asmedit 3.3)  HLASM R4.0  2002/06/20 12.00
+___    ______ ____    _____ _____  ____ __ ______    ______ _________
00012C6 58E0 784A/0DEE       01A7C 13732  3          +
 0012CC                            13734  2 00982000               END
 0012CC 709E           012CC 01282 13738  2 00983000               ELSE  BEGIN
 0012CC 47F0 70E0            01312 13743  2          +
 0012D0 4110 7909            01B3B 13749  3 00984000                 SEG 'Unable to stop '
 0012D4 4100 000F            0000F 13753  3          +
 0012D8 58F0 B444            00444 13759  3          +
 0012DC 58E0 7846/0DEE       01A78 13762  3          +
 0012E2 4110 A014            00014 13764  3 00985000                 SEGT  TVTNAME
 0012E6 4100 0008            00008 13779  3          +
 0012EA 58F0 B444            00444 13785  3          +
 0012EE 58E0 7842/0DEE       01A74 13788  3          +
 0012F4 4110 780E            01A40 13790  3 00986000                 SEG '. (no stop ecb).'
 0012F8 4100 0010            00010 13794  3          +
 0012FC 58F0 B444            00444 13800  3          +
 001300 58E0 7846/0DEE       01A78 13803  3          +
 001306 1B00/58F0 B444       00444 13805  3 00987000                 SEGWR
 00130C 58E0 784A/0DEE       01A7C 13825  3          +
 001312                            13827  2 00988000               END
 001312                            13831  1 00989000             END
 001312                            13835    00990000           END
 001312 70E4           01312 0123C 13839    00991000           ELSE  BEGIN
 001312 47F0 7114            01346 13844             +
 001316 4110 A014            00014 13850  1 00992000             SEGT  TVTNAME
 00131A 4100 0008            00008 13865  1          +
 00131E 58F0 B444            00444 13871  1          +
 001322 58E0 7842/0DEE       01A74 13874  1          +
 001328 4110 7918            01B4A 13876  1 00993000             SEG   ' is not active.'
 00132C 4100 000F            0000F 13880  1          +
 001330 58F0 B444            00444 13886  1          +
 001334 58E0 7846/0DEE       01A78 13889  1          +
 00133A 1B00/58F0 B444       00444 13891  1 00994000             SEGWR
 001340 58E0 784A/0DEE       01A7C 13911  1          +
 001346                            13913    00995000           END
 001346 18D8/980C D004       00004 13917    00996000           PEND
 DROP   TVT,R10
 DROP   *,R7
 00134C 58E0 D000/12FF       00000 13938             +
 001352 07FE                       13941             +
1MONITOR  (MONI2170) (12:00) (20JUN02) STOP Command                                                                         Page   51
0Current Usings:  (MTVT,R11) (GVT,R12)
0Loc    Object Code    Addr1 Addr2  Stmt Lv Lineno    Source Statement           (Hibal 5, Asmedit 3.3)  HLASM R4.0  2002/06/20 12.00
+___    ______ ____    _____ _____  ____ __ ______    ______ _________
0                                  13943    00998000  ¿þþþþþþþþþþþþþþþþþþþþþþþþþþþþþþþþþþþþþþþþþþþþþþþþþþþþþþþþþþþþþþþþþþþþþÜ
                                   13944    00999000  Ÿ                                                                     Ÿ
                                   13945    01000000  Ÿ  CANCEL Command.                                                    Ÿ
                                   13946    01001000  Ÿ                                                                     Ÿ
                                                      ¾þþþþþþþþþþþþþþþþþþþþþþþþþþþþþþþþþþþþþþþþþþþþþþþþþþþþþþþþþþþþþþþþþþþþþ»
0001354 90DF B0D4            000D4 13947    01002000  CANCEL   PROC
 001358 58F0 C014/0DEF       00014 13957             +
 00135E C3C1D5C3C5D34040           13959             +
 001366 98DF B0D4            000D4 13960             +
 00136A 50E0 D000            00000 13963             +
 00136E 900C D004/188D       00004 13966             +
 001374 41D0 D038/0D70       00038 13968             +
 00137A 50F0 D000            00000 13991    01003000           SCPUSH
 USING  *,R7
 00137E D203 D004 B438 00004 00438 13993             +
 001384 41DD 0008            00008 13994             +
 USING  TVT,R10                    13995    01004000           WITH  TVT
                                   14007    01005000  *
                                   14008    01006000  *                                  Scan for task name
                                   14009    01007000  *                                  Find task TVT
 001388 58E0 76E6/0DEE       01A60 14010    01008000           ACALL SCANTASK
 00138E 4770 7054            013CE 14014    01009000           IF    NZ,CANCELXX
                                   14028    01010000  *
                                   14029    01011000  *                                  If start all tasks
 001392                            14030    01012000           IF    (@R1,EQ,'ALL '),BEGIN
 001392 D503 76EA 1000 01A64 00000 14040             +
 001398 4770 703C            013B6 14041             +
                                   14046  1 01013000  *        SCAN FOR DUMP/NODUMP OPTIONS, FOR NOW WE ALWAYS DUMP
 00139C 58A0 C06C            0006C 14047  1 01014000             L     TVTR,GVTTVTQH       First TVT is dummy (MTVT)
 0013A0 58A0 A008/12AA       00008 14048  1 01015000             WHILE ('LT TVTR,TVTLINK',NZ),BEGIN
 0013A6 4780 703C            013B6 14061  1          +
 0013AA 181A                       14066  2 01016000               LR    R1,TVTR
 0013AC 58E0 7712/0DEE       01A8C 14067  2 01017000               ACALL CANTASK
 0013B2 47F0 7026            013A0 14071  1 01018000             END
 0013B6                            14076    01019000           END
                                   14080    01020000  *
                                   14081    01021000  *                                  If start specific task
 0013B6 7040           013B6 0139A 14082    01022000           ELSE  BEGIN
 0013B6 47F0 7054            013CE 14087             +
                                   14093  1 01023000  *        SCAN FOR DUMP/NODUMP OPTIONS, FOR NOW WE ALWAYS DUMP
 0013BA 58E0 76F2/0DEE       01A6C 14094  1 01024000             ACALL FINDTASK
 0013C0 12FF/4780 7054       013CE 14098  1 01025000             IF    (R15,Z),CANCELXX
 0013C6 181F                       14115  1 01026000             LR    R1,R15
 0013C8 58E0 7712/0DEE       01A8C 14116  1 01027000             ACALL CANTASK
 0013CE                            14120    01028000           END
                                   14124    01029000
 0013CE                            14125    01030000  CANCELXX LABEL ,
 0013CE 5BD0 76F6            01A70 14127    01031000           SCPOP ,
 0013D2 58F0 D000            00000 14129             +
 0013D6 D203 B438 D004 00438 00004 14130             +
 0013DC 18D8/980C D004       00004 14131    01032000           PEND
 DROP   TVT,R10
 DROP   *,R7
1MONITOR  (MONI2170) (12:00) (20JUN02) STOP Command                                                                         Page   52
0Current Usings:  (MTVT,R11) (GVT,R12)
0Loc    Object Code    Addr1 Addr2  Stmt Lv Lineno    Source Statement           (Hibal 5, Asmedit 3.3)  HLASM R4.0  2002/06/20 12.00
+___    ______ ____    _____ _____  ____ __ ______    ______ _________
00013E2 58E0 D000/12FF       00000 14152             +
 0013E8 07FE                       14155             +
                                   14156    01033000  *
                                   14157    01034000  *  CANCEL TASK
                                   14158    01035000  *
                                   14159    01036000  *  ON ENTRY:
                                   14160    01037000  *    R1 - TASK TVT PTR
                                   14161    01038000  *    R0 - 0=NO DUMP, 1=DUMP (NOT YET IMPLEMENTED, WE ALWAYS DUMP)
                                   14162    01039000  *
                                   14163    01040000  *  NOTE:
                                   14164    01041000  *  TASKS ARE CANCELLED WITH A DUMP. AND RETRY=NO
                                   14165    01042000  *
                                   14166    01043000  *  NOTE:
                                   14167    01044000  *  TO ISSUE CALLRTM, WE MUST BE KEY ZERO, MODE SUPERVISOR AND
                                   14168    01045000  *  HOLD THE LOCAL LOCK.  SO YOU WILL SEE SOME MUMBO-JUMBO BELOW.
                                   14169    01046000  *
                                   14170    01047000  *
 000000                00000 00001 14171    01048000  CTWA     RECORD BEGIN
 000000 00                         14179  1 01049000  CTWAFLAG   FLAG
 CTWAFLAG.CTNOLOCK 80 ONES         14183  1 01050000             FLAG  CTNOLOCK
 CTWAFLAG.CTCANCEL 40 ONES         14188  1 01051000             FLAG  CTCANCEL
 000001                00001 00001 14193    01052000           END
                                   14202    01053000  *
                                   14203    01054000  *
 0013EA 90DF B0D4            000D4 14204    01055000  CANTASK  PROC  CTWA
 0013EE 58F0 C014/0DEF       00014 14215             +
 0013F4 C3C1D5E3C1E2D240           14217             +
 0013FC 98DF B0D4            000D4 14218             +
 001400 50E0 D000            00000 14221             +
 001404 900C D004/188D       00004 14224             +
 00140A 41D0 D03C/0D70       0003C 14227             +
 001410 9200 8038      00000       14259    01056000           CLEAR CTWA
 USING  *,R7
 USING  CTWA-(4+52),R8
 001414 1211/4770 7028       01438 14266    01057000           IF    (R1,Z),BEGIN        No task pointer
 00141A 4110 7680            01A90 14280  1 01058000             SEG   'Task does not exist.'
 00141E 4100 0014            00014 14284  1          +
 001422 58F0 B444            00444 14290  1          +
 001426 58E0 7668/0DEE       01A78 14293  1          +
 00142C 1B00/58F0 B444       00444 14295  1 01059000             SEGWR ,
 001432 58E0 766C/0DEE       01A7C 14315  1          +
 001438                            14317    01060000           END   ,                   (no task)
 001438 702C           01438 01418 14321    01061000           ELSE BEGIN                got task
 001438 47F0 71A8            015B8 14326             +
 00143C 18A1                       14332  1 01062000             LR    TVTR,R1
 USING  TVT,R10                    14333  1 01063000             WITH  TVT
 00143E                            14345  1 01064000             IF    (TVTTCBP,NZ),BEGIN  Task is active...
 00143E D603 A098 A098 00098 00098 14355  1          +
 001444 4780 7174            01584 14356  1          +
 001448 5820 A098            00098 14361  2 01065000               L     R2,TVTTCBP          TCB
 00144C 4130 0122            00122 14362  2 01066000               LA    R3,290  (=x'122')   Bogus reason for user cancel
                                   14363  2 01067000  *
                                   14364  2 01068000  *                                  DO CANCEL (CALLRTM) IF POSSIBLE
 001450 4510 7048            01458 14365  2 01069000               MODESET KEY=ZERO,MODE=SUP ***
1MONITOR  (MONI2170) (12:00) (20JUN02) STOP Command                                                                         Page   53
0Current Usings:  (*,R7) (CTWA-(4+52),R8) (TVT,R10) (MTVT,R11) (GVT,R12)
0Loc    Object Code    Addr1 Addr2  Stmt Lv Lineno    Source Statement           (Hibal 5, Asmedit 3.3)  HLASM R4.0  2002/06/20 12.00
+___    ______ ____    _____ _____  ____ __ ______    ______ _________
0001454 0000003C                   14369  2          +
 001458 5810 1000/0A6B       00000 14370  2          +
 00145E 18FD/90BE D000       00000 14372  2 01070000               SETLOCK OBTAIN,TYPE=LOCAL,MODE=COND,REGS=SAVE
 001464 58E0 02FC            002FC 14378  2          +
 001468 58DE 023C/05ED       0023C 14379  2          +
 00146E 18CD/18DF/18FC             14381  2          +
 001474 98BE D000            00000 14384  2          +
 001478 12FF/4770 70B0       014C0 14385  2 01071000               IF    (R15,Z),BEGIN       got lock
                                   14399  3 01072000C                CALLRTM TYPE=ABTERM,COMPCOD=290,REASON=(3),TCB=(2),
 00147E 4110 0122            00122        3 01073000                       DUMP=YES      ** DEBUG ** RETRY=NO IS UNRECOGNIZED
 001482 8910 000C            0000C 14403  3          +
 001486 4100 0084            00084 14404  3          +
 00148A 8900 0018/1610       00018 14405  3          +
 001490 1802/1863                  14408  3          +
 001494 58F0 0010            00010 14410  3          +
 001498 58F0 F034            00034 14411  3          +
 00149C 58F0 F01C/05EF       0001C 14412  3          +
 0014A2 18FD/90BE D000       00000 14414  3 01074000                 SETLOCK RELEASE,TYPE=LOCAL,REGS=SAVE
 0014A8 58E0 02FC            002FC 14420  3          +
 0014AC 58DE 0254/05ED       00254 14421  3          +
 0014B2 18CD/18DF/18FC             14423  3          +
 0014B8 98BE D000            00000 14426  3          +
 0014BC 9640 8038      00000       14427  3 01075000                 SET   CTCANCEL
 0014C0                            14433  2 01076000               END   ,                   (got lock)
 0014C0 70B4           014C0 0147C 14437  2 01077000               ELSEIF (R15,EQ,4),BEGIN   IF WE HOLD LOCK
 0014C0 47F0 70E4            014F4 14443  2          +
 0014C4 59F0 7694            01AA4 14457  2          +
 0014C8 4770 70E4            014F4 14458  2          +
                                   14463  3 01078000C                CALLRTM TYPE=ABTERM,COMPCOD=290,REASON=(3),TCB=(2),
 0014CC 4110 0122            00122        3 01079000                       DUMP=YES      ** DEBUG ** RETRY=NO IS UNRECOGNIZED
 0014D0 8910 000C            0000C 14467  3          +
 0014D4 4100 0084            00084 14468  3          +
 0014D8 8900 0018/1610       00018 14469  3          +
 0014DE 1802/1863                  14472  3          +
 0014E2 58F0 0010            00010 14474  3          +
 0014E6 58F0 F034            00034 14475  3          +
 0014EA 58F0 F01C/05EF       0001C 14476  3          +
 0014F0 9640 8038      00000       14478  3 01080000                 SET   CTCANCEL
 0014F4                            14484  2 01081000               END   ,                   (hold lock)
 0014F4 70E8           014F4 014CA 14488  2 01082000               ELSE  BEGIN
 0014F4 47F0 70EC            014FC 14493  2          +
 0014F8 9680 8038      00000       14499  3 01083000                 SET   CTNOLOCK
 0014FC                            14505  2 01084000               END
 0014FC 4510 70F4            01504 14509  2 01085000               MODESET KEY=NZERO,MODE=PROB
 001500 00000024                   14513  2          +
 001504 5810 1000/0A6B       00000 14514  2          +
                                   14516  2 01086000
 00150A 9140 8038      00000       14517  2 01087000               IF    CTCANCEL,BEGIN      cancel
 00150E 47E0 7136            01546 14527  2          +
 001512 9608 A09C      0009C       14532  3 01088000                 SET   TVTFNORESTART
 001516 4110 A014            00014 14538  3 01089000                 SEGT  TVTNAME
 00151A 4100 0008            00008 14553  3          +
 00151E 58F0 B444            00444 14559  3          +
 001522 58E0 7664/0DEE       01A74 14562  3          +
1MONITOR  (MONI2170) (12:00) (20JUN02) STOP Command                                                                         Page   54
0Current Usings:  (*,R7) (CTWA-(4+52),R8) (TVT,R10) (MTVT,R11) (GVT,R12)
0Loc    Object Code    Addr1 Addr2  Stmt Lv Lineno    Source Statement           (Hibal 5, Asmedit 3.3)  HLASM R4.0  2002/06/20 12.00
+___    ______ ____    _____ _____  ____ __ ______    ______ _________
0001528 4110 7698            01AA8 14564  3 01090000                 SEG   ' has been cancelled.'
 00152C 4100 0014            00014 14568  3          +
 001530 58F0 B444            00444 14574  3          +
 001534 58E0 7668/0DEE       01A78 14577  3          +
 00153A 1B00/58F0 B444       00444 14579  3 01091000                 SEGWR
 001540 58E0 766C/0DEE       01A7C 14599  3          +
 001546                            14601  2 01092000               END   ,                   (cancel)
 001546 9180 8038      00000       14605  2 01093000               IF    CTNOLOCK,BEGIN      no lock
 00154A 47E0 7174            01584 14615  2          +
 00154E 4110 A014            00014 14620  3 01094000                 SEGT  TVTNAME
 001552 4100 0008            00008 14635  3          +
 001556 58F0 B444            00444 14641  3          +
 00155A 58E0 7664/0DEE       01A74 14644  3          +
 001560 4110 7640            01A50 14646  3 01095000                 SEG   ' not cancelled. '
 001564 4100 0010            00010 14650  3          +
 001568 58F0 B444            00444 14656  3          +
 00156C 58E0 7668/0DEE       01A78 14659  3          +
 001572 4110 7749            01B59 14661  3 01096000                 SEGWR '(unable to obain local lock.)'
 001576 4100 001D            0001D 14666  3          +
 00157A 58F0 B444            00444 14672  3          +
 00157E 58E0 766C/0DEE       01A7C 14675  3          +
 001584                            14677  2 01097000               END   ,                   (no lock)
 001584                            14681  1 01098000             END   ,                   (task is active)
                                   14685  1 01099000
 001584 7178           01584 01446 14686  1 01100000             ELSE  BEGIN               not active
 001584 47F0 71A8            015B8 14691  1          +
 001588 4110 A014            00014 14697  2 01101000               SEGT  TVTNAME
 00158C 4100 0008            00008 14712  2          +
 001590 58F0 B444            00444 14718  2          +
 001594 58E0 7664/0DEE       01A74 14721  2          +
 00159A 4110 773A            01B4A 14723  2 01102000               SEG   ' is not active.'
 00159E 4100 000F            0000F 14727  2          +
 0015A2 58F0 B444            00444 14733  2          +
 0015A6 58E0 7668/0DEE       01A78 14736  2          +
 0015AC 1B00/58F0 B444       00444 14738  2 01103000               SEGWR
 0015B2 58E0 766C/0DEE       01A7C 14758  2          +
 0015B8                            14760  1 01104000             END   ,                      (not active)
 DROP   TVT,R10                    14764    01105000           END   ,                      (exists)
 0015B8 18D8/980C D004       00004 14773    01106000           PEND
 DROP   CTWA-(4+52),R8
 DROP   *,R7
 0015BE 58E0 D000/12FF       00000 14794             +
 0015C4 07FE                       14797             +
1MONITOR  (MONI2170) (12:00) (20JUN02) SUSPEND Command                                                                      Page   55
0Current Usings:  (MTVT,R11) (GVT,R12)
0Loc    Object Code    Addr1 Addr2  Stmt Lv Lineno    Source Statement           (Hibal 5, Asmedit 3.3)  HLASM R4.0  2002/06/20 12.00
+___    ______ ____    _____ _____  ____ __ ______    ______ _________
0                                  14799    01108000  ¿þþþþþþþþþþþþþþþþþþþþþþþþþþþþþþþþþþþþþþþþþþþþþþþþþþþþþþþþþþþþþþþþþþþþþÜ
                                   14800    01109000  Ÿ                                                                     Ÿ
                                   14801    01110000  Ÿ  SUSPEND Command.                                                   Ÿ
                                   14802    01111000  Ÿ                                                                     Ÿ
                                                      ¾þþþþþþþþþþþþþþþþþþþþþþþþþþþþþþþþþþþþþþþþþþþþþþþþþþþþþþþþþþþþþþþþþþþþþ»
00015C6 90DF B0D4            000D4 14803    01112000  SUSPEND  PROC
 0015CA 58F0 C014/0DEF       00014 14813             +
 0015D0 E2E4E2D7C5D5C440           14815             +
 0015D8 98DF B0D4            000D4 14816             +
 0015DC 50E0 D000            00000 14819             +
 0015E0 900C D004/188D       00004 14822             +
 0015E6 41D0 D038/0D70       00038 14824             +
 0015EC 50F0 D000            00000 14847    01113000           SCPUSH
 USING  *,R7
 0015F0 D203 D004 B438 00004 00438 14849             +
 0015F6 41DD 0008            00008 14850             +
 USING  TVT,R10                    14851    01114000           WITH  TVT
                                   14863    01115000  *
                                   14864    01116000  *                                  Scan for task name
                                   14865    01117000  *                                  Find task TVT
 0015FA 58E0 7474/0DEE       01A60 14866    01118000           ACALL SCANTASK
 001600 4770 7054            01640 14870    01119000           IF    NZ,SUSPENDX
                                   14884    01120000  *
                                   14885    01121000  *                                  If suspend all tasks
 001604                            14886    01122000           IF    (@R1,EQ,'ALL '),BEGIN
 001604 D503 7478 1000 01A64 00000 14896             +
 00160A 4770 703C            01628 14897             +
 00160E 58A0 C06C            0006C 14902  1 01123000             L     TVTR,GVTTVTQH       First TVT is dummy (MTVT)
 001612 58A0 A008/12AA       00008 14903  1 01124000             WHILE ('LT TVTR,TVTLINK',NZ),BEGIN
 001618 4780 703C            01628 14916  1          +
 00161C 181A                       14921  2 01125000               LR    R1,TVTR
 00161E 58E0 74D0/0DEE       01ABC 14922  2 01126000               ACALL SUSPTASK
 001624 47F0 7026            01612 14926  1 01127000             END
 001628                            14931    01128000           END
                                   14935    01129000  *
                                   14936    01130000  *                                  If suspend specific task
 001628 7040           01628 0160C 14937    01131000           ELSE  BEGIN
 001628 47F0 7054            01640 14942             +
 00162C 58E0 7480/0DEE       01A6C 14948  1 01132000             ACALL FINDTASK
 001632 12FF/4780 7054       01640 14952  1 01133000             IF    (R15,Z),SUSPENDX
 001638 181F                       14969  1 01134000             LR    R1,R15
 00163A 58E0 74D0/0DEE       01ABC 14970  1 01135000             ACALL SUSPTASK
 001640                            14974    01136000           END
                                   14978    01137000
 001640                            14979    01138000  SUSPENDX LABEL ,
 001640 5BD0 7484            01A70 14981    01139000           SCPOP ,
 001644 58F0 D000            00000 14983             +
 001648 D203 B438 D004 00438 00004 14984             +
 00164E 18D8/980C D004       00004 14985    01140000           PEND
 DROP   TVT,R10
 DROP   *,R7
 001654 58E0 D000/12FF       00000 15006             +
 00165A 07FE                       15009             +
1MONITOR  (MONI2170) (12:00) (20JUN02) SUSPEND Command                                                                      Page   56
0Current Usings:  (MTVT,R11) (GVT,R12)
0Loc    Object Code    Addr1 Addr2  Stmt Lv Lineno    Source Statement           (Hibal 5, Asmedit 3.3)  HLASM R4.0  2002/06/20 12.00
+___    ______ ____    _____ _____  ____ __ ______    ______ _________
0                                  15011    01142000  *
                                   15012    01143000  *  SUSPEND TASK
                                   15013    01144000  *
                                   15014    01145000  *  ON ENTRY:
                                   15015    01146000  *    R1 - TASK TVT PTR
                                   15016    01147000  *
                                   15017    01148000  *
 00165C 90DF B0D4            000D4 15018    01149000  SUSPTASK PROC  ,
 001660 58F0 C014/0DEF       00014 15028             +
 001666 E2E4E2D7E3C1E2D2           15030             +
 00166E 98DF B0D4            000D4 15031             +
 001672 50E0 D000            00000 15034             +
 001676 900C D004/188D       00004 15037             +
 00167C 41D0 D038/0D70       00038 15039             +
 001682 18A1                       15062    01150000           LR    TVTR,R1
 USING  *,R7
 USING  TVT,R10                    15063    01151000           WITH  TVT
 001684                            15075    01152000           IF    (TVTTCBP,NZ),BEGIN  Task is active...
 001684 D603 A098 A098 00098 00098 15085             +
 00168A 4780 7086            01708 15086             +
 00168E 9180 A09C      0009C       15091  1 01153000             IF    TVTFSUSPEND,BEGIN   Already suspended...
 001692 47E0 7044            016C6 15101  1          +
 001696 4110 A014            00014 15106  2 01154000               SEGT  TVTNAME
 00169A 4100 0008            00008 15121  2          +
 00169E 58F0 B444            00444 15127  2          +
 0016A2 58E0 73F2/0DEE       01A74 15130  2          +
 0016A8 4110 747A            01AFC 15132  2 01155000               SEG   ' is already suspended.'
 0016AC 4100 0016            00016 15136  2          +
 0016B0 58F0 B444            00444 15142  2          +
 0016B4 58E0 73F6/0DEE       01A78 15145  2          +
 0016BA 1B00/58F0 B444       00444 15147  2 01156000               SEGWR
 0016C0 58E0 73FA/0DEE       01A7C 15167  2          +
 0016C6                            15169  1 01157000             END
 0016C6 7048           016C6 01694 15173  1 01158000             ELSE  BEGIN
 0016C6 47F0 7086            01708 15178  1          +
 0016CA 4100 0006            00006 15184  2 01159000               STATUS  STOP,TCB=TVTTCBP  Make task non-dispatchable
 0016CE 5810 A098/0A4F       00098 15186  2          +
 0016D4 9680 A09C      0009C       15188  2 01160000               SET   TVTFSUSPEND
 0016D8 4110 A014            00014 15194  2 01161000               SEGT  TVTNAME
 0016DC 4100 0008            00008 15209  2          +
 0016E0 58F0 B444            00444 15215  2          +
 0016E4 58E0 73F2/0DEE       01A74 15218  2          +
 0016EA 4110 74F4            01B76 15220  2 01162000               SEG   ' suspended.'
 0016EE 4100 000B            0000B 15224  2          +
 0016F2 58F0 B444            00444 15230  2          +
 0016F6 58E0 73F6/0DEE       01A78 15233  2          +
 0016FC 1B00/58F0 B444       00444 15235  2 01163000               SEGWR
 001702 58E0 73FA/0DEE       01A7C 15255  2          +
 001708                            15257  1 01164000             END
 001708                            15261    01165000           END
 001708 708A           01708 0168C 15265    01166000           ELSE  BEGIN
 001708 47F0 70BA            0173C 15270             +
 00170C 4110 A014            00014 15276  1 01167000             SEGT  TVTNAME
 001710 4100 0008            00008 15291  1          +
1MONITOR  (MONI2170) (12:00) (20JUN02) SUSPEND Command                                                                      Page   57
0Current Usings:  (*,R7) (TVT,R10) (MTVT,R11) (GVT,R12)
0Loc    Object Code    Addr1 Addr2  Stmt Lv Lineno    Source Statement           (Hibal 5, Asmedit 3.3)  HLASM R4.0  2002/06/20 12.00
+___    ______ ____    _____ _____  ____ __ ______    ______ _________
0001714 58F0 B444            00444 15297  1          +
 001718 58E0 73F2/0DEE       01A74 15300  1          +
 00171E 4110 74C8            01B4A 15302  1 01168000             SEG   ' is not active.'
 001722 4100 000F            0000F 15306  1          +
 001726 58F0 B444            00444 15312  1          +
 00172A 58E0 73F6/0DEE       01A78 15315  1          +
 001730 1B00/58F0 B444       00444 15317  1 01169000             SEGWR
 001736 58E0 73FA/0DEE       01A7C 15337  1          +
 00173C                            15339    01170000           END
 00173C 18D8/980C D004       00004 15343    01171000           PEND
 DROP   TVT,R10
 DROP   *,R7
 001742 58E0 D000/12FF       00000 15364             +
 001748 07FE                       15367             +
1MONITOR  (MONI2170) (12:00) (20JUN02) SPINLOG Command                                                                      Page   58
0Current Usings:  (MTVT,R11) (GVT,R12)
0Loc    Object Code    Addr1 Addr2  Stmt Lv Lineno    Source Statement           (Hibal 5, Asmedit 3.3)  HLASM R4.0  2002/06/20 12.00
+___    ______ ____    _____ _____  ____ __ ______    ______ _________
0                                  15369    01173000  ¿þþþþþþþþþþþþþþþþþþþþþþþþþþþþþþþþþþþþþþþþþþþþþþþþþþþþþþþþþþþþþþþþþþþþþÜ
                                   15370    01174000  Ÿ                                                                     Ÿ
                                   15371    01175000  Ÿ  SPINLOG Command:  Spin off the log dataset (close, unallocate,     Ÿ
                                   15372    01176000  Ÿ                    reallocate, reopen)                              Ÿ
                                   15373    01177000  Ÿ                                                                     Ÿ
                                                      ¾þþþþþþþþþþþþþþþþþþþþþþþþþþþþþþþþþþþþþþþþþþþþþþþþþþþþþþþþþþþþþþþþþþþþþ»
000174A 90DF B0D4            000D4 15374    01178000  SPINLOG  PROC
 00174E 58F0 C014/0DEF       00014 15384             +
 001754 E2D7C9D5D3D6C740           15386             +
 00175C 98DF B0D4            000D4 15387             +
 001760 50E0 D000            00000 15390             +
 001764 900C D004/188D       00004 15393             +
 00176A 41D0 D038/0D70       00038 15395             +
 001770 50F0 D000            00000 15418    01179000           SCPUSH
 USING  *,R7
 001774 D203 D004 B438 00004 00438 15420             +
 00177A 41DD 0008            00008 15421             +
 USING  TVT,R10                    15422    01180000           WITH  TVT
                                   15434    01181000  *
                                   15435    01182000  *                                  Scan for task name
                                   15436    01183000  *                                  Find task TVT
 00177E 58E0 72F0/0DEE       01A60 15437    01184000           ACALL SCANTASK
 001784 4770 7054            017C4 15441    01185000           IF    NZ,SPINLOGX
                                   15455    01186000  *
                                   15456    01187000  *                                  If spin all tasks
 001788                            15457    01188000           IF    (@R1,EQ,'ALL '),BEGIN
 001788 D503 72F4 1000 01A64 00000 15467             +
 00178E 4770 703C            017AC 15468             +
 001792 58A0 C06C            0006C 15473  1 01189000             L     TVTR,GVTTVTQH       First TVT is dummy (MTVT)
 001796 58A0 A008/12AA       00008 15474  1 01190000             WHILE ('LT TVTR,TVTLINK',NZ),BEGIN
 00179C 4780 703C            017AC 15487  1          +
 0017A0 181A                       15492  2 01191000               LR    R1,TVTR
 0017A2 58E0 7350/0DEE       01AC0 15493  2 01192000               ACALL SPINTASK
 0017A8 47F0 7026            01796 15497  1 01193000             END
 0017AC                            15502    01194000           END
                                   15506    01195000  *
                                   15507    01196000  *                                  If suspend specific task
 0017AC 7040           017AC 01790 15508    01197000           ELSE  BEGIN
 0017AC 47F0 7054            017C4 15513             +
 0017B0 58E0 72FC/0DEE       01A6C 15519  1 01198000             ACALL FINDTASK
 0017B6 12FF/4780 7054       017C4 15523  1 01199000             IF    (R15,Z),SPINLOGX
 0017BC 181F                       15540  1 01200000             LR    R1,R15
 0017BE 58E0 7350/0DEE       01AC0 15541  1 01201000             ACALL SPINTASK
 0017C4                            15545    01202000           END
                                   15549    01203000
 0017C4                            15550    01204000  SPINLOGX LABEL ,
 0017C4 5BD0 7300            01A70 15552    01205000           SCPOP ,
 0017C8 58F0 D000            00000 15554             +
 0017CC D203 B438 D004 00438 00004 15555             +
 0017D2 18D8/980C D004       00004 15556    01206000           PEND
 DROP   TVT,R10
 DROP   *,R7
 0017D8 58E0 D000/12FF       00000 15577             +
1MONITOR  (MONI2170) (12:00) (20JUN02) SPINLOG Command                                                                      Page   59
0Current Usings:  (MTVT,R11) (GVT,R12)
0Loc    Object Code    Addr1 Addr2  Stmt Lv Lineno    Source Statement           (Hibal 5, Asmedit 3.3)  HLASM R4.0  2002/06/20 12.00
+___    ______ ____    _____ _____  ____ __ ______    ______ _________
00017DE 07FE                       15580             +
1MONITOR  (MONI2170) (12:00) (20JUN02) SPINLOG Command                                                                      Page   60
0Current Usings:  (MTVT,R11) (GVT,R12)
0Loc    Object Code    Addr1 Addr2  Stmt Lv Lineno    Source Statement           (Hibal 5, Asmedit 3.3)  HLASM R4.0  2002/06/20 12.00
+___    ______ ____    _____ _____  ____ __ ______    ______ _________
0                                  15582    01208000  *
                                   15583    01209000  *  SPINLOG TASK
                                   15584    01210000  *
                                   15585    01211000  *  ON ENTRY:
                                   15586    01212000  *    R1 - TASK TVT PTR
                                   15587    01213000  *
                                   15588    01214000  *
 0017E0 90DF B0D4            000D4 15589    01215000  SPINTASK PROC  ,
 0017E4 58F0 C014/0DEF       00014 15599             +
 0017EA E2D7C9D5E3C1E2D2           15601             +
 0017F2 98DF B0D4            000D4 15602             +
 0017F6 50E0 D000            00000 15605             +
 0017FA 900C D004/188D       00004 15608             +
 001800 41D0 D038/0D70       00038 15610             +
 001806 18A1                       15633    01216000           LR    TVTR,R1
 USING  *,R7
 USING  TVT,R10                    15634    01217000           WITH  TVT
 001808                            15646    01218000           IF    (TVTTCBP,NZ),BEGIN  Task is active...
 001808 D603 A098 A098 00098 00098 15656             +
 00180E 4780 704E            01854 15657             +
 001812 9604 A09C      0009C       15662  1 01219000             SET   TVTFSPINLOG
 001816 5810 A0B0            000B0 15668  1 01220000             L     R1,TVTECBRQ
 00181A 1B00                       15669  1 01221000             CLEAR R0                  post code
 00181C 1800/4110 1000       00000 15673  1 01222000             POST  (R1),(R0)           post the subtask
 001822 0A02                       15678  1          +
 001824 4110 A014            00014 15679  1 01223000             SEGT  TVTNAME
 001828 4100 0008            00008 15694  1          +
 00182C 58F0 B444            00444 15700  1          +
 001830 58E0 726E/0DEE       01A74 15703  1          +
 001836 4110 730C            01B12 15705  1 01224000             SEG   ' log will be released.'
 00183A 4100 0016            00016 15709  1          +
 00183E 58F0 B444            00444 15715  1          +
 001842 58E0 7272/0DEE       01A78 15718  1          +
 001848 1B00/58F0 B444       00444 15720  1 01225000             SEGWR
 00184E 58E0 7276/0DEE       01A7C 15740  1          +
 001854                            15742    01226000           END   ,                      (active)
 001854 7052           01854 01810 15746    01227000           ELSE  BEGIN
 001854 47F0 7082            01888 15751             +
 001858 4110 A014            00014 15757  1 01228000             SEGT  TVTNAME
 00185C 4100 0008            00008 15772  1          +
 001860 58F0 B444            00444 15778  1          +
 001864 58E0 726E/0DEE       01A74 15781  1          +
 00186A 4110 7344            01B4A 15783  1 01229000             SEG   ' is not active.'
 00186E 4100 000F            0000F 15787  1          +
 001872 58F0 B444            00444 15793  1          +
 001876 58E0 7272/0DEE       01A78 15796  1          +
 00187C 1B00/58F0 B444       00444 15798  1 01230000             SEGWR
 001882 58E0 7276/0DEE       01A7C 15818  1          +
 001888                            15820    01231000           END
 001888 18D8/980C D004       00004 15824    01232000           PEND
 DROP   TVT,R10
 DROP   *,R7
 00188E 58E0 D000/12FF       00000 15845             +
 001894 07FE                       15848             +
1MONITOR  (MONI2170) (12:00) (20JUN02) RESUME Command                                                                       Page   61
0Current Usings:  (MTVT,R11) (GVT,R12)
0Loc    Object Code    Addr1 Addr2  Stmt Lv Lineno    Source Statement           (Hibal 5, Asmedit 3.3)  HLASM R4.0  2002/06/20 12.00
+___    ______ ____    _____ _____  ____ __ ______    ______ _________
0                                  15850    01234000  ¿þþþþþþþþþþþþþþþþþþþþþþþþþþþþþþþþþþþþþþþþþþþþþþþþþþþþþþþþþþþþþþþþþþþþþÜ
                                   15851    01235000  Ÿ                                                                     Ÿ
                                   15852    01236000  Ÿ  RESUME Command.                                                    Ÿ
                                   15853    01237000  Ÿ                                                                     Ÿ
                                                      ¾þþþþþþþþþþþþþþþþþþþþþþþþþþþþþþþþþþþþþþþþþþþþþþþþþþþþþþþþþþþþþþþþþþþþþ»
0001896 90DF B0D4            000D4 15854    01238000  RESUME   PROC
 00189A 58F0 C014/0DEF       00014 15864             +
 0018A0 D9C5E2E4D4C54040           15866             +
 0018A8 98DF B0D4            000D4 15867             +
 0018AC 50E0 D000            00000 15870             +
 0018B0 900C D004/188D       00004 15873             +
 0018B6 41D0 D038/0D70       00038 15875             +
 0018BC 50F0 D000            00000 15898    01239000           SCPUSH
 USING  *,R7
 0018C0 D203 D004 B438 00004 00438 15900             +
 0018C6 41DD 0008            00008 15901             +
 USING  TVT,R10                    15902    01240000           WITH  TVT
                                   15914    01241000  *
                                   15915    01242000  *                                  Scan for task name
                                   15916    01243000  *                                  Find task TVT
 0018CA 58E0 71A4/0DEE       01A60 15917    01244000           ACALL SCANTASK
 0018D0 4770 7054            01910 15921    01245000           IF    NZ,RESUMEXX
                                   15935    01246000  *
                                   15936    01247000  *                                  If resume all tasks
 0018D4                            15937    01248000           IF    (@R1,EQ,'ALL '),BEGIN
 0018D4 D503 71A8 1000 01A64 00000 15947             +
 0018DA 4770 703C            018F8 15948             +
 0018DE 58A0 C06C            0006C 15953  1 01249000             L     TVTR,GVTTVTQH       First TVT is dummy (MTVT)
 0018E2 58A0 A008/12AA       00008 15954  1 01250000             WHILE ('LT TVTR,TVTLINK',NZ),BEGIN
 0018E8 4780 703C            018F8 15967  1          +
 0018EC 181A                       15972  2 01251000               LR    R1,TVTR
 0018EE 58E0 7208/0DEE       01AC4 15973  2 01252000               ACALL RESMTASK
 0018F4 47F0 7026            018E2 15977  1 01253000             END
 0018F8                            15982    01254000           END
                                   15986    01255000  *
                                   15987    01256000  *                                  If resume specific task
 0018F8 7040           018F8 018DC 15988    01257000           ELSE  BEGIN
 0018F8 47F0 7054            01910 15993             +
 0018FC 58E0 71B0/0DEE       01A6C 15999  1 01258000             ACALL FINDTASK
 001902 12FF/4780 7054       01910 16003  1 01259000             IF    (R15,Z),RESUMEXX
 001908 181F                       16020  1 01260000             LR    R1,R15
 00190A 58E0 7208/0DEE       01AC4 16021  1 01261000             ACALL RESMTASK
 001910                            16025    01262000           END
                                   16029    01263000
 001910                            16030    01264000  RESUMEXX LABEL ,
 001910 5BD0 71B4            01A70 16032    01265000           SCPOP
 001914 58F0 D000            00000 16034             +
 001918 D203 B438 D004 00438 00004 16035             +
 00191E 18D8/980C D004       00004 16036    01266000           PEND
 DROP   TVT,R10
 DROP   *,R7
 001924 58E0 D000/12FF       00000 16057             +
 00192A 07FE                       16060             +
1MONITOR  (MONI2170) (12:00) (20JUN02) RESUME Command                                                                       Page   62
0Current Usings:  (MTVT,R11) (GVT,R12)
0Loc    Object Code    Addr1 Addr2  Stmt Lv Lineno    Source Statement           (Hibal 5, Asmedit 3.3)  HLASM R4.0  2002/06/20 12.00
+___    ______ ____    _____ _____  ____ __ ______    ______ _________
0                                  16062    01268000  *
                                   16063    01269000  *  RESUME TASK
                                   16064    01270000  *
                                   16065    01271000  *  ON ENTRY:
                                   16066    01272000  *    R1 - TASK TVT PTR
                                   16067    01273000  *
                                   16068    01274000  *
 00192C 90DF B0D4            000D4 16069    01275000  RESMTASK PROC  ,
 001930 58F0 C014/0DEF       00014 16079             +
 001936 D9C5E2D4E3C1E2D2           16081             +
 00193E 98DF B0D4            000D4 16082             +
 001942 50E0 D000            00000 16085             +
 001946 900C D004/188D       00004 16088             +
 00194C 41D0 D038/0D70       00038 16090             +
 USING  *,R7                       16113    01276000  *
 001952 18A1                       16114    01277000           LR    TVTR,R1
 USING  TVT,R10                    16115    01278000           WITH  TVT
                                   16127    01279000
 001954                            16128    01280000           IF    (TVTTCBP,NZ),BEGIN  Task is active...
 001954 D603 A098 A098 00098 00098 16138             +
 00195A 4780 7086            019D8 16139             +
 00195E 9180 A09C      0009C       16144  1 01281000             IF    ~TVTFSUSPEND,BEGIN  Not suspended...
 001962 4710 7044            01996 16154  1          +
 001966 4110 A014            00014 16159  2 01282000               SEGT  TVTNAME
 00196A 4100 0008            00008 16174  2          +
 00196E 58F0 B444            00444 16180  2          +
 001972 58E0 7122/0DEE       01A74 16183  2          +
 001978 4110 71D6            01B28 16185  2 01283000               SEG   ' is not suspended.'
 00197C 4100 0012            00012 16189  2          +
 001980 58F0 B444            00444 16195  2          +
 001984 58E0 7126/0DEE       01A78 16198  2          +
 00198A 1B00/58F0 B444       00444 16200  2 01284000               SEGWR
 001990 58E0 712A/0DEE       01A7C 16220  2          +
 001996                            16222  1 01285000             END
 001996 7048           01996 01964 16226  1 01286000             ELSE  BEGIN
 001996 47F0 7086            019D8 16231  1          +
 00199A 4100 0007            00007 16237  2 01287000               STATUS START,TCB=TVTTCBP
 00199E 5810 A098/0A4F       00098 16239  2          +
 0019A4 947F A09C      0009C       16241  2 01288000               CLEAR TVTFSUSPEND
 0019A8 4110 A014            00014 16248  2 01289000               SEGT  TVTNAME
 0019AC 4100 0008            00008 16263  2          +
 0019B0 58F0 B444            00444 16269  2          +
 0019B4 58E0 7122/0DEE       01A74 16272  2          +
 0019BA 4110 722F            01B81 16274  2 01290000               SEG   ' resumed.'
 0019BE 4100 0009            00009 16278  2          +
 0019C2 58F0 B444            00444 16284  2          +
 0019C6 58E0 7126/0DEE       01A78 16287  2          +
 0019CC 1B00/58F0 B444       00444 16289  2 01291000               SEGWR
 0019D2 58E0 712A/0DEE       01A7C 16309  2          +
 0019D8                            16311  1 01292000             END
 0019D8                            16315    01293000           END
                                   16319    01294000
 0019D8 708A           019D8 0195C 16320    01295000           ELSE  BEGIN
 0019D8 47F0 70BA            01A0C 16325             +
1MONITOR  (MONI2170) (12:00) (20JUN02) RESUME Command                                                                       Page   63
0Current Usings:  (*,R7) (TVT,R10) (MTVT,R11) (GVT,R12)
0Loc    Object Code    Addr1 Addr2  Stmt Lv Lineno    Source Statement           (Hibal 5, Asmedit 3.3)  HLASM R4.0  2002/06/20 12.00
+___    ______ ____    _____ _____  ____ __ ______    ______ _________
00019DC 4110 A014            00014 16331  1 01296000             SEGT  TVTNAME
 0019E0 4100 0008            00008 16346  1          +
 0019E4 58F0 B444            00444 16352  1          +
 0019E8 58E0 7122/0DEE       01A74 16355  1          +
 0019EE 4110 71F8            01B4A 16357  1 01297000             SEG   ' is not active.'
 0019F2 4100 000F            0000F 16361  1          +
 0019F6 58F0 B444            00444 16367  1          +
 0019FA 58E0 7126/0DEE       01A78 16370  1          +
 001A00 1B00/58F0 B444       00444 16372  1 01298000             SEGWR
 001A06 58E0 712A/0DEE       01A7C 16392  1          +
 001A0C                            16394    01299000           END
 001A0C 18D8/980C D004       00004 16398    01300000           PEND
 DROP   TVT,R10
 DROP   *,R7
 001A12 58E0 D000/12FF       00000 16419             +
 001A18 07FE                       16422             +
                                   16423    01301000
                                   16424    01302000           QLTORG
1MONITOR  (MONI2170) (12:00) (20JUN02) SHOW Commands                                                                        Page   64
0Current Usings:  (MTVT,R11) (GVT,R12)
0Loc    Object Code    Addr1 Addr2  Stmt Lv Lineno    Source Statement           (Hibal 5, Asmedit 3.3)  HLASM R4.0  2002/06/20 12.00
+___    ______ ____    _____ _____  ____ __ ______    ______ _________
0001B8A 90DF B0D4            000D4 16471    01304000  SHOW     PROC
 001B8E 58F0 C014/0DEF       00014 16481             +
 001B94 E2C8D6E640404040           16483             +
 001B9C 98DF B0D4            000D4 16484             +
 001BA0 50E0 D000            00000 16487             +
 001BA4 900C D004/188D       00004 16490             +
 001BAA 41D0 D038/0D70       00038 16492             +
 001BB0 50F0 D000            00000 16515    01305000           SCPUSH
 USING  *,R7
 001BB4 D203 D004 B438 00004 00438 16517             +
 001BBA 41DD 0008            00008 16518             +
 001BBE 4110 7062            01C12 16519    01306000           SCAN  SHOWPRT,MTVTSCNCB
 001BC2 41F0 B424            00424 16533             +
 001BC6 58E0 7EC8/0DEE       02A78 16536             +
 001BCC 47B0 7046            01BF6 16538    01307000           IF    NEG,BEGIN
 001BD0 1300                       16549  1 01308000             LCR   R0,R0
 001BD2 1810/1801                  16550  1 01309000             SEG  (R0),(R1)
 001BD6 58F0 B444            00444 16568  1          +
 001BDA 58E0 7ECC/0DEE       02A7C 16571  1          +
 001BE0 4110 7F40            02AF0 16573  1 01310000             SEGWR ': invalid SHOW option.'
 001BE4 4100 0016            00016 16578  1          +
 001BE8 58F0 B444            00444 16584  1          +
 001BEC 58E0 7ED0/0DEE       02A80 16587  1          +
 001BF2 47F0 7046            01BF6 16589  1 01311000             B     SHOWXX
 001BF6                            16590    01312000           END
                                   16594    01313000
 001BF6                            16595    01314000  SHOWXX   LABEL ,
 001BF6 5BD0 7ED4            02A84 16597    01315000           SCPOP
 001BFA 58F0 D000            00000 16599             +
 001BFE D203 B438 D004 00438 00004 16600             +
 001C04 18D8/980C D004       00004 16601    01316000           PEND
 DROP   *,R7
 001C0A 58E0 D000/12FF       00000 16617             +
 001C10 07FE                       16620             +
                                   16621    01317000  *
                                   16622    01318000  *
 001C12                            16623    01319000  SHOWPRT  SCKW  STATUS,STATUS,A
 001C12 0D001C20E2E3C1E3           16624             +
                                   16625    01320000  *        SCKW  TRACE,SHTRACE
 001C1C FF0029D0                   16626    01321000           SCKW  ,INVALID
                                   16628    01322000
1MONITOR  (MONI2170) (12:00) (20JUN02) SHOW STATUS Command                                                                  Page   65
0Current Usings:  (MTVT,R11) (GVT,R12)
0Loc    Object Code    Addr1 Addr2  Stmt Lv Lineno    Source Statement           (Hibal 5, Asmedit 3.3)  HLASM R4.0  2002/06/20 12.00
+___    ______ ____    _____ _____  ____ __ ______    ______ _________
0                                  16630    01324000  ¿þþþþþþþþþþþþþþþþþþþþþþþþþþþþþþþþþþþþþþþþþþþþþþþþþþþþþþþþþþþþþþþþþþþþþÜ
                                   16631    01325000  Ÿ                                                                     Ÿ
                                   16632    01326000  Ÿ  STATUS Command.                                                    Ÿ
                                   16633    01327000  Ÿ                                                                     Ÿ
                                   16634    01328000  Ÿ                                                                     Ÿ
                                                      ¾þþþþþþþþþþþþþþþþþþþþþþþþþþþþþþþþþþþþþþþþþþþþþþþþþþþþþþþþþþþþþþþþþþþþþ»
0001C20 90DF B0D4            000D4 16635    01329000  STATUS   PROC
 001C24 58F0 C014/0DEF       00014 16645             +
 001C2A E2E3C1E3E4E24040           16647             +
 001C32 98DF B0D4            000D4 16648             +
 001C36 50E0 D000            00000 16651             +
 001C3A 900C D004/188D       00004 16654             +
 001C40 41D0 D038/0D70       00038 16656             +
 001C46 50F0 D000            00000 16679    01330000           SCPUSH ,
 USING  *,R7
 001C4A D203 D004 B438 00004 00438 16681             +
 001C50 41DD 0008            00008 16682             +
 USING  TVT,R10                    16683    01331000           WITH  TVT
                                   16695    01332000  *
                                   16696    01333000  *                                  Scan for task name
                                   16697    01334000  *                                  Find task TVT
 001C54 58E0 7E42/0DEE       02A88 16698    01335000           ACALL SCANTASK
 001C5A 4770 706E            01CB4 16702    01336000           IF    NZ,STATUSXX
                                   16716    01337000  *
                                   16717    01338000  *                                  If status all tasks
 001C5E                            16718    01339000           IF    (@R1,EQ,'ALL '),BEGIN
 001C5E D503 7E46 1000 02A8C 00000 16728             +
 001C64 4770 7042            01C88 16729             +
 001C68 58E0 7E4A/0DEE       02A90 16734  1 01340000             ACALL MAINSTAT            first do monitor        ML940329
 001C6E 58A0 C06C            0006C 16738  1 01341000             L     TVTR,GVTTVTQH       First TVT is dummy (MTVT)
 001C72 58A0 A008/12AA       00008 16739  1 01342000             WHILE ('LT TVTR,TVTLINK',NZ),BEGIN
 001C78 4780 7042            01C88 16752  1          +
 001C7C 181A                       16757  2 01343000               LR    R1,TVTR
 001C7E 58E0 7E4E/0DEE       02A94 16758  2 01344000               ACALL TASKSTAT
 001C84 47F0 702C            01C72 16762  1 01345000             END
 001C88                            16767    01346000           END
                                   16771    01347000  *
                                   16772    01348000  *                                  If status MONITOR
 001C88 7046           01C88 01C66 16773    01349000           ELSEIF (@R1,EQ,'MONITOR '),BEGIN                  ML940329
 001C88 47F0 7056            01C9C 16779             +
 001C8C D507 7E0A 1000 02A50 00000 16792             +
 001C92 4770 7056            01C9C 16793             +
 001C96 58E0 7E4A/0DEE       02A90 16798  1 01350000             ACALL MAINSTAT
 001C9C                            16802    01351000           END
                                   16806    01352000  *
                                   16807    01353000  *                                  If status specific task
 001C9C 705A           01C9C 01C94 16808    01354000           ELSE  BEGIN
 001C9C 47F0 706E            01CB4 16813             +
 001CA0 58E0 7E52/0DEE       02A98 16819  1 01355000             ACALL FINDTASK
 001CA6 12FF/4780 706E       01CB4 16823  1 01356000             IF    (R15,Z),STATUSXX
 001CAC 181F                       16840  1 01357000             LR    R1,R15
 001CAE 58E0 7E4E/0DEE       02A94 16841  1 01358000             ACALL TASKSTAT
 001CB4                            16845    01359000           END
1MONITOR  (MONI2170) (12:00) (20JUN02) SHOW STATUS Command                                                                  Page   66
0Current Usings:  (*,R7) (TVT,R10) (MTVT,R11) (GVT,R12)
0Loc    Object Code    Addr1 Addr2  Stmt Lv Lineno    Source Statement           (Hibal 5, Asmedit 3.3)  HLASM R4.0  2002/06/20 12.00
+___    ______ ____    _____ _____  ____ __ ______    ______ _________
0                                  16849    01360000
 001CB4                            16850    01361000  STATUSXX LABEL ,
 001CB4 5BD0 7E3E            02A84 16852    01362000           SCPOP
 001CB8 58F0 D000            00000 16854             +
 001CBC D203 B438 D004 00438 00004 16855             +
 001CC2 18D8/980C D004       00004 16856    01363000           PEND
 DROP   TVT,R10
 DROP   *,R7
 001CC8 58E0 D000/12FF       00000 16877             +
 001CCE 07FE                       16880             +
1MONITOR  (MONI2170) (12:00) (20JUN02) SHOW STATUS Command                                                                  Page   67
0Current Usings:  (MTVT,R11) (GVT,R12)
0Loc    Object Code    Addr1 Addr2  Stmt Lv Lineno    Source Statement           (Hibal 5, Asmedit 3.3)  HLASM R4.0  2002/06/20 12.00
+___    ______ ____    _____ _____  ____ __ ______    ______ _________
0                                  16882    01365000  *
                                   16883    01366000  *
                                   16884    01367000  *  TASKSTAT - GIVE TASK STATUS
                                   16885    01368000  *
                                   16886    01369000  *
 000000                00000 00014 16887    01370000  TSTAWA   RECORD BEGIN
 000000                            16895  1 01371000  TSTAWORK   DS    CL20                Work area               ML940215
 000014                00014 00014 16896    01372000           END
                                   16905    01373000  þþþþ
 001CD0 90DF B0D4            000D4 16906    01374000  TASKSTAT PROC  TSTAWA
 001CD4 58F0 C014/0DEF       00014 16917             +
 001CDA E3C1E2D2E2E3C1E3           16919             +
 001CE2 98DF B0D4            000D4 16920             +
 001CE6 50E0 D000            00000 16923             +
 001CEA 900C D004/188D       00004 16926             +
 001CF0 41D0 D04C/0D70       0004C 16929             +
 001CF6 18A1                       16961    01375000           LR    TVTR,R1
 USING  *,R7
 USING  TSTAWA-(4+52),R8
 USING  TVT,R10                    16962    01376000           WITH  TVT
                                   16974    01377000  *
                                   16975    01378000  *                                  TASKNAME
 001CF8 4110 A014            00014 16976    01379000           SEG   TVTNAME
 001CFC 4100 0008            00008 16990             +
 001D00 58F0 B444            00444 16996             +
 001D04 58E0 7D86/0DEE       02A7C 16999             +
 001D0A 4110 7E5E            02B54 17001    01380000           SEG   ' '
 001D0E 4100 0001            00001 17005             +
 001D12 58F0 B444            00444 17011             +
 001D16 58E0 7D86/0DEE       02A7C 17014             +
 001D1C 5810 A098            00098 17016    01380100           SEGHX TVTTCBP,8           TCB address          ml20020619
 001D20 4100 0008            00008 17027             +
 001D24 58F0 B444            00444 17033             +
 001D28 58E0 7DA6/0DEE       02A9C 17036             +
 001D2E 4110 7E5E            02B54 17038    01380200           SEG   ' '
 001D32 4100 0001            00001 17042             +
 001D36 58F0 B444            00444 17048             +
 001D3A 58E0 7D86/0DEE       02A7C 17051             +
                                   17053    01381000  *
                                   17054    01382000  *                                  TASK STATUS
 001D40                            17055    01383000           IF    (TVTTCBP,NZ),BEGIN  Task is running...
 001D40 D603 A098 A098 00098 00098 17065             +
 001D46 4780 70DE            01DD4 17066             +
 001D4A 9180 A09C      0009C       17071  1 01384000             IF    TVTFSUSPEND,BEGIN
 001D4E 47E0 706E            01D64 17081  1          +
 001D52 4110 7E10            02B06 17086  2 01385000               SEG   'suspended '
 001D56 4100 000A            0000A 17090  2          +
 001D5A 58F0 B444            00444 17096  2          +
 001D5E 58E0 7D86/0DEE       02A7C 17099  2          +
 001D64                            17101  1 01386000             END
 001D64 7072           01D64 01D50 17105  1 01387000             ELSEIF TVTFSTOPPING,BEGIN
 001D64 47F0 708C            01D82 17111  1          +
 001D68 9120 A09C      0009C       17123  1          +
 001D6C 47E0 708C            01D82 17124  1          +
1MONITOR  (MONI2170) (12:00) (20JUN02) SHOW STATUS Command                                                                  Page   68
0Current Usings:  (*,R7) (TSTAWA-(4+52),R8) (TVT,R10) (MTVT,R11) (GVT,R12)
0Loc    Object Code    Addr1 Addr2  Stmt Lv Lineno    Source Statement           (Hibal 5, Asmedit 3.3)  HLASM R4.0  2002/06/20 12.00
+___    ______ ____    _____ _____  ____ __ ______    ______ _________
0001D70 4110 7E1A            02B10 17129  2 01388000               SEG   'stopping  '
 001D74 4100 000A            0000A 17133  2          +
 001D78 58F0 B444            00444 17139  2          +
 001D7C 58E0 7D86/0DEE       02A7C 17142  2          +
 001D82                            17144  1 01389000             END
 001D82 7090           01D82 01D6E 17148  1 01390000             ELSEIF TVTSTWAITING,BEGIN
 001D82 47F0 70AA            01DA0 17154  1          +
 001D86 9501 A09D      0009D       17166  1          +
 001D8A 4770 70AA            01DA0 17167  1          +
 001D8E 4110 7E5F            02B55 17172  2 01391000               SEG   'WT '
 001D92 4100 0003            00003 17176  2          +
 001D96 58F0 B444            00444 17182  2          +
 001D9A 58E0 7D86/0DEE       02A7C 17185  2          +
 001DA0                            17187  1 01392000             END
 001DA0 70AE           01DA0 01D8C 17191  1 01393000             ELSEIF TVTSTBUSY,BEGIN
 001DA0 47F0 70C8            01DBE 17197  1          +
 001DA4 9502 A09D      0009D       17209  1          +
 001DA8 4770 70C8            01DBE 17210  1          +
 001DAC 4110 7E62            02B58 17215  2 01394000               SEG   'BY '
 001DB0 4100 0003            00003 17219  2          +
 001DB4 58F0 B444            00444 17225  2          +
 001DB8 58E0 7D86/0DEE       02A7C 17228  2          +
 001DBE                            17230  1 01395000             END
 001DBE 70CC           01DBE 01DAA 17234  1 01396000             ELSE  BEGIN
 001DBE 47F0 70DE            01DD4 17239  1          +
 001DC2 4110 7E24            02B1A 17245  2 01397000               SEG   '? '
 001DC6 4100 0002            00002 17249  2          +
 001DCA 58F0 B444            00444 17255  2          +
 001DCE 58E0 7D86/0DEE       02A7C 17258  2          +
 001DD4                            17260  1 01398000             END
 001DD4                            17264    01399000           END
 001DD4 70E2           01DD4 01D48 17268    01400000           ELSE  BEGIN
 001DD4 47F0 70F4            01DEA 17273             +
 001DD8 4110 7E65            02B5B 17279  1 01401000             SEG   'IN '
 001DDC 4100 0003            00003 17283  1          +
 001DE0 58F0 B444            00444 17289  1          +
 001DE4 58E0 7D86/0DEE       02A7C 17292  1          +
 001DEA                            17294    01402000           END
                                   17298    01403000  *
                                   17299    01404000  *                                  USER
 001DEA                            17300    01405000           IF    (TVTTCBP,NZ),BEGIN
 001DEA D603 A098 A098 00098 00098 17310             +
 001DF0 4780 716C            01E62 17311             +
 001DF4 4110 A163            00163 17316  1 01406000             SEG   TVTGROUP
 001DF8 4100 0002            00002 17330  1          +
 001DFC 58F0 B444            00444 17336  1          +
 001E00 58E0 7D86/0DEE       02A7C 17339  1          +
 001E06 4110 7E68            02B5E 17341  1 01407000             SEG   '.'
 001E0A 4100 0001            00001 17345  1          +
 001E0E 58F0 B444            00444 17351  1          +
 001E12 58E0 7D86/0DEE       02A7C 17354  1          +
 001E18 4110 A160            00160 17356  1 01408000             SEG   TVTUSER
 001E1C 4100 0003            00003 17370  1          +
 001E20 58F0 B444            00444 17376  1          +
1MONITOR  (MONI2170) (12:00) (20JUN02) SHOW STATUS Command                                                                  Page   69
0Current Usings:  (*,R7) (TSTAWA-(4+52),R8) (TVT,R10) (MTVT,R11) (GVT,R12)
0Loc    Object Code    Addr1 Addr2  Stmt Lv Lineno    Source Statement           (Hibal 5, Asmedit 3.3)  HLASM R4.0  2002/06/20 12.00
+___    ______ ____    _____ _____  ____ __ ______    ______ _________
0001E24 58E0 7D86/0DEE       02A7C 17379  1          +
 001E2A 4110 7E26            02B1C 17381  1 01409000             SEG   ' ('
 001E2E 4100 0002            00002 17385  1          +
 001E32 58F0 B444            00444 17391  1          +
 001E36 58E0 7D86/0DEE       02A7C 17394  1          +
 001E3C 4820 A168            00168 17396  1 01410000             LH    R2,TVTLINE          Partner's line-number
 001E40 1812/4100 0004       00004 17397  1 01411000             SEGDC (R2),4
 001E46 58F0 B444            00444 17414  1          +
 001E4A 58E0 7DAA/0DEE       02AA0 17417  1          +
 001E50 4110 7E28            02B1E 17419  1 01412000             SEG   ') '
 001E54 4100 0002            00002 17423  1          +
 001E58 58F0 B444            00444 17429  1          +
 001E5C 58E0 7D86/0DEE       02A7C 17432  1          +
 001E62                            17434    01413000           END
 001E62 7170           01E62 01DF2 17438    01414000           ELSE  BEGIN
 001E62 47F0 7182            01E78 17443             +
 001E66 4110 7E69            02B5F 17449  1 01415000             SEG   '             '
 001E6A 4100 000D            0000D 17453  1          +
 001E6E 58F0 B444            00444 17459  1          +
 001E72 58E0 7D86/0DEE       02A7C 17462  1          +
 001E78                            17464    01416000           END
                                   17468    01417000  *  Timestamp
 001E78 9801 A1C0            001C0 17469    01418000           LM    R0,R1,TVTLRCLK      Last request timestamp
 001E7C 41F0 8038            00000 17470    01419000           LA    R15,TSTAWORK        Work area
 001E80 58E0 7DAE/0DEE       02AA4 17471    01420000           VCALL FMTTIME             format timestamp
 001E86 4100 0008            00008 17475    01421000           SEG   (R1),8              into msg...omit hundredths
 001E8A 58F0 B444            00444 17494             +
 001E8E 58E0 7D86/0DEE       02A7C 17497             +
 001E94 4110 7E76            02B6C 17499    01422000           SEG   '/'
 001E98 4100 0001            00001 17503             +
 001E9C 58F0 B444            00444 17509             +
 001EA0 58E0 7D86/0DEE       02A7C 17512             +
 001EA6 9801 A1C8            001C8 17514    01423000           LM    R0,R1,TVTLACLK      Last action timestamp
 001EAA 41F0 8038            00000 17515    01424000           LA    R15,TSTAWORK        Work area
 001EAE 58E0 7DAE/0DEE       02AA4 17516    01425000           VCALL FMTTIME             format timestamp
 001EB4 4100 0008            00008 17520    01426000           SEG   (R1),8              into msg...omit hundredths
 001EB8 58F0 B444            00444 17539             +
 001EBC 58E0 7D86/0DEE       02A7C 17542             +
                                   17544    01427000  *
                                   17545    01428000  *                                  COUNTERS ,,,
 001EC2 4110 7E2A            02B20 17546    01429000           SEG   ' REQs='
 001EC6 4100 0006            00006 17550             +
 001ECA 58F0 B444            00444 17556             +
 001ECE 58E0 7D86/0DEE       02A7C 17559             +
 001ED4 5830 A1D8            001D8 17561    01430000           L     R3,TVTCNTREQ
 001ED8 1813/1B00                  17562    01431000           SEGDC (R3)
 001EDC 58F0 B444            00444 17576             +
 001EE0 58E0 7DAA/0DEE       02AA0 17579             +
 001EE6 4110 7E77            02B6D 17581    01432000           SEG   ' BSENT='
 001EEA 4100 0007            00007 17585             +
 001EEE 58F0 B444            00444 17591             +
 001EF2 58E0 7D86/0DEE       02A7C 17594             +
                                   17596    01433000  * Following revised MCL 940202 to handle bytes>x'7FFFFFFF'
 001EF8 9801 A208            00208 17597    01434000           LM    R0,R1,TVTCNTBSENT   bytes sent (doubleword)
1MONITOR  (MONI2170) (12:00) (20JUN02) SHOW STATUS Command                                                                  Page   70
0Current Usings:  (*,R7) (TSTAWA-(4+52),R8) (TVT,R10) (MTVT,R11) (GVT,R12)
0Loc    Object Code    Addr1 Addr2  Stmt Lv Lineno    Source Statement           (Hibal 5, Asmedit 3.3)  HLASM R4.0  2002/06/20 12.00
+___    ______ ____    _____ _____  ____ __ ______    ______ _________
0001EFC 41F0 8038            00000 17598    01435000           LA    R15,TSTAWORK        work area
 001F00 58E0 7DB2/0DEE       02AA8 17599    01436000           VCALL DINTCONV            convert EBCDIC
 001F06 58F0 B444            00444 17603    01437000           SEG   (R1),(R0)
 001F0A 58E0 7D86/0DEE       02A7C 17622             +
0001F10 4110 7E7E            02B74 17625    01439000           SEG   ' BRECV='
 001F14 4100 0007            00007 17629             +
 001F18 58F0 B444            00444 17635             +
 001F1C 58E0 7D86/0DEE       02A7C 17638             +
 001F22 9801 A210            00210 17640    01440000           LM    R0,R1,TVTCNTBRECVD  bytes received (doubleword)
 001F26 41F0 8038            00000 17641    01441000           LA    R15,TSTAWORK
 001F2A 58E0 7DB2/0DEE       02AA8 17642    01442000           VCALL DINTCONV            printable num
 001F30 58F0 B444            00444 17646    01443000           SEG   (R1),(R0)
 001F34 58E0 7D86/0DEE       02A7C 17665             +
 001F3A 1B00/58F0 B444       00444 17667    01444000           SEGWR
 001F40 58E0 7D8A/0DEE       02A80 17687             +
                                   17689    01445000
 001F46 18D8/980C D004       00004 17690    01446000           PEND
 DROP   TVT,R10
 DROP   TSTAWA-(4+52),R8
 DROP   *,R7
 001F4C 58E0 D000/12FF       00000 17716             +
 001F52 07FE                       17719             +
                                   17720    01447000  *
                                   17721    01448000  *
                                   17722    01449000  *  MAINSTAT - Give Monitor Status
                                   17723    01450000  *  MCL 94/03/21   ***WORK IN PROGRESS***
                                   17724    01451000  *
 000000                00000 00014 17725    01452000  MSTAWA   RECORD BEGIN
 000000                            17733  1 01453000  MSTAWORK   DS    CL20                Work area
 000014                00014 00014 17734    01454000           END
                                   17743    01455000  þþþþ
 001F54 90DF B0D4            000D4 17744    01456000  MAINSTAT PROC  MSTAWA
 001F58 58F0 C014/0DEF       00014 17755             +
 001F5E D4C1C9D5E2E3C1E3           17757             +
 001F66 98DF B0D4            000D4 17758             +
 001F6A 50E0 D000            00000 17761             +
 001F6E 900C D004/188D       00004 17764             +
 001F74 41D0 D04C/0D70       0004C 17767             +
 001F7A 18A1                       17799    01457000           LR    TVTR,R1
 USING  *,R7
 USING  MSTAWA-(4+52),R8
 USING  TVT,R10                    17800    01458000           WITH  TVT
                                   17812    01459000  *
                                   17813    01460000  *                                  JOBNAME
 001F7C 4110 C038            00038 17814    01461000           SEGB  GVTJOBNO
 001F80 4100 0004            00004 17829             +
 001F84 58F0 B444            00444 17835             +
 001F88 58E0 7B32/0DEE       02AAC 17838             +
 001F8E 4110 C030            00030 17840    01462000           SEGB  GVTJOBNM
 001F92 4100 0008            00008 17855             +
 001F96 58F0 B444            00444 17861             +
 001F9A 58E0 7B32/0DEE       02AAC 17864             +
 001FA0 9801 C028            00028 17866    01463000           LM    R0,R1,GVTTIME       Start time/date
1MONITOR  (MONI2170) (12:00) (20JUN02) SHOW STATUS Command                                                                  Page   71
0Current Usings:  (*,R7) (MSTAWA-(4+52),R8) (TVT,R10) (MTVT,R11) (GVT,R12)
0Loc    Object Code    Addr1 Addr2  Stmt Lv Lineno    Source Statement           (Hibal 5, Asmedit 3.3)  HLASM R4.0  2002/06/20 12.00
+___    ______ ____    _____ _____  ____ __ ______    ______ _________
0001FA4 1B22                       17867    01464000           SR    R2,R2
 001FA6 1B33                       17868    01465000           SR    R3,R3
 001FA8 41F0 8038            00000 17869    01466000           LA    R15,MSTAWORK        Work area
 001FAC 58E0 7B36/0DEE       02AB0 17870    01467000           VCALL FMTRCLCK
 001FB2 58F0 B444            00444 17874    01468000           SEGB  (R1),(R0)           time/date to msg
 001FB6 58E0 7B32/0DEE       02AAC 17894             +
 001FBC 4110 7BAC            02B26 17896    01469000           SEG   '  '
 001FC0 4100 0002            00002 17900             +
 001FC4 58F0 B444            00444 17906             +
 001FC8 58E0 7B02/0DEE       02A7C 17909             +
 001FCE 5810 C054/1B00       00054 17911    01470000           SEGDC GVTNTASK
 001FD4 58F0 B444            00444 17925             +
 001FD8 58E0 7B26/0DEE       02AA0 17928             +
 001FDE 4110 7BAE            02B28 17930    01471000           SEG   ' Tasks Active.'
 001FE2 4100 000E            0000E 17934             +
 001FE6 58F0 B444            00444 17940             +
 001FEA 58E0 7B02/0DEE       02A7C 17943             +
                                   17945    01472000
 001FF0 1B00/58F0 B444       00444 17946    01473000           SEGWR
 001FF6 58E0 7B06/0DEE       02A80 17966             +
                                   17968    01474000
 001FFC 18D8/980C D004       00004 17969    01475000           PEND
 DROP   TVT,R10
 DROP   MSTAWA-(4+52),R8
 DROP   *,R7
 002002 58E0 D000/12FF       00000 17995             +
 002008 07FE                       17998             +
1MONITOR  (MONI2170) (12:00) (20JUN02) SC - SHOW CORE Command                                                               Page   72
0Current Usings:  (MTVT,R11) (GVT,R12)
0Loc    Object Code    Addr1 Addr2  Stmt Lv Lineno    Source Statement           (Hibal 5, Asmedit 3.3)  HLASM R4.0  2002/06/20 12.00
+___    ______ ____    _____ _____  ____ __ ______    ______ _________
0                                  18000    01477000  ¿þþþþþþþþþþþþþþþþþþþþþþþþþþþþþþþþþþþþþþþþþþþþþþþþþþþþþþþþþþþþþþþþþþþþþÜ
                                   18001    01478000  Ÿ                                                                     Ÿ
                                   18002    01479000  Ÿ  SC Command.                                                        Ÿ
                                   18003    01480000  Ÿ                                                                     Ÿ
                                   18004    01481000  Ÿ                                                                     Ÿ
                                                      ¾þþþþþþþþþþþþþþþþþþþþþþþþþþþþþþþþþþþþþþþþþþþþþþþþþþþþþþþþþþþþþþþþþþþþþ»
000200A 90DF B0D4            000D4 18005    01482000  SHOWCORE PROC
 00200E 58F0 C014/0DEF       00014 18015             +
 002014 E2C8D6E6C3D6D9C5           18017             +
 00201C 98DF B0D4            000D4 18018             +
 002020 50E0 D000            00000 18021             +
 002024 900C D004/188D       00004 18024             +
 00202A 41D0 D038/0D70       00038 18026             +
 002030 50F0 D000            00000 18049    01483000           SCPUSH
 USING  *,R7
 002034 D203 D004 B438 00004 00438 18051             +
 00203A 41DD 0008            00008 18052             +
 USING  TVT,R10                    18053    01484000           WITH  TVT
                                   18065    01485000  *
                                   18066    01486000  *                                  Scan for task name
                                   18067    01487000  *                                  Find task TVT
 00203E 58E0 7A58/0DEE       02A88 18068    01488000           ACALL SCANTASK
 002044 4770 7068            02098 18072    01489000           IF    NZ,SHOWCXX
                                   18086    01490000  *
                                   18087    01491000  *                                  If status all tasks
 002048                            18088    01492000           IF    (@R1,EQ,'ALL '),BEGIN
 002048 D503 7A5C 1000 02A8C 00000 18098             +
 00204E 4770 7038            02068 18099             +
 002052 4110 7A28            02A58 18104  1 01493000             SEGWR 'Specific task must be specified.'
 002056 4100 0020            00020 18109  1          +
 00205A 58F0 B444            00444 18115  1          +
 00205E 58E0 7A50/0DEE       02A80 18118  1          +
 002064 47F0 7068            02098 18120  1 01494000             B     SHOWCXX
 002068                            18121    01495000           END
                                   18125    01496000  *
                                   18126    01497000  *                                  If monitor
 002068 703C           02068 02050 18127    01498000           ELSEIF (@R1,EQ,'MONITOR '),BEGIN
 002068 47F0 7050            02080 18133             +
 00206C D507 7A20 1000 02A50 00000 18146             +
 002072 4770 7050            02080 18147             +
 002076 4110 B000            00000 18152  1 01499000             LA    R1,MTVT
 00207A 58E0 7A84/0DEE       02AB4 18153  1 01500000             ACALL SCTASK
 002080                            18157    01501000           END
                                   18161    01502000  *
                                   18162    01503000  *                                  If status specific task
 002080 7054           02080 02074 18163    01504000           ELSE  BEGIN
 002080 47F0 7068            02098 18168             +
 002084 58E0 7A68/0DEE       02A98 18174  1 01505000             ACALL FINDTASK
 00208A 12FF/4780 7068       02098 18178  1 01506000             IF    (R15,Z),SHOWCXX
 002090 181F                       18195  1 01507000             LR    R1,R15
 002092 58E0 7A84/0DEE       02AB4 18196  1 01508000             ACALL SCTASK
 002098                            18200    01509000           END
                                   18204    01510000
1MONITOR  (MONI2170) (12:00) (20JUN02) SC - SHOW CORE Command                                                               Page   73
0Current Usings:  (*,R7) (TVT,R10) (MTVT,R11) (GVT,R12)
0Loc    Object Code    Addr1 Addr2  Stmt Lv Lineno    Source Statement           (Hibal 5, Asmedit 3.3)  HLASM R4.0  2002/06/20 12.00
+___    ______ ____    _____ _____  ____ __ ______    ______ _________
0002098                            18205    01511000  SHOWCXX  LABEL ,
 002098 5BD0 7A54            02A84 18207    01512000           SCPOP
 00209C 58F0 D000            00000 18209             +
 0020A0 D203 B438 D004 00438 00004 18210             +
 0020A6 18D8/980C D004       00004 18211    01513000           PEND
 DROP   TVT,R10
 DROP   *,R7
 0020AC 58E0 D000/12FF       00000 18232             +
 0020B2 07FE                       18235             +
1MONITOR  (MONI2170) (12:00) (20JUN02) SC - SHOW CORE Command                                                               Page   74
0Current Usings:  (MTVT,R11) (GVT,R12)
0Loc    Object Code    Addr1 Addr2  Stmt Lv Lineno    Source Statement           (Hibal 5, Asmedit 3.3)  HLASM R4.0  2002/06/20 12.00
+___    ______ ____    _____ _____  ____ __ ______    ______ _________
0                                  18237    01515000  *
                                   18238    01516000  *  SC TASK
                                   18239    01517000  *
                                   18240    01518000  *  ON ENTRY:
                                   18241    01519000  *    R1 - TASK TVT PTR
                                   18242    01520000  *
                                   18243    01521000  *
 0020B4 90DF B0D4            000D4 18244    01522000  SCTASK   PROC  ,
 0020B8 58F0 C014/0DEF       00014 18254             +
 0020BE E2C3E3C1E2D24040           18256             +
 0020C6 98DF B0D4            000D4 18257             +
 0020CA 50E0 D000            00000 18260             +
 0020CE 900C D004/188D       00004 18263             +
 0020D4 41D0 D038/0D70       00038 18265             +
 USING  *,R7                       18288    01523000  *
 0020DA 18A1                       18289    01524000           LR    TVTR,R1
 USING  TVT,R10                    18290    01525000           WITH  TVT
                                   18302    01526000
 0020DC                            18303    01527000           IF    (TVTTCBP,NZ),BEGIN  Task is active...
 0020DC D603 A098 A098 00098 00098 18313             +
 0020E2 4780 7028            02102 18314             +
 0020E6 41F0 B424            00424 18319  1 01528000             SCTELL MTVTSCNCB
 0020EA 58E0 79DE/0DEE       02AB8 18329  1          +
 0020F0 5820 A0E0            000E0 18331  1 01529000             L     R2,TVTSYMTB
 0020F4 1B33                       18332  1 01530000             CLEAR R3
 0020F6 1B44                       18336  1 01531000             CLEAR R4
 0020F8 58F0 B444            00444 18340  1 01532000             L     R15,MTVTCURSG
 0020FC 58E0 79E2/0DEE       02ABC 18341  1 01533000             VCALL SHOWC
 002102                            18345    01534000           END
                                   18349    01535000
 002102 702C           02102 020E4 18350    01536000           ELSE  BEGIN
 002102 47F0 705C            02136 18355             +
 002106 4110 A014            00014 18361  1 01537000             SEGT  TVTNAME
 00210A 4100 0008            00008 18376  1          +
 00210E 58F0 B444            00444 18382  1          +
 002112 58E0 79E6/0DEE       02AC0 18385  1          +
 002118 4110 7AA1            02B7B 18387  1 01538000             SEG   ' is not active.'
 00211C 4100 000F            0000F 18391  1          +
 002120 58F0 B444            00444 18397  1          +
 002124 58E0 79A2/0DEE       02A7C 18400  1          +
 00212A 1B00/58F0 B444       00444 18402  1 01539000             SEGWR
 002130 58E0 79A6/0DEE       02A80 18422  1          +
 002136                            18424    01540000           END
 002136 18D8/980C D004       00004 18428    01541000           PEND
 DROP   TVT,R10
 DROP   *,R7
 00213C 58E0 D000/12FF       00000 18449             +
 002142 07FE                       18452             +
1MONITOR  (MONI2170) (12:00) (20JUN02) SG - SHOW REGISTERS Command                                                          Page   75
0Current Usings:  (MTVT,R11) (GVT,R12)
0Loc    Object Code    Addr1 Addr2  Stmt Lv Lineno    Source Statement           (Hibal 5, Asmedit 3.3)  HLASM R4.0  2002/06/20 12.00
+___    ______ ____    _____ _____  ____ __ ______    ______ _________
0                                  18454    01543000  ¿þþþþþþþþþþþþþþþþþþþþþþþþþþþþþþþþþþþþþþþþþþþþþþþþþþþþþþþþþþþþþþþþþþþþþÜ
                                   18455    01544000  Ÿ                                                                     Ÿ
                                   18456    01545000  Ÿ  SG Command.                                                        Ÿ
                                   18457    01546000  Ÿ                                                                     Ÿ
                                   18458    01547000  Ÿ                                                                     Ÿ
                                   18459    01548000  Ÿ  NOTE:                                                              Ÿ
                                   18460    01549000  Ÿ  This command is not yet implemented.                               Ÿ
                                   18461    01550000  Ÿ  The Monitors registers cannot be displayed.                        Ÿ
                                   18462    01551000  Ÿ                                                                     Ÿ
                                   18463    01552000  Ÿ                                                                     Ÿ
                                                      ¾þþþþþþþþþþþþþþþþþþþþþþþþþþþþþþþþþþþþþþþþþþþþþþþþþþþþþþþþþþþþþþþþþþþþþ»
0002144 90DF B0D4            000D4 18464    01553000  SHOWREGS PROC
 002148 58F0 C014/0DEF       00014 18474             +
 00214E E2C8D6E6D9C5C7E2           18476             +
 002156 98DF B0D4            000D4 18477             +
 00215A 50E0 D000            00000 18480             +
 00215E 900C D004/188D       00004 18483             +
 002164 41D0 D038/0D70       00038 18485             +
 00216A 50F0 D000            00000 18508    01554000           SCPUSH
 USING  *,R7
 00216E D203 D004 B438 00004 00438 18510             +
 002174 41DD 0008            00008 18511             +
 USING  TVT,R10                    18512    01555000           WITH  TVT
                                   18524    01556000  *
                                   18525    01557000  *                                  Scan for task name
                                   18526    01558000  *                                  Find task TVT
 002178 58E0 791E/0DEE       02A88 18527    01559000           ACALL SCANTASK
 00217E 4770 7074            021DE 18531    01560000           IF    NZ,SHOWGXX
                                   18545    01561000  *
                                   18546    01562000  *                                  If start all tasks
 002182                            18547    01563000           IF    (@R1,EQ,'ALL '),BEGIN
 002182 D503 7922 1000 02A8C 00000 18557             +
 002188 4770 7038            021A2 18558             +
 00218C 4110 78EE            02A58 18563  1 01564000             SEGWR 'Specific task must be specified.'
 002190 4100 0020            00020 18568  1          +
 002194 58F0 B444            00444 18574  1          +
 002198 58E0 7916/0DEE       02A80 18577  1          +
 00219E 47F0 7074            021DE 18579  1 01565000             B     SHOWGXX
 0021A2                            18580    01566000           END
                                   18584    01567000  *
                                   18585    01568000  *                                  If monitor
 0021A2 703C           021A2 0218A 18586    01569000           ELSEIF (@R1,EQ,'MONITOR '),BEGIN
 0021A2 47F0 705C            021C6 18592             +
 0021A6 D507 78E6 1000 02A50 00000 18605             +
 0021AC 4770 705C            021C6 18606             +
 0021B0 4110 7A20            02B8A 18611  1 01570000             SEGWR  'Monitor registers can not be displayed.'
 0021B4 4100 0027            00027 18616  1          +
 0021B8 58F0 B444            00444 18622  1          +
 0021BC 58E0 7916/0DEE       02A80 18625  1          +
 0021C2 47F0 7074            021DE 18627  1 01571000             B     SHOWGXX
 0021C6                            18628    01572000           END
                                   18632    01573000  *
                                   18633    01574000  *                                  If start specific task
1MONITOR  (MONI2170) (12:00) (20JUN02) SG - SHOW REGISTERS Command                                                          Page   76
0Current Usings:  (*,R7) (TVT,R10) (MTVT,R11) (GVT,R12)
0Loc    Object Code    Addr1 Addr2  Stmt Lv Lineno    Source Statement           (Hibal 5, Asmedit 3.3)  HLASM R4.0  2002/06/20 12.00
+___    ______ ____    _____ _____  ____ __ ______    ______ _________
00021C6 7060           021C6 021AE 18634    01575000           ELSE  BEGIN
 0021C6 47F0 7074            021DE 18639             +
 0021CA 58E0 792E/0DEE       02A98 18645  1 01576000             ACALL FINDTASK
 0021D0 12FF/4780 7074       021DE 18649  1 01577000             IF    (R15,Z),SHOWGXX
 0021D6 181F                       18666  1 01578000             LR    R1,R15
 0021D8 58E0 795A/0DEE       02AC4 18667  1 01579000             ACALL SGTASK
 0021DE                            18671    01580000           END
                                   18675    01581000
 0021DE                            18676    01582000  SHOWGXX  LABEL ,
 0021DE 5BD0 791A            02A84 18678    01583000           SCPOP
 0021E2 58F0 D000            00000 18680             +
 0021E6 D203 B438 D004 00438 00004 18681             +
 0021EC 18D8/980C D004       00004 18682    01584000           PEND
 DROP   TVT,R10
 DROP   *,R7
 0021F2 58E0 D000/12FF       00000 18703             +
 0021F8 07FE                       18706             +
1MONITOR  (MONI2170) (12:00) (20JUN02) SG - SHOW REGISTERS Command                                                          Page   77
0Current Usings:  (MTVT,R11) (GVT,R12)
0Loc    Object Code    Addr1 Addr2  Stmt Lv Lineno    Source Statement           (Hibal 5, Asmedit 3.3)  HLASM R4.0  2002/06/20 12.00
+___    ______ ____    _____ _____  ____ __ ______    ______ _________
0                                  18708    01586000  *
                                   18709    01587000  *  SG TASK
                                   18710    01588000  *
                                   18711    01589000  *  ON ENTRY:
                                   18712    01590000  *    R1 - TASK TVT PTR
                                   18713    01591000  *
                                   18714    01592000  *
 0021FA 90DF B0D4            000D4 18715    01593000  SGTASK   PROC  ,
 0021FE 58F0 C014/0DEF       00014 18725             +
 002204 E2C7E3C1E2D24040           18727             +
 00220C 98DF B0D4            000D4 18728             +
 002210 50E0 D000            00000 18731             +
 002214 900C D004/188D       00004 18734             +
 00221A 41D0 D038/0D70       00038 18736             +
 USING  *,R7                       18759    01594000  *
 002220 18A1                       18760    01595000           LR    TVTR,R1
 USING  TVT,R10                    18761    01596000           WITH  TVT
                                   18773    01597000
 002222                            18774    01598000           IF    (TVTTCBP,NZ),BEGIN  Task is active...
 002222 D603 A098 A098 00098 00098 18784             +
 002228 4780 706C            0228C 18785             +
 00222C 9180 A09C      0009C       18790  1 01599000             IF    ~TVTFSUSPEND,BEGIN  If not suspended ..
 002230 4710 704C            0226C 18800  1          +
 002234 4100 0006            00006 18805  2 01600000               STATUS STOP,TCB=TVTTCBP     suspend before SG
 002238 5810 A098/0A4F       00098 18807  2          +
 00223E 9680 A09C      0009C       18809  2 01601000               SET   TVTFSUSPEND
 002242 41F0 B424            00424 18815  2 01602000               SCTELL MTVTSCNCB
 002246 58E0 7898/0DEE       02AB8 18825  2          +
 00224C 5820 A0E0            000E0 18827  2 01603000               L     R2,TVTSYMTB
 002250 1B33                       18828  2 01604000               CLEAR R3
 002252 1B44                       18832  2 01605000               CLEAR R4
 002254 58F0 B444            00444 18836  2 01606000               L     R15,MTVTCURSG
 002258 58E0 78A8/0DEE       02AC8 18837  2 01607000               VCALL SHOWG
 00225E 4100 0007            00007 18841  2 01608000               STATUS START,TCB=TVTTCBP  continue onward
 002262 5810 A098/0A4F       00098 18843  2          +
 002268 947F A09C      0009C       18845  2 01609000               CLEAR TVTFSUSPEND
 00226C                            18852  1 01610000             END
 00226C 7050           0226C 02232 18856  1 01611000             ELSE  BEGIN               If suspended, just SG
 00226C 47F0 706C            0228C 18861  1          +
 002270 41F0 B424            00424 18867  2 01612000               SCTELL MTVTSCNCB
 002274 58E0 7898/0DEE       02AB8 18877  2          +
 00227A 5820 A0E0            000E0 18879  2 01613000               L     R2,TVTSYMTB
 00227E 1B33                       18880  2 01614000               CLEAR R3
 002280 1B44                       18884  2 01615000               CLEAR R4
 002282 58F0 B444            00444 18888  2 01616000               L     R15,MTVTCURSG
 002286 58E0 78A8/0DEE       02AC8 18889  2 01617000               VCALL SHOWG
 00228C                            18893  1 01618000             END
 00228C                            18897    01619000           END
                                   18901    01620000
 00228C 7070           0228C 0222A 18902    01621000           ELSE  BEGIN
 00228C 47F0 70A0            022C0 18907             +
 002290 4110 A014            00014 18913  1 01622000             SEGT  TVTNAME
 002294 4100 0008            00008 18928  1          +
 002298 58F0 B444            00444 18934  1          +
1MONITOR  (MONI2170) (12:00) (20JUN02) SG - SHOW REGISTERS Command                                                          Page   78
0Current Usings:  (*,R7) (TVT,R10) (MTVT,R11) (GVT,R12)
0Loc    Object Code    Addr1 Addr2  Stmt Lv Lineno    Source Statement           (Hibal 5, Asmedit 3.3)  HLASM R4.0  2002/06/20 12.00
+___    ______ ____    _____ _____  ____ __ ______    ______ _________
000229C 58E0 78A0/0DEE       02AC0 18937  1          +
 0022A2 4110 795B            02B7B 18939  1 01623000             SEG   ' is not active.'
 0022A6 4100 000F            0000F 18943  1          +
 0022AA 58F0 B444            00444 18949  1          +
 0022AE 58E0 785C/0DEE       02A7C 18952  1          +
 0022B4 1B00/58F0 B444       00444 18954  1 01624000             SEGWR
 0022BA 58E0 7860/0DEE       02A80 18974  1          +
 0022C0                            18976    01625000           END
 0022C0 18D8/980C D004       00004 18980    01626000           PEND
 DROP   TVT,R10
 DROP   *,R7
 0022C6 58E0 D000/12FF       00000 19001             +
 0022CC 07FE                       19004             +
1MONITOR  (MONI2170) (12:00) (20JUN02) SHOW TRACE Command                                                                   Page   79
0Current Usings:  (MTVT,R11) (GVT,R12)
0Loc    Object Code    Addr1 Addr2  Stmt Lv Lineno    Source Statement           (Hibal 5, Asmedit 3.3)  HLASM R4.0  2002/06/20 12.00
+___    ______ ____    _____ _____  ____ __ ______    ______ _________
0                                  19006    01628000  ¿þþþþþþþþþþþþþþþþþþþþþþþþþþþþþþþþþþþþþþþþþþþþþþþþþþþþþþþþþþþþþþþþþþþþþÜ
                                   19007    01629000  Ÿ                                                                     Ÿ
                                   19008    01630000  Ÿ  TRACE Command.                                                     Ÿ
                                   19009    01631000  Ÿ                                                                     Ÿ
                                   19010    01632000  Ÿ                                                                     Ÿ
                                                      ¾þþþþþþþþþþþþþþþþþþþþþþþþþþþþþþþþþþþþþþþþþþþþþþþþþþþþþþþþþþþþþþþþþþþþþ»
00022CE 90DF B0D4            000D4 19011    01633000  SHOTRACE PROC
 0022D2 58F0 C014/0DEF       00014 19021             +
 0022D8 E2C8D6E3D9C1C3C5           19023             +
 0022E0 98DF B0D4            000D4 19024             +
 0022E4 50E0 D000            00000 19027             +
 0022E8 900C D004/188D       00004 19030             +
 0022EE 41D0 D038/0D70       00038 19032             +
 0022F4 50F0 D000            00000 19055    01634000           SCPUSH
 USING  *,R7
 0022F8 D203 D004 B438 00004 00438 19057             +
 0022FE 41DD 0008            00008 19058             +
 USING  TVT,R10                    19059    01635000           WITH  TVT
                                   19071    01636000  *
                                   19072    01637000  *                                  Scan for task name
                                   19073    01638000  *                                  Find task TVT
 002302 58E0 7794/0DEE       02A88 19074    01639000           ACALL SCANTASK
 002308 4770 7050            02344 19078    01640000           IF    NZ,SHOTRXX
                                   19092    01641000  *
                                   19093    01642000  *                                  If trace all tasks
 00230C                            19094    01643000           IF    (@R1,EQ,'ALL '),BEGIN
 00230C D503 7798 1000 02A8C 00000 19104             +
 002312 4770 7038            0232C 19105             +
 002316 4110 7764            02A58 19110  1 01644000             SEGWR 'Specific task must be specified.'
 00231A 4100 0020            00020 19115  1          +
 00231E 58F0 B444            00444 19121  1          +
 002322 58E0 778C/0DEE       02A80 19124  1          +
 002328 47F0 7050            02344 19126  1 01645000             B     SHOTRXX
 00232C                            19127    01646000           END
                                   19131    01647000  *
                                   19132    01648000  **       COMMENT                   If monitor
                                   19133    01649000  **       ELSEIF (@R1,EQ,'MONITOR '),BEGIN
                                   19134    01650000  **       LA    R1,MTVT
                                   19135    01651000  **       ACALL SCTASK
                                   19136    01652000  **       END
                                   19137    01653000  *
                                   19138    01654000  *                                  If trace specific task
 00232C 703C           0232C 02314 19139    01655000           ELSE  BEGIN
 00232C 47F0 7050            02344 19144             +
 002330 58E0 77A4/0DEE       02A98 19150  1 01656000             ACALL FINDTASK
 002336 12FF/4780 7050       02344 19154  1 01657000             IF    (R15,Z),SHOTRXX
 00233C 181F                       19171  1 01658000             LR    R1,R15
 00233E 58E0 77D8/0DEE       02ACC 19172  1 01659000             ACALL TRTASK
 002344                            19176    01660000           END
                                   19180    01661000
 002344                            19181    01662000  SHOTRXX  LABEL ,
 002344 5BD0 7790            02A84 19183    01663000           SCPOP
 002348 58F0 D000            00000 19185             +
1MONITOR  (MONI2170) (12:00) (20JUN02) SHOW TRACE Command                                                                   Page   80
0Current Usings:  (*,R7) (TVT,R10) (MTVT,R11) (GVT,R12)
0Loc    Object Code    Addr1 Addr2  Stmt Lv Lineno    Source Statement           (Hibal 5, Asmedit 3.3)  HLASM R4.0  2002/06/20 12.00
+___    ______ ____    _____ _____  ____ __ ______    ______ _________
000234C D203 B438 D004 00438 00004 19186             +
 002352 18D8/980C D004       00004 19187    01664000           PEND
 DROP   TVT,R10
 DROP   *,R7
 002358 58E0 D000/12FF       00000 19208             +
 00235E 07FE                       19211             +
1MONITOR  (MONI2170) (12:00) (20JUN02) SHOW TRACE Command                                                                   Page   81
0Current Usings:  (MTVT,R11) (GVT,R12)
0Loc    Object Code    Addr1 Addr2  Stmt Lv Lineno    Source Statement           (Hibal 5, Asmedit 3.3)  HLASM R4.0  2002/06/20 12.00
+___    ______ ____    _____ _____  ____ __ ______    ______ _________
0                                  19213    01666000  *
                                   19214    01667000  *  TR TASK
                                   19215    01668000  *
                                   19216    01669000  *  ON ENTRY:
                                   19217    01670000  *    R1 - TASK TVT PTR
                                   19218    01671000  *
                                   19219    01672000  *
 002360 90DF B0D4            000D4 19220    01673000  TRTASK   PROC  ,
 002364 58F0 C014/0DEF       00014 19230             +
 00236A E3D9E3C1E2D24040           19232             +
 002372 98DF B0D4            000D4 19233             +
 002376 50E0 D000            00000 19236             +
 00237A 900C D004/188D       00004 19239             +
 002380 41D0 D038/0D70       00038 19241             +
 USING  *,R7                       19264    01674000  *
 002386 18A1                       19265    01675000           LR    TVTR,R1
 USING  TVT,R10                    19266    01676000           WITH  TVT
                                   19278    01677000
 002388 9180 A09E      0009E       19279    01678000           IF    (TVTFTRC,NZ),BEGIN  Task has tracing active
 00238C 4780 703A            023C0 19291             +
                                   19296  1 01679000  **?      SCTELL MTVTSCNCB
 002390 5830 A0CC            000CC 19297  1 01680000             L     R3,TVTTRCUR         ->current trace table entry
 002394 58E0 774A/0DEE       02AD0 19298  1 01681000  TRCALL     ACALL TRCDUMP             display the entry
 00239A 5B30 774E            02AD4 19302  1 01682000             S     R3,=A(L'TRCENTRY)     ->previous entry
 00239E 5930 A0C8            000C8 19303  1 01683000             IF    (R3,LT,TVTTRBEG),BEGIN  wrap backwards
 0023A2 47B0 7028            023AE 19315  1          +
 0023A6 5830 A0D0            000D0 19320  2 01684000               L     R3,TVTTREND               around end
 0023AA 5B30 774E            02AD4 19321  2 01685000               S     R3,=A(L'TRCENTRY)           of table
 0023AE                            19322  1 01686000             END
 USING  TRCENTRY,R3                19326  1 01687000             WITH  (TRCENTRY,R3)
 0023AE                            19339  1 01688000             IF    (TRCCLOCK,EQ,0),TRDONE    unused location, done
 0023AE D507 76BE 3000 02A44 00000 19351  1          +
 0023B4 4780 703A            023C0 19354  1          +
 0023B8 5930 A0CC            000CC 19360  1 01689000             IF    (R3,NE,TVTTRCUR),TRCALL    loop back unless at start
 0023BC 4770 700E            02394 19374  1          +
                                   19380  1 01690000  TRDONE     EQU   *
 DROP   TRCENTRY,R3                19381    01691000           END
                                   19390    01692000
 0023C0 703E           023C0 0238E 19391    01693000           ELSE  BEGIN
 0023C0 47F0 706E            023F4 19396             +
 0023C4 4110 A014            00014 19402  1 01694000             SEGT  TVTNAME
 0023C8 4100 0008            00008 19417  1          +
 0023CC 58F0 B444            00444 19423  1          +
 0023D0 58E0 773A/0DEE       02AC0 19426  1          +
 0023D6 4110 77B0            02B36 19428  1 01695000             SEG   ' does not have tracing active.'
 0023DA 4100 001E            0001E 19432  1          +
 0023DE 58F0 B444            00444 19438  1          +
 0023E2 58E0 76F6/0DEE       02A7C 19441  1          +
 0023E8 1B00/58F0 B444       00444 19443  1 01696000             SEGWR
 0023EE 58E0 76FA/0DEE       02A80 19463  1          +
 0023F4                            19465    01697000           END
 0023F4 18D8/980C D004       00004 19469    01698000           PEND
 DROP   TVT,R10
 DROP   *,R7
1MONITOR  (MONI2170) (12:00) (20JUN02) SHOW TRACE Command                                                                   Page   82
0Current Usings:  (MTVT,R11) (GVT,R12)
0Loc    Object Code    Addr1 Addr2  Stmt Lv Lineno    Source Statement           (Hibal 5, Asmedit 3.3)  HLASM R4.0  2002/06/20 12.00
+___    ______ ____    _____ _____  ____ __ ______    ______ _________
00023FA 58E0 D000/12FF       00000 19490             +
 002400 07FE                       19493             +
 000000                00000 00014 19494    01699000  TRCDWA   RECORD BEGIN
 000000                            19502  1 01700000  TRCDWORK   DS    CL20                Work area
 000014                00014 00014 19503    01701000           END
                                   19512    01702000  þþþþ
 002402 90DF B0D4            000D4 19513    01703000  TRCDUMP  PROC  TRCDWA              Dump one trace table entry
 002406 58F0 C014/0DEF       00014 19524             +
 00240C E3D9C3C4E4D4D740           19526             +
 002414 98DF B0D4            000D4 19527             +
 002418 50E0 D000            00000 19530             +
 00241C 900C D004/188D       00004 19533             +
 002422 41D0 D04C/0D70       0004C 19536             +
 USING  *,R7                       19568    01704000  *  On entry:  R3->entry
 USING  TRCDWA-(4+52),R8
 USING  TRCENTRY,R3                19569    01705000           WITH  (TRCENTRY,R3)
 002428 9801 3000            00000 19582    01706000           LM    R0,R1,TRCCLOCK      Timestamp
 00242C 41F0 8038            00000 19583    01707000           LA    R15,TRCDWORK        Work area
 002430 58E0 767C/0DEE       02AA4 19584    01708000           VCALL FMTTIME
 002436 58F0 B444            00444 19588    01709000           SEGB  (R1),(R0)
 00243A 58E0 7684/0DEE       02AAC 19608             +
 002440 4110 3008            00008 19610    01710000           SEG   TRCNAME             Routine name or trace ID
 002444 4100 0008            00008 19624             +
 002448 58F0 B444            00444 19630             +
 00244C 58E0 7654/0DEE       02A7C 19633             +
 002452 4110 7789            02BB1 19635    01711000           SEG   '  ('
 002456 4100 0003            00003 19639             +
 00245A 58F0 B444            00444 19645             +
 00245E 58E0 7654/0DEE       02A7C 19648             +
 002464 1813/1B00                  19650    01712000           SEGHX (R3)
 002468 58F0 B444            00444 19664             +
 00246C 58E0 7674/0DEE       02A9C 19667             +
 002472 4110 778C            02BB4 19669    01713000           SEG   ')'
 002476 4100 0001            00001 19673             +
 00247A 58F0 B444            00444 19679             +
 00247E 58E0 7654/0DEE       02A7C 19682             +
 002484 1B00/58F0 B444       00444 19684    01714000           SEGWR ,
 00248A 58E0 7658/0DEE       02A80 19704             +
 002490 4110 778D            02BB5 19706    01715000           SEG   'Regs 0-7:  '
 002494 4100 000B            0000B 19710             +
 002498 58F0 B444            00444 19716             +
 00249C 58E0 7654/0DEE       02A7C 19719             +
 0024A2 4140 3010            00010 19721    01716000           LA    R4,TRCREGS
 0024A6 4150 0008            00008 19722    01717000           LA    R5,8                loop counter
 0024AA 5810 4000            00000 19723    01718000  DT0      SEGHX @R4,8
 0024AE 4100 0008            00008 19734             +
 0024B2 58F0 B444            00444 19740             +
 0024B6 58E0 7674/0DEE       02A9C 19743             +
 0024BC 4110 76FE            02B26 19745    01719000           SEG   '  '
 0024C0 4100 0002            00002 19749             +
 0024C4 58F0 B444            00444 19755             +
 0024C8 58E0 7654/0DEE       02A7C 19758             +
 0024CE 4144 0004            00004 19760    01720000           LA    R4,4(R4)            ->next
 0024D2 4650 7082            024AA 19761    01721000           BCT   R5,DT0
1MONITOR  (MONI2170) (12:00) (20JUN02) SHOW TRACE Command                                                                   Page   83
0Current Usings:  (TRCENTRY,R3) (*,R7) (TRCDWA-(4+52),R8) (MTVT,R11) (GVT,R12)
0Loc    Object Code    Addr1 Addr2  Stmt Lv Lineno    Source Statement           (Hibal 5, Asmedit 3.3)  HLASM R4.0  2002/06/20 12.00
+___    ______ ____    _____ _____  ____ __ ______    ______ _________
00024D6 1B00/58F0 B444       00444 19762    01722000           SEGWR ,
 0024DC 58E0 7658/0DEE       02A80 19782             +
 0024E2 4110 7798            02BC0 19784    01723000           SEG   'Regs 8-15: '
 0024E6 4100 000B            0000B 19788             +
 0024EA 58F0 B444            00444 19794             +
 0024EE 58E0 7654/0DEE       02A7C 19797             +
 0024F4 4150 0008            00008 19799    01724000           LA    R5,8
 0024F8 5810 4000            00000 19800    01725000  DT8      SEGHX @R4,8
 0024FC 4100 0008            00008 19811             +
 002500 58F0 B444            00444 19817             +
 002504 58E0 7674/0DEE       02A9C 19820             +
 00250A 4110 76FE            02B26 19822    01726000           SEG   '  '
 00250E 4100 0002            00002 19826             +
 002512 58F0 B444            00444 19832             +
 002516 58E0 7654/0DEE       02A7C 19835             +
 00251C 4144 0004            00004 19837    01727000           LA    R4,4(R4)
 002520 4650 70D0            024F8 19838    01728000           BCT   R5,DT8
 002524 1B00/58F0 B444       00444 19839    01729000           SEGWR ,
 00252A 58E0 7658/0DEE       02A80 19859             +
 002530 18D8/980C D004       00004 19861    01730000           PEND
 DROP   TRCENTRY,R3
 DROP   TRCDWA-(4+52),R8
 DROP   *,R7
 002536 58E0 D000/12FF       00000 19887             +
 00253C 07FE                       19890             +
1MONITOR  (MONI2170) (12:00) (20JUN02) DC - DISASSEMBLE CORE Command                                                        Page   84
0Current Usings:  (MTVT,R11) (GVT,R12)
0Loc    Object Code    Addr1 Addr2  Stmt Lv Lineno    Source Statement           (Hibal 5, Asmedit 3.3)  HLASM R4.0  2002/06/20 12.00
+___    ______ ____    _____ _____  ____ __ ______    ______ _________
0                                  19892    01732000  ¿þþþþþþþþþþþþþþþþþþþþþþþþþþþþþþþþþþþþþþþþþþþþþþþþþþþþþþþþþþþþþþþþþþþþþÜ
                                   19893    01733000  Ÿ                                                                     Ÿ
                                   19894    01734000  Ÿ  DC Command.                                                        Ÿ
                                   19895    01735000  Ÿ                                                                     Ÿ
                                   19896    01736000  Ÿ                                                                     Ÿ
                                                      ¾þþþþþþþþþþþþþþþþþþþþþþþþþþþþþþþþþþþþþþþþþþþþþþþþþþþþþþþþþþþþþþþþþþþþþ»
000253E 90DF B0D4            000D4 19897    01737000  DISASMBL PROC
 002542 58F0 C014/0DEF       00014 19907             +
 002548 C4C9E2C1E2D4C2D3           19909             +
 002550 98DF B0D4            000D4 19910             +
 002554 50E0 D000            00000 19913             +
 002558 900C D004/188D       00004 19916             +
 00255E 41D0 D038/0D70       00038 19918             +
 002564 50F0 D000            00000 19941    01738000           SCPUSH
 USING  *,R7
 002568 D203 D004 B438 00004 00438 19943             +
 00256E 41DD 0008            00008 19944             +
 USING  TVT,R10                    19945    01739000           WITH  TVT
                                   19957    01740000  *
                                   19958    01741000  *                                  Scan for task name
                                   19959    01742000  *                                  Find task TVT
 002572 58E0 7524/0DEE       02A88 19960    01743000           ACALL SCANTASK
 002578 4770 7068            025CC 19964    01744000           IF    NZ,DCXX
                                   19978    01745000  *
                                   19979    01746000  *                                  If start all tasks
 00257C                            19980    01747000           IF    (@R1,EQ,'ALL '),BEGIN
 00257C D503 7528 1000 02A8C 00000 19990             +
 002582 4770 7038            0259C 19991             +
 002586 4110 74F4            02A58 19996  1 01748000             SEGWR 'Specific task must be specified.'
 00258A 4100 0020            00020 20001  1          +
 00258E 58F0 B444            00444 20007  1          +
 002592 58E0 751C/0DEE       02A80 20010  1          +
 002598 47F0 7068            025CC 20012  1 01749000             B     DCXX
 00259C                            20013    01750000           END
                                   20017    01751000  *
                                   20018    01752000  *                                  If monitor
 00259C 703C           0259C 02584 20019    01753000           ELSEIF (@R1,EQ,'MONITOR '),BEGIN
 00259C 47F0 7050            025B4 20025             +
 0025A0 D507 74EC 1000 02A50 00000 20038             +
 0025A6 4770 7050            025B4 20039             +
 0025AA 4110 B000            00000 20044  1 01754000             LA    R1,MTVT
 0025AE 58E0 7574/0DEE       02AD8 20045  1 01755000             ACALL DCTASK
 0025B4                            20049    01756000           END
                                   20053    01757000  *
                                   20054    01758000  *                                  If start specific task
 0025B4 7054           025B4 025A8 20055    01759000           ELSE  BEGIN
 0025B4 47F0 7068            025CC 20060             +
 0025B8 58E0 7534/0DEE       02A98 20066  1 01760000             ACALL FINDTASK
 0025BE 12FF/4780 7068       025CC 20070  1 01761000             IF    (R15,Z),DCXX
 0025C4 181F                       20087  1 01762000             LR    R1,R15
 0025C6 58E0 7574/0DEE       02AD8 20088  1 01763000             ACALL DCTASK
 0025CC                            20092    01764000           END
                                   20096    01765000
1MONITOR  (MONI2170) (12:00) (20JUN02) DC - DISASSEMBLE CORE Command                                                        Page   85
0Current Usings:  (*,R7) (TVT,R10) (MTVT,R11) (GVT,R12)
0Loc    Object Code    Addr1 Addr2  Stmt Lv Lineno    Source Statement           (Hibal 5, Asmedit 3.3)  HLASM R4.0  2002/06/20 12.00
+___    ______ ____    _____ _____  ____ __ ______    ______ _________
00025CC                            20097    01766000  DCXX     LABEL ,
 0025CC 5BD0 7520            02A84 20099    01767000           SCPOP
 0025D0 58F0 D000            00000 20101             +
 0025D4 D203 B438 D004 00438 00004 20102             +
 0025DA 18D8/980C D004       00004 20103    01768000           PEND
 DROP   TVT,R10
 DROP   *,R7
 0025E0 58E0 D000/12FF       00000 20124             +
 0025E6 07FE                       20127             +
1MONITOR  (MONI2170) (12:00) (20JUN02) DC - DISASSEMBLE CORE Command                                                        Page   86
0Current Usings:  (MTVT,R11) (GVT,R12)
0Loc    Object Code    Addr1 Addr2  Stmt Lv Lineno    Source Statement           (Hibal 5, Asmedit 3.3)  HLASM R4.0  2002/06/20 12.00
+___    ______ ____    _____ _____  ____ __ ______    ______ _________
0                                  20129    01770000  *
                                   20130    01771000  *  DC TASK
                                   20131    01772000  *
                                   20132    01773000  *  ON ENTRY:
                                   20133    01774000  *    R1 - TASK TVT PTR
                                   20134    01775000  *
                                   20135    01776000  *
 0025E8 90DF B0D4            000D4 20136    01777000  DCTASK   PROC  ,
 0025EC 58F0 C014/0DEF       00014 20146             +
 0025F2 C4C3E3C1E2D24040           20148             +
 0025FA 98DF B0D4            000D4 20149             +
 0025FE 50E0 D000            00000 20152             +
 002602 900C D004/188D       00004 20155             +
 002608 41D0 D038/0D70       00038 20157             +
 USING  *,R7                       20180    01778000  *
 00260E 18A1                       20181    01779000           LR    TVTR,R1
 USING  TVT,R10                    20182    01780000           WITH  TVT
                                   20194    01781000
 002610                            20195    01782000           IF    (TVTTCBP,NZ),BEGIN  Task is active...
 002610 D603 A098 A098 00098 00098 20205             +
 002616 4780 7028            02636 20206             +
 00261A 41F0 B424            00424 20211  1 01783000             SCTELL MTVTSCNCB
 00261E 58E0 74AA/0DEE       02AB8 20221  1          +
 002624 5820 A0E0            000E0 20223  1 01784000             L     R2,TVTSYMTB
 002628 1B33                       20224  1 01785000             CLEAR R3
 00262A 1B44                       20228  1 01786000             CLEAR R4
 00262C 58F0 B444            00444 20232  1 01787000             L     R15,MTVTCURSG
 002630 58E0 74CE/0DEE       02ADC 20233  1 01788000             VCALL DISASMC
 002636                            20237    01789000           END
                                   20241    01790000
 002636 702C           02636 02618 20242    01791000           ELSE  BEGIN
 002636 47F0 705C            0266A 20247             +
 00263A 4110 A014            00014 20253  1 01792000             SEGT  TVTNAME
 00263E 4100 0008            00008 20268  1          +
 002642 58F0 B444            00444 20274  1          +
 002646 58E0 74B2/0DEE       02AC0 20277  1          +
 00264C 4110 756D            02B7B 20279  1 01793000             SEG   ' is not active.'
 002650 4100 000F            0000F 20283  1          +
 002654 58F0 B444            00444 20289  1          +
 002658 58E0 746E/0DEE       02A7C 20292  1          +
 00265E 1B00/58F0 B444       00444 20294  1 01794000             SEGWR
 002664 58E0 7472/0DEE       02A80 20314  1          +
 00266A                            20316    01795000           END
 00266A 18D8/980C D004       00004 20320    01796000           PEND
 DROP   TVT,R10
 DROP   *,R7
 002670 58E0 D000/12FF       00000 20341             +
 002676 07FE                       20344             +
1MONITOR  (MONI2170) (12:00) (20JUN02) SC - SHOW CORE Command                                                               Page   87
0Current Usings:  (MTVT,R11) (GVT,R12)
0Loc    Object Code    Addr1 Addr2  Stmt Lv Lineno    Source Statement           (Hibal 5, Asmedit 3.3)  HLASM R4.0  2002/06/20 12.00
+___    ______ ____    _____ _____  ____ __ ______    ______ _________
0                                  20346    01798000  ¿þþþþþþþþþþþþþþþþþþþþþþþþþþþþþþþþþþþþþþþþþþþþþþþþþþþþþþþþþþþþþþþþþþþþþÜ
                                   20347    01799000  Ÿ                                                                     Ÿ
                                   20348    01800000  Ÿ  SA Command.                                                        Ÿ
                                   20349    01801000  Ÿ                                                                     Ÿ
                                   20350    01802000  Ÿ                                                                     Ÿ
                                                      ¾þþþþþþþþþþþþþþþþþþþþþþþþþþþþþþþþþþþþþþþþþþþþþþþþþþþþþþþþþþþþþþþþþþþþþ»
0002678 90DF B0D4            000D4 20351    01803000  SHOWADDR PROC
 00267C 58F0 C014/0DEF       00014 20361             +
 002682 E2C8D6E6C1C4C4D9           20363             +
 00268A 98DF B0D4            000D4 20364             +
 00268E 50E0 D000            00000 20367             +
 002692 900C D004/188D       00004 20370             +
 002698 41D0 D038/0D70       00038 20372             +
 00269E 50F0 D000            00000 20395    01804000           SCPUSH
 USING  *,R7
 0026A2 D203 D004 B438 00004 00438 20397             +
 0026A8 41DD 0008            00008 20398             +
 USING  TVT,R10                    20399    01805000           WITH  TVT
                                   20411    01806000  *
                                   20412    01807000  *                                  Scan for task name
                                   20413    01808000  *                                  Find task TVT
 0026AC 58E0 73EA/0DEE       02A88 20414    01809000           ACALL SCANTASK
 0026B2 4770 7068            02706 20418    01810000           IF    NZ,SHOWAXX
                                   20432    01811000  *
                                   20433    01812000  *                                  If start all tasks
 0026B6                            20434    01813000           IF    (@R1,EQ,'ALL '),BEGIN
 0026B6 D503 73EE 1000 02A8C 00000 20444             +
 0026BC 4770 7038            026D6 20445             +
 0026C0 4110 73BA            02A58 20450  1 01814000             SEGWR 'Specific task must be specified.'
 0026C4 4100 0020            00020 20455  1          +
 0026C8 58F0 B444            00444 20461  1          +
 0026CC 58E0 73E2/0DEE       02A80 20464  1          +
 0026D2 47F0 7068            02706 20466  1 01815000             B     SHOWAXX
 0026D6                            20467    01816000           END
                                   20471    01817000  *
                                   20472    01818000  *                                  If monitor
 0026D6 703C           026D6 026BE 20473    01819000           ELSEIF (@R1,EQ,'MONITOR '),BEGIN
 0026D6 47F0 7050            026EE 20479             +
 0026DA D507 73B2 1000 02A50 00000 20492             +
 0026E0 4770 7050            026EE 20493             +
 0026E4 4110 B000            00000 20498  1 01820000             LA    R1,MTVT
 0026E8 58E0 7442/0DEE       02AE0 20499  1 01821000             ACALL SATASK
 0026EE                            20503    01822000           END
                                   20507    01823000  *
                                   20508    01824000  *                                  If start specific task
 0026EE 7054           026EE 026E2 20509    01825000           ELSE  BEGIN
 0026EE 47F0 7068            02706 20514             +
 0026F2 58E0 73FA/0DEE       02A98 20520  1 01826000             ACALL FINDTASK
 0026F8 12FF/4780 7068       02706 20524  1 01827000             IF    (R15,Z),SHOWAXX
 0026FE 181F                       20541  1 01828000             LR    R1,R15
 002700 58E0 7442/0DEE       02AE0 20542  1 01829000             ACALL SATASK
 002706                            20546    01830000           END
                                   20550    01831000
1MONITOR  (MONI2170) (12:00) (20JUN02) SC - SHOW CORE Command                                                               Page   88
0Current Usings:  (*,R7) (TVT,R10) (MTVT,R11) (GVT,R12)
0Loc    Object Code    Addr1 Addr2  Stmt Lv Lineno    Source Statement           (Hibal 5, Asmedit 3.3)  HLASM R4.0  2002/06/20 12.00
+___    ______ ____    _____ _____  ____ __ ______    ______ _________
0002706                            20551    01832000  SHOWAXX  LABEL ,
 002706 5BD0 73E6            02A84 20553    01833000           SCPOP
 00270A 58F0 D000            00000 20555             +
 00270E D203 B438 D004 00438 00004 20556             +
 002714 18D8/980C D004       00004 20557    01834000           PEND
 DROP   TVT,R10
 DROP   *,R7
 00271A 58E0 D000/12FF       00000 20578             +
 002720 07FE                       20581             +
1MONITOR  (MONI2170) (12:00) (20JUN02) SC - SHOW CORE Command                                                               Page   89
0Current Usings:  (MTVT,R11) (GVT,R12)
0Loc    Object Code    Addr1 Addr2  Stmt Lv Lineno    Source Statement           (Hibal 5, Asmedit 3.3)  HLASM R4.0  2002/06/20 12.00
+___    ______ ____    _____ _____  ____ __ ______    ______ _________
0                                  20583    01836000  *
                                   20584    01837000  *  SA TASK
                                   20585    01838000  *
                                   20586    01839000  *  ON ENTRY:
                                   20587    01840000  *    R1 - TASK TVT PTR
                                   20588    01841000  *
                                   20589    01842000  *
 002722 90DF B0D4            000D4 20590    01843000  SATASK   PROC  ,
 002726 58F0 C014/0DEF       00014 20600             +
 00272C E2C1E3C1E2D24040           20602             +
 002734 98DF B0D4            000D4 20603             +
 002738 50E0 D000            00000 20606             +
 00273C 900C D004/188D       00004 20609             +
 002742 41D0 D038/0D70       00038 20611             +
 USING  *,R7                       20634    01844000  *
 002748 18A1                       20635    01845000           LR    TVTR,R1
 USING  TVT,R10                    20636    01846000           WITH  TVT
                                   20648    01847000
 00274A                            20649    01848000           IF    (TVTTCBP,NZ),BEGIN  Task is active...
 00274A D603 A098 A098 00098 00098 20659             +
 002750 4780 7028            02770 20660             +
 002754 41F0 B424            00424 20665  1 01849000             SCTELL MTVTSCNCB
 002758 58E0 7370/0DEE       02AB8 20675  1          +
 00275E 5820 A0E0            000E0 20677  1 01850000             L     R2,TVTSYMTB
 002762 1B33                       20678  1 01851000             CLEAR R3
 002764 1B44                       20682  1 01852000             CLEAR R4
 002766 58F0 B444            00444 20686  1 01853000             L     R15,MTVTCURSG
 00276A 58E0 739C/0DEE       02AE4 20687  1 01854000             VCALL SHOWA
 002770                            20691    01855000           END
                                   20695    01856000
 002770 702C           02770 02752 20696    01857000           ELSE  BEGIN
 002770 47F0 705C            027A4 20701             +
 002774 4110 A014            00014 20707  1 01858000             SEGT  TVTNAME
 002778 4100 0008            00008 20722  1          +
 00277C 58F0 B444            00444 20728  1          +
 002780 58E0 7378/0DEE       02AC0 20731  1          +
 002786 4110 7433            02B7B 20733  1 01859000             SEG   ' is not active.'
 00278A 4100 000F            0000F 20737  1          +
 00278E 58F0 B444            00444 20743  1          +
 002792 58E0 7334/0DEE       02A7C 20746  1          +
 002798 1B00/58F0 B444       00444 20748  1 01860000             SEGWR
 00279E 58E0 7338/0DEE       02A80 20768  1          +
 0027A4                            20770    01861000           END
 0027A4 18D8/980C D004       00004 20774    01862000           PEND
 DROP   TVT,R10
 DROP   *,R7
 0027AA 58E0 D000/12FF       00000 20795             +
 0027B0 07FE                       20798             +
1MONITOR  (MONI2170) (12:00) (20JUN02) SC - SHOW CORE Command                                                               Page   90
0Current Usings:  (MTVT,R11) (GVT,R12)
0Loc    Object Code    Addr1 Addr2  Stmt Lv Lineno    Source Statement           (Hibal 5, Asmedit 3.3)  HLASM R4.0  2002/06/20 12.00
+___    ______ ____    _____ _____  ____ __ ______    ______ _________
0                                  20800    01864000  ¿þþþþþþþþþþþþþþþþþþþþþþþþþþþþþþþþþþþþþþþþþþþþþþþþþþþþþþþþþþþþþþþþþþþþþÜ
                                   20801    01865000  Ÿ                                                                     Ÿ
                                   20802    01866000  Ÿ  PC Command.                                                        Ÿ
                                   20803    01867000  Ÿ                                                                     Ÿ
                                   20804    01868000  Ÿ                                                                     Ÿ
                                                      ¾þþþþþþþþþþþþþþþþþþþþþþþþþþþþþþþþþþþþþþþþþþþþþþþþþþþþþþþþþþþþþþþþþþþþþ»
00027B2 90DF B0D4            000D4 20805    01869000  PTCHCORE PROC
 0027B6 58F0 C014/0DEF       00014 20815             +
 0027BC D7E3C3C8C3D6D9C5           20817             +
 0027C4 98DF B0D4            000D4 20818             +
 0027C8 50E0 D000            00000 20821             +
 0027CC 900C D004/188D       00004 20824             +
 0027D2 41D0 D038/0D70       00038 20826             +
 0027D8 50F0 D000            00000 20849    01870000           SCPUSH
 USING  *,R7
 0027DC D203 D004 B438 00004 00438 20851             +
 0027E2 41DD 0008            00008 20852             +
 USING  TVT,R10                    20853    01871000           WITH  TVT
                                   20865    01872000  *
                                   20866    01873000  *                                  Scan for task name
                                   20867    01874000  *                                  Find task TVT
 0027E6 58E0 72B0/0DEE       02A88 20868    01875000           ACALL SCANTASK
 0027EC 4770 7068            02840 20872    01876000           IF    NZ,PATCHCXX
                                   20886    01877000  *
                                   20887    01878000  *                                  If start all tasks
 0027F0                            20888    01879000           IF    (@R1,EQ,'ALL '),BEGIN
 0027F0 D503 72B4 1000 02A8C 00000 20898             +
 0027F6 4770 7038            02810 20899             +
 0027FA 4110 7280            02A58 20904  1 01880000             SEGWR 'Specific task must be specified.'
 0027FE 4100 0020            00020 20909  1          +
 002802 58F0 B444            00444 20915  1          +
 002806 58E0 72A8/0DEE       02A80 20918  1          +
 00280C 47F0 7068            02840 20920  1 01881000             B     PATCHCXX
 002810                            20921    01882000           END
                                   20925    01883000  *
                                   20926    01884000  *                                  If monitor
 002810 703C           02810 027F8 20927    01885000           ELSEIF (@R1,EQ,'MONITOR '),BEGIN
 002810 47F0 7050            02828 20933             +
 002814 D507 7278 1000 02A50 00000 20946             +
 00281A 4770 7050            02828 20947             +
 00281E 4110 B000            00000 20952  1 01886000             LA    R1,MTVT
 002822 58E0 7310/0DEE       02AE8 20953  1 01887000             ACALL PCTASK
 002828                            20957    01888000           END
                                   20961    01889000  *
                                   20962    01890000  *                                  If start specific task
 002828 7054           02828 0281C 20963    01891000           ELSE  BEGIN
 002828 47F0 7068            02840 20968             +
 00282C 58E0 72C0/0DEE       02A98 20974  1 01892000             ACALL FINDTASK
 002832 12FF/4780 7068       02840 20978  1 01893000             IF    (R15,Z),PATCHCXX
 002838 181F                       20995  1 01894000             LR    R1,R15
 00283A 58E0 7310/0DEE       02AE8 20996  1 01895000             ACALL PCTASK
 002840                            21000    01896000           END
                                   21004    01897000
1MONITOR  (MONI2170) (12:00) (20JUN02) SC - SHOW CORE Command                                                               Page   91
0Current Usings:  (*,R7) (TVT,R10) (MTVT,R11) (GVT,R12)
0Loc    Object Code    Addr1 Addr2  Stmt Lv Lineno    Source Statement           (Hibal 5, Asmedit 3.3)  HLASM R4.0  2002/06/20 12.00
+___    ______ ____    _____ _____  ____ __ ______    ______ _________
0002840                            21005    01898000  PATCHCXX LABEL ,
 002840 5BD0 72AC            02A84 21007    01899000           SCPOP
 002844 58F0 D000            00000 21009             +
 002848 D203 B438 D004 00438 00004 21010             +
 00284E 18D8/980C D004       00004 21011    01900000           PEND
 DROP   TVT,R10
 DROP   *,R7
 002854 58E0 D000/12FF       00000 21032             +
 00285A 07FE                       21035             +
1MONITOR  (MONI2170) (12:00) (20JUN02) SC - SHOW CORE Command                                                               Page   92
0Current Usings:  (MTVT,R11) (GVT,R12)
0Loc    Object Code    Addr1 Addr2  Stmt Lv Lineno    Source Statement           (Hibal 5, Asmedit 3.3)  HLASM R4.0  2002/06/20 12.00
+___    ______ ____    _____ _____  ____ __ ______    ______ _________
0                                  21037    01902000  *
                                   21038    01903000  *  PC TASK
                                   21039    01904000  *
                                   21040    01905000  *  ON ENTRY:
                                   21041    01906000  *    R1 - TASK TVT PTR
                                   21042    01907000  *
                                   21043    01908000  *
 00285C 90DF B0D4            000D4 21044    01909000  PCTASK   PROC  ,
 002860 58F0 C014/0DEF       00014 21054             +
 002866 D7C3E3C1E2D24040           21056             +
 00286E 98DF B0D4            000D4 21057             +
 002872 50E0 D000            00000 21060             +
 002876 900C D004/188D       00004 21063             +
 00287C 41D0 D038/0D70       00038 21065             +
 USING  *,R7                       21088    01910000  *
 002882 18A1                       21089    01911000           LR    TVTR,R1
 USING  TVT,R10                    21090    01912000           WITH  TVT
                                   21102    01913000
 002884                            21103    01914000           IF    (TVTTCBP,NZ),BEGIN  Task is active...
 002884 D603 A098 A098 00098 00098 21113             +
 00288A 4780 7028            028AA 21114             +
 00288E 41F0 B424            00424 21119  1 01915000             SCTELL MTVTSCNCB
 002892 58E0 7236/0DEE       02AB8 21129  1          +
 002898 5820 A0E0            000E0 21131  1 01916000             L     R2,TVTSYMTB
 00289C 1B33                       21132  1 01917000             CLEAR R3
 00289E 1B44                       21136  1 01918000             CLEAR R4
 0028A0 58F0 B444            00444 21140  1 01919000             L     R15,MTVTCURSG
 0028A4 58E0 726A/0DEE       02AEC 21141  1 01920000             VCALL PATCHC
 0028AA                            21145    01921000           END
                                   21149    01922000
 0028AA 702C           028AA 0288C 21150    01923000           ELSE  BEGIN
 0028AA 47F0 705C            028DE 21155             +
 0028AE 4110 A014            00014 21161  1 01924000             SEGT  TVTNAME
 0028B2 4100 0008            00008 21176  1          +
 0028B6 58F0 B444            00444 21182  1          +
 0028BA 58E0 723E/0DEE       02AC0 21185  1          +
 0028C0 4110 72F9            02B7B 21187  1 01925000             SEG   ' is not active.'
 0028C4 4100 000F            0000F 21191  1          +
 0028C8 58F0 B444            00444 21197  1          +
 0028CC 58E0 71FA/0DEE       02A7C 21200  1          +
 0028D2 1B00/58F0 B444       00444 21202  1 01926000             SEGWR
 0028D8 58E0 71FE/0DEE       02A80 21222  1          +
 0028DE                            21224    01927000           END
 0028DE 18D8/980C D004       00004 21228    01928000           PEND
 DROP   TVT,R10
 DROP   *,R7
 0028E4 58E0 D000/12FF       00000 21249             +
 0028EA 07FE                       21252             +
1MONITOR  (MONI2170) (12:00) (20JUN02) Misc Command Stuff                                                                   Page   93
0Current Usings:  (MTVT,R11) (GVT,R12)
0Loc    Object Code    Addr1 Addr2  Stmt Lv Lineno    Source Statement           (Hibal 5, Asmedit 3.3)  HLASM R4.0  2002/06/20 12.00
+___    ______ ____    _____ _____  ____ __ ______    ______ _________
0                                  21254    01930000  ¿þþþþþþþþþþþþþþþþþþþþþþþþþþþþþþþþþþþþþþþþþþþþþþþþþþþþþþþþþþþþþþþþþþþþþÜ
                                   21255    01931000  Ÿ                                                                     Ÿ
                                   21256    01932000  Ÿ  Not yet implemented message.                                       Ÿ
                                   21257    01933000  Ÿ                                                                     Ÿ
                                   21258    01934000  Ÿ                                                                     Ÿ
                                                      ¾þþþþþþþþþþþþþþþþþþþþþþþþþþþþþþþþþþþþþþþþþþþþþþþþþþþþþþþþþþþþþþþþþþþþþ»
00028EC 90DF B0D4            000D4 21259    01935000  NOTYET   PROC
 0028F0 58F0 C014/0DEF       00014 21269             +
 0028F6 D5D6E3E8C5E34040           21271             +
 0028FE 98DF B0D4            000D4 21272             +
 002902 50E0 D000            00000 21275             +
 002906 900C D004/188D       00004 21278             +
 00290C 41D0 D038/0D70       00038 21280             +
 002912 50F0 D000            00000 21303    01936000           SCPUSH ,                  R15 must stay the same! ha!
 USING  *,R7
 002916 D203 D004 B438 00004 00438 21305             +
 00291C 41DD 0008            00008 21306             +
 002920 58F0 B444            00444 21307    01937000           SEG  (R1),(R0)
 002924 58E0 716A/0DEE       02A7C 21326             +
 00292A 4110 72B9            02BCB 21328    01938000           SEGWR 'Command not implemented. '
 00292E 4100 0019            00019 21333             +
 002932 58F0 B444            00444 21339             +
 002936 58E0 716E/0DEE       02A80 21342             +
 00293C                            21344    01939000           CLEAR  MTVTSCNLEN         Stop scan
 00293C D703 B430 B430 00430 00430 21350             +
 002942 5BD0 7172            02A84 21351    01940000           SCPOP
 002946 58F0 D000            00000 21353             +
 00294A D203 B438 D004 00438 00004 21354             +
 002950 18D8/980C D004       00004 21355    01941000           PEND
 DROP   *,R7
 002956 58E0 D000/12FF       00000 21371             +
 00295C 07FE                       21374             +
1MONITOR  (MONI2170) (12:00) (20JUN02) Misc Command Stuff                                                                   Page   94
0Current Usings:  (MTVT,R11) (GVT,R12)
0Loc    Object Code    Addr1 Addr2  Stmt Lv Lineno    Source Statement           (Hibal 5, Asmedit 3.3)  HLASM R4.0  2002/06/20 12.00
+___    ______ ____    _____ _____  ____ __ ______    ______ _________
0                                  21376    01943000  ¿þþþþþþþþþþþþþþþþþþþþþþþþþþþþþþþþþþþþþþþþþþþþþþþþþþþþþþþþþþþþþþþþþþþþþÜ
                                   21377    01944000  Ÿ                                                                     Ÿ
                                   21378    01945000  Ÿ        Unrecognized command.                                        Ÿ
                                   21379    01946000  Ÿ                                                                     Ÿ
                                                      ¾þþþþþþþþþþþþþþþþþþþþþþþþþþþþþþþþþþþþþþþþþþþþþþþþþþþþþþþþþþþþþþþþþþþþþ»
000295E 90DF B0D4            000D4 21380    01947000  BADCMD   PROC
 002962 58F0 C014/0DEF       00014 21390             +
 002968 C2C1C4C3D4C44040           21392             +
 002970 98DF B0D4            000D4 21393             +
 002974 50E0 D000            00000 21396             +
 002978 900C D004/188D       00004 21399             +
 00297E 41D0 D038/0D70       00038 21401             +
 002984 50F0 D000            00000 21424    01948000           SCPUSH ,                  R15 must stay the same! ha!
 USING  *,R7
 002988 D203 D004 B438 00004 00438 21426             +
 00298E 41DD 0008            00008 21427             +
 002992 58F0 B444            00444 21428    01949000           SEG  (R1),(R0)
 002996 58E0 70F8/0DEE       02A7C 21447             +
 00299C 4110 7260            02BE4 21449    01950000           SEGWR ': unrecognized monitor command.'
 0029A0 4100 001F            0001F 21454             +
 0029A4 58F0 B444            00444 21460             +
 0029A8 58E0 70FC/0DEE       02A80 21463             +
 0029AE                            21465    01951000           CLEAR  MTVTSCNLEN         Stop scan
 0029AE D703 B430 B430 00430 00430 21471             +
 0029B4 5BD0 7100            02A84 21472    01952000           SCPOP
 0029B8 58F0 D000            00000 21474             +
 0029BC D203 B438 D004 00438 00004 21475             +
 0029C2 18D8/980C D004       00004 21476    01953000           PEND
 DROP   *,R7
 0029C8 58E0 D000/12FF       00000 21492             +
 0029CE 07FE                       21495             +
                                   21496    01954000
 0029D0 90DF B0D4            000D4 21497    01955000  INVALID  PROC
 0029D4 58F0 C014/0DEF       00014 21507             +
 0029DA C9D5E5C1D3C9C440           21509             +
 0029E2 98DF B0D4            000D4 21510             +
 0029E6 50E0 D000            00000 21513             +
 0029EA 900C D004/188D       00004 21516             +
 0029F0 41D0 D038/0D70       00038 21518             +
 0029F6 50F0 D000            00000 21541    01956000           SCPUSH ,                  R15 must stay the same! ha!
 USING  *,R7
 0029FA D203 D004 B438 00004 00438 21543             +
 002A00 41DD 0008            00008 21544             +
 002A04 58F0 B444            00444 21545    01957000           SEGT  (R1),(R0)
 002A08 58E0 70CA/0DEE       02AC0 21565             +
 002A0E 4110 720D            02C03 21567    01958000           SEG   ': invalid option.'
 002A12 4100 0011            00011 21571             +
 002A16 58F0 B444            00444 21577             +
 002A1A 58E0 7086/0DEE       02A7C 21580             +
 002A20                            21582    01959000           CLEAR  MTVTSCNLEN         Stop scan
 002A20 D703 B430 B430 00430 00430 21588             +
 002A26 5BD0 708E            02A84 21589    01960000           SCPOP
 002A2A 58F0 D000            00000 21591             +
1MONITOR  (MONI2170) (12:00) (20JUN02) Misc Command Stuff                                                                   Page   95
0Current Usings:  (*,R7) (MTVT,R11) (GVT,R12)
0Loc    Object Code    Addr1 Addr2  Stmt Lv Lineno    Source Statement           (Hibal 5, Asmedit 3.3)  HLASM R4.0  2002/06/20 12.00
+___    ______ ____    _____ _____  ____ __ ______    ______ _________
0002A2E D203 B438 D004 00438 00004 21592             +
 002A34 18D8/980C D004       00004 21593    01961000           PEND
 DROP   *,R7
 002A3A 58E0 D000/12FF       00000 21609             +
 002A40 07FE                       21612             +
                                   21613    01962000
                                   21614    01963000           SEGDEF DUMMY              (neatness)
                                   21615    01964000
                                   21616    01965000           QLTORG
1MONITOR  (MONI2170) (12:00) (20JUN02) Process EXEC PARM= parameters                                                        Page   96
0Current Usings:  (MTVT,R11) (GVT,R12)
0Loc    Object Code    Addr1 Addr2  Stmt Lv Lineno    Source Statement           (Hibal 5, Asmedit 3.3)  HLASM R4.0  2002/06/20 12.00
+___    ______ ____    _____ _____  ____ __ ______    ______ _________
0                                  21690    01967000  *
                                   21691    01968000  *  Process EXEC PARM= parameters
                                   21692    01969000  *
                                   21693    01970000  *  On entry:
                                   21694    01971000  *    R1,R0 - PARM LOC LENGTH
                                   21695    01972000  *
                                   21696    01973000  *
 000000                00000 00008 21697    01974000  DOPWA    RECORD BEGIN
 000000                            21705  1 01975000  DOPLOC     DS    A
 000004                            21706  1 01976000  DOPLEN     DS    F
 000008                00008 00008 21707    01977000           END
                                   21716    01978000  *
                                   21717    01979000  *
 002C14 90DF B0D4            000D4 21718    01980000  DOPARM   PROC  DOPWA
 002C18 58F0 C014/0DEF       00014 21729             +
 002C1E C4D6D7C1D9D44040           21731             +
 002C26 98DF B0D4            000D4 21732             +
 002C2A 50E0 D000            00000 21735             +
 002C2E 900C D004/188D       00004 21738             +
 002C34 41D0 D040/0D70       00040 21741             +
 002C3A 5000 803C            00004 21773    01981000           ST    R0,DOPLEN
 USING  *,R7
 USING  DOPWA-(4+52),R8
 002C3E 5010 8038            00000 21774    01982000           ST    R1,DOPLOC
                                   21775    01983000
                                   21776    01984000           SEGDEF MTVTWTOSG          Let oper know there are bad parms
 002C42 4110 721E            02E58 21777    01985000           SEG   'WINGS starting, parm= '
 002C46 4100 0016            00016 21781             +
 002C4A 41F0 B484            00484 21789             +
 002C4E 58E0 71F6/0DEE       02E30 21792             +
 002C54 5810 8038            00000 21794    01986000           SEGWR L:DOPLOC,L:DOPLEN
 002C58 5800 803C            00004 21807             +
 002C5C 41F0 B484            00484 21815             +
 002C60 58E0 71FA/0DEE       02E34 21818             +
                                   21820    01987000
 002C66                            21821    01988000           IF    (DOPLEN,GT,0),BEGIN
 002C66 D503 71F2 803C 02E2C 00004 21833             +
 002C6C 47B0 706C            02CA6 21834             +
 002C70 5810 8038            00000 21839  1 01989000             SCINIT L:DOPLOC,L:DOPLEN,MTVTSCNCB  Parm
 002C74 5800 803C            00004 21849  1          +
 002C78 41F0 B424            00424 21856  1          +
 002C7C 58E0 71FE/0DEE       02E38 21859  1          +
 002C82 4110 707A            02CB4 21861  1 01990000             SCAN  PARMPRT,MTVTSCNCB
 002C86 41F0 B424            00424 21875  1          +
 002C8A 58E0 7202/0DEE       02E3C 21878  1          +
 002C90 47B0 706C            02CA6 21880  1 01991000             IF    NEG,'SEGWR "Bad parms."'
 002C94 4110 7234            02E6E 21896  2          +
 002C98 4100 000A            0000A 21897  2          +
 002C9C 41F0 B484            00484 21905  2          +
 002CA0 58E0 71FA/0DEE       02E34 21908  1          +
 002CA6                            21914    01992000           END
                                   21918    01993000
 002CA6 18D8/980C D004       00004 21919    01994000           PEND
 DROP   DOPWA-(4+52),R8
1MONITOR  (MONI2170) (12:00) (20JUN02) Process EXEC PARM= parameters                                                        Page   97
0Current Usings:  (MTVT,R11) (GVT,R12)
0Loc    Object Code    Addr1 Addr2  Stmt Lv Lineno    Source Statement           (Hibal 5, Asmedit 3.3)  HLASM R4.0  2002/06/20 12.00
+___    ______ ____    _____ _____  ____ __ ______    ______ _________
0DROP   *,R7
 002CAC 58E0 D000/12FF       00000 21940             +
 002CB2 07FE                       21943             +
1MONITOR  (MONI2170) (12:00) (20JUN02) Process EXEC PARM= parameters                                                        Page   98
0Current Usings:  (MTVT,R11) (GVT,R12)
0Loc    Object Code    Addr1 Addr2  Stmt Lv Lineno    Source Statement           (Hibal 5, Asmedit 3.3)  HLASM R4.0  2002/06/20 12.00
+___    ______ ____    _____ _____  ____ __ ______    ______ _________
0                                  21945    01996000           ¿þþþþþþþþþþþþþþþþþþþþÜ
                                   21946    01997000           Ÿ  OS PARM Options.  Ÿ
                                   21947    01998000           ¾þþþþþþþþþþþþþþþþþþþþ»
 002CB4                            21948    01999000  PARMPRT  SCKW  TEST,GBLTEST,A
 002CB4 0B002CE0E3C5E2E3           21949             +
 002CBC                            21950    02000000           SCKW  PRODUCTION,GBLPROD,A
 002CBC 0F002D18D7D9D6C4           21951             +
 002CC8                            21952    02001000           SCKW  PATH,GBLPATH,(A,P)
 002CC8 8B002D50D7C1E3C8           21953             +
 002CD0                            21954    02002000           SCKW  NOSTART,GBLNOST
 002CD0 06002DA0D5D6E2E3           21955             +
                                   21956    02003000  *        SCKW  AUTO,GBLAUTO,A     DISCONTINUE
                                   21957    02004000  *        SCKW  NOAUTO,GBLNAUTO,A
 002CDB FF002DDC                   21958    02005000           SCKW  ,BADPARM
                                   21960    02006000  þþþþ
 002CE0 90DF B0D4            000D4 21961    02007000  GBLTEST  PROC
 002CE4 58F0 C014/0DEF       00014 21971             +
 002CEA C7C2D3E3C5E2E340           21973             +
 002CF2 98DF B0D4            000D4 21974             +
 002CF6 50E0 D000            00000 21977             +
 002CFA 900C D004/188D       00004 21980             +
 002D00 41D0 D038/0D70       00038 21982             +
 002D06 9680 C04C      0004C       22005    02008000           SET   GVTFTEST            Test mode
 USING  *,R7
 002D0A 18D8/980C D004       00004 22011    02009000           PEND
 DROP   *,R7
 002D10 58E0 D000/12FF       00000 22027             +
 002D16 07FE                       22030             +
                                   22031    02010000
 002D18 90DF B0D4            000D4 22032    02011000  GBLPROD  PROC
 002D1C 58F0 C014/0DEF       00014 22042             +
 002D22 C7C2D3D7D9D6C440           22044             +
 002D2A 98DF B0D4            000D4 22045             +
 002D2E 50E0 D000            00000 22048             +
 002D32 900C D004/188D       00004 22051             +
 002D38 41D0 D038/0D70       00038 22053             +
 002D3E 947F C04C      0004C       22076    02012000           CLEAR GVTFTEST            Production mode
 USING  *,R7
 002D42 18D8/980C D004       00004 22083    02013000           PEND
 DROP   *,R7
 002D48 58E0 D000/12FF       00000 22099             +
 002D4E 07FE                       22102             +
                                   22103    02014000
 002D50 90DF B0D4            000D4 22104    02015000  GBLPATH  PROC  ,                   Set new path name
 002D54 58F0 C014/0DEF       00014 22114             +
 002D5A C7C2D3D7C1E3C840           22116             +
 002D62 98DF B0D4            000D4 22117             +
 002D66 50E0 D000            00000 22120             +
 002D6A 900C D004/188D       00004 22123             +
 002D70 41D0 D038/0D70       00038 22125             +
 002D76 1200/47D0 701C       02D92 22148    02016000           IF    ((R0,P),AND,(R0,LE,8)),BEGIN
 USING  *,R7
 002D7C 5900 70CA            02E40 22172             +
 002D80 4730 701C            02D92 22173             +
1MONITOR  (MONI2170) (12:00) (20JUN02) Process EXEC PARM= parameters                                                        Page   99
0Current Usings:  (*,R7) (MTVT,R11) (GVT,R12)
0Loc    Object Code    Addr1 Addr2  Stmt Lv Lineno    Source Statement           (Hibal 5, Asmedit 3.3)  HLASM R4.0  2002/06/20 12.00
+___    ______ ____    _____ _____  ____ __ ______    ______ _________
0002D84 1820                       22178  1 02017000             LR    R2,R0               Copy length of path name
 002D86 0620/4420 7102       02E78 22179  1 02018000             DEX   R2,'MVC GVTPATHN(0),@R1'      Move in path name
 002E78 D200 C064 1000 00064 00000 22190  1          +
 002D8C D607 C064 C0E0 00064 000E0 22198  1 02019000             OC    GVTPATHN,GVTBLANK   Force blanks and upper case
 002D92                            22199    02020000           END
 002D92 18D8/980C D004       00004 22203    02021000           PEND
 DROP   *,R7
 002D98 58E0 D000/12FF       00000 22219             +
 002D9E 07FE                       22222             +
                                   22223    02022000
 002DA0 90DF B0D4            000D4 22224    02023000  GBLNOST  PROC
 002DA4 58F0 C014/0DEF       00014 22234             +
 002DAA C7C2D3D5D6E2E340           22236             +
 002DB2 98DF B0D4            000D4 22237             +
 002DB6 50E0 D000            00000 22240             +
 002DBA 900C D004/188D       00004 22243             +
 002DC0 41D0 D038/0D70       00038 22245             +
 002DC6 94BF C04C      0004C       22268    02024000           CLEAR GVTFDIE
 USING  *,R7
 002DCA 9620 C04C      0004C       22275    02025000           SET   GVTFNOSTART
 002DCE 18D8/980C D004       00004 22281    02026000           PEND
 DROP   *,R7
 002DD4 58E0 D000/12FF       00000 22297             +
 002DDA 07FE                       22300             +
                                   22301    02027000  *
                                   22302    02028000  *GBLAUTO  PROC
                                   22303    02029000  *         SET   GVTFAUTO            Auto start tasks
                                   22304    02030000  *         PEND
                                   22305    02031000  **
                                   22306    02032000  *GBLNAUTO PROC
                                   22307    02033000  *         CLEAR GVTFAUTO,GVTFDIE    Don't auto start tasks
                                   22308    02034000  *         PEND
                                   22309    02035000  **
 002DDC 90DF B0D4            000D4 22310    02036000  BADPARM  PROC
 002DE0 58F0 C014/0DEF       00014 22320             +
 002DE6 C2C1C4D7C1D9D440           22322             +
 002DEE 98DF B0D4            000D4 22323             +
 002DF2 50E0 D000            00000 22326             +
 002DF6 900C D004/188D       00004 22329             +
 002DFC 41D0 D038/0D70       00038 22331             +
 002E02 41F0 B484            00484 22354    02037000           SEG   (R1),(R0)
 USING  *,R7
 002E06 58E0 702E/0DEE       02E30 22375             +
 002E0C 4110 7042            02E44 22377    02038000           SEGWR ': unrecognized parm.'
 002E10 4100 0014            00014 22382             +
 002E14 41F0 B484            00484 22390             +
 002E18 58E0 7032/0DEE       02E34 22393             +
 002E1E 18D8/980C D004       00004 22395    02039000           PEND
 DROP   *,R7
 002E24 58E0 D000/12FF       00000 22411             +
 002E2A 07FE                       22414             +
                                   22415    02040000
                                   22416    02041000           SEGDEF DUMMY              (neatness)
                                   22417    02042000
1MONITOR  (MONI2170) (12:00) (20JUN02) Process EXEC PARM= parameters                                                        Page  100
0Current Usings:  (MTVT,R11) (GVT,R12)
0Loc    Object Code    Addr1 Addr2  Stmt Lv Lineno    Source Statement           (Hibal 5, Asmedit 3.3)  HLASM R4.0  2002/06/20 12.00
+___    ______ ____    _____ _____  ____ __ ______    ______ _________
0                                  22418    02043000           QLTORG
1MONITOR  (MONI2170) (12:00) (20JUN02) Process (read) SYSIN file                                                            Page  101
0Current Usings:  (MTVT,R11) (GVT,R12)
0Loc    Object Code    Addr1 Addr2  Stmt Lv Lineno    Source Statement           (Hibal 5, Asmedit 3.3)  HLASM R4.0  2002/06/20 12.00
+___    ______ ____    _____ _____  ____ __ ______    ______ _________
0                                  22440    02045000           SEGDEF MTVTPRSG  (all sysin stuff goes to print log)
                                   22441    02046000  ¿þþþþþþþþþþþþþþþþþþþþþþþþþþþþþþþþþþþþþþþþþþþþþþþþþþþþþþþþþþþþþþþþþþþþþÜ
                                   22442    02047000  Ÿ                                                                     Ÿ
                                   22443    02048000  Ÿ  DOSYSIN - Process SYSIN file                                       Ÿ
                                   22444    02049000  Ÿ                                                                     Ÿ
                                   22445    02050000  Ÿ  Read and process all commands in SYSIN FILE                        Ÿ
                                   22446    02051000  Ÿ                                                                     Ÿ
                                   22447    02052000  Ÿ                                                                     Ÿ
                                   22448    02053000  Ÿ                                                                     Ÿ
                                                      ¾þþþþþþþþþþþþþþþþþþþþþþþþþþþþþþþþþþþþþþþþþþþþþþþþþþþþþþþþþþþþþþþþþþþþþ»
0000000                00000 00100 22449    02054000  DOSYSWA  RECORD BEGIN
 000000                            22457  1 02055000  DOSYSBUF   DS    CL256
 000100                00100 00100 22458    02056000           END
                                   22467    02057000  *
 002E7E 90DF B0D4            000D4 22468    02058000  DOSYSIN  PROC  DOSYSWA
 002E82 58F0 C014/0DEF       00014 22479             +
 002E88 C4D6E2E8E2C9D540           22481             +
 002E90 98DF B0D4            000D4 22482             +
 002E94 50E0 D000            00000 22485             +
 002E98 900C D004/188D       00004 22488             +
 002E9E 41D0 D138/0D70       00138 22491             +
 USING  *,R7                       22523    02059000  *
 USING  DOSYSWA-(4+52),R8
 002EA4 4110 8038            00000 22524    02060000           LA    R1,DOSYSBUF
 002EA8 4100 0100            00100 22525    02061000           LA    R0,L'DOSYSBUF
 002EAC 58E0 7304/0DEE       031A8 22526    02062000           WHILE ('ACALL GETSYSIN',Z),BEGIN  We have a SYSIN line...
 002EB2 4770 706E            02F12 22539             +
 002EB6 41F0 B424            00424 22544  1 02063000             SCINIT (R1),(R0),MTVTSCNCB
 002EBA 58E0 7308/0DEE       031AC 22562  1          +
                                   22564  1 02064000  *                                  for debug, write out cmd info
 002EC0 9001 D000            00000 22565  1 02065000             XPUSH R0,R1
 002EC4 41D0 D008            00008 22567  1          +
 002EC8 4110 736A            0320E 22568  1 02066000             SEG   'Command: '
 002ECC 4100 0009            00009 22572  1          +
 002ED0 41F0 B448            00448 22580  1          +
 002ED4 58E0 730C/0DEE       031B0 22583  1          +
 002EDA 4BD0 7334            031D8 22585  1 02067000             XPOP  R0,R1
 002EDE 9801 D000            00000 22587  1          +
 002EE2 9001 D000            00000 22588  1 02068000             XPUSH R0,R1
 002EE6 41D0 D008            00008 22590  1          +
 002EEA 41F0 B448            00448 22591  1 02069000             SEGWR (R1),(R0)
 002EEE 58E0 7310/0DEE       031B4 22613  1          +
 002EF4 4BD0 7334            031D8 22615  1 02070000             XPOP  R0,R1
 002EF8 9801 D000            00000 22617  1          +
 002EFC 41F0 B448            00448 22618  1 02071000             LA    R15,MTVTPRSG
 002F00 58E0 7314/0DEE       031B8 22619  1 02072000             ACALL DOCMD
 002F06 4110 8038            00000 22623  1 02073000             LA    R1,DOSYSBUF
 002F0A 4100 0100            00100 22624  1 02074000             LA    R0,L'DOSYSBUF
 002F0E 47F0 7008            02EAC 22625    02075000           END
                                   22630    02076000
 002F12 18D8/980C D004       00004 22631    02077000           PEND
 DROP   DOSYSWA-(4+52),R8
 DROP   *,R7
1MONITOR  (MONI2170) (12:00) (20JUN02) Process (read) SYSIN file                                                            Page  102
0Current Usings:  (MTVT,R11) (GVT,R12)
0Loc    Object Code    Addr1 Addr2  Stmt Lv Lineno    Source Statement           (Hibal 5, Asmedit 3.3)  HLASM R4.0  2002/06/20 12.00
+___    ______ ____    _____ _____  ____ __ ______    ______ _________
0002F18 58E0 D000/12FF       00000 22652             +
 002F1E 07FE                       22655             +
1MONITOR  (MONI2170) (12:00) (20JUN02) Read the next line from SYSIN                                                        Page  103
0Current Usings:  (MTVT,R11) (GVT,R12)
0Loc    Object Code    Addr1 Addr2  Stmt Lv Lineno    Source Statement           (Hibal 5, Asmedit 3.3)  HLASM R4.0  2002/06/20 12.00
+___    ______ ____    _____ _____  ____ __ ______    ______ _________
0                                  22657    02079000  ¿þþþþþþþþþþþþþþþþþþþþþþþþþþþþþþþþþþþþþþþþþþþþþþþþþþþþþþþþþþþþþþþþþþþþþÜ
                                   22658    02080000  Ÿ                                                                     Ÿ
                                   22659    02081000  Ÿ  GETSYSIN -- Routine to read the next line from SYSIN.              Ÿ
                                   22660    02082000  Ÿ                                                                     Ÿ
                                   22661    02083000  Ÿ    On entry:                                                        Ÿ
                                   22662    02084000  Ÿ     R1,R0 - line buffer loc, len                                    Ÿ
                                   22663    02085000  Ÿ                                                                     Ÿ
                                   22664    02086000  Ÿ    On exit, R15 (and cc):                                           Ÿ
                                   22665    02087000  Ÿ      0 - R1,R0 = next SYSIN line loc, len                           Ÿ
                                   22666    02088000  Ÿ      4 - end of file                                                Ÿ
                                   22667    02089000  Ÿ                                                                     Ÿ
                                                      ¾þþþþþþþþþþþþþþþþþþþþþþþþþþþþþþþþþþþþþþþþþþþþþþþþþþþþþþþþþþþþþþþþþþþþþ»
0000000                00000 00008 22668    02090000  GETSWA   RECORD BEGIN
 000000                            22676  1 02091000  GETSBUF    DS    A
 000004                            22677  1 02092000  GETSBUFL   DS    F
 000008                00008 00008 22678    02093000           END
                                   22687    02094000  þþþþ
 002F20 90DF B0D4            000D4 22688    02095000  GETSYSIN PROC  GETSWA
 002F24 58F0 C014/0DEF       00014 22699             +
 002F2A C7C5E3E2E8E2C9D5           22701             +
 002F32 98DF B0D4            000D4 22702             +
 002F36 50E0 D000            00000 22705             +
 002F3A 900C D004/188D       00004 22708             +
 002F40 41D0 D040/0D70       00040 22711             +
 002F46 5000 803C            00004 22743    02096000           ST    R0,GETSBUFL
 USING  *,R7
 USING  GETSWA-(4+52),R8
 002F4A 5010 8038            00000 22744    02097000           ST    R1,GETSBUF
                                   22745    02098000
                                   22746    02099000           SEGDEF MTVTPRSG           Default SEGCB
                                   22747    02100000           ¿þþþþþþþþþþþþþþþþþþþþþþþþþþþþþþþþþþþþþþþþþþþþÜ
                                   22748    02101000           Ÿ  We have already reached the end of file.  Ÿ
                                   22749    02102000           ¾þþþþþþþþþþþþþþþþþþþþþþþþþþþþþþþþþþþþþþþþþþþþ»
 002F4E 9180 B418      00418       22750    02103000           IF    MTVTFINEOF,'LA R15,4; B GETSEXIT'  Scram
 002F52 47E0 7018            02F5E 22760             +
 002F56 41F0 0004            00004 22766  1          +
 002F5A 47F0 71BA            03100 22767             +
                                   22772    02104000           ¿þþþþþþþþþþþþþþþþþþþþþþþþþþþþþþþþþþþþþþþþþÜ
                                   22773    02105000           Ÿ  Open SYSIN if this is the first call.  Ÿ
                                   22774    02106000           ¾þþþþþþþþþþþþþþþþþþþþþþþþþþþþþþþþþþþþþþþþþ»
 002F5E 4160 71CA            03110 22775    02107000           LA    R6,GVTINDCB         SYSIN DCB ptr
 USING  DCB,R6                     22776    02108000           WITH  (DCB,R6)
                                   22789    02109000
 002F62 9110 6030      00030       22790    02110000           IF    ~DCBOFLGS.DCBOFOPN,BEGIN  First time...
 002F66 4710 70E6            0302C 22801             +
 002F6A 58E0 7276/0DEE       031BC 22806  1 02111000             VCALL AMODE24             ********
 002F70 4510 7032            02F78 22810  1 02112000             OPEN  ((6),(INPUT))
 002F74 00000000                   22813  1          +
 002F78 5061 0000            00000 22814  1          +
 002F7C 9280 1000/0A13 00000       22815  1          +
 002F82 182F                       22817  1 02113000             LR    R2,R15              Save RC
 002F84 58E0 727A/0DEE       031C0 22818  1 02114000             VCALL AMODE31             ********
                                   22822  1 02115000
1MONITOR  (MONI2170) (12:00) (20JUN02) Read the next line from SYSIN                                                        Page  104
0Current Usings:  (DCB,R6) (*,R7) (GETSWA-(4+52),R8) (MTVT,R11) (GVT,R12)
0Loc    Object Code    Addr1 Addr2  Stmt Lv Lineno    Source Statement           (Hibal 5, Asmedit 3.3)  HLASM R4.0  2002/06/20 12.00
+___    ______ ____    _____ _____  ____ __ ______    ______ _________
0002F8A 9110 6030      00030       22823  1 02116000             IF    ~DCBOFLGS.DCBOFOPN,BEGIN  Open failed...
 002F8E 4710 70A8            02FEE 22834  1          +
 002F92 4110 72D1            03217 22839  2 02117000               SEGB  'Open failed for'
 002F96 4100 000F            0000F 22844  2          +
 002F9A 41F0 B448            00448 22852  2          +
 002F9E 58E0 727E/0DEE       031C4 22855  2          +
 002FA4 4110 6028            00028 22857  2 02118000               SEGB  DCBDDNAM
 002FA8 4100 0008            00008 22872  2          +
 002FAC 41F0 B448            00448 22880  2          +
 002FB0 58E0 727E/0DEE       031C4 22883  2          +
 002FB6 4110 7282            031C8 22885  2 02119000               SEG   ' RC='
 002FBA 4100 0004            00004 22889  2          +
 002FBE 41F0 B448            00448 22897  2          +
 002FC2 58E0 726A/0DEE       031B0 22900  2          +
 002FC8 1812/1B00                  22902  2 02120000               SEGDC (R2)
 002FCC 41F0 B448            00448 22918  2          +
 002FD0 58E0 7286/0DEE       031CC 22921  2          +
 002FD6 1B00/41F0 B448       00448 22923  2 02121000               SEGWR ,
 002FDC 58E0 726E/0DEE       031B4 22945  2          +
 002FE2 9680 B418      00418       22947  2 02122000               SET   MTVTFINEOF          Remember end of file
 002FE6 41F0 0004            00004 22953  2 02123000               LA    R15,4               End of file
 002FEA 47F0 71BA            03100 22954  2 02124000               B     GETSEXIT
 002FEE                            22955  1 02125000             END
                                   22959  1 02126000
 002FEE 91C0 6024      00024       22960  1 02127000             IF    DCBRECFM.DCBRECU,BEGIN
 002FF2 47E0 70E6            0302C 22971  1          +
 002FF6 4110 7294            031DA 22976  2 02128000               SEGB  'Open failed for SYSIN; unable to read edit format.'
 002FFA 4100 0032            00032 22981  2          +
 002FFE 41F0 B448            00448 22989  2          +
 003002 58E0 727E/0DEE       031C4 22992  2          +
 003008 1B00/41F0 B448       00448 22994  2 02129000               SEGWR ,
 00300E 58E0 726E/0DEE       031B4 23016  2          +
 003014 1B00/41F0 B448       00448 23018  2 02130000               SEGB  ,
 00301A 58E0 727E/0DEE       031C4 23040  2          +
 003020 9680 B418      00418       23042  2 02131000               SET   MTVTFINEOF          Remember end of file
 003024 41F0 0004            00004 23048  2 02132000               LA    R15,4               End of file
 003028 47F0 71BA            03100 23049  2 02133000               B     GETSEXIT
 00302C                            23050  1 02134000             END
                                   23054  1 02135000
 00302C                            23055    02136000           END
                                   23059    02137000           ¿þþþþþþþþþþþþþþþþþþþþþþþþþþþþþþþþþþþÜ
                                   23060    02138000           Ÿ  Get first/next line from SYSIN.  Ÿ
                                   23061    02139000           ¾þþþþþþþþþþþþþþþþþþþþþþþþþþþþþþþþþþþ»
 00302C 58E0 7276/0DEE       031BC 23062    02140000           VCALL AMODE24             ********
 003032 1816/1FFF                  23066    02141000           GET   (6)                 Get next buffer/record
 003036 BFF7 1031/05EF       00031 23070             +
 00303C 58E0 727A/0DEE       031C0 23072    02142000           VCALL AMODE31             ********
                                   23076    02143000  *                                  EOF exit is below; see INEOF
                                   23077    02144000           ¿þþþþþþþþþþþþþþþþþþþþþþþþþþþþþþþþþþþþþþþþþþþþþþÜ
                                   23078    02145000           Ÿ  Get loc, len of record (r1 is loc already)  Ÿ
                                   23079    02146000           ¾þþþþþþþþþþþþþþþþþþþþþþþþþþþþþþþþþþþþþþþþþþþþþþ»
 003042 4800 6052            00052 23080    02147000           LH    R0,DCBLRECL
 003046 5900 728A            031D0 23081    02148000           IF    ((R0,EQ,80),AND,(@R1+76,EQ,'.')),BEGIN
 00304A 4770 7114            0305A 23095             +
1MONITOR  (MONI2170) (12:00) (20JUN02) Read the next line from SYSIN                                                        Page  105
0Current Usings:  (DCB,R6) (*,R7) (GETSWA-(4+52),R8) (MTVT,R11) (GVT,R12)
0Loc    Object Code    Addr1 Addr2  Stmt Lv Lineno    Source Statement           (Hibal 5, Asmedit 3.3)  HLASM R4.0  2002/06/20 12.00
+___    ______ ____    _____ _____  ____ __ ______    ______ _________
000304E 954B 104C      0004C       23107             +
 003052 4770 7114            0305A 23108             +
 003056 4100 0048            00048 23113  1 02149000             LA    R0,72               No lineno
 00305A                            23114    02150000           END
 00305A 5900 803C            00004 23118    02151000           IF    (R0,GT,GETSBUFL),'L R0,GETSBUFL'
 00305E 47D0 7120            03066 23130             +
 003062 5800 803C            00004 23136             +
 003066 18F0                       23141    02152000           LR    R15,R0
 003068 5820 8038            00000 23142    02153000           L     R2,GETSBUF
 00306C 06F0/12FF                  23143    02154000           MOVE  R15,@R2,@R1
 003070 4740 7132            03078 23156             +
 003074 44F0 72E0            03226 23162  1          +
 003226 D200 2000 1000 00000 00000 23169  1          +
 003078 5810 8038            00000 23181    02155000           SETMSG L:GETSBUF,(R0)
 00307C 58E0 728E/0DEE       031D4 23192    02156000           VCALL RTRIM               Trim trailing blanks
 003082 9001 8004            00004 23196    02157000           PRETURN (R0,R1)
                                   23198    02158000  *
                                   23199    02159000  *
 003086 1BFF                       23200    02160000           CLEAR R15                 OK return code
 003088 47F0 71BA            03100 23204    02161000           B     GETSEXIT
                                   23205    02162000           ¿þþþþþþþþþþþþþþþþþþþþþþþþþþþþþþþþþþþþþþþþþþþÜ
                                   23206    02163000           Ÿ  End of SYSIN file (from EODAD= in DCB).  Ÿ
                                   23207    02164000           ¾þþþþþþþþþþþþþþþþþþþþþþþþþþþþþþþþþþþþþþþþþþþ»
 00308C 58E0 7276/0DEE       031BC 23208    02165000  INEOF    VCALL AMODE24             ********
 003092 0700/4510 7156       0309C 23212    02166000           CLOSE ((6))
 003098 00000000                   23215             +
 00309C 5061 0000            00000 23216             +
 0030A0 9280 1000/0A14 00000       23217             +
 0030A6 1816/9101 1017 00017       23219    02167000           FREEPOOL (6)
 0030AC 4710 71AC/1FFF       030F2 23223             +
 0030B2 BFF7 1015            00015 23225             +
 0030B6 58E0 F000/12EE       00000 23226             +
 0030BC 4770 7182            030C8 23228             +
 0030C0 9130 F004      00004       23229             +
 0030C4 4770 71AC            030F2 23230             +
 0030C8 9601 1017/1BEE 00017       23231             +
 0030CE 1B11/BF13 F006       00006 23233             +
 0030D4 43E0 F005/1C0E       00005 23235             +
 0030DA 4110 1008            00008 23237             +
 0030DE 9140 F004      00004       23238             +
 0030E2 47E0 71A4            030EA 23239             +
 0030E6 4110 1008/1801       00008 23240             +
 0030EC 4110 F000/0A0A       00000 23242             +
 0030F2 58E0 727A/0DEE       031C0 23245    02168000           VCALL AMODE31             ********
                                   23249    02169000
 0030F8 9680 B418      00418       23250    02170000           SET   MTVTFINEOF          Remember end of file
 0030FC 41F0 0004            00004 23256    02171000           LA    R15,4               End of file return code
 003100 18D8/980C D004       00004 23257    02172000  GETSEXIT PEND
 DROP   DCB,R6
 DROP   GETSWA-(4+52),R8
 DROP   *,R7
 003106 58E0 D000/12FF       00000 23284             +
 00310C 07FE                       23287             +
                                   23288    02173000  ¿þþþþþþþþþþþþþþþþþþþþþþþþþþþþþþþþþþþþþþþþþþþþþþþþþþþþþþþþþþþþþþþþþþþþþÜ
1MONITOR  (MONI2170) (12:00) (20JUN02) Read the next line from SYSIN                                                        Page  106
0Current Usings:  (MTVT,R11) (GVT,R12)
0Loc    Object Code    Addr1 Addr2  Stmt Lv Lineno    Source Statement           (Hibal 5, Asmedit 3.3)  HLASM R4.0  2002/06/20 12.00
+___    ______ ____    _____ _____  ____ __ ______    ______ _________
0                                  23289    02174000  Ÿ        Where should we move this?                                   Ÿ
                                   23290    02175000  Ÿ                                                                     Ÿ
                                                      ¾þþþþþþþþþþþþþþþþþþþþþþþþþþþþþþþþþþþþþþþþþþþþþþþþþþþþþþþþþþþþþþþþþþþþþ»
000310E 0000                       23291    02176000  GVTINDCB DCB DDNAME=SYSIN,DSORG=PS,MACRF=GL,EXLST=GVTINX,EODAD=INEOF
 003110 0000000000000000           23298             +
 003120 00000000/00                23299             +
 003125 000001/0000                23302             +
 00312A 4000/00000001              23304             +
 003130 00/00308C/00               23307             +
 003135 003170                     23310             +
 003138 E2E8E2C9D5404040           23312             +
 003140 02/00/4800/00              23313             +
 003145 000001                     23318             +
 003148 00000001/0000              23319             +
 00314E 0000/00000000              23321             +
 003154 00000001                   23323             +
 003158 00000001                   23325             +
 00315C 00000001/0000              23326             +
 003162 0000/00/000001             23328             +
 003168 00000000                   23331             +
 00316C 00000001                   23332             +
                                   23333    02177000
 003170 85003174                   23334    02178000  GVTINX   DC    0A(0),X'85',AL3(GVTINOEX)  DCB open exit
                                   23335    02179000
 003174                            23336    02180000  GVTINOEX LABEL
 USING  DCB,R1                     23338    02181000           WITH  (DCB,R1),(*,R15),BEGIN
 USING  *,R15
 003174 9608 1030      00030       23363  1 02182000             SET   DCBOFLGS.DCBOFPPC   Allow concat of unlike attributes
 003178 9500 1014      00014       23370  1 02183000             IF    (DCBBUFNO,Z),'MVI DCBBUFNO,2'  Bufno=2 default
 00317C 4770 F010            03184 23381  1          +
 003180 9202 1014      00014       23387  1          +
 003184                            23392  1 02184000             IF    (DCBBLKSI,Z),BEGIN  No blksize...
 003184 D601 103E 103E 0003E 0003E 23402  1          +
 00318A 4770 F030            031A4 23403  1          +
 00318E D201 103E 1052 0003E 00052 23408  2 02185000               MVC   DCBBLKSI,DCBLRECL   Blksize = lrecl
 003194                            23409  2 02186000               IF    (DCBBLKSI,Z),'MVC DCBBLKSI,=AL2(6223)'  Default
 003194 D601 103E 103E 0003E 0003E 23419  2          +
 00319A 4770 F030            031A4 23420  2          +
 00319E D201 103E F098 0003E 0320C 23426  2          +
 0031A4                            23431  1 02187000             END
 0031A4 07FE                       23435  1 02188000             BR    RAR
 DROP   *,R15                      23436    02189000           END
 DROP   DCB,R1
                                   23449    02190000
                                   23450    02191000           QLTORG
1MONITOR  (MONI2170) (12:00) (20JUN02) Monitor subroutines                                                                  Page  107
0Current Usings:  (MTVT,R11) (GVT,R12)
0Loc    Object Code    Addr1 Addr2  Stmt Lv Lineno    Source Statement           (Hibal 5, Asmedit 3.3)  HLASM R4.0  2002/06/20 12.00
+___    ______ ____    _____ _____  ____ __ ______    ______ _________
0                                  23480    02193000  ¿þþþþþþþþþþþþþþþþþþþþþþþþþþþþþþþþþþþþþþþþþþþþþþþþþþþþþþþþþþþþþþþþþþþþþÜ
                                   23481    02194000  Ÿ                                                                     Ÿ
                                   23482    02195000  Ÿ  SCAN NUMBER                                                        Ÿ
                                   23483    02196000  Ÿ                                                                     Ÿ
                                   23484    02197000  Ÿ  CAUTION !! CAUTION !! CAUTION !! ****                              Ÿ
                                   23485    02198000  Ÿ  ALWAYS RETURS R0=0  !!!!!!!!!                                      Ÿ
                                   23486    02199000  Ÿ                                                                     Ÿ
                                   23487    02200000  Ÿ  ON ENTRY:                                                          Ÿ
                                   23488    02201000  Ÿ    MTVTSCNCB - SCAN CONTROL BLOCK                                   Ÿ
                                   23489    02202000  Ÿ                                                                     Ÿ
                                   23490    02203000  Ÿ  ON EXIT:                                                           Ÿ
                                   23491    02204000  Ÿ    R0  - NUMERIC VALUE                                              Ÿ
                                   23492    02205000  Ÿ    R15 - ZERO, VALID NUMBER SCANNED                                 Ÿ
                                   23493    02206000  Ÿ    R15 - NEG, NULL SCAN  (RETURNS R0=0)                             Ÿ
                                   23494    02207000  Ÿ    R15 - POS, INVALID SCAN, ERRMSG SEG'D (RETURNS R0=0)             Ÿ
                                   23495    02208000  Ÿ                                                                     Ÿ
                                   23496    02209000  Ÿ    NOTE:                                                            Ÿ
                                   23497    02210000  Ÿ    THIS ROUTINE TO BE CALLED BY COMMAND PROCESSING ROUTINES         Ÿ
                                   23498    02211000  Ÿ    ONLY.  THIS IS BECAUSE THE ERROR MESSAGES ARE SEG'D AS           Ÿ
                                   23499    02212000  Ÿ    SPECIFIED BY THE DOCMD ROUTINE CALLER.                           Ÿ
                                   23500    02213000  Ÿ                                                                     Ÿ
                                   23501    02214000  Ÿ                                                                     Ÿ
                                                      ¾þþþþþþþþþþþþþþþþþþþþþþþþþþþþþþþþþþþþþþþþþþþþþþþþþþþþþþþþþþþþþþþþþþþþþ»
000322C 90DF B0D4            000D4 23502    02215000  SCANNUMB PROC
 003230 58F0 C014/0DEF       00014 23512             +
 003236 E2C3C1D5D5E4D4C2           23514             +
 00323E 98DF B0D4            000D4 23515             +
 003242 50E0 D000            00000 23518             +
 003246 900C D004/188D       00004 23521             +
 00324C 41D0 D038/0D70       00038 23523             +
 USING  *,R7                       23546    02216000  *
 003252 1B00                       23547    02217000           CLEAR R0
 003254 1BFF                       23551    02218000           CLEAR R15
                                   23555    02219000
 003256 18D8/980C D004       00004 23556    02220000           PEND
 DROP   *,R7
 00325C 58E0 D000/12FF       00000 23572             +
 003262 07FE                       23575             +
1MONITOR  (MONI2170) (12:00) (20JUN02) Monitor subroutines                                                                  Page  108
0Current Usings:  (MTVT,R11) (GVT,R12)
0Loc    Object Code    Addr1 Addr2  Stmt Lv Lineno    Source Statement           (Hibal 5, Asmedit 3.3)  HLASM R4.0  2002/06/20 12.00
+___    ______ ____    _____ _____  ____ __ ______    ______ _________
0                                  23577    02222000  ¿þþþþþþþþþþþþþþþþþþþþþþþþþþþþþþþþþþþþþþþþþþþþþþþþþþþþþþþþþþþþþþþþþþþþþÜ
                                   23578    02223000  Ÿ                                                                     Ÿ
                                   23579    02224000  Ÿ  SCAN TASK NAME                                                     Ÿ
                                   23580    02225000  Ÿ                                                                     Ÿ
                                   23581    02226000  Ÿ  ON ENTRY:                                                          Ÿ
                                   23582    02227000  Ÿ    MTVTSCNCB - SCAN CONTROL BLOCK                                   Ÿ
                                   23583    02228000  Ÿ                                                                     Ÿ
                                   23584    02229000  Ÿ  ON EXIT:                                                           Ÿ
                                   23585    02230000  Ÿ    R15 - ZERO, VALID NAME SCANNED                                   Ÿ
                                   23586    02231000  Ÿ    R15 - NZ, INVALID OR NO TVT NAME SCANNED                         Ÿ
                                   23587    02232000  Ÿ          IF NZ, MESSAGE IS TSEG TO MTVTCURSG. CURRENT SEG BUF.      Ÿ
                                   23588    02233000  Ÿ    R1  - LEFT JUSTIFIED, UPPER CASE, BLANK PADDED NAME.             Ÿ
                                   23589    02234000  Ÿ                                                                     Ÿ
                                   23590    02235000  Ÿ    NOTE:                                                            Ÿ
                                   23591    02236000  Ÿ    THIS ROUTINE TO BE CALLED BY COMMAND PROCESSING ROUTINES         Ÿ
                                   23592    02237000  Ÿ    ONLY.  THIS IS BECAUSE THE ERROR MESSAGES ARE SEG'D AS           Ÿ
                                   23593    02238000  Ÿ    SPECIFIED BY THE DOCMD ROUTINE CALLER.                           Ÿ
                                   23594    02239000  Ÿ                                                                     Ÿ
                                                      ¾þþþþþþþþþþþþþþþþþþþþþþþþþþþþþþþþþþþþþþþþþþþþþþþþþþþþþþþþþþþþþþþþþþþþþ»
0003264 90DF B0D4            000D4 23595    02240000  SCANTASK PROC
 003268 58F0 C014/0DEF       00014 23605             +
 00326E E2C3C1D5E3C1E2D2           23607             +
 003276 98DF B0D4            000D4 23608             +
 00327A 50E0 D000            00000 23611             +
 00327E 900C D004/188D       00004 23614             +
 003284 41D0 D038/0D70       00038 23616             +
 USING  *,R7                       23639    02241000  *
                                   23640    02242000  *                                  SCAN NAME
 00328A 1B11/41F0 B424       00424 23641    02243000           SCAN  ,MTVTSCNCB
 003290 58E0 721E/0DEE       034A8 23655             +
                                   23657    02244000  *
                                   23658    02245000  *                                  CHECK FOR SCAN ERRORS
                                   23659    02246000           SEGDEF L:MTVTCURSG
 003296 47B0 7034            032BE 23660    02247000           IF    NEG,BEGIN
 00329A 58F0 B444            00444 23671  1 02248000             SEG   (R1),(R0)
 00329E 58E0 7222/0DEE       034AC 23690  1          +
 0032A4 4110 7256            034E0 23692  1 02249000             SEGWR ': invalid'
 0032A8 4100 0009            00009 23697  1          +
 0032AC 58F0 B444            00444 23703  1          +
 0032B0 58E0 7226/0DEE       034B0 23706  1          +
 0032B6 41F0 0004            00004 23708  1 02250000             LA    R15,4
 0032BA 47F0 708A            03314 23709  1 02251000             B     SCNTDONE
 0032BE                            23710    02252000           END
 0032BE 5900 722A            034B4 23714    02253000           IF    (R0,GT,8),BEGIN
 0032C2 47D0 7060            032EA 23726             +
 0032C6 58F0 B444            00444 23731  1 02254000             SEG   (R1),(R0)
 0032CA 58E0 7222/0DEE       034AC 23750  1          +
 0032D0 4110 725F            034E9 23752  1 02255000             SEGWR ': name to long.'
 0032D4 4100 000F            0000F 23757  1          +
 0032D8 58F0 B444            00444 23763  1          +
 0032DC 58E0 7226/0DEE       034B0 23766  1          +
 0032E2 41F0 0004            00004 23768  1 02256000             LA    R15,4
 0032E6 47F0 708A            03314 23769  1 02257000             B     SCNTDONE
1MONITOR  (MONI2170) (12:00) (20JUN02) Monitor subroutines                                                                  Page  109
0Current Usings:  (*,R7) (MTVT,R11) (GVT,R12)
0Loc    Object Code    Addr1 Addr2  Stmt Lv Lineno    Source Statement           (Hibal 5, Asmedit 3.3)  HLASM R4.0  2002/06/20 12.00
+___    ______ ____    _____ _____  ____ __ ______    ______ _________
00032EA                            23770    02258000           END
 0032EA 1200/4770 7080       0330A 23774    02259000           IF    (R0,Z),BEGIN
 0032F0 4110 7242            034CC 23788  1 02260000             SEGWR 'Missing TASK name.'
 0032F4 4100 0012            00012 23793  1          +
 0032F8 58F0 B444            00444 23799  1          +
 0032FC 58E0 7226/0DEE       034B0 23802  1          +
 003302 41F0 0004            00004 23804  1 02261000             LA    R15,4
 003306 47F0 708A            03314 23805  1 02262000             B     SCNTDONE
 00330A                            23806    02263000           END
                                   23810    02264000  *
                                   23811    02265000  *                                  SCAN OK
 00330A 4110 B428            00428 23812    02266000           LA    R1,MTVTSCNKW
 00330E 5018 0008            00008 23813    02267000           PRETURN (R1)
 003312 1BFF                       23815    02268000           CLEAR R15
                                   23819    02269000
 003314                            23820    02270000  SCNTDONE LABEL ,
 003314 18D8/980C D004       00004 23822    02271000           PEND
 DROP   *,R7
 00331A 58E0 D000/12FF       00000 23838             +
 003320 07FE                       23841             +
1MONITOR  (MONI2170) (12:00) (20JUN02) Monitor subroutines                                                                  Page  110
0Current Usings:  (MTVT,R11) (GVT,R12)
0Loc    Object Code    Addr1 Addr2  Stmt Lv Lineno    Source Statement           (Hibal 5, Asmedit 3.3)  HLASM R4.0  2002/06/20 12.00
+___    ______ ____    _____ _____  ____ __ ______    ______ _________
0                                  23843    02273000  ¿þþþþþþþþþþþþþþþþþþþþþþþþþþþþþþþþþþþþþþþþþþþþþþþþþþþþþþþþþþþþþþþþþþþþþÜ
                                   23844    02274000  Ÿ                                                                     Ÿ
                                   23845    02275000  Ÿ  FIND TASK NAME                                                     Ÿ
                                   23846    02276000  Ÿ                                                                     Ÿ
                                   23847    02277000  Ÿ  ON ENTRY -                                                         Ÿ
                                   23848    02278000  Ÿ    R1 - UPPER CASED, LEFT JUSTIFIED, BLANK PADDED TVT NAME          Ÿ
                                   23849    02279000  Ÿ                                                                     Ÿ
                                   23850    02280000  Ÿ  ON EXIT:                                                           Ÿ
                                   23851    02281000  Ÿ    R15 - TVT                                                        Ÿ
                                   23852    02282000  Ÿ    R15 - ZERO IF TASK NOT FOUND...                                  Ÿ
                                   23853    02283000  Ÿ                                                                     Ÿ
                                   23854    02284000  Ÿ  NOTE:                                                              Ÿ
                                   23855    02285000  Ÿ  THIS ROUTINE TO BE CALLED BY COMMAND PROCESSING ROUTINES           Ÿ
                                   23856    02286000  Ÿ  ONLY.  THIS IS BECAUSE THE ERROR MESSAGES ARE SEG'D AS             Ÿ
                                   23857    02287000  Ÿ  SPECIFIED BY THE DOCMD ROUTINE CALLER.                             Ÿ
                                   23858    02288000  Ÿ                                                                     Ÿ
                                   23859    02289000  Ÿ  NOTE. CAUTION !!                                                   Ÿ
                                   23860    02290000  Ÿ  R15 NZ, IS GOOD RETURN CODE. R15 ZERO IS *NOT* FOUND.              Ÿ
                                   23861    02291000  Ÿ  THIS IS THE OPPOSITE OF MOST RETURN CODE SETTINGS.                 Ÿ
                                   23862    02292000  Ÿ                                                                     Ÿ
                                   23863    02293000  Ÿ                                                                     Ÿ
                                                      ¾þþþþþþþþþþþþþþþþþþþþþþþþþþþþþþþþþþþþþþþþþþþþþþþþþþþþþþþþþþþþþþþþþþþþþ»
0003322 90DF B0D4            000D4 23864    02294000  FINDTASK PROC
 003326 58F0 C014/0DEF       00014 23874             +
 00332C C6C9D5C4E3C1E2D2           23876             +
 003334 98DF B0D4            000D4 23877             +
 003338 50E0 D000            00000 23880             +
 00333C 900C D004/188D       00004 23883             +
 003342 41D0 D038/0D70       00038 23885             +
 003348 58E0 7170/0DEE       034B8 23908    02295000           ACALL FINDTVT
 USING  *,R7
 00334E 4770 702A            03372 23912    02296000           IF    Z,BEGIN
 003352 4100 0008            00008 23923  1 02297000             SEGT  (R1),8
 003356 58F0 B444            00444 23943  1          +
 00335A 58E0 7174/0DEE       034BC 23946  1          +
 003360 4110 71B0            034F8 23948  1 02298000             SEGWR ': subtask not found'
 003364 4100 0013            00013 23953  1          +
 003368 58F0 B444            00444 23959  1          +
 00336C 58E0 7168/0DEE       034B0 23962  1          +
 003372                            23964    02299000           END
 003372 18D8/980C D004       00004 23968    02300000           PEND
 DROP   *,R7
 003378 58E0 D000/12FF       00000 23984             +
 00337E 07FE                       23987             +
1MONITOR  (MONI2170) (12:00) (20JUN02) Monitor subroutines                                                                  Page  111
0Current Usings:  (MTVT,R11) (GVT,R12)
0Loc    Object Code    Addr1 Addr2  Stmt Lv Lineno    Source Statement           (Hibal 5, Asmedit 3.3)  HLASM R4.0  2002/06/20 12.00
+___    ______ ____    _____ _____  ____ __ ______    ______ _________
0                                  23989    02302000  ¿þþþþþþþþþþþþþþþþþþþþþþþþþþþþþþþþþþþþþþþþþþþþþþþþþþþþþþþþþþþþþþþþþþþþþÜ
                                   23990    02303000  Ÿ                                                                     Ÿ
                                   23991    02304000  Ÿ  FINDTVT -- Routine to find the TVT, given the task name.           Ÿ
                                   23992    02305000  Ÿ                                                                     Ÿ
                                   23993    02306000  Ÿ   On entry:                                                         Ÿ
                                   23994    02307000  Ÿ     R1 - task name ptr (8 characters long)                          Ÿ
                                   23995    02308000  Ÿ                                                                     Ÿ
                                   23996    02309000  Ÿ   On exit:                                                          Ÿ
                                   23997    02310000  Ÿ     R15 - TVT ptr (or zero if no match)                             Ÿ
                                   23998    02311000  Ÿ                                                                     Ÿ
                                                      ¾þþþþþþþþþþþþþþþþþþþþþþþþþþþþþþþþþþþþþþþþþþþþþþþþþþþþþþþþþþþþþþþþþþþþþ»
0003380 90DF B0D4            000D4 23999    02312000  FINDTVT  PROC
 003384 58F0 C014/0DEF       00014 24009             +
 00338A C6C9D5C4E3E5E340           24011             +
 003392 98DF B0D4            000D4 24012             +
 003396 50E0 D000            00000 24015             +
 00339A 900C D004/188D       00004 24018             +
 0033A0 41D0 D038/0D70       00038 24020             +
 USING  *,R7                       24043    02313000  *
 0033A6 58F0 C06C            0006C 24044    02314000           L     R15,GVTTVTQH        First TVT is dummy (MTVT)
 USING  TVT,R15                    24045    02315000           WITH  (TVT,R15)
 0033AA 58F0 F008/12FF       00008 24058    02316000           WHILE ('LT R15,TVTLINK',NZ),BEGIN
 0033B0 4780 701C            033C2 24071             +
 0033B4                            24076  1 02317000             IF    (TVTNAME,EQ,@R1),EXIT  Exit loop if task found
 0033B4 D507 F014 1000 00014 00000 24087  1          +
 0033BA 4780 701C            033C2 24090  1          +
 0033BE 47F0 7004            033AA 24096    02318000           END
                                   24101    02319000
 0033C2 18D8/980C D004       00004 24102    02320000           PEND
 DROP   TVT,R15
 DROP   *,R7
 0033C8 58E0 D000/12FF       00000 24123             +
 0033CE 07FE                       24126             +
1MONITOR  (MONI2170) (12:00) (20JUN02) Monitor subroutines                                                                  Page  112
0Current Usings:  (MTVT,R11) (GVT,R12)
0Loc    Object Code    Addr1 Addr2  Stmt Lv Lineno    Source Statement           (Hibal 5, Asmedit 3.3)  HLASM R4.0  2002/06/20 12.00
+___    ______ ____    _____ _____  ____ __ ______    ______ _________
0                                  24128    02322000  ¿þþþþþþþþþþþþþþþþþþþþþþþþþþþþþþþþþþþþþþþþþþþþþþþþþþþþþþþþþþþþþþþþþþþþþÜ
                                   24129    02323000  Ÿ                                                                     Ÿ
                                   24130    02324000  Ÿ  MAKETVT -- Routine to allocate a new task block (TVT).             Ÿ
                                   24131    02325000  Ÿ                                                                     Ÿ
                                   24132    02326000  Ÿ    On entry:                                                        Ÿ
                                   24133    02327000  Ÿ      R1 - task name (8 characters)                                  Ÿ
                                   24134    02328000  Ÿ                                                                     Ÿ
                                   24135    02329000  Ÿ    On exit:                                                         Ÿ
                                   24136    02330000  Ÿ      R15 - TVT ptr                                                  Ÿ
                                   24137    02331000  Ÿ                                                                     Ÿ
                                                      ¾þþþþþþþþþþþþþþþþþþþþþþþþþþþþþþþþþþþþþþþþþþþþþþþþþþþþþþþþþþþþþþþþþþþþþ»
00033D0 90DF B0D4            000D4 24138    02332000  MAKETVT  PROC
 0033D4 58F0 C014/0DEF       00014 24148             +
 0033DA D4C1D2C5E3E5E340           24150             +
 0033E2 98DF B0D4            000D4 24151             +
 0033E6 50E0 D000            00000 24154             +
 0033EA 900C D004/188D       00004 24157             +
 0033F0 41D0 D038/0D70       00038 24159             +
 0033F6 1851                       24182    02333000           LR    R5,R1               Save task name ptr
 USING  *,R7
                                   24183    02334000
 0033F8 5800 70CA            034C0 24184    02335000           L     R0,=A(TVTSIZE#)
 0033FC 4510 700A/0A0A       03400 24185    02336000           GETMAIN R,LV=(0)          Allocate memory for TVT
 003402 18A1                       24189    02337000           LR    TVTR,R1
 USING  TVT,R10                    24190    02338000           WITH  TVT
 003404 18EA/58F0 70CA       034C0 24202    02339000           ZOT   TVT,L:=A(TVTSIZE#)  Zero entire TVT
 00340A 1B11/0EE0                  24215             +
 00340E D203 A000 70CE 00000 034C4 24217    02340000           MVC   TVTID,=C'TVT '      Set self identification
 003414 D201 A004 70E8 00004 034DE 24218    02341000           MVC   TVTTLEN,=AL2(TVTSIZE#)  Set length
                                   24219    02342000
 00341A D207 A014 5000 00014 00000 24220    02343000           MVC   TVTNAME,@R5         Save task name
 003420 D204 A160 7115 00160 0350B 24221    02344000           MVC   TVTACCT,=C'*****'   No user yet             ML940215
 003426 B205 A1C0      001C0       24222    02345000           STCK  TVTLRCLK            Initial time-stamp      ML940215
 00342A 5800 A1C0            001C0 24223    02346000           L     R0,TVTLRCLK         time, left part
 00342E 5810 0010            00010 24224    02347000           L     R1,CVTPTR
 003432 5E00 1130            00130 24225    02348000           WITH  (CVT,R1),'AL R0,CVTTZ'  Time zone adjustment
 USING  CVT,R1
 DROP   CVT,R1
 003436 5000 A1C0            001C0 24249    02349000           ST    R0,TVTLRCLK         save adjusted (local) time
 00343A D203 A1C8 A1C0 001C8 001C0 24250    02350000           MVC   TVTLACLK,TVTLRCLK   copy to "latest"        ML940330
 003440 D203 A100 70D2 00100 034C8 24251    02351000           MVC   TVTBFTIM,=F'60000'  buffer-full timeout     ML940218
 003446 41F0 0001            00001 24252    02352000           INCR  R15,GVTTVTID        Kick task ID
 00344A 5EF0 C050            00050 24256             +
 00344E 50F0 C050            00050 24257             +
 003452 50F0 A00C            0000C 24258    02353000           ST    R15,TVTNO           Save our task number
                                   24259    02354000  *
                                   24260    02355000  *                                  Set up parm list
 003456 41F0 A000            00000 24261    02356000           LA    R15,TVT             TVT ptr
 00345A 50F0 A024            00024 24262    02357000           ST    R15,TVTPLIST
 00345E 41F0 A034            00034 24263    02358000           LA    R15,TVTPLEN         Parm string ptr
 003462 50F0 A028            00028 24264    02359000           ST    R15,TVTPLIST+4
 003466 9680 A028      00028       24265    02360000           OI    TVTPLIST+4,X'80'    Mark last parm
                                   24266    02361000
1MONITOR  (MONI2170) (12:00) (20JUN02) Monitor subroutines                                                                  Page  113
0Current Usings:  (*,R7) (TVT,R10) (MTVT,R11) (GVT,R12)
0Loc    Object Code    Addr1 Addr2  Stmt Lv Lineno    Source Statement           (Hibal 5, Asmedit 3.3)  HLASM R4.0  2002/06/20 12.00
+___    ______ ____    _____ _____  ____ __ ______    ______ _________
000346A 4110 C000            00000 24267    02362000           LA    R1,GVT
 00346E 5010 A090            00090 24268    02363000           ST    R1,TVTGVTP          Save GVT ptr
                                   24269    02364000  *
                                   24270    02365000  *         LA    R1,MTVTECB
                                   24271    02366000  *         ST    R1,TVTMPOST
                                   24272    02367000           ¿þþþþþþþþþþþþþþþþþþþþþþþþþþþþþþþþþþþþþþþþþþþþþþþþÜ
                                   24273    02368000           Ÿ  Put this task at the end of the linked list.  Ÿ
                                   24274    02369000           ¾þþþþþþþþþþþþþþþþþþþþþþþþþþþþþþþþþþþþþþþþþþþþþþþþ»
 003472 58F0 C070/12FF       00070 24275    02370000           LT    R15,GVTTVTQT        Last task on queue
 003478 4770 708E            03484 24279    02371000           IF    Z,'ST TVTR,GVTTVTQH; ST TVTR,GVTTVTQT'  First entry
 00347C 50A0 C06C            0006C 24291  1          +
 003480 50A0 C070            00070 24292             +
 003484 7092           03484 0347A 24297    02372000           ELSE  BEGIN               Add us to the end of the queue...
 003484 47F0 709A            03490 24302             +
                                   24308  1 02373000             WITH  (TVT,R15),'ST TVTR,TVTLINK'  Link up the new task
 ** ASMA301W Prior active USING on statement number 24198 overridden by this USING
 ** ASMA435I Record 142 in WYL.GG.SYS.MACLIB(USING) on volume: STR210
 003488 50A0 F008            00008 24323  1          +
 USING  TVT,R15
 DROP   TVT,R15
 00348C 50A0 C070            00070 24332  1 02374000             ST    TVTR,GVTTVTQT         Update tail ptr
 003490                            24333    02375000           END
                                   24337    02376000
 003490 41F0 A000            00000 24338    02377000           LA    R15,TVT
 003494 18D8/980C D004       00004 24339    02378000           PEND
 DROP   TVT,R10
 DROP   *,R7
 00349A 58E0 D000/12FF       00000 24360             +
 0034A0 07FE                       24363             +
                                   24364    02379000
                                   24365    02380000           QLTORG
1MONITOR  (MONI2170) (12:00) (20JUN02) Monitor subroutines                                                                  Page  114
0Current Usings:  (MTVT,R11) (GVT,R12)
0Loc    Object Code    Addr1 Addr2  Stmt Lv Lineno    Source Statement           (Hibal 5, Asmedit 3.3)  HLASM R4.0  2002/06/20 12.00
+___    ______ ____    _____ _____  ____ __ ______    ______ _________
0                                  24393    02382000  *
                                   24394    02383000  *  INITTVT -  ...
                                   24395    02384000  *
                                   24396    02385000  *
                                   24397    02386000  *  INITIALIZE TVT,,, MAY HAVE ALREADY BEEN ACTIVE
                                   24398    02387000  *  CLEAR ALL RELEVANT FIELDS.  CODE ON HIT AND MISS
                                   24399    02388000  *  BASIS.  (IE. WHAT EVER WORKS !)
                                   24400    02389000  *
                                   24401    02390000  *
 003510 90DF B0D4            000D4 24402    02391000  INITTVT  PROC
 003514 58F0 C014/0DEF       00014 24412             +
 00351A C9D5C9E3E3E5E340           24414             +
 003522 98DF B0D4            000D4 24415             +
 003526 50E0 D000            00000 24418             +
 00352A 900C D004/188D       00004 24421             +
 003530 41D0 D038/0D70       00038 24423             +
 USING  *,R7                       24446    02392000  *
 003536 1861                       24447    02393000           LR    R6,R1
 USING  TVT,R6                     24448    02394000           WITH  (TVT,R6)
                                   24461    02395000  *
                                   24462    02396000  *                                  ZERO SOME IMPORTANT FIELDS
 003538                            24463    02397000           CLEAR TVTASCBP
 003538 D703 6094 6094 00094 00094 24469             +
 00353E                            24470    02398000           CLEAR TVTTCBP
 00353E D703 6098 6098 00098 00098 24476             +
                                   24477    02399000  *
                                   24478    02400000  *                                  ZERO MOST TVT FIELDS
                                   24479    02401000  *                ,                 (IE. ALL FIELDS AFTER TVTCLEAR)
 003544 4120 609C            0009C 24480    02402000           LA    R2,TVTCLEAR
 003548 4130 6000            00000 24481    02403000           LA    R3,TVTSTART
 00354C 4A30 6004            00004 24482    02404000           AH    R3,TVTTLEN
 003550 1B32                       24483    02405000           SR    R3,R2
 003552 1B55                       24484    02406000           CLEAR R5
 003554 0E24                       24488    02407000           MVCL  R2,R4
                                   24489    02408000
 003556 D204 6160 705E 00160 03594 24490    02409000           MVC   TVTACCT,=C'*****'   No user yet             ML940215
 00355C B205 61C0      001C0       24491    02410000           STCK  TVTLRCLK            Initial time-stamp      ML940215
 003560 5800 61C0            001C0 24492    02411000           L     R0,TVTLRCLK         time, left part
 003564 5810 0010            00010 24493    02412000           L     R1,CVTPTR
 003568 5E00 1130            00130 24494    02413000           WITH  (CVT,R1),'AL R0,CVTTZ'  Time zone adjustment
 USING  CVT,R1
 DROP   CVT,R1
 00356C 5000 61C0            001C0 24518    02414000           ST    R0,TVTLRCLK         save adjusted (local) time
 003570 D203 61C8 61C0 001C8 001C0 24519    02415000           MVC   TVTLACLK,TVTLRCLK   copy to "latest"        ML940330
 003576 D203 6100 705A 00100 03590 24520    02416000           MVC   TVTBFTIM,=F'60000'  buffer-full timeout     ML940218
 00357C 18D8/980C D004       00004 24521    02417000           PEND
 DROP   TVT,R6
 DROP   *,R7
 003582 58E0 D000/12FF       00000 24542             +
 003588 07FE                       24545             +
                                   24546    02418000
                                   24547    02419000           QLTORG
1MONITOR  (MONI2170) (12:00) (20JUN02) Subtask failure routines                                                             Page  115
0Current Usings:  (MTVT,R11) (GVT,R12)
0Loc    Object Code    Addr1 Addr2  Stmt Lv Lineno    Source Statement           (Hibal 5, Asmedit 3.3)  HLASM R4.0  2002/06/20 12.00
+___    ______ ____    _____ _____  ____ __ ______    ______ _________
0                                  24562    02421000  ¿þþþþþþþþþþþþþþþþþþþþþþþþþþþþþþþþþþþþþþþþþþþþþþþþþþþþþþþþþþþþþþþþþþþþþÜ
                                   24563    02422000  Ÿ                                                                     Ÿ
                                   24564    02423000  Ÿ        STAE -- Entered from MVS when a subtask has failed.          Ÿ
                                   24565    02424000  Ÿ                                                                     Ÿ
                                   24566    02425000  Ÿ        The purpose of this routine is to obtain abend code          Ÿ
                                   24567    02426000  Ÿ        and reason.  We also mark the TASK as abending.              Ÿ
                                   24568    02427000  Ÿ                                                                     Ÿ
                                   24569    02428000  Ÿ                                                                     Ÿ
                                                      ¾þþþþþþþþþþþþþþþþþþþþþþþþþþþþþþþþþþþþþþþþþþþþþþþþþþþþþþþþþþþþþþþþþþþþþ»
0USING  STAI,R15                   24570    02429000  STAI     WITH  (STAI,R15),BEGIN
                                   24585  1 02430000
 00359A 90EC D000            00000 24586  1 02431000             STM   R14,R12,@R13        Save regs
 00359E 0D70                       24587  1 02432000             BASE
 USING  *,R7
                                   24601  1 02433000  *
                                   24602  1 02434000  *                                  IF NO SDWA,  FORGET IT
 0035A0 5900 7090            03630 24603  1 02435000             IF    ((R0,EQ,12),OR,(R0,GT,16)),BEGIN
 0035A4 4780 7010            035B0 24619  1          +
 0035A8 5900 7094            03634 24630  1          +
 0035AC 47D0 7014            035B4 24631  1          +
 0035B0 47F0 7032            035D2 24636  2 02436000               B     STAIEXIT            CONTINUE ABENDING
 0035B4                            24637  1 02437000             END
                                   24641  1 02438000
 0035B4 58C0 7098            03638 24642  1 02439000             L     GVTR,=V(GVT)        Global area
 0035B8 1861                       24643  1 02440000             LR    R6,R1               Scb ptr
 USING  SDWA,R6                    24644  1 02441000             USING SDWA,R6
 0035BA 58A0 6000            00000 24653  1 02442000             L     TVTR,SDWAPARM       Subtask's TVT ptr
 USING  TVT,R10                    24654  1 02443000             USING TVT
                                   24663  1 02444000  *
                                   24664  1 02445000  *                                  GET ABEND CODES, REASONS
 0035BE D202 A0A9 6005 000A9 00005 24665  1 02446000             MVC   TVTCODES,SDWACMPC   Abend codes
 0035C4 4160 6298            00298 24666  1 02447000             LA    R6,SDWAEND          ->end of first section
 DROP   SDWA,R6                    24667  1 02448000             USING SDWARC1,R6          next one follows
 USING  SDWARC1,R6
 0035C8 D203 A0AC 602C 000AC 0002C 24679  1 02449000             MVC   TVTREASN,SDWACRC    Reason codes
 0035CE 9610 A09C      0009C       24680  1 02450000             SET   TVTFABENDING
                                   24686  1 02451000
 0035D2                            24687  1 02452000  STAIEXIT   LABEL ,
 0035D2 98EC D000            00000 24689  1 02453000             LM    R14,R12,@R13
 0035D6 1BFF                       24690  1 02454000             CLEAR R15                 Continue abending
 0035D8 07FE                       24694  1 02455000             BR    R14
 DROP   STAI,R15                   24695  1 02456000             DROP  ,                   below can't assume regs ml940215
 DROP   GVT,R12
 DROP   MTVT,R11
 DROP   TVT,R10
 DROP   *,R7
 DROP   SDWARC1,R6
1MONITOR  (MONI2170) (12:00) (20JUN02) Subtask failure routines                                                             Page  116
0Loc    Object Code    Addr1 Addr2  Stmt Lv Lineno    Source Statement           (Hibal 5, Asmedit 3.3)  HLASM R4.0  2002/06/20 12.00
+___    ______ ____    _____ _____  ____ __ ______    ______ _________
0                                  24747  1 02458000  ¿þþþþþþþþþþþþþþþþþþþþþþþþþþþþþþþþþþþþþþþþþþþþþþþþþþþþþþþþþþþþþþþþþþþþþÜ
                                   24748  1 02459000  Ÿ                                                                     Ÿ
                                   24749  1 02460000  Ÿ  EOTASK -- Entered from MVS.  This is the end of task exit          Ÿ
                                   24750  1 02461000  Ÿ    for the subtasks we attach.                                      Ÿ
                                   24751  1 02462000  Ÿ                                                                     Ÿ
                                          1           ¾þþþþþþþþþþþþþþþþþþþþþþþþþþþþþþþþþþþþþþþþþþþþþþþþþþþþþþþþþþþþþþþþþþþþþ»
00035DA 90EC D000            00000 24752  1 02463000  EOTASK     STM   R14,R12,@R13        Save regs
 0035DE 0D70                       24753  1 02464000             BASE
 USING  *,R7
 USING  TCB,R1                     24767  1 02465000             WITH  (TCB,R1),BEGIN
 0035E0 58C0 7058            03638 24781  2 02466000               L     GVTR,=V(GVT)
 USING  GVT,R12                    24782  2 02467000               WITH  (GVT,R12)                                   ML940215
 0035E4 5860 C06C            0006C 24795  2 02468000               L     R6,GVTTVTQH         First TVT is dummy (MTVT)
 0035E8 18B6                       24796  2 02469000               LR    R11,R6              ->MTVT                  ML940215
 USING  MTVT,R11                   24797  2 02470000               WITH  (MTVT,R11)                                  ML940215
 USING  TVT,R6                     24810  2 02471000               WITH  (TVT,R6)
 0035EA 5860 6008/1266       00008 24823  2 02472000               WHILE ('LT R6,TVTLINK',NZ),BEGIN
 0035F0 4780 7020            03600 24836  2          +
 0035F4 5910 6098            00098 24841  3 02473000                 IF    (R1,EQ,TVTTCBP),EXIT
 0035F8 4780 7020            03600 24855  3          +
 0035FC 47F0 700A            035EA 24861  2 02474000               END
 003600 1266/4770 7036       03616 24866  2 02475000               IF    (R6,Z),'ABEND 6,DUMP'
 003606 4110 0006            00006 24885  3          +
 00360A 4100 0080            00080 24886  3          +
 00360E 8900 0018/1610       00018 24887  3          +
 003614 0A0D                       24889  2          +
 003616 9680 60A0      000A0       24894  2 02476000               SET   TVTFPOST            Action pending
 00361A 9640 60A0      000A0       24900  2 02477000               SET   TVTFEOTASK          Action is EOTASK
 00361E 1B00/4110 B414       00414 24906  2 02478000               POST  MTVTECB             Post main ECB
 003624 0A02                       24911  2          +
 003626 98EC D000            00000 24912  2 02479000               LM    R14,R12,@R13        Restore regs
 00362A 07FE                       24913  2 02480000               BR    R14
 DROP   TVT,R6                     24914  1 02481000             END
 DROP   MTVT,R11
 DROP   GVT,R12
 DROP   TCB,R1
                                   24937  1 02482000
 DROP   *,R7                       24938  1 02483000             DROP  BR
                                   24945  1 02484000
 003630                            24946  1 02485000             LTORG
 003630 0000000C                   24948  1                            =A(12)
 003634 00000010                   24949  1                            =A(16)
 003638 00000000       0363C 03658 24950  1                            =V(GVT)
                                   24954  1 02486000  MONITOR@   EQU   *-MONITOR,,C'N'     Monitor CSECT length
                                   24955  1 02487000             ¿þþþþþþþþþþþþþþþþÜ
                                   24956  1 02488000             Ÿ  Our symbols.  Ÿ
                                   24957  1 02489000             ¾þþþþþþþþþþþþþþþþ»
 003640                            24958  1 02490000             DS    0D
                                   24959  1 02491000             ENTRY SYMMONIT            Monitor's symbol table
 003640 D4D6D5C9E3D6D940           24960  1 02492000  SYMMONIT   DC    CL8'MONITOR',A(MONITOR,MONITOR@)
 003650 00000000                   24961  1 02493000             DC    A(0)                End of table
 003658                03658 03658 24962  1 02494000             END   .
                                          1
1MONITOR  (MONI2170) (12:00) (20JUN02) Macro and Copy Code Source Summary                                                   Page  117
- Con Source                                        Volume    Members                        HLASM R4.0  2002/06/20 12.00
0     PRIMARY INPUT                                           CSECT    DROP     END      EX       LTORG    POP
                                                              PRINT    PUSH     SCPOP    SCPUSH   START    USING
   L1 WYL.GA.MCL.WINGS.MACLIB                       STR211    ADDSYM   CPROC    DVWA     GVT      LCLDBWA  PROC
                                                              PTRACE   REG      SCAN     SCANCB   SCINIT   SCKW
                                                              SCTELL   TPENTRY  TRCENTRY TVT      XCALL    XPOP
                                                              XPUSH
   L2 WYL.GG.SYS.MACLIB                             STR210    $BC      $BFLKUP  $BV      $CCLKUP  $CRS     $CSS     $L
                                                              $LA      $LBLAD   $LEXP    $LOR     $REL     $RGLKUP
                                                              $USLKUP  ACALL    BASE     BEGIN    CEIL     CLEAR
                                                              CSECT    DATA     DECR     DEFCC    DEX      DROP     DTEX
                                                              ELSE     ELSEIF   END      EX       EXIT     FLAG     GEN
                                                              GO       HIBAL    IDENT    IF       INCR     LABEL    LC
                                                              LCM      LS       LT       LTORG    L3       MOVE     NOOP
                                                              PEND     POP      PRETURN  PRINT    PUSH     QLTORG
                                                              RECORD   REGS     SET      SETMSG   START    SYSLR
                                                              USING    VCALL    WHILE    WITH     ZOT
   L3 SYS3.IS.MACLIB                                SYSA03    SEG      SEGB     SEGCB    SEGDC    SEGDEF   SEGHX
                                                              SEGLD    SEGT     SEGWR    SYSDEFN
   L4 SYS3.MACLIB                                   SYSA03    HASPSERV QSNAP
   L5 SYS1.MACLIB                                   OS02AD    ABEND    ATTACH   CALLRTM  CLOSE    CVT      DCB      DCBD
                                                              DETACH   EXTRACT  FREEPOOL GET      GETMAIN  IEZCIB
                                                              IHAPSA   IHAPSAE  IHASDWA  IHAVRA   IHBINNRA IHBINNRR
                                                              IHB01    IKJTCB   MODESET  OPEN     POST     QEDIT
                                                              SETLOCK  SPLEVEL  STATUS   SYSSTATE WAIT
   L6 SYS1.MODGEN                                   OS02AD    IEZATTCH IEZBITS

1MONITOR  (MONI2170) (12:00) (20JUN02) Using Map                                                                            Page  118
-                                                                                            HLASM R4.0  2002/06/20 12.00
   Stmt  -----Location----- Action ----------------Using----------------- Reg Max    Last  Label and Using Text
           Count      Id           Type          Value    Range     Id        Disp   Stmt
0   950  00000000  00000001 USING  ORDINARY    00000000 00001000 FFFFFFF0  15 000   12296  @R15,15
    954  00000000  00000001 USING  ORDINARY    00000000 00001000 FFFFFFF1  14 000          @R14,14
    958  00000000  00000001 USING  ORDINARY    00000000 00001000 FFFFFFF2  13 004   24912  @R13,13
    962  00000000  00000001 USING  ORDINARY    00000000 00001000 FFFFFFF3  12 000          @R12,12
    966  00000000  00000001 USING  ORDINARY    00000000 00001000 FFFFFFF4  11 000          @R11,11
    970  00000000  00000001 USING  ORDINARY    00000000 00001000 FFFFFFF5  10 000          @R10,10
    974  00000000  00000001 USING  ORDINARY    00000000 00001000 FFFFFFF6   9 000          @R9,9
    978  00000000  00000001 USING  ORDINARY    00000000 00001000 FFFFFFF7   8 000          @R8,8
    982  00000000  00000001 USING  ORDINARY    00000000 00001000 FFFFFFF8   7 000          @R7,7
    986  00000000  00000001 USING  ORDINARY    00000000 00001000 FFFFFFF9   6 003    9139  @R6,6
    990  00000000  00000001 USING  ORDINARY    00000000 00001000 FFFFFFFA   5 000    9421  @R5,5
    994  00000000  00000001 USING  ORDINARY    00000000 00001000 FFFFFFFB   4 000   19804  @R4,4
    998  00000000  00000001 USING  ORDINARY    00000000 00001000 FFFFFFFC   3 000          @R3,3
   1002  00000000  00000001 USING  ORDINARY    00000000 00001000 FFFFFFFD   2 004   23169  @R2,2
   1006  00000000  00000001 USING  ORDINARY    00000000 00001000 FFFFFFFE   1 000          @R1,1
   1010  00000000  00000001 USING  ORDINARY    00000000 00001000 FFFFFFFF   0 000          @R0,0
   1011  00000000  00000001 DROP                                            0              0
   4716  00000298  FFFFFFE9 USING  ORDINARY    00000000 00001000 FFFFFFDF   0 000          PSA,0
   5930  00001000  FFFFFFDF USING  ORDINARY    00000000 00001000 FFFFFFFF   0 000          @R0,0
   5931  00001000  FFFFFFDF DROP                                            0              0
   7702  00000017  00000001 USING  ORDINARY    00000000 00001000 FFFFFFD4  12 0E0   24332  GVT,GVTR
   7711  00000017  00000001 USING  ORDINARY    00000000 00001000 FFFFFFD1  11 000          MTVT,MTVTR
   8828  0000001A  00000001 USING  ORDINARY    0000001A 00001000 00000001   7 2F6    9543  $$$35B,7
   8855  00000034  00000001 USING  ORDINARY    00000000 00001000 FFFFFFED   1 130    8861  CVT,R1
   8868  00000038  00000001 USING  ORDINARY    00000000 00001000 FFFFFFFE   1 000          @R1,1
   8889  00000048  00000001 USING  ORDINARY    00000000 00001000 FFFFFFF4  11 000          @R11,11
   8892  00000048  00000001 USING  ORDINARY    00000000 00001000 FFFFFFD3  11 1C8    8977  TVT,MTVTR
   8940  00000090  00000001 USING  ORDINARY    00000000 00001000 FFFFFFED   1 000    8946  CVT,R1
   8953  00000094  00000001 USING  ORDINARY    00000000 00001000 FFFFFFFE   1 004    8955  @R1,1
   8993  000000C4  00000001 USING  ORDINARY    00000000 00001000 FFFFFFF4  11 000          @R11,11
   8996  000000C4  00000001 USING  ORDINARY    00000000 00001000 FFFFFFD1  11 41C    9013  MTVT,11
   9033  000000F4  00000001 USING  ORDINARY    00000000 00001000 FFFFFFED   1 000    9039  CVT,R1
   9046  000000F8  00000001 USING  ORDINARY    00000000 00001000 FFFFFFFE   1 004    9048  @R1,1
   9058  000000FC  00000001 USING  ORDINARY    00000020 00001000 FFFFFFDE   1 00C    9064  TCB,R1
   9071  00000100  00000001 USING  ORDINARY    00000000 00001000 FFFFFFFE   1 04C   23169  @R1,1
   9169  00000154  00000001 USING  ORDINARY    00000000 00001000 FFFFFFF4  11 000          @R11,11
   9172  00000154  00000001 USING  ORDINARY    00000000 00001000 FFFFFFD3  11 0E0    9308  TVT,MTVTR
   9323  000001D6  00000001 USING  ORDINARY    00000000 00001000 FFFFFFF4  11 000          @R11,11
   9326  000001D6  00000001 USING  ORDINARY    00000000 00001000 FFFFFFD1  11 4C0   23959  MTVT,11
   9395  00000226  00000001 USING  ORDINARY    00000000 00001000 FFFFFFDB   6 004    9471  COM,R6
   9445  0000025A  00000001 USING  ORDINARY    00000000 00001000 FFFFFFDA   5 004    9463  CIB,R5
   9482  0000026A  00000001 USING  ORDINARY    00000000 00001000 FFFFFFFA   5 000          @R5,5
   9492  0000026A  00000001 USING  ORDINARY    00000000 00001000 FFFFFFF9   6 000          @R6,6
   9553  00000294  00000001 USING  ORDINARY    00000000 00001000 FFFFFFF8   7 000          @R7,7
   9614  00000318  00000001 USING  ORDINARY    00000318 00001000 00000001   7 080    9748  $$$42B,7
   9759  00000386  00000001 USING  ORDINARY    00000000 00001000 FFFFFFF8   7 000          @R7,7
   9820  000003EA  00000001 USING  ORDINARY    000003EA 00001000 00000001   7 3A2   10426  $$$50B,7
   9839  000003EE  00000001 USING  ORDINARY    00000000 00001000 FFFFFFD3  10 0B8   10405  TVT,TVTR
  10435  00000572  00000001 USING  ORDINARY    00000000 00001000 FFFFFFF5  10 000          @R10,10
  10440  00000572  00000001 USING  ORDINARY    00000000 00001000 FFFFFFF8   7 000          @R7,7
  10520  000005A6  00000001 USING  ORDINARY    000005A6 00001000 00000001   7 18E   10595  $$$67B,7
  10534  000005A6  00000001 USING  ORDINARY    FFFFFFC8 00001000 FFFFFFD0   8 13C   10591  CRWA-(4+52),R8
  10546  000005A6  00000001 USING  ORDINARY    00000000 00001000 FFFFFFD3  10 0BC   10599  TVT,TVTR
1MONITOR  (MONI2170) (12:00) (20JUN02) Using Map                                                                            Page  119
  10613  000005FE  00000001 USING  ORDINARY    00000000 00001000 FFFFFFF5  10 000          @R10,10
  10618  000005FE  00000001 USING  ORDINARY    00000000 00001000 FFFFFFF7   8 000          @R8,8
  10623  000005FE  00000001 USING  ORDINARY    00000000 00001000 FFFFFFF8   7 000          @R7,7
  10680  00000632  00000001 USING  ORDINARY    00000632 00001000 00000001   7 19C   10968  $$$71B,7
  10701  00000636  00000001 USING  ORDINARY    00000000 00001000 FFFFFFDB   6 005   10926  COM,R6
  10735  00000640  00000001 USING  ORDINARY    00000000 00001000 FFFFFFDA   5 010   10912  CIB,R5
  10977  000006FA  00000001 USING  ORDINARY    00000000 00001000 FFFFFFFA   5 000          @R5,5
  10982  000006FA  00000001 USING  ORDINARY    00000000 00001000 FFFFFFF9   6 000          @R6,6
  10987  000006FA  00000001 USING  ORDINARY    00000000 00001000 FFFFFFF8   7 000          @R7,7
  11116  000007FA  00000001 USING  ORDINARY    000007FA 00001000 00000001   7 5BC   11237  $$$81B,7
  11130  000007FA  00000001 USING  ORDINARY    FFFFFFC8 00001000 FFFFFFCF   8 040   11159  DOCMDWA-(4+52),R8
  11250  00000856  00000001 USING  ORDINARY    00000000 00001000 FFFFFFF7   8 000          @R8,8
  11255  00000856  00000001 USING  ORDINARY    00000000 00001000 FFFFFFF8   7 000          @R7,7
  11346  0000090E  00000001 USING  ORDINARY    0000090E 00001000 00000001   7 56E   11545  $$$85B,7
  11553  000009E6  00000001 USING  ORDINARY    00000000 00001000 FFFFFFF8   7 000          @R7,7
  11607  00000A1A  00000001 USING  ORDINARY    00000A1A 00001000 00000001   7 49A   11853  $$$88B,7
  11770  00000A94  00000001 USING  ORDINARY    00000000 00001000 FFFFFFD3  10 000          TVT,TVTR
  11862  00000AD6  00000001 USING  ORDINARY    00000000 00001000 FFFFFFF5  10 000          @R10,10
  11867  00000AD6  00000001 USING  ORDINARY    00000000 00001000 FFFFFFF8   7 000          @R7,7
  11932  00000B38  00000001 USING  ORDINARY    00000B38 00001000 00000001   7 38D   11980  $$$95B,7
  11993  00000B5A  00000001 USING  ORDINARY    00000000 00001000 FFFFFFD3  10 01C   11997  TVT,TVTR
  12004  00000B60  00000001 USING  ORDINARY    00000000 00001000 FFFFFFF5  10 000          @R10,10
  12009  00000B60  00000001 USING  ORDINARY    00000000 00001000 FFFFFFF8   7 000          @R7,7
  12059  00000B94  00000001 USING  ORDINARY    00000B94 00001000 00000001   7 363   12219  $$$99B,7
  12080  00000BA2  00000001 USING  ORDINARY    00000000 00001000 FFFFFFD3  10 036   12215  TVT,TVTR
  12228  00000C24  00000001 USING  ORDINARY    00000000 00001000 FFFFFFF5  10 000          @R10,10
  12233  00000C24  00000001 USING  ORDINARY    00000000 00001000 FFFFFFF8   7 000          @R7,7
  12283  00000C58  00000001 USING  ORDINARY    00000C58 00001000 00000001   7 2B4   12355  $$$105B,7
  12347  00000C8C  00000001 USING  ORDINARY    00000000 00001000 FFFFFFD3  10 088   12351  TVT,TVTR
  12364  00000C9E  00000001 USING  ORDINARY    00000000 00001000 FFFFFFF5  10 000          @R10,10
  12369  00000C9E  00000001 USING  ORDINARY    00000000 00001000 FFFFFFF8   7 000          @R7,7
  12419  00000CD2  00000001 USING  ORDINARY    00000CD2 00001000 00000001   7 000          $$$109B,7
  12436  00000CD2  00000001 USING  ORDINARY    00000000 00001000 FFFFFFD3  10 088   12446  TVT,TVTR
  12453  00000CD8  00000001 USING  ORDINARY    00000000 00001000 FFFFFFF5  10 000          @R10,10
  12458  00000CD8  00000001 USING  ORDINARY    00000000 00001000 FFFFFFF8   7 000          @R7,7
  12558  00000F48  00000001 USING  ORDINARY    00000F48 00001000 00000001   7 B28   12716  $$$112B,7
  12579  00000F56  00000001 USING  ORDINARY    00000000 00001000 FFFFFFD3  10 08C   12703  TVT,TVTR
  12725  00000FB6  00000001 USING  ORDINARY    00000000 00001000 FFFFFFF5  10 000          @R10,10
  12730  00000FB6  00000001 USING  ORDINARY    00000000 00001000 FFFFFFF8   7 000          @R7,7
  12787  00000FEA  00000001 USING  ORDINARY    00000FEA 00001000 00000001   7 B50   13129  $$$121B,7
  12806  00000FEC  00000001 USING  ORDINARY    00000000 00001000 FFFFFFD3   6 098   13091  TVT,R6
  12922  00001048  00000001 USING  ORDINARY    00000000 00001000 FFFFFFD8   5 028   12931  ATTCHLST,R5
  12938  00001056  00000001 USING  ORDINARY    00000000 00001000 FFFFFFFA   5 000   24220  @R5,5
  13138  00001102  00000001 USING  ORDINARY    00000000 00001000 FFFFFFF9   6 000          @R6,6
  13143  00001102  00000001 USING  ORDINARY    00000000 00001000 FFFFFFF8   7 000          @R7,7
  13249  0000117E  00000001 USING  ORDINARY    0000117E 00001000 00000001   7 90A   13422  $$$126B,7
  13263  0000117E  00000001 USING  ORDINARY    FFFFFFC8 00001000 FFFFFFCE   8 040   13409  STPWA-(4+52),R8
  13286  00001192  00000001 USING  ORDINARY    00000000 00001000 FFFFFFD3  10 008   13352  TVT,TVTR
  13431  000011FE  00000001 USING  ORDINARY    00000000 00001000 FFFFFFF5  10 000          @R10,10
  13436  000011FE  00000001 USING  ORDINARY    00000000 00001000 FFFFFFF7   8 000          @R8,8
  13441  000011FE  00000001 USING  ORDINARY    00000000 00001000 FFFFFFF8   7 000          @R7,7
  13499  00001232  00000001 USING  ORDINARY    00001232 00001000 00000001   7 918   13911  $$$135B,7
  13517  00001234  00000001 USING  ORDINARY    00000000 00001000 FFFFFFD3  10 0B0   13860  TVT,TVTR
  13923  00001346  00000001 USING  ORDINARY    00000000 00001000 FFFFFFF5  10 000          @R10,10
  13928  00001346  00000001 USING  ORDINARY    00000000 00001000 FFFFFFF8   7 000          @R7,7
  13982  0000137A  00000001 USING  ORDINARY    0000137A 00001000 00000001   7 712   14128  $$$144B,7
  14003  00001388  00000001 USING  ORDINARY    00000000 00001000 FFFFFFD3  10 008   14059  TVT,TVTR
  14137  000013DC  00000001 USING  ORDINARY    00000000 00001000 FFFFFFF5  10 000          @R10,10
  14142  000013DC  00000001 USING  ORDINARY    00000000 00001000 FFFFFFF8   7 000          @R7,7
1MONITOR  (MONI2170) (12:00) (20JUN02) Using Map                                                                            Page  120
  14241  00001410  00000001 USING  ORDINARY    00001410 00001000 00000001   7 749   14758  $$$153B,7
  14255  00001410  00000001 USING  ORDINARY    FFFFFFC8 00001000 FFFFFFCD   8 038   14614  CTWA-(4+52),R8
  14341  0000143E  00000001 USING  ORDINARY    00000000 00001000 FFFFFFD3  10 09C   14707  TVT,TVTR
  14769  000015B8  00000001 USING  ORDINARY    00000000 00001000 FFFFFFF5  10 000          @R10,10
  14779  000015B8  00000001 USING  ORDINARY    00000000 00001000 FFFFFFF7   8 000          @R8,8
  14784  000015B8  00000001 USING  ORDINARY    00000000 00001000 FFFFFFF8   7 000          @R7,7
  14838  000015EC  00000001 USING  ORDINARY    000015EC 00001000 00000001   7 4D0   14982  $$$166B,7
  14859  000015FA  00000001 USING  ORDINARY    00000000 00001000 FFFFFFD3  10 008   14914  TVT,TVTR
  14991  0000164E  00000001 USING  ORDINARY    00000000 00001000 FFFFFFF5  10 000          @R10,10
  14996  0000164E  00000001 USING  ORDINARY    00000000 00001000 FFFFFFF8   7 000          @R7,7
  15053  00001682  00000001 USING  ORDINARY    00001682 00001000 00000001   7 4F4   15337  $$$175B,7
  15071  00001684  00000001 USING  ORDINARY    00000000 00001000 FFFFFFD3  10 09C   15286  TVT,TVTR
  15349  0000173C  00000001 USING  ORDINARY    00000000 00001000 FFFFFFF5  10 000          @R10,10
  15354  0000173C  00000001 USING  ORDINARY    00000000 00001000 FFFFFFF8   7 000          @R7,7
  15409  00001770  00000001 USING  ORDINARY    00001770 00001000 00000001   7 350   15553  $$$182B,7
  15430  0000177E  00000001 USING  ORDINARY    00000000 00001000 FFFFFFD3  10 008   15485  TVT,TVTR
  15562  000017D2  00000001 USING  ORDINARY    00000000 00001000 FFFFFFF5  10 000          @R10,10
  15567  000017D2  00000001 USING  ORDINARY    00000000 00001000 FFFFFFF8   7 000          @R7,7
  15624  00001806  00000001 USING  ORDINARY    00001806 00001000 00000001   7 344   15818  $$$191B,7
  15642  00001808  00000001 USING  ORDINARY    00000000 00001000 FFFFFFD3  10 0B0   15767  TVT,TVTR
  15830  00001888  00000001 USING  ORDINARY    00000000 00001000 FFFFFFF5  10 000          @R10,10
  15835  00001888  00000001 USING  ORDINARY    00000000 00001000 FFFFFFF8   7 000          @R7,7
  15889  000018BC  00000001 USING  ORDINARY    000018BC 00001000 00000001   7 208   16033  $$$196B,7
  15910  000018CA  00000001 USING  ORDINARY    00000000 00001000 FFFFFFD3  10 008   15965  TVT,TVTR
  16042  0000191E  00000001 USING  ORDINARY    00000000 00001000 FFFFFFF5  10 000          @R10,10
  16047  0000191E  00000001 USING  ORDINARY    00000000 00001000 FFFFFFF8   7 000          @R7,7
  16104  00001952  00000001 USING  ORDINARY    00001952 00001000 00000001   7 22F   16392  $$$205B,7
  16123  00001954  00000001 USING  ORDINARY    00000000 00001000 FFFFFFD3  10 09C   16341  TVT,TVTR
  16404  00001A0C  00000001 USING  ORDINARY    00000000 00001000 FFFFFFF5  10 000          @R10,10
  16409  00001A0C  00000001 USING  ORDINARY    00000000 00001000 FFFFFFF8   7 000          @R7,7
  16506  00001BB0  00000001 USING  ORDINARY    00001BB0 00001000 00000001   7 F40   16598  $$$212B,7
  16607  00001C04  00000001 USING  ORDINARY    00000000 00001000 FFFFFFF8   7 000          @R7,7
  16670  00001C46  00000001 USING  ORDINARY    00001C46 00001000 00000001   7 E52   16853  $$$216B,7
  16691  00001C54  00000001 USING  ORDINARY    00000000 00001000 FFFFFFD3  10 008   16750  TVT,TVTR
  16862  00001CC2  00000001 USING  ORDINARY    00000000 00001000 FFFFFFF5  10 000          @R10,10
  16867  00001CC2  00000001 USING  ORDINARY    00000000 00001000 FFFFFFF8   7 000          @R7,7
  16943  00001CF6  00000001 USING  ORDINARY    00001CF6 00001000 00000001   7 E7E   17687  $$$227B,7
  16957  00001CF6  00000001 USING  ORDINARY    FFFFFFC8 00001000 FFFFFFCC   8 038   17641  TSTAWA-(4+52),R8
  16970  00001CF8  00000001 USING  ORDINARY    00000000 00001000 FFFFFFD3  10 210   17640  TVT,TVTR
  17696  00001F46  00000001 USING  ORDINARY    00000000 00001000 FFFFFFF5  10 000          @R10,10
  17701  00001F46  00000001 USING  ORDINARY    00000000 00001000 FFFFFFF7   8 000          @R8,8
  17706  00001F46  00000001 USING  ORDINARY    00000000 00001000 FFFFFFF8   7 000          @R7,7
  17781  00001F7A  00000001 USING  ORDINARY    00001F7A 00001000 00000001   7 BAE   17966  $$$242B,7
  17795  00001F7A  00000001 USING  ORDINARY    FFFFFFC8 00001000 FFFFFFCB   8 038   17869  MSTAWA-(4+52),R8
  17808  00001F7C  00000001 USING  ORDINARY    00000000 00001000 FFFFFFD3  10 000          TVT,TVTR
  17975  00001FFC  00000001 USING  ORDINARY    00000000 00001000 FFFFFFF5  10 000          @R10,10
  17980  00001FFC  00000001 USING  ORDINARY    00000000 00001000 FFFFFFF7   8 000          @R8,8
  17985  00001FFC  00000001 USING  ORDINARY    00000000 00001000 FFFFFFF8   7 000          @R7,7
  18040  00002030  00000001 USING  ORDINARY    00002030 00001000 00000001   7 A84   18208  $$$245B,7
  18061  0000203E  00000001 USING  ORDINARY    00000000 00001000 FFFFFFD3  10 000          TVT,TVTR
  18217  000020A6  00000001 USING  ORDINARY    00000000 00001000 FFFFFFF5  10 000          @R10,10
  18222  000020A6  00000001 USING  ORDINARY    00000000 00001000 FFFFFFF8   7 000          @R7,7
  18279  000020DA  00000001 USING  ORDINARY    000020DA 00001000 00000001   7 AA1   18422  $$$254B,7
  18298  000020DC  00000001 USING  ORDINARY    00000000 00001000 FFFFFFD3  10 0E0   18371  TVT,TVTR
  18434  00002136  00000001 USING  ORDINARY    00000000 00001000 FFFFFFF5  10 000          @R10,10
  18439  00002136  00000001 USING  ORDINARY    00000000 00001000 FFFFFFF8   7 000          @R7,7
  18499  0000216A  00000001 USING  ORDINARY    0000216A 00001000 00000001   7 A20   18679  $$$259B,7
  18520  00002178  00000001 USING  ORDINARY    00000000 00001000 FFFFFFD3  10 000          TVT,TVTR
  18688  000021EC  00000001 USING  ORDINARY    00000000 00001000 FFFFFFF5  10 000          @R10,10
1MONITOR  (MONI2170) (12:00) (20JUN02) Using Map                                                                            Page  121
  18693  000021EC  00000001 USING  ORDINARY    00000000 00001000 FFFFFFF8   7 000          @R7,7
  18750  00002220  00000001 USING  ORDINARY    00002220 00001000 00000001   7 95B   18974  $$$268B,7
  18769  00002222  00000001 USING  ORDINARY    00000000 00001000 FFFFFFD3  10 0E0   18923  TVT,TVTR
  18986  000022C0  00000001 USING  ORDINARY    00000000 00001000 FFFFFFF5  10 000          @R10,10
  18991  000022C0  00000001 USING  ORDINARY    00000000 00001000 FFFFFFF8   7 000          @R7,7
  19046  000022F4  00000001 USING  ORDINARY    000022F4 00001000 00000001   7 7D8   19184  $$$275B,7
  19067  00002302  00000001 USING  ORDINARY    00000000 00001000 FFFFFFD3  10 000          TVT,TVTR
  19193  00002352  00000001 USING  ORDINARY    00000000 00001000 FFFFFFF5  10 000          @R10,10
  19198  00002352  00000001 USING  ORDINARY    00000000 00001000 FFFFFFF8   7 000          @R7,7
  19255  00002386  00000001 USING  ORDINARY    00002386 00001000 00000001   7 7B0   19463  $$$282B,7
  19274  00002388  00000001 USING  ORDINARY    00000000 00001000 FFFFFFD3  10 0D0   19412  TVT,TVTR
  19335  000023AE  00000001 USING  ORDINARY    00000000 00001000 FFFFFFD2   3 000   19351  TRCENTRY,R3
  19386  000023C0  00000001 USING  ORDINARY    00000000 00001000 FFFFFFFC   3 000          @R3,3
  19475  000023F4  00000001 USING  ORDINARY    00000000 00001000 FFFFFFF5  10 000          @R10,10
  19480  000023F4  00000001 USING  ORDINARY    00000000 00001000 FFFFFFF8   7 000          @R7,7
  19550  00002428  00000001 USING  ORDINARY    00002428 00001000 00000001   7 798   19859  $$$290B,7
  19564  00002428  00000001 USING  ORDINARY    FFFFFFC8 00001000 FFFFFFCA   8 038   19583  TRCDWA-(4+52),R8
  19578  00002428  00000001 USING  ORDINARY    00000000 00001000 FFFFFFD2   3 010   19721  TRCENTRY,R3
  19867  00002530  00000001 USING  ORDINARY    00000000 00001000 FFFFFFFC   3 000          @R3,3
  19872  00002530  00000001 USING  ORDINARY    00000000 00001000 FFFFFFF7   8 000          @R8,8
  19877  00002530  00000001 USING  ORDINARY    00000000 00001000 FFFFFFF8   7 000          @R7,7
  19932  00002564  00000001 USING  ORDINARY    00002564 00001000 00000001   7 574   20100  $$$293B,7
  19953  00002572  00000001 USING  ORDINARY    00000000 00001000 FFFFFFD3  10 000          TVT,TVTR
  20109  000025DA  00000001 USING  ORDINARY    00000000 00001000 FFFFFFF5  10 000          @R10,10
  20114  000025DA  00000001 USING  ORDINARY    00000000 00001000 FFFFFFF8   7 000          @R7,7
  20171  0000260E  00000001 USING  ORDINARY    0000260E 00001000 00000001   7 56D   20314  $$$302B,7
  20190  00002610  00000001 USING  ORDINARY    00000000 00001000 FFFFFFD3  10 0E0   20263  TVT,TVTR
  20326  0000266A  00000001 USING  ORDINARY    00000000 00001000 FFFFFFF5  10 000          @R10,10
  20331  0000266A  00000001 USING  ORDINARY    00000000 00001000 FFFFFFF8   7 000          @R7,7
  20386  0000269E  00000001 USING  ORDINARY    0000269E 00001000 00000001   7 442   20554  $$$307B,7
  20407  000026AC  00000001 USING  ORDINARY    00000000 00001000 FFFFFFD3  10 000          TVT,TVTR
  20563  00002714  00000001 USING  ORDINARY    00000000 00001000 FFFFFFF5  10 000          @R10,10
  20568  00002714  00000001 USING  ORDINARY    00000000 00001000 FFFFFFF8   7 000          @R7,7
  20625  00002748  00000001 USING  ORDINARY    00002748 00001000 00000001   7 433   20768  $$$316B,7
  20644  0000274A  00000001 USING  ORDINARY    00000000 00001000 FFFFFFD3  10 0E0   20717  TVT,TVTR
  20780  000027A4  00000001 USING  ORDINARY    00000000 00001000 FFFFFFF5  10 000          @R10,10
  20785  000027A4  00000001 USING  ORDINARY    00000000 00001000 FFFFFFF8   7 000          @R7,7
  20840  000027D8  00000001 USING  ORDINARY    000027D8 00001000 00000001   7 310   21008  $$$321B,7
  20861  000027E6  00000001 USING  ORDINARY    00000000 00001000 FFFFFFD3  10 000          TVT,TVTR
  21017  0000284E  00000001 USING  ORDINARY    00000000 00001000 FFFFFFF5  10 000          @R10,10
  21022  0000284E  00000001 USING  ORDINARY    00000000 00001000 FFFFFFF8   7 000          @R7,7
  21079  00002882  00000001 USING  ORDINARY    00002882 00001000 00000001   7 2F9   21222  $$$330B,7
  21098  00002884  00000001 USING  ORDINARY    00000000 00001000 FFFFFFD3  10 0E0   21171  TVT,TVTR
  21234  000028DE  00000001 USING  ORDINARY    00000000 00001000 FFFFFFF5  10 000          @R10,10
  21239  000028DE  00000001 USING  ORDINARY    00000000 00001000 FFFFFFF8   7 000          @R7,7
  21294  00002912  00000001 USING  ORDINARY    00002912 00001000 00000001   7 2B9   21352  $$$335B,7
  21361  00002950  00000001 USING  ORDINARY    00000000 00001000 FFFFFFF8   7 000          @R7,7
  21415  00002984  00000001 USING  ORDINARY    00002984 00001000 00000001   7 260   21473  $$$338B,7
  21482  000029C2  00000001 USING  ORDINARY    00000000 00001000 FFFFFFF8   7 000          @R7,7
  21532  000029F6  00000001 USING  ORDINARY    000029F6 00001000 00000001   7 20D   21590  $$$341B,7
  21599  00002A34  00000001 USING  ORDINARY    00000000 00001000 FFFFFFF8   7 000          @R7,7
  21755  00002C3A  00000001 USING  ORDINARY    00002C3A 00001000 00000001   7 234   21908  $$$344B,7
  21769  00002C3A  00000001 USING  ORDINARY    FFFFFFC8 00001000 FFFFFFC9   8 03C   21849  DOPWA-(4+52),R8
  21925  00002CA6  00000001 USING  ORDINARY    00000000 00001000 FFFFFFF7   8 000          @R8,8
  21930  00002CA6  00000001 USING  ORDINARY    00000000 00001000 FFFFFFF8   7 000          @R7,7
  21996  00002D06  00000001 USING  ORDINARY    00002D06 00001000 00000001   7 000          $$$349B,7
  22017  00002D0A  00000001 USING  ORDINARY    00000000 00001000 FFFFFFF8   7 000          @R7,7
  22067  00002D3E  00000001 USING  ORDINARY    00002D3E 00001000 00000001   7 000          $$$352B,7
  22089  00002D42  00000001 USING  ORDINARY    00000000 00001000 FFFFFFF8   7 000          @R7,7
1MONITOR  (MONI2170) (12:00) (20JUN02) Using Map                                                                            Page  122
  22139  00002D76  00000001 USING  ORDINARY    00002D76 00001000 00000001   7 102   22183  $$$355B,7
  22209  00002D92  00000001 USING  ORDINARY    00000000 00001000 FFFFFFF8   7 000          @R7,7
  22259  00002DC6  00000001 USING  ORDINARY    00002DC6 00001000 00000001   7 000          $$$362B,7
  22287  00002DCE  00000001 USING  ORDINARY    00000000 00001000 FFFFFFF8   7 000          @R7,7
  22345  00002E02  00000001 USING  ORDINARY    00002E02 00001000 00000001   7 042   22393  $$$365B,7
  22401  00002E1E  00000001 USING  ORDINARY    00000000 00001000 FFFFFFF8   7 000          @R7,7
  22505  00002EA4  00000001 USING  ORDINARY    00002EA4 00001000 00000001   7 36A   22628  $$$368B,7
  22519  00002EA4  00000001 USING  ORDINARY    FFFFFFC8 00001000 FFFFFFC8   8 038   22623  DOSYSWA-(4+52),R8
  22637  00002F12  00000001 USING  ORDINARY    00000000 00001000 FFFFFFF7   8 000          @R8,8
  22642  00002F12  00000001 USING  ORDINARY    00000000 00001000 FFFFFFF8   7 000          @R7,7
  22725  00002F46  00000001 USING  ORDINARY    00002F46 00001000 00000001   7 2E0   23247  $$$373B,7
  22739  00002F46  00000001 USING  ORDINARY    FFFFFFC8 00001000 FFFFFFC7   8 03C   23187  GETSWA-(4+52),R8
  22785  00002F62  00000001 USING  ORDINARY    00000000 00001000 FFFFFFDC   6 052   23080  DCB,R6
  23264  00003100  00000001 USING  ORDINARY    00000000 00001000 FFFFFFF9   6 000          @R6,6
  23269  00003100  00000001 USING  ORDINARY    00000000 00001000 FFFFFFF7   8 000          @R8,8
  23274  00003100  00000001 USING  ORDINARY    00000000 00001000 FFFFFFF8   7 000          @R7,7
  23347  00003174  00000001 USING  ORDINARY    00000000 00001000 FFFFFFDC   1 052   23426  DCB,R1
  23358  00003174  00000001 USING  ORDINARY    00003174 00001000 00000001  15 098   23426  $$$388B,R15
  23442  000031A6  00000001 USING  ORDINARY    00000000 00001000 FFFFFFF0  15 000          @R15,15
  23447  000031A6  00000001 USING  ORDINARY    00000000 00001000 FFFFFFFE   1 000   24087  @R1,1
  23537  00003252  00000001 USING  ORDINARY    00003252 00001000 00000001   7 000          $$$394B,7
  23562  00003256  00000001 USING  ORDINARY    00000000 00001000 FFFFFFF8   7 000          @R7,7
  23630  0000328A  00000001 USING  ORDINARY    0000328A 00001000 00000001   7 25F   23805  $$$397B,7
  23828  00003314  00000001 USING  ORDINARY    00000000 00001000 FFFFFFF8   7 000          @R7,7
  23899  00003348  00000001 USING  ORDINARY    00003348 00001000 00000001   7 1B0   23962  $$$403B,7
  23974  00003372  00000001 USING  ORDINARY    00000000 00001000 FFFFFFF8   7 000          @R7,7
  24034  000033A6  00000001 USING  ORDINARY    000033A6 00001000 00000001   7 01C   24099  $$$407B,7
  24054  000033AA  00000001 USING  ORDINARY    00000000 00001000 FFFFFFD3  15 014   24087  TVT,R15
  24108  000033C2  00000001 USING  ORDINARY    00000000 00001000 FFFFFFF0  15 000          @R15,15
  24113  000033C2  00000001 USING  ORDINARY    00000000 00001000 FFFFFFF8   7 000          @R7,7
  24173  000033F6  00000001 USING  ORDINARY    000033F6 00001000 00000001   7 115   24302  $$$413B,7
  24198  00003404  00000001 USING  ORDINARY    00000000 00001000 FFFFFFD3  10 1C8   24338  TVT,TVTR
  24234  00003432  00000001 USING  ORDINARY    00000000 00001000 FFFFFFED   1 130   24240  CVT,R1
  24247  00003436  00000001 USING  ORDINARY    00000000 00001000 FFFFFFFE   1 000          @R1,1
  24317  00003488  00000001 USING  ORDINARY    00000000 00001000 FFFFFFD3  15 008   24323  TVT,R15
  24330  0000348C  00000001 USING  ORDINARY    00000000 00001000 FFFFFFF0  15 000          @R15,15
  24345  00003494  00000001 USING  ORDINARY    00000000 00001000 FFFFFFF5  10 000          @R10,10
  24350  00003494  00000001 USING  ORDINARY    00000000 00001000 FFFFFFF8   7 000          @R7,7
  24437  00003536  00000001 USING  ORDINARY    00003536 00001000 00000001   7 05E   24520  $$$418B,7
  24457  00003538  00000001 USING  ORDINARY    00000000 00001000 FFFFFFD3   6 1C8   24520  TVT,R6
  24503  00003568  00000001 USING  ORDINARY    00000000 00001000 FFFFFFED   1 130   24509  CVT,R1
  24516  0000356C  00000001 USING  ORDINARY    00000000 00001000 FFFFFFFE   1 000          @R1,1
  24527  0000357C  00000001 USING  ORDINARY    00000000 00001000 FFFFFFF9   6 000          @R6,6
  24532  0000357C  00000001 USING  ORDINARY    00000000 00001000 FFFFFFF8   7 000          @R7,7
  24579  00003599  00000001 USING  ORDINARY    0000359A 00001000 00000001  15 000          STAI,R15
  24599  000035A0  00000001 USING  ORDINARY    000035A0 00001000 00000001   7 098   24642  $$$420B,7
  24651  000035BA  00000001 USING  ORDINARY    00000000 00001000 FFFFFFE9   6 298   24666  SDWA,R6
  24661  000035BE  00000001 USING  ORDINARY    00000000 00001000 FFFFFFD3  10 0AC   24685  TVT,TVTR
  24674  000035C8  00000001 USING  ORDINARY    00000000 00001000 FFFFFFF9   6 000          @R6,6
  24677  000035C8  00000001 USING  ORDINARY    00000000 00001000 FFFFFFE8   6 02C   24679  SDWARC1,R6
  24699  000035DA  00000001 USING  ORDINARY    00000000 00001000 FFFFFFF0  15 000          @R15,15
  24708  000035DA  00000001 USING  ORDINARY    00000000 00001000 FFFFFFF3  12 000          @R12,12
  24713  000035DA  00000001 USING  ORDINARY    00000000 00001000 FFFFFFF4  11 000          @R11,11
  24718  000035DA  00000001 USING  ORDINARY    00000000 00001000 FFFFFFF5  10 000          @R10,10
  24727  000035DA  00000001 USING  ORDINARY    00000000 00001000 FFFFFFF8   7 000          @R7,7
  24732  000035DA  00000001 USING  ORDINARY    00000000 00001000 FFFFFFF9   6 000          @R6,6
  24765  000035E0  00000001 USING  ORDINARY    000035E0 00001000 00000001   7 058   24875  $$$423B,7
  24776  000035E0  00000001 USING  ORDINARY    00000020 00001000 FFFFFFDE   1 000          TCB,R1
  24791  000035E4  00000001 USING  ORDINARY    00000000 00001000 FFFFFFD4  12 06C   24795  GVT,R12
1MONITOR  (MONI2170) (12:00) (20JUN02) Using Map                                                                            Page  123
  24806  000035EA  00000001 USING  ORDINARY    00000000 00001000 FFFFFFD1  11 414   24910  MTVT,R11
  24819  000035EA  00000001 USING  ORDINARY    00000000 00001000 FFFFFFD3   6 0A0   24905  TVT,R6
  24919  0000362C  00000001 USING  ORDINARY    00000000 00001000 FFFFFFF9   6 000          @R6,6
  24924  0000362C  00000001 USING  ORDINARY    00000000 00001000 FFFFFFF4  11 000          @R11,11
  24929  0000362C  00000001 USING  ORDINARY    00000000 00001000 FFFFFFF3  12 000          @R12,12
  24935  0000362C  00000001 USING  ORDINARY    00000000 00001000 FFFFFFFE   1 000          @R1,1
  24943  0000362C  00000001 USING  ORDINARY    00000000 00001000 FFFFFFF8   7 000          @R7,7

1         (MONI2170) (12:00) (20JUN02) General Purpose Register Cross Reference                                             Page  124
- Register  References (M=modified, B=branch, U=USING, D=DROP, N=index)                      HLASM R4.0  2002/06/20 12.00
0    0(0)     1010U  1011D  5931D  8844M  8861M  8870   8874M  8911M  8962M  9007M  9081M  9081   9117M  9148M  9149M
              9362M  9403M  9404M  9404   9471M  9521M  9546M  9656M  9682M  9751M  9804   9945M  9994M  9994  10058M
             10075M 10099M 10099  10155M 10172M 10203M 10227M 10227  10270M 10287M 10311M 10311  10448M 10503  10580M
             10590M 10603M 10603  10631M 10664  10746M 10746  10747M 10839M 10847M 10873M 10887M 10926M 10933M 10949M
             10964M 10964  10995M 11099  11143  11159M 11199M 11199  11207  11212M 11228M 11263M 11330  11360M 11376M
             11392M 11408M 11424M 11440M 11456M 11472M 11488M 11504M 11520M 11536M 11561M 11591  11653M 11705M 11721M
             11805M 11805  11813  11818M 11834M 11875M 11916  11949M 11949  11960M 12017M 12043  12092M 12092  12103M
             12137  12148M 12192M 12215  12241M 12267  12316M 12377M 12403  12466M 12542  12738M 12771  12842M 12857M
             12879M 12879  12983M 13016M 13042M 13057M 13076M 13098M 13120M 13120  13151M 13232  13319M 13319  13320
             13360M 13409M 13449M 13483  13567M 13582M 13604M 13604  13662M 13662  13686M 13701M 13723M 13723  13753M
             13779M 13794M 13816M 13816  13865M 13880M 13902M 13902  13936M 13966  14150M 14224  14284M 14306M 14306
             14404M 14405M 14406  14408M 14468M 14469M 14470  14472M 14553M 14568M 14590M 14590  14635M 14650M 14666M
             14712M 14727M 14749M 14749  14792M 14822  15004M 15037  15121M 15136M 15158M 15158  15185M 15209M 15224M
             15246M 15246  15291M 15306M 15328M 15328  15362M 15393  15575M 15608  15672M 15672  15676M 15676  15694M
             15709M 15731M 15731  15772M 15787M 15809M 15809  15843M 15873  16055M 16088  16174M 16189M 16211M 16211
             16238M 16263M 16278M 16300M 16300  16346M 16361M 16383M 16383  16417M 16490  16549M 16549  16557  16562M
             16578M 16615M 16654  16875M 16926  16990M 17005M 17027M 17042M 17090M 17133M 17176M 17219M 17249M 17283M
             17330M 17345M 17370M 17385M 17408M 17423M 17453M 17469M 17488M 17503M 17514M 17533M 17550M 17570M 17570
             17585M 17597M 17629M 17640M 17678M 17678  17714M 17764  17829M 17855M 17866M 17900M 17919M 17919  17934M
             17957M 17957  17993M 18024  18109M 18230M 18263  18376M 18391M 18413M 18413  18447M 18483  18568M 18616M
             18701M 18734  18806M 18842M 18928M 18943M 18965M 18965  18999M 19030  19115M 19206M 19239  19417M 19432M
             19454M 19454  19488M 19533  19582M 19624M 19639M 19658M 19658  19673M 19695M 19695  19710M 19734M 19749M
             19773M 19773  19788M 19811M 19826M 19850M 19850  19885M 19916  20001M 20122M 20155  20268M 20283M 20305M
             20305  20339M 20370  20455M 20576M 20609  20722M 20737M 20759M 20759  20793M 20824  20909M 21030M 21063
             21176M 21191M 21213M 21213  21247M 21278  21333M 21369M 21399  21454M 21490M 21516  21571M 21607M 21738
             21773  21781M 21807M 21849M 21897M 21938M 21980  22025M 22051  22097M 22123  22158M 22158  22172  22178
             22217M 22243  22295M 22329  22382M 22409M 22488  22525M 22566  22572M 22587M 22589  22617M 22624M 22650M
             22708  22743  22844M 22872M 22889M 22910M 22910  22934M 22934  22981M 23005M 23005  23029M 23029  23080M
             23094  23113M 23129  23136M 23141  23197  23236M 23241M 23282M 23521  23550M 23550  23570M 23614  23697M
             23725  23757M 23782M 23782  23793M 23836M 23883  23937M 23953M 23982M 24018  24121M 24157  24184M 24216M
             24223M 24240M 24249  24358M 24421  24492M 24509M 24518  24540M 24586  24616  24630  24689M 24752  24886M
             24887M 24888  24909M 24909  24912M
     1(1)     1006U  8842   8845M  8855U  8868U  8877M  8879   8910M  8910   8911M  8927M  8928   8930M  8940U  8946M
              8953U  8965M  8967   8968   8969   8999M  9000   9010M  9012   9023M  9033U  9039M  9046U  9048M  9058U
              9064M  9071U  9086M  9122M  9152M  9190M  9191   9198M  9215M  9216   9223M  9240M  9257M  9274M  9291M
              9308M  9337M  9337   9345M  9377M  9383N  9401M  9402M  9402   9407M  9408M  9409   9410M  9411   9470M
              9522M  9655M  9684M  9685M  9685   9720M  9804   9950M  9959M  9959   9965   9990M  9995M  9995  10053M
             10074M 10150M 10171M 10196M 10265M 10286M 10348M 10405M 10448M 10503  10581M 10591M 10599M 10604M 10604
             10631M 10664  10838M 10846M 10868M 10886M 10925M 10932M 10948M 10995M 11099  11142  11154M 11176M 11207M
             11212  11227M 11263M 11330  11359M 11375M 11391M 11407M 11423M 11439M 11455M 11471M 11487M 11503M 11519M
             11535M 11561M 11591  11625M 11625  11652M 11672M 11698M 11720M 11751M 11782M 11813M 11818  11833M 11875M
             11916  11959M 12017M 12043  12102M 12147M 12191M 12241M 12267  12315M 12377M 12403  12466M 12542  12648M
             12696M 12738M 12771  12796  12837M 12856M 12899M 12940M 12955  12978M 13015M 13037M 13056M 13075M 13091M
             13151M 13232  13323M 13359M 13408M 13449M 13483  13508  13562M 13581M 13658M 13663M 13663  13681M 13700M
             13752M 13774M 13793M 13860M 13879M 13936M 13966  14066M 14115M 14150M 14224  14274M 14274  14283M 14332
             14368M 14370M 14370  14402M 14403M 14406M 14466M 14467M 14470M 14512M 14514M 14514  14548M 14567M 14630M
             14649M 14665M 14707M 14726M 14792M 14822  14921M 14969M 15004M 15037  15062  15116M 15135M 15186M 15204M
             15223M 15286M 15305M 15362M 15393  15492M 15540M 15575M 15608  15633  15668M 15677M 15677  15689M 15708M
             15767M 15786M 15843M 15873  15972M 16020M 16055M 16088  16114  16169M 16188M 16239M 16258M 16277M 16341M
             16360M 16417M 16490  16526M 16557M 16562  16577M 16615M 16654  16757M 16840M 16875M 16926  16961  16985M
             17004M 17020M 17041M 17089M 17132M 17175M 17218M 17248M 17282M 17325M 17344M 17365M 17384M 17401M 17422M
             17452M 17469M 17502M 17514M 17549M 17566M 17584M 17597M 17628M 17640M 17714M 17764  17799  17824M 17850M
             17866M 17899M 17915M 17933M 17993M 18024  18108M 18152M 18195M 18230M 18263  18289  18371M 18390M 18447M
             18483  18567M 18615M 18666M 18701M 18734  18760  18807M 18843M 18923M 18942M 18999M 19030  19114M 19171M
             19206M 19239  19265  19412M 19431M 19488M 19533  19582M 19619M 19638M 19654M 19672M 19709M 19727M 19748M
1         (MONI2170) (12:00) (20JUN02) General Purpose Register Cross Reference                                             Page  125
             19787M 19804M 19825M 19885M 19916  20000M 20044M 20087M 20122M 20155  20181  20263M 20282M 20339M 20370
             20454M 20498M 20541M 20576M 20609  20635  20717M 20736M 20793M 20824  20908M 20952M 20995M 21030M 21063
             21089  21171M 21190M 21247M 21278  21332M 21369M 21399  21453M 21490M 21516  21570M 21607M 21738  21774
             21780M 21802M 21844M 21868M 21896M 21938M 21980  22025M 22051  22097M 22123  22217M 22243  22295M 22329
             22381M 22409M 22488  22524M 22566  22571M 22587M 22589  22617M 22623M 22650M 22708  22744  22812M 22814N
             22815  22843M 22867M 22888M 22906M 22980M 23068M 23070  23187M 23197  23214M 23216N 23217  23221M 23222
             23225  23231  23233M 23233  23234M 23236M 23237M 23237  23240M 23240  23241  23242M 23282M 23347U 23447U
             23521  23570M 23614  23645M 23645  23696M 23756M 23792M 23812M 23814  23836M 23883  23952M 23982M 24018
             24121M 24157  24182  24187M 24189  24215M 24215  24216M 24224M 24234U 24247U 24267M 24268  24358M 24421
             24447  24493M 24503U 24516U 24540M 24586  24643  24689M 24752  24776U 24852  24885M 24888M 24910M 24912M
             24935U
     2(2)     1002U  8960M  8961M  8962   8969M  8970   9158M  9182   9208   9374M  9383   9506M  9515M  9515   9804
             10448M 10503  10552M 10574M 10577M 10582M 10631M 10664  10995M 11099  11263M 11330  11561M 11591  11875M
             11916  12017M 12043  12241M 12267  12377M 12403  12466M 12542  12738M 12771  13151M 13232  13449M 13483
             13936M 13966  14150M 14224  14361M 14408  14472  14792M 14822  15004M 15037  15362M 15393  15575M 15608
             15843M 15873  16055M 16088  16417M 16490  16615M 16654  16875M 16926  17396M 17401  17714M 17764  17867M
             17867  17993M 18024  18230M 18263  18331M 18447M 18483  18701M 18734  18827M 18879M 18999M 19030  19206M
             19239  19488M 19533  19885M 19916  20122M 20155  20223M 20339M 20370  20576M 20609  20677M 20793M 20824
             21030M 21063  21131M 21247M 21278  21369M 21399  21490M 21516  21607M 21738  21938M 21980  22025M 22051
             22097M 22123  22178M 22181M 22183  22217M 22243  22295M 22329  22409M 22488  22650M 22708  22817M 22906
             23142M 23282M 23521  23570M 23614  23836M 23883  23982M 24018  24121M 24157  24358M 24421  24480M 24483
             24488M 24540M 24586  24689M 24752  24912M
     3(3)      998U  9804   9965M 10189M 10189  10190M 10191M 10196  10448M 10503  10553M 10556  10568M 10573  10576
             10577M 10631M 10664  10776M 10788  10795M 10807  10873  10887  10995M 11099  11263M 11330  11561M 11591
             11875M 11916  12017M 12043  12241M 12267  12296M 12305M 12305  12351  12377M 12403  12466M 12542  12738M
             12771  12930M 12931  13151M 13232  13449M 13483  13936M 13966  14150M 14224  14362M 14409  14473  14792M
             14822  15004M 15037  15362M 15393  15575M 15608  15843M 15873  16055M 16088  16417M 16490  16615M 16654
             16875M 16926  17561M 17566  17714M 17764  17868M 17868  17993M 18024  18230M 18263  18335M 18335  18447M
             18483  18701M 18734  18831M 18831  18883M 18883  18999M 19030  19206M 19239  19297M 19302M 19314  19320M
             19321M 19335U 19371  19386U 19488M 19533  19578U 19654  19867U 19885M 19916  20122M 20155  20227M 20227
             20339M 20370  20576M 20609  20681M 20681  20793M 20824  21030M 21063  21135M 21135  21247M 21278  21369M
             21399  21490M 21516  21607M 21738  21938M 21980  22025M 22051  22097M 22123  22217M 22243  22295M 22329
             22409M 22488  22650M 22708  23282M 23521  23570M 23614  23836M 23883  23982M 24018  24121M 24157  24358M
             24421  24481M 24482M 24483M 24488M 24540M 24586  24689M 24752  24912M
     4(4)      994U  9804  10448M 10503  10575M 10577M 10631M 10664  10774M 10868  10886  10995M 11099  11263M 11330
             11561M 11591  11875M 11916  12017M 12043  12241M 12267  12377M 12403  12466M 12542  12738M 12771  13151M
             13232  13449M 13483  13936M 13966  14150M 14224  14792M 14822  15004M 15037  15362M 15393  15575M 15608
             15843M 15873  16055M 16088  16417M 16490  16615M 16654  16875M 16926  17714M 17764  17993M 18024  18230M
             18263  18339M 18339  18447M 18483  18701M 18734  18835M 18835  18887M 18887  18999M 19030  19206M 19239
             19488M 19533  19721M 19760M 19760N 19837M 19837N 19885M 19916  20122M 20155  20231M 20231  20339M 20370
             20576M 20609  20685M 20685  20793M 20824  21030M 21063  21139M 21139  21247M 21278  21369M 21399  21490M
             21516  21607M 21738  21938M 21980  22025M 22051  22097M 22123  22217M 22243  22295M 22329  22409M 22488
             22650M 22708  23282M 23521  23570M 23614  23836M 23883  23982M 24018  24121M 24157  24358M 24421  24488M
             24540M 24586  24689M 24752  24912M
     5(5)      990U  8842M  9420M  9421M  9430M  9430   9445U  9470   9482U  9804  10448M 10503  10576M 10577M 10631M
             10664  10716M 10716  10717M 10735U 10838  10925  10977U 10995M 11099  11263M 11330  11561M 11591  11875M
             11916  12017M 12043  12241M 12267  12377M 12403  12466M 12542  12738M 12771  12912M 12922U 12938U 13151M
             13232  13449M 13483  13936M 13966  14150M 14224  14792M 14822  15004M 15037  15362M 15393  15575M 15608
             15843M 15873  16055M 16088  16417M 16490  16615M 16654  16875M 16926  17714M 17764  17993M 18024  18230M
             18263  18447M 18483  18701M 18734  18999M 19030  19206M 19239  19488M 19533  19722M 19761M 19799M 19838M
             19885M 19916  20122M 20155  20339M 20370  20576M 20609  20793M 20824  21030M 21063  21247M 21278  21369M
             21399  21490M 21516  21607M 21738  21938M 21980  22025M 22051  22097M 22123  22217M 22243  22295M 22329
             22409M 22488  22650M 22708  23282M 23521  23570M 23614  23836M 23883  23982M 24018  24121M 24157  24182M
             24358M 24421  24487M 24487  24488M 24540M 24586  24689M 24752  24912M
     6(6)      986U  8841M  9002   9075M  9086   9122   9385M  9395U  9492U  9804  10448M 10503  10631M 10664  10691M
             10701U 10982U 10995M 11099  11263M 11330  11561M 11591  11875M 11916  12017M 12043  12241M 12267  12377M
             12403  12466M 12542  12738M 12771  12796M 12806U 13138U 13151M 13232  13449M 13483  13936M 13966  14150M
             14224  14409M 14473M 14792M 14822  15004M 15037  15362M 15393  15575M 15608  15843M 15873  16055M 16088
             16417M 16490  16615M 16654  16875M 16926  17714M 17764  17993M 18024  18230M 18263  18447M 18483  18701M
1         (MONI2170) (12:00) (20JUN02) General Purpose Register Cross Reference                                             Page  126
             18734  18999M 19030  19206M 19239  19488M 19533  19885M 19916  20122M 20155  20339M 20370  20576M 20609
             20793M 20824  21030M 21063  21247M 21278  21369M 21399  21490M 21516  21607M 21738  21938M 21980  22025M
             22051  22097M 22123  22217M 22243  22295M 22329  22409M 22488  22650M 22708  22775M 22785U 22814  23068
             23216  23221  23264U 23282M 23521  23570M 23614  23836M 23883  23982M 24018  24121M 24157  24358M 24421
             24447M 24457U 24527U 24540M 24586  24643M 24651U 24666M 24674U 24677U 24689M 24732U 24752  24795M 24796
             24819U 24834M 24835M 24835  24874M 24874  24912M 24919U
     7(7)      982U  8818M  8828U  9553U  9604M  9614U  9759U  9804   9809M  9820U 10440U 10448M 10503  10509M 10520U
             10623U 10631M 10664  10669M 10680U 10987U 10995M 11099  11105M 11116U 11255U 11263M 11330  11335M 11346U
             11553U 11561M 11591  11596M 11607U 11867U 11875M 11916  11921M 11932U 12009U 12017M 12043  12048M 12059U
             12233U 12241M 12267  12272M 12283U 12369U 12377M 12403  12408M 12419U 12458U 12466M 12542  12547M 12558U
             12730U 12738M 12771  12776M 12787U 13143U 13151M 13232  13238M 13249U 13441U 13449M 13483  13488M 13499U
             13928U 13936M 13966  13971M 13982U 14142U 14150M 14224  14230M 14241U 14784U 14792M 14822  14827M 14838U
             14996U 15004M 15037  15042M 15053U 15354U 15362M 15393  15398M 15409U 15567U 15575M 15608  15613M 15624U
             15835U 15843M 15873  15878M 15889U 16047U 16055M 16088  16093M 16104U 16409U 16417M 16490  16495M 16506U
             16607U 16615M 16654  16659M 16670U 16867U 16875M 16926  16932M 16943U 17706U 17714M 17764  17770M 17781U
             17985U 17993M 18024  18029M 18040U 18222U 18230M 18263  18268M 18279U 18439U 18447M 18483  18488M 18499U
             18693U 18701M 18734  18739M 18750U 18991U 18999M 19030  19035M 19046U 19198U 19206M 19239  19244M 19255U
             19480U 19488M 19533  19539M 19550U 19877U 19885M 19916  19921M 19932U 20114U 20122M 20155  20160M 20171U
             20331U 20339M 20370  20375M 20386U 20568U 20576M 20609  20614M 20625U 20785U 20793M 20824  20829M 20840U
             21022U 21030M 21063  21068M 21079U 21239U 21247M 21278  21283M 21294U 21361U 21369M 21399  21404M 21415U
             21482U 21490M 21516  21521M 21532U 21599U 21607M 21738  21744M 21755U 21930U 21938M 21980  21985M 21996U
             22017U 22025M 22051  22056M 22067U 22089U 22097M 22123  22128M 22139U 22209U 22217M 22243  22248M 22259U
             22287U 22295M 22329  22334M 22345U 22401U 22409M 22488  22494M 22505U 22642U 22650M 22708  22714M 22725U
             23274U 23282M 23521  23526M 23537U 23562U 23570M 23614  23619M 23630U 23828U 23836M 23883  23888M 23899U
             23974U 23982M 24018  24023M 24034U 24113U 24121M 24157  24162M 24173U 24350U 24358M 24421  24426M 24437U
             24532U 24540M 24586  24589M 24599U 24689M 24727U 24752  24755M 24765U 24912M 24943U
     8(8)      978U  8840M  8840   9014M  9617M  9804   9805M 10444  10448M 10503  10505M 10534U 10618U 10627  10631M
             10664  10665M 10991  10995M 11099  11101M 11130U 11250U 11259  11263M 11330  11331M 11557  11561M 11591
             11592M 11871  11875M 11916  11917M 12013  12017M 12043  12044M 12237  12241M 12267  12268M 12373  12377M
             12403  12404M 12462  12466M 12542  12543M 12734  12738M 12771  12772M 13147  13151M 13232  13234M 13263U
             13436U 13445  13449M 13483  13484M 13932  13936M 13966  13967M 14146  14150M 14224  14226M 14255U 14779U
             14788  14792M 14822  14823M 15000  15004M 15037  15038M 15358  15362M 15393  15394M 15571  15575M 15608
             15609M 15839  15843M 15873  15874M 16051  16055M 16088  16089M 16413  16417M 16490  16491M 16611  16615M
             16654  16655M 16871  16875M 16926  16928M 16957U 17701U 17710  17714M 17764  17766M 17795U 17980U 17989
             17993M 18024  18025M 18226  18230M 18263  18264M 18443  18447M 18483  18484M 18697  18701M 18734  18735M
             18995  18999M 19030  19031M 19202  19206M 19239  19240M 19484  19488M 19533  19535M 19564U 19872U 19881
             19885M 19916  19917M 20118  20122M 20155  20156M 20335  20339M 20370  20371M 20572  20576M 20609  20610M
             20789  20793M 20824  20825M 21026  21030M 21063  21064M 21243  21247M 21278  21279M 21365  21369M 21399
             21400M 21486  21490M 21516  21517M 21603  21607M 21738  21740M 21769U 21925U 21934  21938M 21980  21981M
             22021  22025M 22051  22052M 22093  22097M 22123  22124M 22213  22217M 22243  22244M 22291  22295M 22329
             22330M 22405  22409M 22488  22490M 22519U 22637U 22646  22650M 22708  22710M 22739U 23197  23269U 23278
             23282M 23521  23522M 23566  23570M 23614  23615M 23814N 23832  23836M 23883  23884M 23978  23982M 24018
             24019M 24117  24121M 24157  24158M 24354  24358M 24421  24422M 24536  24540M 24586  24689M 24752  24912M
     9(9)      974U  9804  10448M 10503  10631M 10664  10995M 11099  11263M 11330  11561M 11591  11875M 11916  12017M
             12043  12241M 12267  12377M 12403  12466M 12542  12738M 12771  13151M 13232  13449M 13483  13936M 13966
             14150M 14224  14792M 14822  15004M 15037  15362M 15393  15575M 15608  15843M 15873  16055M 16088  16417M
             16490  16615M 16654  16875M 16926  17714M 17764  17993M 18024  18230M 18263  18447M 18483  18701M 18734
             18999M 19030  19206M 19239  19488M 19533  19885M 19916  20122M 20155  20339M 20370  20576M 20609  20793M
             20824  21030M 21063  21247M 21278  21369M 21399  21490M 21516  21607M 21738  21938M 21980  22025M 22051
             22097M 22123  22217M 22243  22295M 22329  22409M 22488  22650M 22708  23282M 23521  23570M 23614  23836M
             23883  23982M 24018  24121M 24157  24358M 24421  24540M 24586  24689M 24752  24912M
    10(A)      970U  8834M  8834   9804   9830M  9839U  9861M  9862M  9862  10435U 10448M 10503  10546U 10613U 10631M
             10664  10995M 11099  11263M 11330  11561M 11591  11761M 11770U 11862U 11875M 11916  11993U 12004U 12017M
             12043  12080U 12228U 12241M 12267  12347U 12364U 12377M 12403  12436U 12453U 12466M 12542  12579U 12622M
             12634M 12635M 12635  12648  12725U 12738M 12771  13151M 13232  13286U 13340M 13352M 13353M 13353  13359
             13431U 13449M 13483  13508M 13517U 13923U 13936M 13966  14003U 14047M 14059M 14060M 14060  14066  14137U
             14150M 14224  14332M 14341U 14769U 14792M 14822  14859U 14902M 14914M 14915M 14915  14921  14991U 15004M
             15037  15062M 15071U 15349U 15362M 15393  15430U 15473M 15485M 15486M 15486  15492  15562U 15575M 15608
             15633M 15642U 15830U 15843M 15873  15910U 15953M 15965M 15966M 15966  15972  16042U 16055M 16088  16114M
1         (MONI2170) (12:00) (20JUN02) General Purpose Register Cross Reference                                             Page  127
             16123U 16404U 16417M 16490  16615M 16654  16691U 16738M 16750M 16751M 16751  16757  16862U 16875M 16926
             16961M 16970U 17696U 17714M 17764  17799M 17808U 17975U 17993M 18024  18061U 18217U 18230M 18263  18289M
             18298U 18434U 18447M 18483  18520U 18688U 18701M 18734  18760M 18769U 18986U 18999M 19030  19067U 19193U
             19206M 19239  19265M 19274U 19475U 19488M 19533  19885M 19916  19953U 20109U 20122M 20155  20181M 20190U
             20326U 20339M 20370  20407U 20563U 20576M 20609  20635M 20644U 20780U 20793M 20824  20861U 21017U 21030M
             21063  21089M 21098U 21234U 21247M 21278  21369M 21399  21490M 21516  21607M 21738  21938M 21980  22025M
             22051  22097M 22123  22217M 22243  22295M 22329  22409M 22488  22650M 22708  23282M 23521  23570M 23614
             23836M 23883  23982M 24018  24121M 24157  24189M 24198U 24209  24291  24292  24323  24332  24345U 24358M
             24421  24540M 24586  24653M 24661U 24689M 24718U 24752  24912M
    11(B)      966U  1905B  1906B  7711U  8879M  8889U  8892U  8904   8981   8982   8993U  8996U  9169U  9172U  9211
              9323U  9326U  9794   9798   9804  10448M 10493  10497  10503  10631M 10654  10658  10664  10995M 11089
             11093  11099  11263M 11319  11323  11330  11561M 11581  11585  11591  11875M 11906  11910  11916  12017M
             12033  12037  12043  12241M 12257  12261  12267  12377M 12393  12397  12403  12466M 12532  12536  12542
             12738M 12761  12765  12771  13151M 13222  13226  13232  13449M 13473  13477  13483  13936M 13956  13960
             13966  14150M 14214  14218  14224  14377  14384M 14419  14426M 14792M 14812  14816  14822  15004M 15027
             15031  15037  15362M 15383  15387  15393  15575M 15598  15602  15608  15843M 15863  15867  15873  16055M
             16078  16082  16088  16417M 16480  16484  16490  16615M 16644  16648  16654  16875M 16916  16920  16926
             17714M 17754  17758  17764  17993M 18014  18018  18024  18230M 18253  18257  18263  18447M 18473  18477
             18483  18701M 18724  18728  18734  18999M 19020  19024  19030  19206M 19229  19233  19239  19488M 19523
             19527  19533  19885M 19906  19910  19916  20122M 20145  20149  20155  20339M 20360  20364  20370  20576M
             20599  20603  20609  20793M 20814  20818  20824  21030M 21053  21057  21063  21247M 21268  21272  21278
             21369M 21389  21393  21399  21490M 21506  21510  21516  21607M 21728  21732  21738  21938M 21970  21974
             21980  22025M 22041  22045  22051  22097M 22113  22117  22123  22217M 22233  22237  22243  22295M 22319
             22323  22329  22409M 22478  22482  22488  22650M 22698  22702  22708  23282M 23511  23515  23521  23570M
             23604  23608  23614  23836M 23873  23877  23883  23982M 24008  24012  24018  24121M 24147  24151  24157
             24358M 24411  24415  24421  24540M 24586  24689M 24713U 24752  24796M 24806U 24912M 24924U
    12(C)      962U  7702U  8830M  9185   9795   9804  10448M 10494  10503  10631M 10655  10664  10995M 11090  11099
             11263M 11320  11330  11561M 11582  11591  11875M 11907  11916  12017M 12034  12043  12241M 12258  12267
             12377M 12394  12403  12466M 12533  12542  12738M 12762  12771  13151M 13223  13232  13449M 13474  13483
             13936M 13957  13966  14150M 14215  14224  14377  14381M 14383  14384M 14419  14423M 14425  14426M 14792M
             14813  14822  15004M 15028  15037  15362M 15384  15393  15575M 15599  15608  15843M 15864  15873  16055M
             16079  16088  16417M 16481  16490  16615M 16645  16654  16875M 16917  16926  17714M 17755  17764  17993M
             18015  18024  18230M 18254  18263  18447M 18474  18483  18701M 18725  18734  18999M 19021  19030  19206M
             19230  19239  19488M 19524  19533  19885M 19907  19916  20122M 20146  20155  20339M 20361  20370  20576M
             20600  20609  20793M 20815  20824  21030M 21054  21063  21247M 21269  21278  21369M 21390  21399  21490M
             21507  21516  21607M 21729  21738  21938M 21971  21980  22025M 22042  22051  22097M 22114  22123  22217M
             22234  22243  22295M 22320  22329  22409M 22479  22488  22650M 22699  22708  23282M 23512  23521  23570M
             23605  23614  23836M 23874  23883  23982M 24009  24018  24121M 24148  24157  24358M 24412  24421  24540M
             24586  24642M 24689M 24708U 24752  24781M 24791U 24912M 24929U
    13(D)      958U  8838M  8838   9013M  9014   9075   9076M  9076   9145M  9158   9159M  9159   9329M  9616M  9617
              9794   9798M  9801   9804   9805   9806M  9806  10444M 10448  10450  10493  10497M 10500  10503  10505
             10506M 10506  10627M 10631  10633  10654  10658M 10661  10664  10665  10666M 10666  10774  10775M 10775
             10991M 10995  10997  11089  11093M 11096  11099  11101  11102M 11102  11259M 11263  11265  11319  11323M
             11327  11330  11331  11332M 11332  11557M 11561  11563  11581  11585M 11588  11591  11592  11593M 11593
             11619M 11619N 11853M 11871M 11875  11877  11906  11910M 11913  11916  11917  11918M 11918  12013M 12017
             12019  12033  12037M 12040  12043  12044  12045M 12045  12071M 12071N 12219M 12237M 12241  12243  12257
             12261M 12264  12267  12268  12269M 12269  12295M 12295N 12355M 12373M 12377  12379  12393  12397M 12400
             12403  12404  12405M 12405  12462M 12466  12468  12532  12536M 12539  12542  12543  12544M 12544  12570M
             12570N 12716M 12734M 12738  12740  12761  12765M 12768  12771  12772  12773M 12773  13147M 13151  13153
             13222  13226M 13229  13232  13234  13235M 13235  13277M 13277N 13422M 13445M 13449  13451  13473  13477M
             13480  13483  13484  13485M 13485  13932M 13936  13938  13956  13960M 13963  13966  13967  13968M 13968
             13994M 13994N 14128M 14146M 14150  14152  14214  14218M 14221  14224  14226  14227M 14227  14376  14377
             14377  14379M 14380B 14381  14382M 14384M 14384  14418  14419  14419  14421M 14422B 14423  14424M 14426M
             14426  14788M 14792  14794  14812  14816M 14819  14822  14823  14824M 14824  14850M 14850N 14982M 15000M
             15004  15006  15027  15031M 15034  15037  15038  15039M 15039  15358M 15362  15364  15383  15387M 15390
             15393  15394  15395M 15395  15421M 15421N 15553M 15571M 15575  15577  15598  15602M 15605  15608  15609
             15610M 15610  15839M 15843  15845  15863  15867M 15870  15873  15874  15875M 15875  15901M 15901N 16033M
             16051M 16055  16057  16078  16082M 16085  16088  16089  16090M 16090  16413M 16417  16419  16480  16484M
             16487  16490  16491  16492M 16492  16518M 16518N 16598M 16611M 16615  16617  16644  16648M 16651  16654
1         (MONI2170) (12:00) (20JUN02) General Purpose Register Cross Reference                                             Page  128
             16655  16656M 16656  16682M 16682N 16853M 16871M 16875  16877  16916  16920M 16923  16926  16928  16929M
             16929  17710M 17714  17716  17754  17758M 17761  17764  17766  17767M 17767  17989M 17993  17995  18014
             18018M 18021  18024  18025  18026M 18026  18052M 18052N 18208M 18226M 18230  18232  18253  18257M 18260
             18263  18264  18265M 18265  18443M 18447  18449  18473  18477M 18480  18483  18484  18485M 18485  18511M
             18511N 18679M 18697M 18701  18703  18724  18728M 18731  18734  18735  18736M 18736  18995M 18999  19001
             19020  19024M 19027  19030  19031  19032M 19032  19058M 19058N 19184M 19202M 19206  19208  19229  19233M
             19236  19239  19240  19241M 19241  19484M 19488  19490  19523  19527M 19530  19533  19535  19536M 19536
             19881M 19885  19887  19906  19910M 19913  19916  19917  19918M 19918  19944M 19944N 20100M 20118M 20122
             20124  20145  20149M 20152  20155  20156  20157M 20157  20335M 20339  20341  20360  20364M 20367  20370
             20371  20372M 20372  20398M 20398N 20554M 20572M 20576  20578  20599  20603M 20606  20609  20610  20611M
             20611  20789M 20793  20795  20814  20818M 20821  20824  20825  20826M 20826  20852M 20852N 21008M 21026M
             21030  21032  21053  21057M 21060  21063  21064  21065M 21065  21243M 21247  21249  21268  21272M 21275
             21278  21279  21280M 21280  21306M 21306N 21352M 21365M 21369  21371  21389  21393M 21396  21399  21400
             21401M 21401  21427M 21427N 21473M 21486M 21490  21492  21506  21510M 21513  21516  21517  21518M 21518
             21544M 21544N 21590M 21603M 21607  21609  21728  21732M 21735  21738  21740  21741M 21741  21934M 21938
             21940  21970  21974M 21977  21980  21981  21982M 21982  22021M 22025  22027  22041  22045M 22048  22051
             22052  22053M 22053  22093M 22097  22099  22113  22117M 22120  22123  22124  22125M 22125  22213M 22217
             22219  22233  22237M 22240  22243  22244  22245M 22245  22291M 22295  22297  22319  22323M 22326  22329
             22330  22331M 22331  22405M 22409  22411  22478  22482M 22485  22488  22490  22491M 22491  22566  22567M
             22567  22586M 22587  22589  22590M 22590  22616M 22617  22646M 22650  22652  22698  22702M 22705  22708
             22710  22711M 22711  23278M 23282  23284  23511  23515M 23518  23521  23522  23523M 23523  23566M 23570
             23572  23604  23608M 23611  23614  23615  23616M 23616  23832M 23836  23838  23873  23877M 23880  23883
             23884  23885M 23885  23978M 23982  23984  24008  24012M 24015  24018  24019  24020M 24020  24117M 24121
             24123  24147  24151M 24154  24157  24158  24159M 24159  24354M 24358  24360  24411  24415M 24418  24421
             24422  24423M 24423  24536M 24540  24542
    14(E)      954U  8841   8904M  8911M  9020M  9021M  9021B  9201M  9202M  9202B  9226M  9227M  9227B  9243M  9244M
              9244B  9260M  9261M  9261B  9277M  9278M  9278B  9294M  9295M  9295B  9311M  9312M  9312B  9340M  9341M
              9341B  9349M  9350M  9350B  9359M  9360M  9360B  9365M  9366M  9366B  9525M  9526M  9526B  9536M  9537M
              9537B  9543M  9544B  9667M  9668M  9668B  9670M  9671B  9713M  9714M  9714B  9739M  9740M  9740B  9748M
              9749B  9794   9796M  9798M  9801   9917M  9918M  9918B  9968M  9969M  9969B 10069M 10070M 10070B 10086M
             10087M 10087B 10110M 10111M 10111B 10166M 10167M 10167B 10183M 10184M 10184B 10214M 10215M 10215B 10238M
             10239M 10239B 10281M 10282M 10282B 10298M 10299M 10299B 10322M 10323M 10323B 10408M 10409M 10409B 10450M
             10453B 10493  10495M 10497M 10500  10586M 10587M 10587B 10595M 10596M 10596B 10633M 10636B 10654  10656M
             10658M 10661  10750M 10751M 10751B 10858M 10859M 10859B 10884M 10885M 10885B 10891M 10892M 10892B 10944M
             10945M 10945B 10953M 10954M 10954B 10968M 10969M 10969B 10997M 11000B 11089  11091M 11093M 11096  11169M
             11170M 11170B 11186M 11187M 11187B 11221M 11222M 11222B 11237M 11238M 11238B 11265M 11268B 11319  11321M
             11323M 11324M 11327  11369M 11370M 11370B 11385M 11386M 11386B 11401M 11402M 11402B 11417M 11418M 11418B
             11433M 11434M 11434B 11449M 11450M 11450B 11465M 11466M 11466B 11481M 11482M 11482B 11497M 11498M 11498B
             11513M 11514M 11514B 11529M 11530M 11530B 11545M 11546M 11546B 11563M 11566B 11581  11583M 11585M 11588
             11635M 11636M 11636B 11662M 11663M 11663B 11675M 11676M 11676B 11714M 11715M 11715B 11730M 11731M 11731B
             11754M 11755M 11755B 11792M 11793M 11793B 11827M 11828M 11828B 11843M 11844M 11844B 11877M 11880B 11906
             11908M 11910M 11913  11969M 11970M 11970B 12019M 12022B 12033  12035M 12037M 12040  12112M 12113M 12113B
             12157M 12158M 12158B 12174M 12175M 12175B 12201M 12202M 12202B 12243M 12246B 12257  12259M 12261M 12264
             12325M 12326M 12326B 12379M 12382B 12393  12395M 12397M 12400  12468M 12471B 12532  12534M 12536M 12539
             12588M 12589M 12589B 12651M 12652M 12652B 12677M 12678M 12678B 12706M 12707M 12707B 12740M 12743B 12761
             12763M 12765M 12768  12851M 12852M 12852B 12866M 12867M 12867B 12888M 12889M 12889B 12902M 12903M 12903B
             12992M 12993M 12993B 13025M 13026M 13026B 13051M 13052M 13052B 13066M 13067M 13067B 13085M 13086M 13086B
             13107M 13108M 13108B 13129M 13130M 13130B 13153M 13156B 13222  13224M 13226M 13229  13295M 13296M 13296B
             13363M 13364M 13364B 13389M 13390M 13390B 13412M 13413M 13413B 13451M 13454B 13473  13475M 13477M 13480
             13576M 13577M 13577B 13591M 13592M 13592B 13613M 13614M 13614B 13695M 13696M 13696B 13710M 13711M 13711B
             13732M 13733M 13733B 13762M 13763M 13763B 13788M 13789M 13789B 13803M 13804M 13804B 13825M 13826M 13826B
             13874M 13875M 13875B 13889M 13890M 13890B 13911M 13912M 13912B 13938M 13941B 13956  13958M 13960M 13963
             14012M 14013M 14013B 14069M 14070M 14070B 14096M 14097M 14097B 14118M 14119M 14119B 14152M 14155B 14214
             14216M 14218M 14221  14293M 14294M 14294B 14315M 14316M 14316B 14377  14378M 14379N 14380M 14384M 14413M
             14419  14420M 14421N 14422M 14426M 14477M 14562M 14563M 14563B 14577M 14578M 14578B 14599M 14600M 14600B
             14644M 14645M 14645B 14659M 14660M 14660B 14675M 14676M 14676B 14721M 14722M 14722B 14736M 14737M 14737B
             14758M 14759M 14759B 14794M 14797B 14812  14814M 14816M 14819  14868M 14869M 14869B 14924M 14925M 14925B
             14950M 14951M 14951B 14972M 14973M 14973B 15006M 15009B 15027  15029M 15031M 15034  15130M 15131M 15131B
             15145M 15146M 15146B 15167M 15168M 15168B 15218M 15219M 15219B 15233M 15234M 15234B 15255M 15256M 15256B
1         (MONI2170) (12:00) (20JUN02) General Purpose Register Cross Reference                                             Page  129
             15300M 15301M 15301B 15315M 15316M 15316B 15337M 15338M 15338B 15364M 15367B 15383  15385M 15387M 15390
             15439M 15440M 15440B 15495M 15496M 15496B 15521M 15522M 15522B 15543M 15544M 15544B 15577M 15580B 15598
             15600M 15602M 15605  15703M 15704M 15704B 15718M 15719M 15719B 15740M 15741M 15741B 15781M 15782M 15782B
             15796M 15797M 15797B 15818M 15819M 15819B 15845M 15848B 15863  15865M 15867M 15870  15919M 15920M 15920B
             15975M 15976M 15976B 16001M 16002M 16002B 16023M 16024M 16024B 16057M 16060B 16078  16080M 16082M 16085
             16183M 16184M 16184B 16198M 16199M 16199B 16220M 16221M 16221B 16272M 16273M 16273B 16287M 16288M 16288B
             16309M 16310M 16310B 16355M 16356M 16356B 16370M 16371M 16371B 16392M 16393M 16393B 16419M 16422B 16480
             16482M 16484M 16487  16536M 16537M 16537B 16571M 16572M 16572B 16587M 16588M 16588B 16617M 16620B 16644
             16646M 16648M 16651  16700M 16701M 16701B 16736M 16737M 16737B 16760M 16761M 16761B 16800M 16801M 16801B
             16821M 16822M 16822B 16843M 16844M 16844B 16877M 16880B 16916  16918M 16920M 16923  16999M 17000M 17000B
             17014M 17015M 17015B 17036M 17037M 17037B 17051M 17052M 17052B 17099M 17100M 17100B 17142M 17143M 17143B
             17185M 17186M 17186B 17228M 17229M 17229B 17258M 17259M 17259B 17292M 17293M 17293B 17339M 17340M 17340B
             17354M 17355M 17355B 17379M 17380M 17380B 17394M 17395M 17395B 17417M 17418M 17418B 17432M 17433M 17433B
             17462M 17463M 17463B 17473M 17474M 17474B 17497M 17498M 17498B 17512M 17513M 17513B 17518M 17519M 17519B
             17542M 17543M 17543B 17559M 17560M 17560B 17579M 17580M 17580B 17594M 17595M 17595B 17601M 17602M 17602B
             17622M 17623M 17623B 17638M 17639M 17639B 17644M 17645M 17645B 17665M 17666M 17666B 17687M 17688M 17688B
             17716M 17719B 17754  17756M 17758M 17761  17838M 17839M 17839B 17864M 17865M 17865B 17872M 17873M 17873B
             17894M 17895M 17895B 17909M 17910M 17910B 17928M 17929M 17929B 17943M 17944M 17944B 17966M 17967M 17967B
             17995M 17998B 18014  18016M 18018M 18021  18070M 18071M 18071B 18118M 18119M 18119B 18155M 18156M 18156B
             18176M 18177M 18177B 18198M 18199M 18199B 18232M 18235B 18253  18255M 18257M 18260  18329M 18330M 18330B
             18343M 18344M 18344B 18385M 18386M 18386B 18400M 18401M 18401B 18422M 18423M 18423B 18449M 18452B 18473
             18475M 18477M 18480  18529M 18530M 18530B 18577M 18578M 18578B 18625M 18626M 18626B 18647M 18648M 18648B
             18669M 18670M 18670B 18703M 18706B 18724  18726M 18728M 18731  18825M 18826M 18826B 18839M 18840M 18840B
             18877M 18878M 18878B 18891M 18892M 18892B 18937M 18938M 18938B 18952M 18953M 18953B 18974M 18975M 18975B
             19001M 19004B 19020  19022M 19024M 19027  19076M 19077M 19077B 19124M 19125M 19125B 19152M 19153M 19153B
             19174M 19175M 19175B 19208M 19211B 19229  19231M 19233M 19236  19300M 19301M 19301B 19426M 19427M 19427B
             19441M 19442M 19442B 19463M 19464M 19464B 19490M 19493B 19523  19525M 19527M 19530  19586M 19587M 19587B
             19608M 19609M 19609B 19633M 19634M 19634B 19648M 19649M 19649B 19667M 19668M 19668B 19682M 19683M 19683B
             19704M 19705M 19705B 19719M 19720M 19720B 19743M 19744M 19744B 19758M 19759M 19759B 19782M 19783M 19783B
             19797M 19798M 19798B 19820M 19821M 19821B 19835M 19836M 19836B 19859M 19860M 19860B 19887M 19890B 19906
             19908M 19910M 19913  19962M 19963M 19963B 20010M 20011M 20011B 20047M 20048M 20048B 20068M 20069M 20069B
             20090M 20091M 20091B 20124M 20127B 20145  20147M 20149M 20152  20221M 20222M 20222B 20235M 20236M 20236B
             20277M 20278M 20278B 20292M 20293M 20293B 20314M 20315M 20315B 20341M 20344B 20360  20362M 20364M 20367
             20416M 20417M 20417B 20464M 20465M 20465B 20501M 20502M 20502B 20522M 20523M 20523B 20544M 20545M 20545B
             20578M 20581B 20599  20601M 20603M 20606  20675M 20676M 20676B 20689M 20690M 20690B 20731M 20732M 20732B
             20746M 20747M 20747B 20768M 20769M 20769B 20795M 20798B 20814  20816M 20818M 20821  20870M 20871M 20871B
             20918M 20919M 20919B 20955M 20956M 20956B 20976M 20977M 20977B 20998M 20999M 20999B 21032M 21035B 21053
             21055M 21057M 21060  21129M 21130M 21130B 21143M 21144M 21144B 21185M 21186M 21186B 21200M 21201M 21201B
             21222M 21223M 21223B 21249M 21252B 21268  21270M 21272M 21275  21326M 21327M 21327B 21342M 21343M 21343B
             21371M 21374B 21389  21391M 21393M 21396  21447M 21448M 21448B 21463M 21464M 21464B 21492M 21495B 21506
             21508M 21510M 21513  21565M 21566M 21566B 21580M 21581M 21581B 21609M 21612B 21728  21730M 21732M 21735
             21792M 21793M 21793B 21818M 21819M 21819B 21859M 21860M 21860B 21878M 21879M 21879B 21908M 21909M 21909B
             21940M 21943B 21970  21972M 21974M 21977  22027M 22030B 22041  22043M 22045M 22048  22099M 22102B 22113
             22115M 22117M 22120  22219M 22222B 22233  22235M 22237M 22240  22297M 22300B 22319  22321M 22323M 22326
             22375M 22376M 22376B 22393M 22394M 22394B 22411M 22414B 22478  22480M 22482M 22485  22537M 22538M 22538B
             22562M 22563M 22563B 22583M 22584M 22584B 22613M 22614M 22614B 22621M 22622M 22622B 22652M 22655B 22698
             22700M 22702M 22705  22808M 22809M 22809B 22820M 22821M 22821B 22855M 22856M 22856B 22883M 22884M 22884B
             22900M 22901M 22901B 22921M 22922M 22922B 22945M 22946M 22946B 22992M 22993M 22993B 23016M 23017M 23017B
             23040M 23041M 23041B 23064M 23065M 23065B 23071M 23074M 23075M 23075B 23194M 23195M 23195B 23210M 23211M
             23211B 23226M 23227M 23227  23232M 23232  23235M 23236  23247M 23248M 23248B 23284M 23287B 23435B 23511
             23513M 23515M 23518  23572M 23575B 23604  23606M 23608M 23611  23655M 23656M 23656B 23690M 23691M 23691B
             23706M 23707M 23707B 23750M 23751M 23751B 23766M 23767M 23767B 23802M 23803M 23803B 23838M 23841B 23873
             23875M 23877M 23880  23910M 23911M 23911B 23946M 23947M 23947B 23962M 23963M 23963B 23984M 23987B 24008
             24010M 24012M 24015  24123M 24126B 24147  24149M 24151M 24154  24209M 24216M 24360M 24363B 24411  24413M
             24415M 24418  24542M 24545B 24586  24689M 24694B 24752  24912M 24913B
    15(F)      950U  2367M  2367   8909M  8911M  8922M  8922   8923   8924   8925   9090M  9090   9126M  9126   9182M
              9183   9185   9191   9208M  9209   9211   9216   9233M  9250M  9267M  9284M  9301M  9346M  9356M  9361M
              9664M  9669M  9794   9795M  9796B  9798M 10066M 10083M 10107M 10163M 10180M 10211M 10235M 10278M 10295M
             10319M 10359M 10360M 10361  10402M 10403M 10404  10452M 10452  10493  10494M 10495B 10497M 10583M 10592M
1         (MONI2170) (12:00) (20JUN02) General Purpose Register Cross Reference                                             Page  130
             10635M 10635  10654  10655M 10656B 10658M 10742M 10807M 10816M 10818  10855M 10881M 10888M 10941M 10950M
             10965M 10999M 10999  11089  11090M 11091B 11093M 11144  11145  11166M 11183M 11218M 11234M 11267M 11267
             11319  11320M 11321B 11323M 11324  11366M 11382M 11398M 11414M 11430M 11446M 11462M 11478M 11494M 11510M
             11526M 11542M 11565M 11565  11581  11582M 11583B 11585M 11617  11632M 11659M 11711M 11727M 11761  11789M
             11824M 11840M 11854M 11879M 11879  11906  11907M 11908B 11910M 11966M 12021M 12021  12033  12034M 12035B
             12037M 12069  12109M 12154M 12171M 12198M 12220M 12245M 12245  12257  12258M 12259B 12261M 12293  12322M
             12356M 12381M 12381  12393  12394M 12395B 12397M 12470M 12470  12532  12533M 12534B 12536M 12568  12687M
             12687  12696  12717M 12742M 12742  12761  12762M 12763B 12765M 12848M 12863M 12885M 12907M 12908M 12909
             12910  12948M 12949  12950  12951  12952  12959M 12960M 12961  12989M 13022M 13048M 13063M 13082M 13104M
             13126M 13155M 13155  13222  13223M 13224B 13226M 13275  13399M 13399  13408  13423M 13453M 13453  13473
             13474M 13475B 13477M 13573M 13588M 13610M 13692M 13707M 13729M 13759M 13785M 13800M 13822M 13871M 13886M
             13908M 13940M 13940  13956  13957M 13958B 13960M 13992  14106M 14106  14115  14129M 14154M 14154  14214
             14215M 14216B 14218M 14290M 14312M 14376M 14382  14383M 14393M 14393  14410M 14411M 14411  14412M 14412
             14413B 14418M 14424  14425M 14457  14474M 14475M 14475  14476M 14476  14477B 14559M 14574M 14596M 14641M
             14656M 14672M 14718M 14733M 14755M 14796M 14796  14812  14813M 14814B 14816M 14848  14960M 14960  14969
             14983M 15008M 15008  15027  15028M 15029B 15031M 15127M 15142M 15164M 15215M 15230M 15252M 15297M 15312M
             15334M 15366M 15366  15383  15384M 15385B 15387M 15419  15531M 15531  15540  15554M 15579M 15579  15598
             15599M 15600B 15602M 15700M 15715M 15737M 15778M 15793M 15815M 15847M 15847  15863  15864M 15865B 15867M
             15899  16011M 16011  16020  16034M 16059M 16059  16078  16079M 16080B 16082M 16180M 16195M 16217M 16269M
             16284M 16306M 16352M 16367M 16389M 16421M 16421  16480  16481M 16482B 16484M 16516  16533M 16568M 16584M
             16599M 16619M 16619  16644  16645M 16646B 16648M 16680  16831M 16831  16840  16854M 16879M 16879  16916
             16917M 16918B 16920M 16996M 17011M 17033M 17048M 17096M 17139M 17182M 17225M 17255M 17289M 17336M 17351M
             17376M 17391M 17414M 17429M 17459M 17470M 17494M 17509M 17515M 17539M 17556M 17576M 17591M 17598M 17619M
             17635M 17641M 17662M 17684M 17718M 17718  17754  17755M 17756B 17758M 17835M 17861M 17869M 17891M 17906M
             17925M 17940M 17963M 17997M 17997  18014  18015M 18016B 18018M 18050  18115M 18186M 18186  18195  18209M
             18234M 18234  18253  18254M 18255B 18257M 18326M 18340M 18382M 18397M 18419M 18451M 18451  18473  18474M
             18475B 18477M 18509  18574M 18622M 18657M 18657  18666  18680M 18705M 18705  18724  18725M 18726B 18728M
             18822M 18836M 18874M 18888M 18934M 18949M 18971M 19003M 19003  19020  19021M 19022B 19024M 19056  19121M
             19162M 19162  19171  19185M 19210M 19210  19229  19230M 19231B 19233M 19423M 19438M 19460M 19492M 19492
             19523  19524M 19525B 19527M 19583M 19605M 19630M 19645M 19664M 19679M 19701M 19716M 19740M 19755M 19779M
             19794M 19817M 19832M 19856M 19889M 19889  19906  19907M 19908B 19910M 19942  20007M 20078M 20078  20087
             20101M 20126M 20126  20145  20146M 20147B 20149M 20218M 20232M 20274M 20289M 20311M 20343M 20343  20360
             20361M 20362B 20364M 20396  20461M 20532M 20532  20541  20555M 20580M 20580  20599  20600M 20601B 20603M
             20672M 20686M 20728M 20743M 20765M 20797M 20797  20814  20815M 20816B 20818M 20850  20915M 20986M 20986
             20995  21009M 21034M 21034  21053  21054M 21055B 21057M 21126M 21140M 21182M 21197M 21219M 21251M 21251
             21268  21269M 21270B 21272M 21304  21323M 21339M 21353M 21373M 21373  21389  21390M 21391B 21393M 21425
             21444M 21460M 21474M 21494M 21494  21506  21507M 21508B 21510M 21542  21562M 21577M 21591M 21611M 21611
             21728  21729M 21730B 21732M 21789M 21815M 21856M 21875M 21905M 21942M 21942  21970  21971M 21972B 21974M
             22029M 22029  22041  22042M 22043B 22045M 22101M 22101  22113  22114M 22115B 22117M 22221M 22221  22233
             22234M 22235B 22237M 22299M 22299  22319  22320M 22321B 22323M 22372M 22390M 22413M 22413  22478  22479M
             22480B 22482M 22559M 22580M 22610M 22618M 22654M 22654  22698  22699M 22700B 22702M 22766M 22817  22852M
             22880M 22897M 22918M 22942M 22953M 22989M 23013M 23037M 23048M 23069M 23069  23070M 23071B 23141M 23146M
             23155M 23155  23162  23203M 23203  23224M 23224  23225M 23226  23229  23234  23235  23238  23242  23256M
             23286M 23286  23358U 23442U 23511  23512M 23513B 23515M 23554M 23554  23574M 23574  23604  23605M 23606B
             23608M 23652M 23687M 23703M 23708M 23747M 23763M 23768M 23799M 23804M 23818M 23818  23840M 23840  23873
             23874M 23875B 23877M 23943M 23959M 23986M 23986  24008  24009M 24010B 24012M 24044M 24054U 24069M 24070M
             24070  24108U 24125M 24125  24147  24148M 24149B 24151M 24214M 24216M 24255M 24256M 24257  24258  24261M
             24262  24263M 24264  24277M 24278M 24278  24317U 24330U 24338M 24362M 24362  24411  24412M 24413B 24415M
             24544M 24544  24579U 24586  24689M 24693M 24693  24699U 24752  24912M

1MONITOR  (MONI2170) (12:00) (20JUN02) Diagnostic Cross Reference and Assembler Summary                                     Page  131
-                                                                                            HLASM R4.0  2002/06/20 12.00
0Statements Flagged
0    24317(L2:USING,142)

       1 Statement  Flagged in this Assembly        4 was Highest Severity Code
0HIGH LEVEL ASSEMBLER, 5696-234, RELEASE 4.0, PTF UQ57391
0SYSTEM: OS/390 02.10.00            JOBNAME: WIN#MONI    STEPNAME: ASM        PROCSTEP: ASM
0Datasets Allocated for this Assembly
  Con DDname   Dataset Name                                 Volume  Member
   P1 SYSIN    SYS02171.T120029.RA000.WIN#MONI.SYSIN.H01
   L1 SYSLIB   WYL.GA.MCL.WINGS.MACLIB                      STR211
   L2          WYL.GG.SYS.MACLIB                            STR210
   L3          SYS3.IS.MACLIB                               SYSA03
   L4          SYS3.MACLIB                                  SYSA03
   L5          SYS1.MACLIB                                  OS02AD
   L6          SYS1.MODGEN                                  OS02AD
   L7          SYS4.MACLIB                                  SYSA04
      SYSLIN   WYL.GA.MCL.WINGS.OBJECT                      STR203  MONITOR
      SYSPRINT SYS02171.T120029.RA000.WIN#MONI.PRINT.H01    SCR001
      SYSTERM  GA$MCL.WIN#MONI.JOB05633.D0000103.?

    9452K allocated to Buffer Pool,         5606K would be required for this to be an In-Storage Assembly
    2496 Primary Input Records Read        26608 Library Records Read                  0 Work File Reads
       0 ASMAOPT Records Read               9793 Primary Print Records Written         0 Work File Writes
     357 Punch Records Written                 0 ADATA Records Written
0Assembly Start Time: 12.00.31 Stop Time: 12.00.35 Processor Time: 00.00.02.0866
 Return Code 004
