1         High Level Assembler Option Summary                   (PTF UQ57391)                                               Page    1
-                                                                                            HLASM R4.0  2002/06/06 10.10
0  No Overriding ASMAOPT Parameters
   Overriding Parameters-  TERM,RENT,NOXREF,NODXREF,LINECOUNT(32767),NORLD,USING(WARN(11))
   No Process Statements


   Options for this Assembly
0  NOADATA
     ALIGN
   NOASA
     BATCH
     CODEPAGE(047C)
   NOCOMPAT
   NODBCS
   NODECK
 3 NODXREF
     ESD
   NOEXIT
     FLAG(0,ALIGN,CONT,NOIMPLEN,NOPAGE0,PUSH,RECORD,NOSUBSTR,USING0)
   NOFOLD
   NOGOFF
   NOINFO
     LANGUAGE(EN)
   NOLIBMAC
 3   LINECOUNT(32767)
     LIST(121)
     MXREF(SOURCE)
     OBJECT
     OPTABLE(UNI,NOLIST)
   NOPCONTROL
   NOPESTOP
   NOPROFILE
   NORA2
 3   RENT
 3 NORLD
     RXREF
     SIZE(MAX)
     SYSPARM()
 3   TERM(WIDE)
   NOTEST
     THREAD
   NOTRANSLATE
 3   USING(NOLIMIT,MAP,WARN(11))
 3 NOXREF

   No Overriding DD Names

1PATH     External Symbol Dictionary                                                                                        Page    2
-Symbol   Type   Id     Address  Length     LD ID  Flags Alias-of                            HLASM R4.0  2002/06/06 10.10
0PATH      SD 00000001 00000000 00000AA8             00
 PATH2079  LD          00000000           00000001
 PATHALLO  LD          00000018           00000001
 PATHOPEN  LD          00000084           00000001
 PATHREAD  LD          00000172           00000001
 PATHSEG   LD          00000334           00000001
 PATHCLS   LD          0000052A           00000001
 PATHINFO  LD          0000060C           00000001
 PATHRC    LD          00000752           00000001
 GETCORE   ER 00000002
 BTX       ER 00000003
 FMTTIME   ER 00000004
 BTD       ER 00000005
 XPRTCMD   ER 00000006
 FREECORE  ER 00000007
 SYMPATH   LD          00000A90           00000001

1PATH     Wings Path Routines                                                                                               Page    3
0Loc    Object Code    Addr1 Addr2  Stmt Lv Lineno    Source Statement                    (Asmedit 3.3)  HLASM R4.0  2002/06/06 10.10
+___    ______ ____    _____ _____  ____ __ ______    ______ _________
0                                      2    00002000  ********************************************************************
                                       3    00003000  *** %%Module: wings asm path;                                      *
                                       4    00004000  ********************************************************************
                                       5    00005000  ***                                                                *
                                       6    00006000  ***                                                                *
                                       7    00007000  ***  WINGS -- FILE SERVER PATH ROUTINES.                           *
                                       8    00008000  ***                                                                *
                                       9    00009000  ***    These are the Suzan path communications routines based      *
                                      10    00010000  ***    on Wylbur's path routines.                                  *
                                      11    00011000  ***                                                                *
                                      12    00012000  ***    Created, 11/29/90, Parker Gillespie                         *
                                      13    00013000  ***                                                                *
                                      14    00014000  ***                                                                *
                                      15    00015000  ***  Modifications:                                                *
                                      16    00016000  ***                                                                *
                                      17    00017000  ***  2002/03/20  mcl  clear suzan flag AFTER debug dump!           *
                                      18    00017100  ***  2002/01/11  mcl  dump RC after send if debugging              *
                                      19    00017800  ***  1996/07/02  mcl  additional debugging code                    *
                                      20    00017900  ***  1995/06/02  mcl  use PIBUFSIZ value                           *
                                      21    00018000  ***  1994/11/01  mcl  dynamic path buffer length, ORVYL kluge      *
                                      22    00019000  ***  1994/02/24  mcl  clear ecb before SCOM send                   *
                                      23    00020000  ***  1990/12/11  Niz  Cleanup.                                     *
                                      24    00021000  ***  1990/11/30  PJG  Initial version (Based on about everything). *
                                      25    00022000  ***                                                                *
                                      26    00023000  ********************************************************************
                                      27    00024000  PATH     HIBAL
                                    1011    00025000           IDENT 2079                16:24:51 03/20/2002 MCL
                                    1014             +
                                    1015    01-IDENT +         ENTRY PATH2079
                                    1016             +
 000000 16D7C1E3C8F2F0F7            1017    01-IDENT +PATH2079 DC    AL1(22),C'PATH2079,06JUN02,10:10'
                                    1018             +*
                                    1020    00026000  *
                                    1021    00027000           REGS  FSR,,,,,,,,,WAR,BR,TVTR,(GVTR,LSR),SPR,RAR
                                    1131    00028000
                                    1132    00029000           SYSDEFN
                                    1133    00030000
                                    1134    00031000           PUSH  DSECTS              Common DSECTS
                                    1820    00048000
 000000                00000 0003C  1821    00049000  SEGCB    RECORD 'SEGCB'
 000000 00                          1831  1 03-SEGCB +$$$SEGCB3   DS   0F
 SEGCBCOD.SEGCBSEG 01 EQ
 SEGCBCOD.SEGCBWR  02 EQ
 SEGCBCOD.SEGCBCLR 03 EQ
 SEGCBCOD.SEGCBSPP 04 EQ
 SEGCBCOD.SEGCBOVF 05 EQ
 SEGCBCOD.SEGCBCR  06 EQ
 SEGCBCOD.SEGCBMAR 07 EQ
 000001 00                          1906  1 03-SEGCB +           DC    X'00'               Reserved
 000002 0000                              1          +
 000004 00000000                    1907  1 03-SEGCB +SEGCBMAXF   DC   A(0)                Maximum buffer length
 000008 00000000                    1908  1 03-SEGCB +SEGCBMRKF   DC   A(0)                Length at last mark
 00000C 00000000                    1909  1 03-SEGCB +SEGCBLENF   DC   A(0)                Current length
 000010 00000000                    1910  1 03-SEGCB +SEGCBINDF   DC   A(0)                Overflow/indent count
 000014 00000000                    1911  1 03-SEGCB +SEGCBERR   DC    A(0)                Address of error recovery routine
 000018 0000000000000000            1912  1 03-SEGCB +           DC    2F'0'               Reserved
1PATH     (PATH2079) (10:10) (06JUN02) Wings Path Routines                                                                  Page    4
0Loc    Object Code    Addr1 Addr2  Stmt Lv Lineno    Source Statement           (Hibal 5, Asmedit 3.3)  HLASM R4.0  2002/06/06 10.10
+___    ______ ____    _____ _____  ____ __ ______    ______ _________
0000020 00000000                    1913  1 03-SEGCB +SEGCBLOC   DC    A(0)                Location of buffer
 000024 00000000                    1914  1 03-SEGCB +SEGCBRTN   DC    A(0)                Processing routine
 000028 0000000000000000            1915  1 03-SEGCB +           DC    4F'0'               Reserved
 000038 00000000       0003C 0003C  1916    03-SEGCB +SEGCBUSR DC    A(0)                USER field
                                    1926    00050000  *
 000000                00000 001F8  1927    00051000  KWR      RECORD 'KWR'
                                    1937  1          +*
                                    1938  1          +*       Keyword Record
                                    1939  1          +*
 000000                             1940  1 03-KWR   +KWRSTART     DS  0F
 000000 E4E4E4                      1941  1 03-KWR   +KWRUSER      DC  C'UUU'              User
 000003 C7C7                        1942  1 03-KWR   +KWRGRP       DC  C'GG'               Group
                                    1943  1 03-KWR   +KWRACCT      EQU KWRUSER,*-KWRUSER,C'X'
                                    1944  1          +
                                    1945  1 03-KWR   +KWRDSTRT     EQU *
 000005 000000                      1946  1 03-KWR   +             DC  XL3'00'             Reserved
 000008 0000                        1947  1 03-KWR   +KWRRJE       DC  H'0'                No. of jobs run
 00000A 0000                        1948  1 03-KWR   +KWRSPUSD     DC  H'0'                Disk space used
 00000C FFFF                        1949  1 03-KWR   +KWRSPMAX     DC  H'-1'               Disk space allowed
                                    1950  1          +
 00000E 80                          1951  1 03-KWR   +KWRIFL       DC  X'80'               Initials flags
                                    1952  1 03-KWR   +KWRIFVAL      EQU  X'80'             - Valid user
                                    1953  1 03-KWR   +KWRIFAPR      EQU  X'40'             - ACCT privs
                                    1954  1 03-KWR   +KWRIFSPR      EQU  X'20'             - SYS privs
                                    1955  1 03-KWR   +KWRIFOPR      EQU  X'10'             - OPR privs
                                    1956  1 03-KWR   +KWRIFSBM      EQU  X'08'             - SUBMIT priv
                                    1957  1 03-KWR   +KWRIFSUB      EQU  X'04'             - SUBADMIN privs
                                    1958  1 03-KWR   +KWRIFADM      EQU  X'02'             - ADMIN privs
                                    1959  1 03-KWR   +KWRIFPC       EQU  X'01'             - PC privs
                                    1960  1          +
 00000F 98                          1961  1 03-KWR   +KWRAFL       DC  X'98'               Account flags
                                    1962  1 03-KWR   +KWRAFVAL      EQU  X'80'             - Valid acct (off when SUSPENDED)
                                    1963  1 03-KWR   +KWRAFTOK      EQU  X'08'             - Terminal usage permitted
                                    1964  1 03-KWR   +KWRAFZSV      EQU  X'02'             - Test recovery flag (not used)
                                    1965  1 03-KWR   +KWRAFASV      EQU  X'01'             - Recovery done for last session
                                    1966  1          +
 000010 6F6F6F                      1967  1 03-KWR   +KWRBIN       DC  C'???'              Bin
 000013 00                          1968  1 03-KWR   +KWRWRCT      DC  X'00'               Record rewrite count
 000014 000000                      1969  1 03-KWR   +KWRBGT       DC  XL3'00'             Account budget
 000017 000000                      1970  1 03-KWR   +KWRBAL       DC  XL3'00'             Account year-to-date balance
 00001A 0000                        1971  1 03-KWR   +KWRLCP       DC  H'0'                Punch card limit -- in hundreds
 00001C 0000                        1972  1 03-KWR   +KWRLLC       DC  H'0'                Line count limit -- in thousands
 00001E 0000                        1973  1 03-KWR   +KWRLET       DC  H'0'                Execution time limit in seconds
                                    1974  1          +
 000020 84                          1975  1 03-KWR   +KWRBFL       DC  X'84'               Batch flags
                                    1976  1 03-KWR   +KWRBFVAL     EQU X'80'               - Valid for batch
                                    1977  1 03-KWR   +KWRBFIN      EQU X'40'               - No input setups allowed
                                    1978  1 03-KWR   +KWRBFOUT     EQU X'20'               - No output setups allowed
                                    1979  1 03-KWR   +KWRBFNON     EQU X'10'               - No non-standard priority allowed
                                    1980  1 03-KWR   +KWRBFE       EQU X'08'               - Class E only
                                    1981  1 03-KWR   +KWRBFP       EQU X'04'               - Class P permitted
                                    1982  1          +
 000021 D3D6C3C1D3404040            1983  1 03-KWR   +KWRDEST      DC  CL8'LOCAL'          Destination for output data
 000029 6F6F6F6F                    1984  1 03-KWR   +KWRFORM      DC  CL4'????'           Default forms code
 00002D 0000000000000000            1985  1 03-KWR   +KWRORV       DC  XL8'00'             Default ORVYL name
                                    1986  1          +
1PATH     (PATH2079) (10:10) (06JUN02) Wings Path Routines                                                                  Page    5
0Loc    Object Code    Addr1 Addr2  Stmt Lv Lineno    Source Statement           (Hibal 5, Asmedit 3.3)  HLASM R4.0  2002/06/06 10.10
+___    ______ ____    _____ _____  ____ __ ______    ______ _________
0000035 80                          1987  1 03-KWR   +KWRMACC      DC  X'80'               Machine access flags
                                    1988  1 03-KWR   +KWRFSYSA     EQU X'80'               - SYSA access allowed
                                    1989  1 03-KWR   +KWRFSYSB     EQU X'40'               - SYSB access allowed
                                    1990  1 03-KWR   +KWRFSYSC     EQU X'20'               - SYSC access allowed
                                    1991  1 03-KWR   +KWRFSYSD     EQU X'10'               - SYSD access allowed
                                    1992  1 03-KWR   +KWRFSYSE     EQU X'08'               - SYSE access allowed
                                    1993  1 03-KWR   +KWRFSYSF     EQU X'04'               - SYSF access allowed
                                    1994  1          +
 000036 00                          1995  1 03-KWR   +KWRSFL       DC  X'00'               Status flags
                                    1996  1 03-KWR   +KWRSFKEP     EQU X'80'               - Kept mail waiting
                                    1997  1 03-KWR   +KWRSFMAI     EQU X'40'               - New mail waiting
                                    1998  1 03-KWR   +KWRSFMLQ     EQU X'20'               - New mail in MAILQnnn files
                                    1999  1          +
 000037 02                          2000  1 03-KWR   +KWRJFL       DC  X'02'               Job flags
                                    2001  1 03-KWR   +KWRJFNUM     EQU X'80'               - Numbered job submission
                                    2002  1 03-KWR   +KWRJFFOR     EQU X'40'               - Force user id as job prefix
                                    2003  1 03-KWR   +KWRJFHOL     EQU X'10'               - Hold printed output
                                    2004  1 03-KWR   +KWRJFNOT     EQU X'08'               - Notify user
                                    2005  1 03-KWR   +KWRJFATH     EQU X'07'               - Job auth, as follows...
                                    2006  1 03-KWR   +KWRJFPUB     EQU X'04'                  Auth=public
                                    2007  1 03-KWR   +KWRJFCOM     EQU X'02'                  Auth=community
                                    2008  1 03-KWR   +KWRJFGRP     EQU X'01'                  Auth=group
                                    2009  1          +
 000038 4040404040404040            2010  1 03-KWR   +KWRJPFX      DC  CL8' '              Users job prefix
 000040 0000                        2011  1 03-KWR   +KWRJNO       DC  H'0'                Users job count
                                    2012  1          +
 000042 0000                        2013  1 03-KWR   +KWRHRSAL     DC  H'0'                Connect hrs allowed (hrs/10)
 000044 0000                        2014  1 03-KWR   +KWRACCH      DC  H'0'                Connect hrs accounted (hrs/10)
 000046 0000                        2015  1 03-KWR   +           DC    H'0'                Reserved
                                    2016  1          +
 000048 20                          2017  1 03-KWR   +KWRTACF      DC  X'20'               Type/account class flags
                                    2018  1 03-KWR   +KWRTNST      EQU X'80'               - No logoff statistics
                                    2019  1 03-KWR   +KWRTNTM      EQU X'40'               - No session timeouts (NOTIME)
                                    2020  1 03-KWR   +KWRTNDAY     EQU X'02'               - No daytime access allowed
                                    2021  1          +
 000049 3C                          2022  1 03-KWR   +KWRTFL       DC  X'3C'               Timesharing flags
                                    2023  1          +*              X'80'               - Reserved
                                    2024  1          +*              X'40'               - Reserved
                                    2025  1 03-KWR   +KWRTFAN      EQU X'20'               - Auto news at logon
                                    2026  1 03-KWR   +KWRTFAM      EQU X'10'               - Auto mail at logon
                                    2027  1 03-KWR   +KWRTFAR      EQU X'08'               - Auto recovery at logon
                                    2028  1 03-KWR   +KWRTFAE      EQU X'04'               - Auto exec at logon
                                    2029  1 03-KWR   +KWRTFAL      EQU X'02'               - Auto ltime at logon
                                    2030  1 03-KWR   +KWRTFAK      EQU X'01'               - Auto ktime at logon
                                    2031  1          +
 00004A 00F0                        2032  1 03-KWR   +KWRNTDEF     DC  H'240'              Default notime minutes (0=nolim)
 00004C 0000                        2033  1 03-KWR   +KWRNTMAX     DC  H'0'                Maximum notime minutes (0=nolim)
 00004E 00000000                    2034  1 03-KWR   +KWRPFORM     DC  XL4'00'             Default PRINT job forms
 000052 0000                        2035  1 03-KWR   +KWRR1      DC    H'0'                Reserved
 000054 0000                        2036  1 03-KWR   +KWRR3      DC    H'0'                Reserved
 000056 00                          2037  1 03-KWR   +KWRR4      DC    X'0'                Reserved
                                    2038  1          +
 000057 00                          2039  1 03-KWR   +KWROFL       DC  X'00'               Online flags
                                    2040  1 03-KWR   +KWRFMULT     EQU X'80'               - Multiple sessions allowed
                                    2041  1 03-KWR   +KWRFMAIL     EQU X'40'               - Mail is allowed
                                    2042  1 03-KWR   +KWRFSEC      EQU X'20'               - Secure session (EXEC SECURE)
1PATH     (PATH2079) (10:10) (06JUN02) Wings Path Routines                                                                  Page    6
0Loc    Object Code    Addr1 Addr2  Stmt Lv Lineno    Source Statement           (Hibal 5, Asmedit 3.3)  HLASM R4.0  2002/06/06 10.10
+___    ______ ____    _____ _____  ____ __ ______    ______ _________
0                                   2043  1 03-KWR   +KWRFMNPR     EQU X'08'               - XMultiple: multiple w/o prompt
                                    2044  1 03-KWR   +KWRFNPAS     EQU X'04'               - No logon password needed
                                    2045  1          +
 000058 00000000                    2046  1 03-KWR   +KWRLTIM      DC  XL4'00'             Last logoff time(high 32 clck bits)
 00005C 00000000                    2047  1 03-KWR   +KWRKTIM      DC  XL4'00'             Last time keyword changed (" ")
                                    2048  1          +
 000060 00                          2049  1 03-KWR   +KWRAC        DC  X'00'               Accounting flags
                                    2050  1          +
 000061 40                          2051  1 03-KWR   +KWRSOF       DC  C' '                Source of funds code
 000062 40                          2052  1 03-KWR   +KWRAR        DC  C' '                Accounts receivable code (if SOF=2)
                                    2053  1          +
 000063 40                          2054  1 03-KWR   +KWRSTAT      DC  C' '                Account status code
                                    2055  1 03-KWR   +KWRSEXP      EQU C'1'                - Expired
                                    2056  1 03-KWR   +KWRSCLS      EQU C'2'                - Closed
                                    2057  1 03-KWR   +KWRSOVB      EQU C'3'                - Over-budget
                                    2058  1 03-KWR   +KWRSUHL      EQU C'4'                - User hold
                                    2059  1          +
 000064 10                          2060  1 03-KWR   +KWRTFL2      DC  X'10'               Timesharing flags  (second byte)
                                    2061  1 03-KWR   +KWRTFAPE     EQU X'80'               - Auto pubexec at logon
                                    2062  1 03-KWR   +KWRTFML      EQU X'40'               - Ok to receive mail
                                    2063  1 03-KWR   +KWRTFANE     EQU X'10'               - Auto newexec at logon
                                    2064  1 03-KWR   +KWRTFMNOATTN     EQU  X'08'          - Ignore SHOW MAIL attn (NOATTN)
                                    2065  1          +
 000065 00                          2066  1 03-KWR   +KWRPFL       DC  X'00'               Privilege flags
                                    2067  1 03-KWR   +KWRFPCHK     EQU X'80'               - PCHECK privs
                                    2068  1          +
 000066 0000                        2069  1 03-KWR   +KWRHRSFR     DC  H'0'                Free connect hrs to date (hrs/10)
 000068 0000                        2070  1 03-KWR   +KWRHRSUS     DC  H'0'                Hours used to date (hrs/10)
 00006A FFFF                        2071  1 03-KWR   +KWRDSKMX     DC  H'-1'               Disk kilobytes allowed
 00006C 00000000                    2072  1 03-KWR   +KWRDSKUS     DC  F'0'                Disk bytes used
                                    2073  1          +
 000070 0000000000000000            2074  1 03-KWR   +KWRPASS      DC  XL8'00'             Password
 000078 0000000000000000            2075  1 03-KWR   +KWRNAME      DC  XL20'00'            User's name
 00008C 000000000000                2076  1 03-KWR   +KWRVOL       DC  XL6'00'             User's permanent volume
 000092 0000000000000000            2077  1 03-KWR   +KWRSYS       DC  XL8'00'             User's initial subsystem (WYLBUR)
 00009A 0000000000000000            2078  1 03-KWR   +KWRCOMM      DC  XL20'00'            Comment for accounting office
                                    2079  1          +
 0000AE 00                          2080  1 03-KWR   +KWRMPRIM     DC  X'00'               Primary machine
                                    2081  1          +***  Flag definitions are the same as with KWRMACC above.  ***
                                    2082  1          +*
 0000AF 00                          2083  1 03-KWR   +KWRXCNT      DC  X'00'               Unsuccessful logon attempt count
 0000B0 00000000                    2084  1 03-KWR   +KWRXTIM      DC  XL4'00'             Last unsuccessful logon time
                                    2085  1          +
 0000B4 00000000                    2086  1 03-KWR   +KWRNEWDT     DC  F'0'                Date news was last read
                                    2087  1          +
 0000B8 00000000                    2088  1 03-KWR   +KWRCDATE     DC  F'0'                Date of charges update
 0000BC 000000                      2089  1 03-KWR   +KWRMTD       DC  XL3'0'              Account month-to-date balance
 0000BF 000000                      2090  1 03-KWR   +KWRPBAL      DC  XL3'0'              Account previous ytd charges
                                    2091  1          +
 0000C2 0000000000000000            2092  1 03-KWR   +KWRMFOR      DC  XL64'00'            Mail forwarding address
 000102 0000000000000000            2093  1 03-KWR   +KWRMTXT      DC  XL80'00'            Mail information text
                                    2094  1          +
 000152 0000000000000000            2095  1 03-KWR   +KWRCMD       DC  XL80'00'            First command to execute
 0001A2 0000000000000000            2096  1 03-KWR   +KWRLPORT     DC  XL20'00'            Last logoff port name
                                    2097  1          +
 0001B6 00000000                    2098  1 03-KWR   +KWRCRDT      DC  XL4'00'             Account creation date
1PATH     (PATH2079) (10:10) (06JUN02) Wings Path Routines                                                                  Page    7
0Loc    Object Code    Addr1 Addr2  Stmt Lv Lineno    Source Statement           (Hibal 5, Asmedit 3.3)  HLASM R4.0  2002/06/06 10.10
+___    ______ ____    _____ _____  ____ __ ______    ______ _________
0                                   2099  1          +
 0001BA 0000                        2100  1 03-KWR   +KWRRENCT     DC  XL2'00'             No. of ORVYL RENAMEs (not used)
                                    2101  1          +
 0001BC C7E4C5E2E3404040            2102  1 03-KWR   +KWRNETU      DC  CL16'GUEST'         Network user id (zeros=disabled)
 0001CC D3C9D5C4E8404040            2103  1 03-KWR   +KWRNETH      DC  CL32'LINDY'         Network host name
                                    2104  1          +
 0001EC 0000000000000000            2105  1 03-KWR   +KWRLOCAL     DC  XL8'00'             For non-Stanford use (ISU!)
                                    2106  1 03-KWR   +KWRDATA      EQU KWRDSTRT,*-KWRDSTRT,C'X'
                                    2107  1          +
                                    2108  1 03-KWR   +KWREND       EQU *                   End of physical record
                                    2109  1          +
 0001F4 00                          2110  1 03-KWR   +KWRHFL       DC  X'00'               Status flags
                                    2111  1 03-KWR   +KWRHFCK      EQU X'80'               - Keyword checking in effect
                                    2112  1 03-KWR   +KWRHFUOK     EQU X'40'         Update successful--cannot occur with
                                    2113  1          +*                            kwrhferr or kwrhfful.  if kwrhfuok,
                                    2114  1          +*                            err, and ful are all 0, the record has
                                    2115  1          +*                            been changed since it was read.
                                    2116  1 03-KWR   +KWRHFERR     EQU X'20'               - I/O error reading keyword file
                                    2117  1 03-KWR   +KWRHFFUL     EQU X'10'               - No room to add user
                                    2118  1          +
 0001F8                             2119  1 03-KWR   +           DS    0F
                                    2120  1 03-KWR   +KWRSIZE      EQU *-KWRSTART
                                    2121  1          +*
                                    2122  1          +*  Operation codes.
                                    2123  1          +*
                                    2124  1 03-KWR   +KWRCWR        EQU  X'80'             Write
                                    2125  1 03-KWR   +KWRCRD        EQU  X'40'             Read
 0001F8                001F8 001F8  2126    03-KWR   +KWRCDIE     EQU  X'FF'             Shutdown keyword routines
                                    2136    00052000  *
                                    2137    00053000  *
                                    2138    00054000           COPY  PINFO
                                    2139=            =¿þþþþþþþþþþþþþþþþþþþþþþþþþþþþþþþþþþþþþþþþþþþþþþþþþþþþþþþþþþþþþþþþþþþþþÜ
                                    2140=            =Ÿ                                                                     Ÿ
                                    2141=            =Ÿ  USER PATH INFORMATION                                              Ÿ
                                    2142=            =Ÿ                                                                     Ÿ
                                    2143=            =Ÿ                                                                     Ÿ
                                    2144=            =Ÿ  Subsystems provides this information whenever they open user       Ÿ
                                    2145=            =Ÿ  paths.  The information is set with the Suzan SVC                  Ÿ
                                    2146=            =Ÿ  "SETINFO" call (a 1/88 Suzan SVC extension).                       Ÿ
                                    2147=            =Ÿ                                                                     Ÿ
                                    2148=            =Ÿ  Once a path is opened, a program can sense this information        Ÿ
                                    2149=            =Ÿ  for the partner's side of the path.                                Ÿ
                                    2150=            =Ÿ                                                                     Ÿ
                                    2151=            =Ÿ  Extended, 10/20/91, Niz                                            Ÿ
                                    2152=            =Ÿ  Caller ID added for Wings, 6/92, Niz                               Ÿ
                                    2153=            =Ÿ                                                                     Ÿ
                                                      ¾þþþþþþþþþþþþþþþþþþþþþþþþþþþþþþþþþþþþþþþþþþþþþþþþþþþþþþþþþþþþþþþþþþþþþ»
0000000                00000 00080  2154             =PINFO    RECORD BEGIN
 000000 D7C9D5C6                    2162  1          =           DC    CL4'PINF'           Self identification
 000004 00000000                    2163  1          =           DC    F'0'                Reserved
 000008 4040404040404040            2164  1          =PINFOSYS   DC    CL8' '              Subsystem name ("WYLBUR", etc.)
 000010 4040404040404040            2165  1          =PINFOACC   DC    CL8' '              User account ("gg.uuu")
 000018 4040404040404040            2166  1          =PINFOPRJ   DC    CL8' '              Project (subgroup)
 000020 40404040                    2167  1          =PINFOCAL   DC    CL4' '              Caller ID ("AUTH" or zeros)
 000024 00000000                    2168  1          =           DC    XL4'00'             Reserved
1PATH     (PATH2079) (10:10) (06JUN02) Wings Path Routines                                                                  Page    8
0Loc    Object Code    Addr1 Addr2  Stmt Lv Lineno    Source Statement           (Hibal 5, Asmedit 3.3)  HLASM R4.0  2002/06/06 10.10
+___    ______ ____    _____ _____  ____ __ ______    ______ _________
0000028 0000000000000000            2169  1          =           DC    2F'0'               Reserved
 000030 00                          2170  1          =PINFOIFL   FLAG  ,                   Copy of KWRIFL flags
 000031 00                          2174  1          =PINFOAFL   FLAG  ,                   Copy of KWRAFL flags
 000032 FFFF                        2178  1          =PINFOLNO   DC    H'-1'               Milten line-number (or -1)
 000034 00000000                    2179  1          =PINFOID    DC    F'0'                Milten session id
 000038 4040404040404040            2180  1          =PINFONAM   DC    CL20' '             User name
 00004C 4040404040404040            2181  1          =PINFONAMX   DC   CL20' '  (Expansion if name field expands)
 000060 0000000000000000            2182  1          =PINFOTAG   DC    XL16'00'            Session tag
 000070 0000000000000000            2183  1          =           DC    XL16'00'            Reserved
 000080                00080 00080  2184             =         END
                                    2193    00055000  *
                                    2194    00056000           COPY  UPATH
                                    2195=   00001000 =¿þþþþþþþþþþþþþþþþþþþþþþþþþþþþþþþþþþþþþþþþþþþþþþþþþþþþþþþþþþþþþþþþþþþþþÜ
                                    2196=   00002000 =Ÿ                                                                     Ÿ
                                    2197=   00003000 =Ÿ    User Path control block.                                         Ÿ
                                    2198=   00004000 =Ÿ                                                                     Ÿ
                                    2199=   00005000 =Ÿ      MUST BE EXACTLY THE SAME AS MPATH!                             Ÿ
                                    2200=   00006000 =Ÿ                                                                     Ÿ
                                                      ¾þþþþþþþþþþþþþþþþþþþþþþþþþþþþþþþþþþþþþþþþþþþþþþþþþþþþþþþþþþþþþþþþþþþþþ»
0000000                00000 00118  2201    00007000 =UPATH    RECORD BEGIN
 000000 D7C1E3C8                    2209  1 00008000 =UPATHID    DC    CL4'PATH'
 000004 00                          2210  1 00009000 =UPATFLAG   FLAG
 UPATFLAG.UPATFO   80 ONES          2214  1 00010000 =           FLAG  UPATFO              - Path has opened
 UPATFLAG.UPATFHDR 40 ONES          2219  1 00011000 =           FLAG  UPATFHDR            - Send length word before data
 UPATFLAG.UPATFSPR 20 ONES          2224  1 00012000 =           FLAG  UPATFSPR            - Partner is SYS priv'd
 UPATFLAG.UPATFOPR 10 ONES          2229  1 00013000 =           FLAG  UPATFOPR            - Partner is OPR priv'd
 UPATFLAG.UPATFWHD 08 ONES          2234  1 00013100 =           FLAG  UPATFWHDR           - Send WINGS header command
 UPATFLAG.UPATFAUT 04 ONES          2239  1 00013200 =           FLAG  UPATFAUTH           - Partner is authorized
 UPATFLAG.UPATTWAI 02 ONES          2244  1 00013300 =           FLAG  UPATTWAIT           - buffer wait timer set  ML022394
                                    2249  1 00014000 =
 000005                             2250  1 00015000 =UPATWRC    DS    X                   Last write return code
                                    2251  1 00016000 =
 000006 0000                              1
 000008 00000000                    2252  1 00017000 =UPATDLOC   DC    A(0)                Remaining data location
 00000C 00000000                    2253  1 00018000 =UPATDLEN   DC    A(0)                Remaining data length
                                    2254  1 00019000 =
 000010 00000000                    2255  1 00020000 =UPATPASC   DC    F'0'                Partner's ASCB ptr
 000014 0000000000000000            2256  1 00020100 =UPATECBL   DC    A(0),A(0)           ECB list for Suzan/Timeout
 00001C 00000000                    2257  1 00020200 =UPATTOID   DC    A(0)                Timer ID for timeout
 000020 00000000                    2258  1 00020300 =UPATBUFL   DC    A(0)                Partner's buffer length
 000024 0000                        2259  1 00021000 =UPATPLNO   DC    H'0'                Partner's line number
 000026 0000000000000000            2260  1 00022000 =UPATPJOB   DC    XL8'00'             Partner's jobname
 00002E 0000000000000000            2261  1 00023000 =UPATPACT   DC    XL8'00'             Partner's account
 000036 0000000000000000            2262  1 00024000 =UPATPNAM   DC    XL20'00'            Partner's user name
                                    2263  1 00025000 =
                                    2264  1 00026000C=           PATH  VERSION=2,PFX=UPAT,FLAG=UPATSPST,ECB=UPATSECB,
                                          1 00027000 =                 MYTAG=MYTAG,PASS=PROD,BUFSIZE=16384
 00004A 0000                              1          +
 00004C                             2265  1 01-PATH  +UPAT       DC    0F'0'
 00004C 00000000                    2267  1 02-DEFIN +UPATMGC    DC    AL4(0)
 000050 00000000                    2269  1 02-DEFIN +UPATDJNM   DC    AL4(0)
 000054 D4E8E3C1C7404040            2271  1 02-DEFIN +UPATMY     DC    CL8'MYTAG'
 00005C FFFFFFFFFFFFFFFF            2273  1 02-DEFIN +UPATYOU    DC    XL8'FFFFFFFFFFFFFFFF'
 000064 80                          2275  1 02-DEFIN +UPATMFL    DC    AL1(1*X'80'+0*X'40'+0*X'20')
                                    2276  1          +
1PATH     (PATH2079) (10:10) (06JUN02) Wings Path Routines                                                                  Page    9
0Loc    Object Code    Addr1 Addr2  Stmt Lv Lineno    Source Statement           (Hibal 5, Asmedit 3.3)  HLASM R4.0  2002/06/06 10.10
+___    ______ ____    _____ _____  ____ __ ______    ______ _________
0                                   2277  1 01-PATH  +UPATVER2    EQU  X'80'         CALLER IS USING VERSION 2
                                    2278  1 01-PATH  +UPATMCTL    EQU  X'40'         CALLER ASKS TERMINATION CONTROL
                                    2279  1 01-PATH  +UPATMNAM    EQU  X'20'         CALLER PROVIDES CALLEE NAME
                                    2280  1 01-PATH  +UPATMDP1    EQU  X'10'         DUPLICATE TAGS FOUND: MY=PCBO, YOU=PCBA
                                    2281  1 01-PATH  +UPATMDP2    EQU  X'08'         DUPLICATE TAGS FOUND: MY=PCBA, YOU=PCBO
                                    2282  1          +
 000065 000000                      2284  1 02-DEFIN +UPATOECB   DC    AL3(0)
 000068 00004000                    2286  1 02-DEFIN +UPATBUF    DC    AL4(16384)
 00006C 00000088                    2288  1 02-DEFIN +UPATECBF   DC    AL4(UPATSPST)
                                    2289  1          +
                                    2290  1 01-PATH  +UPATFCLS    EQU   X'80'         I AM POSTED BECAUSE HE CLOSED
                                    2291  1 01-PATH  +UPATFFQE    EQU   X'40'         I AM POSTED BECAUSE HIS FULL Q EMPTIED
                                    2292  1 01-PATH  +UPATFNI     EQU   X'20'         I AM POSTED BECAUSE NEW INFO IN MY Q
                                    2293  1 01-PATH  +UPATFDP     EQU   X'10'         I AM POSTED AT HIS DISCRETION
                                    2294  1 01-PATH  +UPATFOPN    EQU   X'08'         I AM POSTED BECAUSE HE OPENED
                                    2295  1 01-PATH  +UPATFCLC    EQU   X'04'         I AM POSTED BECAUSE MY CLOSE IS COMPLETE
                                    2296  1          +
 000070 D7D9D6C4                    2298  1 02-DEFIN +UPATPASS   DC    CL4'PROD'
 000074 00000084                    2300  1 02-DEFIN +UPATECB    DC    AL4(UPATSECB)
 000078 00000000                    2302  1 02-DEFIN +UPATEXIT   DC    AL4(0)
 00007C 00000000                    2304  1 02-DEFIN +UPATPINP   DC    XL4'0'
 000080 00000000                    2306  1 02-DEFIN +UPATRESV   DC    XL4'0'
                                    2307  1          +*
                                    2308  1          +*  VERSION 2 RETURN CODES
                                    2309  1          +*
                                    2310  1 01-PATH  +UPATROK     EQU  0                       COMPLETE OK
                                    2311  1 01-PATH  +UPATRIFC    EQU  4                       INVALID FUNCTION CODE
                                    2312  1 01-PATH  +UPATRPMW    EQU  8                       INVALID PATH MAGIC WORD
                                    2313  1 01-PATH  +UPATRBAF    EQU  12                      PARTNER'S BUFFER AREA FULL
                                    2314  1 01-PATH  +UPATRNOP    EQU  16                      PARTNER NOT THERE
                                    2315  1 01-PATH  +UPATRBOM    EQU  20                      BUFFER OVER PARTNER'S MAXIMUM
                                    2316  1 01-PATH  +UPATRIBS    EQU  24                      RECEIVE BUFFER TOO SMALL
                                    2317  1 01-PATH  +UPATRBPI    EQU  28                      INVALID BUFFER POINTER
                                    2318  1 01-PATH  +UPATRIAD    EQU  32                      INVALID ADDRESS
                                    2319  1 01-PATH  +UPATRES1    EQU  36                      RESERVED
                                    2320  1 01-PATH  +UPATRES2    EQU  40                      RESERVED
                                    2321  1 01-PATH  +UPATRES3    EQU  44                      RESERVED
                                    2322  1 01-PATH  +UPATRES4    EQU  48                      RESERVED
                                    2323  1          +
                                    2324  1 01-PATH  +UPATSIZE    EQU  *-UPAT        LENGTH OF PATH BLOCK
                                    2325  1 00028000 =
 000084 00000000                    2326  1 00029000 =UPATSECB   DC    F'0'                Suzan path ECB (not used?)
                                    2327  1 00030000 =
 000088 00                          2328  1 00031000 =UPATSPST   DC    X'00'               Suzan post flag byte
 000089 00                          2329  1 00032000 =UPATSFLG   DC    X'00'               Copy of Suzan post flag byte
                                    2330  1 00033000 =
 00008A 0000000000000000            2331  1 00034000 =UPATRTIM   DC    XL8'00'             Time of last received msg
 000092 0000                              1
 000094 00000000                    2332  1 00035000 =UPATRLEN   DC    F'0'                Length of last received msg
 000098 0000000000000000            2333  1 00036000 =UPATRDAT   DC    XL128'00'           Last received message
 000118                00118 00118  2334    00037000 =         END
                                    2343    00057000  *
                                    2344    00057100           COPY  PDBUGREC
 000000                00000 00074  2345    00001000 =PDBUGREC RECORD BEGIN   ,          Path debug record
                                    2353  1 00002000 =*  Info for QSNAP or other tracing of path transactions
                                    2354  1 00003000 =*  mcl 1996/07/02
1PATH     (PATH2079) (10:10) (06JUN02) Wings Path Routines                                                                  Page   10
0Loc    Object Code    Addr1 Addr2  Stmt Lv Lineno    Source Statement           (Hibal 5, Asmedit 3.3)  HLASM R4.0  2002/06/06 10.10
+___    ______ ____    _____ _____  ____ __ ______    ______ _________
0000000 0000000000000000            2356  1 00004500 =PDBSAVER   DC    2F'0'               save area
                                    2357  1 00005000 =PDBMSG     EQU   *                   area to dump starts here
 000008 A28599A585998984            2358  1 00005100 =PDBSVNAM   DC    CL8'serverid'       server name
 000010 00000000                    2359  1 00005200 =PDBMAGIC   DC    XL4'00'             Suzan's magic cookie
 000014 D7C1E3C8C3D3D6E2            2360  1 00006000 =PDBTSTYP   DC    CL10'PATHCLOSE'     trans. type
 00001E C6C640                      2361  1 00007000 =PDBFLAGS   DC    CL2'FF',C' '
 000021 88887A94947AA2A2            2362  1 00007100 =PDBTIME    DC    CL11'hh:mm:ss.th'   timestamp
 00002C 40                          2363  1 00008000 =           DC    C' '
 00002D 95959595                    2364  1 00009000 =PDBLINO    DC    CL4'nnnn'           partner's line number
 000031 40                          2365  1 00010000 =           DC    C' '
 000032 0000                              1
 000034                             2366  1 00011000 =           DC    0F'0'               align
 000034 4040404040404040            2367  1 00011100 =PDBDATA1   DC    CL64' '             data sent/received
                                    2368  1 00012000 =PDBDATA2   EQU   PDBDATA1+4
                                    2369  1 00012100 =PDB#SMAL   EQU   PDBDATA2-PDBSVNAM  short version
                                    2370  1 00013000 =PDB#LARG   EQU   *-PDBSVNAM         long version
 000074                00074 00074  2371    00014000 =         END   PDBUGREC
0USING  GVT,R12                     2381    00058000           USING GVT                 Universal assumption
 USING  TVT,R11                     2390    00059000           USING TVT                 Universal assumption
1PATH     (PATH2079) (10:10) (06JUN02) PATHALLO - Allocate a new user path                                                  Page   11
0Current Usings:  (TVT,R11) (GVT,R12)
0Loc    Object Code    Addr1 Addr2  Stmt Lv Lineno    Source Statement           (Hibal 5, Asmedit 3.3)  HLASM R4.0  2002/06/06 10.10
+___    ______ ____    _____ _____  ____ __ ______    ______ _________
0                                   2400    00061000  ¿þþþþþþþþþþþþþþþþþþþþþþþþþþþþþþþþþþþþþþþþþþþþþþþþþþþþþþþþþþþþþþþþþþþþþÜ
                                    2401    00062000  Ÿ                                                                     Ÿ
                                    2402    00063000  Ÿ   PATHALLO -- Routine to allocate a new user path.                  Ÿ
                                    2403    00064000  Ÿ                                                                     Ÿ
                                                      ¾þþþþþþþþþþþþþþþþþþþþþþþþþþþþþþþþþþþþþþþþþþþþþþþþþþþþþþþþþþþþþþþþþþþþþ»
0000018 90DF B0D4            000D4  2404    00065000  PATHALLO XPROC
 00001C 58F0 C014/0DEF       00014  2416             +
 000022 D7C1E3C8C1D3D3D6            2418             +
 00002A 98DF B0D4            000D4  2419             +
 00002E 50E0 D000            00000  2422             +
 000032 900C D004/189D       00004  2425             +
 000038 41D0 D038/0DA0       00038  2427             +
                                    2450    00066000           ¿þþþþþþþþþþþþþþþþþþþþþþþþþþþþþþþþþþþþþþþþþþþþþþþþþþþþþþþÜ
                                    2451    00067000           Ÿ  Get core for PATH control block and initialize with  Ÿ
                                    2452    00068000           Ÿ    model path.                                        Ÿ
                                    2453    00069000           ¾þþþþþþþþþþþþþþþþþþþþþþþþþþþþþþþþþþþþþþþþþþþþþþþþþþþþþþþ»
 00003E 4100 0118            00118  2454    00070000           LA    R0,L'UPATH
 USING  *,R10
 000042 58E0 A912/0DEE       00950  2455    00071000           VCALL GETCORE             Get memory for PATH
                                    2459    00072000
 000048 1851                        2460    00073000           LR    R5,R1
 USING  UPATH,R5                    2461    00074000           WITH  (UPATH,R5),BEGIN
 00004A 18E5/41F0 0118       00118  2475  1 00075000             MOVEL UPATH,L:=A(MPATH),L'UPATH  Move in model path block
 000050 5800 A916/181F       00954  2494  1          +
 000056 0EE0                        2496  1          +
 000058 D207 5054 A8FA 00054 00938  2497  1 00076000             MVC   UPATMY,=CL8' '      Set MYTAG
 00005E 41F0 5084            00084  2498  1 00077000             LA    R15,UPATSECB        Our ECB
 000062 50F0 5074            00074  2499  1 00078000             ST    R15,UPATECB         Save ptr in PATH
 000066 41F0 5088            00088  2500  1 00079000             LA    R15,UPATSPST        Our Suzan post byte
 00006A 50F0 506C            0006C  2501  1 00080000             ST    R15,UPATECBF        Save ptr in PATH
 DROP   UPATH,R5                    2502    00081000           END
                                    2510    00082000
 00006E 1815                        2511    00083000           LR    R1,R5               Path ptr
 000070 5019 0008            00008  2512    00084000           PRETURN (R1)
 000074 1BFF                        2514    00085000           CLEAR R15                 A-ok
 000076 18D9/980C D004       00004  2518    00086000           PEND
 DROP   *,R10
 00007C 58E0 D000/12FF       00000  2534             +
 000082 07FE                        2537             +
1PATH     (PATH2079) (10:10) (06JUN02) PATHOPEN - Open path                                                                 Page   12
0Current Usings:  (TVT,R11) (GVT,R12)
0Loc    Object Code    Addr1 Addr2  Stmt Lv Lineno    Source Statement           (Hibal 5, Asmedit 3.3)  HLASM R4.0  2002/06/06 10.10
+___    ______ ____    _____ _____  ____ __ ______    ______ _________
0                                   2539    00088000  ¿þþþþþþþþþþþþþþþþþþþþþþþþþþþþþþþþþþþþþþþþþþþþþþþþþþþþþþþþþþþþþþþþþþþþþÜ
                                    2540    00089000  Ÿ                                                                     Ÿ
                                    2541    00090000  Ÿ   PATHOPEN -- Routine to open a path.                               Ÿ
                                    2542    00091000  Ÿ                                                                     Ÿ
                                    2543    00092000  Ÿ     On entry:                                                       Ÿ
                                    2544    00093000  Ÿ       R1 - UPATH ptr                                                Ÿ
                                    2545    00094000  Ÿ                                                                     Ÿ
                                    2546    00095000  Ÿ     On exit, R15 (and cc):                                          Ÿ
                                    2547    00096000  Ÿ       0 - opened                                                    Ÿ
                                    2548    00097000  Ÿ       nz- error of some sort                                        Ÿ
                                    2549    00098000  Ÿ                                                                     Ÿ
                                    2550    00099000  Ÿ                                                                     Ÿ
                                    2551    00100000  Ÿ*-POPNWA   RECORD BEGIN                                              Ÿ
                                    2552    00101000  Ÿ*-POPNWORD DS    F                   Work word                       Ÿ
                                                      ¾þþþþþþþþþþþþþþþþþþþþþþþþþþþþþþþþþþþþþþþþþþþþþþþþþþþþþþþþþþþþþþþþþþþþþ»
0                                   2553    00102000  POPNWORD EQU   PDBSAVER            work word
                                    2554    00102100  **-         END
                                    2555    00103000  þþþþ
 000084 90DF B0D4            000D4  2556    00104000  PATHOPEN XPROC PDBUGREC
 000088 58F0 C014/0DEF       00014  2569             +
 00008E D7C1E3C8D6D7C5D5            2571             +
 000096 98DF B0D4            000D4  2572             +
 00009A 50E0 D000            00000  2575             +
 00009E 900C D004/189D       00004  2578             +
 0000A4 41D0 D0AC/0DA0       000AC  2581             +
 0000AA 1851                        2613    00105000           LR    R5,R1
 USING  *,R10
 USING  PDBUGREC-(4+52),R9
 USING  UPATH,R5                    2614    00106000           WITH  (UPATH,R5)
 0000AC                             2627    00107000           FAIL  (UPATH,NE,'PATH'),'Bad UPATH address'
 0000AC D503 A8AE 5000 00958 00000  2640             +
 0000B2 4780 A020            000CA  2641             +
 0000B6 FEDC11                      2646  1          +
 0000B9 C2818440E4D7C1E3            2647             +
                                    2653    00108000           ¿þþþþþþþþþþþþþþþþþþÜ
                                    2654    00109000           Ÿ  Open the path.  Ÿ
                                    2655    00110000           ¾þþþþþþþþþþþþþþþþþþ»
 0000CA 4110 504C            0004C  2656    00111000           LA    R1,UPAT             Suzan path control block
 0000CE 5010 9038            00000  2657    00112000           ST    R1,POPNWORD         Build parm (path addr)
 0000D2 9680 9038      00000        2658    00113000           SET   POPNWORD.X'80'      Flag end of parm list
 0000D6 1B00/1BFF                   2665    00114000           SCOM  OPEN,LA:POPNWORD    Open the path
 0000DA 4110 9038/0AFB       00000  2678             +
                                    2680    00115000           ¿þþþþþþþþþþþþþþþþþþþþþþþþþþþþþþþþþþþþþþþþþþþþþþþþþþþþþþþþÜ
                                    2681    00116000           Ÿ  (Returns with R15 return code set by the Suzan SVC.)  Ÿ
                                    2682    00117000           ¾þþþþþþþþþþþþþþþþþþþþþþþþþþþþþþþþþþþþþþþþþþþþþþþþþþþþþþþþ»
 0000E0 9180 B0A2      000A2        2683    00117010           IF    TVTXDBUG,BEGIN      debug trace
 0000E4 47E0 A0BA            00164  2693             +
 0000E8 50F0 9038            00000  2698  1 00117020             ST    R15,PDBSAVER        Save return code
 0000EC D22F 9040 C0E0 00008 000E0  2699  1 00117030             MVC   PDBMSG(PDB#SMAL),GVTBLANK       clear
 0000F2 D203 9048 504C 00010 0004C  2700  1 00117040             MVC   PDBMAGIC,UPATMGC    magic cookie
 0000F8 D209 904C A906 00014 009B0  2701  1 00117050             MVC   PDBTSTYP,=CL10'PathOpen'
 0000FE D207 9040 B014 00008 00014  2702  1 00117060             MVC   PDBSVNAM,TVTNAME    server name
 000104 1B00                        2703  1 00117070             SR    R0,R0
1PATH     (PATH2079) (10:10) (06JUN02) PATHOPEN - Open path                                                                 Page   13
0Current Usings:  (UPATH,R5) (PDBUGREC-(4+52),R9) (*,R10) (TVT,R11) (GVT,R12)
0Loc    Object Code    Addr1 Addr2  Stmt Lv Lineno    Source Statement           (Hibal 5, Asmedit 3.3)  HLASM R4.0  2002/06/06 10.10
+___    ______ ____    _____ _____  ____ __ ______    ______ _________
0000106 4300 5088            00088  2704  1 00117080             IC    R0,UPATSPST         SUZAN post flag byte
 00010A 18F0/4100 0002       00002  2705  1 00117090             BTX   PDBFLAGS,2,(R0)     Dump flag bits
 000110 4110 9056            0001E  2723  1          +
 000114 58E0 A8B2/0DEE       0095C  2726  1          +
 00011A B205 B218      00218        2728  1 00117880             STCK  TVTLCLDB             get time
 00011E 9801 B218            00218  2729  1 00117890             LM    R0,R1,TVTLCLDB
 000122 41F0 9059            00021  2730  1 00117900             LA    R15,PDBTIME
 000126 58E0 A8B6/0DEE       00960  2731  1 00117910             XCALL FMTTIME             convert time
 00012C 4800 B168            00168  2735  1 00117920             LH    R0,TVTLINE          requestor's line number
 000130 18F0/4100 0004       00004  2736  1 00117930             BTD   PDBLINO,4,(R0)
 000136 4110 9065            0002D  2754  1          +
 00013A 58E0 A8BA/0DEE       00964  2757  1          +
 000140 58F0 9038            00000  2759  1 00117940             BTD   PDBDATA1,4,PDBSAVER Return from SCOM OPEN
 000144 4100 0004            00004  2770  1          +
 000148 4110 906C            00034  2777  1          +
 00014C 58E0 A8BA/0DEE       00964  2780  1          +
 000152 D23F 906C 5004 00034 00004  2782  1 00117950             MVC   PDBDATA1,UPATFLAG   some data
 000158 0ADE                        2783  1 00117960             QSNAP PDBMSG,PDB#SMAL     dump it to log
 00015A 083000009040                2786  1          +
 000160 58F0 9038            00000  2787  1 00117970             L     R15,PDBSAVER        Restore R15
 000164                             2788    00117980           END   ,                      (debug trace)
0000164 18D9/980C D004       00004  2793    00118000           PEND
 DROP   UPATH,R5
 DROP   PDBUGREC-(4+52),R9
 DROP   *,R10
 00016A 58E0 D000/12FF       00000  2819             +
 000170 07FE                        2822             +
1PATH     (PATH2079) (10:10) (06JUN02) PATHREAD - Read record from path buffer                                              Page   14
0Current Usings:  (TVT,R11) (GVT,R12)
0Loc    Object Code    Addr1 Addr2  Stmt Lv Lineno    Source Statement           (Hibal 5, Asmedit 3.3)  HLASM R4.0  2002/06/06 10.10
+___    ______ ____    _____ _____  ____ __ ______    ______ _________
0                                   2824    00120000  ¿þþþþþþþþþþþþþþþþþþþþþþþþþþþþþþþþþþþþþþþþþþþþþþþþþþþþþþþþþþþþþþþþþþþþþÜ
                                    2825    00121000  Ÿ                                                                     Ÿ
                                    2826    00122000  Ÿ   PATHREAD -- Routine to read a new line from the path buffer.      Ÿ
                                    2827    00123000  Ÿ                                                                     Ÿ
                                    2828    00124000  Ÿ     On entry:                                                       Ÿ
                                    2829    00125000  Ÿ       R1 - UPATH ptr                                                Ÿ
                                    2830    00126000  Ÿ                                                                     Ÿ
                                    2831    00127000  Ÿ     On exit, R15 (and cc):                                          Ÿ
                                    2832    00128000  Ÿ       0 - ok; R1,R0 - line loc, len                                 Ÿ
                                    2833    00129000  Ÿ       nz- no data; R1,R0 - error msg loc, len                       Ÿ
                                    2834    00130000  Ÿ                                                                     Ÿ
                                                      ¾þþþþþþþþþþþþþþþþþþþþþþþþþþþþþþþþþþþþþþþþþþþþþþþþþþþþþþþþþþþþþþþþþþþþþ»
0000172 90DF B0D4            000D4  2835    00131000  PATHREAD XPROC (R2,LSR),PDBUGREC
 000176 58F0 C014/0DEF       00014  2847             +
 00017C D7C1E3C8D9C5C1C4            2849             +
 000184 98DF B0D4            000D4  2850             +
 000188 50E0 D000            00000  2853             +
 00018C 902C D004/189D       00004  2856             +
 000192 41D0 D0A4/0DA0       000A4  2859             +
 000198 1851                        2891    00132000           LR    R5,R1
 USING  *,R10
 USING  PDBUGREC-(4+44),R9
 USING  UPATH,R5                    2892    00133000           WITH  (UPATH,R5)
 00019A                             2905    00134000           IF    (UPATH,NE,'PATH'),'FAIL "Bad UPATH address"'
 00019A D503 A7C0 5000 00958 00000  2916             +
 0001A0 4780 A020            001B8  2917             +
 0001A4 FEDC11                      2925  1          +
 0001A7 C2818440E4D7C1E3            2926             +
                                    2932    00135000           ¿þþþþþþþþþþþþþþþþþþþþþþþþþþþþþþþþþþþþþþþþþþþþþþþþþþþþþþþþþþþþÜ
                                    2933    00136000           Ÿ  First check to see if there is still data in the current  Ÿ
                                    2934    00137000           Ÿ    xact.                                                   Ÿ
                                    2935    00138000           ¾þþþþþþþþþþþþþþþþþþþþþþþþþþþþþþþþþþþþþþþþþþþþþþþþþþþþþþþþþþþþ»
 0001B8                             2936    00139000           IF    (UPATDLEN,NZ),PRDOK  Fine, scram
 0001B8 D603 500C 500C 0000C 0000C  2946             +
 0001BE 4770 A122            002BA  2949             +
                                    2955    00140000           ¿þþþþþþþþþþþþþþþþþþþþþþþþþþþþþþþþþþþþþþþþþþþþþþþþþþþþÜ
                                    2956    00141000           Ÿ  Get the next transaction and process its header.  Ÿ
                                    2957    00142000           ¾þþþþþþþþþþþþþþþþþþþþþþþþþþþþþþþþþþþþþþþþþþþþþþþþþþþþ»
 0001C2 41F0 0014            00014  2958    00143000           SCOM  FREELOC,0,L:UPATMGC  Get next transaction
 0001C6 5800 504C/1B11       0004C  2970             +
 0001CC 0AFB                        2975             +
 0001CE 12FF/4780 A046       001DE  2976    00144000           IF    (R15,NZ),BEGIN
 0001D4 58E0 A7D0/0DEE       00968  2990  1 00145000             ACALL PATHRC              Get error msg text
 0001DA 47F0 A18E            00326  2994  1 00146000             B     PRDEXIT
 0001DE                             2995    00147000           END
                                    2999    00148000
 0001DE 1200/4780 A122       002BA  3000    00149000           IF    (R0,Z),PRDOK        Nothing to read, scram
                                    3017    00150000           ¿þþþþþþþþþþþþþþþþþÜ
                                    3018    00151000           Ÿ  Update trace.  Ÿ
                                    3019    00152000           ¾þþþþþþþþþþþþþþþþþ»
 0001E4 B205 508A      0008A        3020    00153100           STCK  UPATRTIM            Time stamp
 0001E8 5000 5094            00094  3021    00154000           ST    R0,UPATRLEN         Save length
 0001EC 18F0                        3022    00155000           LR    R15,R0              Copy length
1PATH     (PATH2079) (10:10) (06JUN02) PATHREAD - Read record from path buffer                                              Page   15
0Current Usings:  (UPATH,R5) (PDBUGREC-(4+44),R9) (*,R10) (TVT,R11) (GVT,R12)
0Loc    Object Code    Addr1 Addr2  Stmt Lv Lineno    Source Statement           (Hibal 5, Asmedit 3.3)  HLASM R4.0  2002/06/06 10.10
+___    ______ ____    _____ _____  ____ __ ______    ______ _________
00001EE 59F0 A7D4            0096C  3023    00156000           CEIL  R15,L'UPATRDAT      Truncate to trace area length
 0001F2 47D0 A062            001FA  3032             +
 0001F6 58F0 A7D4            0096C  3037             +
 0001FA 06F0/44F0 A8F2       00A8A  3042    00157000           DEX   R15,'MVC UPATRDAT(0),@R1'  Move data to trace area
 000A89 00                                1          +
 000A8A D200 5098 1000 00098 00000  3053             +
 000200 9180 B0A2      000A2        3061    00157010           IF    TVTXDBUG,BEGIN      debug trace
 000204 47E0 A0D8            00270  3071             +
 000208 9001 9030            00000  3076  1 00157020             STM   R0,R1,PDBSAVER      Save
 00020C D26B 9038 C0E0 00008 000E0  3077  1 00157030             MVC   PDBMSG(PDB#LARG),GVTBLANK  clear buffer
 000212 D207 9038 B014 00008 00014  3078  1 00157040             MVC   PDBSVNAM,TVTNAME    server name
 000218 1B00                        3079  1 00157050             SR    R0,R0
 00021A 4300 5088            00088  3080  1 00157060             IC    R0,UPATSPST         SUZAN post flag byte
 00021E 18F0/4100 0002       00002  3081  1 00157070             BTX   PDBFLAGS,2,(R0)     Dump flag bits
 000224 4110 904E            0001E  3099  1          +
 000228 58E0 A7C4/0DEE       0095C  3102  1          +
 00022E D203 9040 504C 00010 0004C  3104  1 00157890             MVC   PDBMAGIC,UPATMGC    magic cookie
 000234 D209 9044 A822 00014 009BA  3105  1 00157900             MVC   PDBTSTYP,=CL10'PathRead'
 00023A 9801 508A            0008A  3106  1 00157910             LM    R0,R1,UPATRTIM      Set into parameter registers
 ** ASMA033I Storage alignment for UPATRTIM unfavorable
 ** ASMA435I Record 194 in SYS02157.T101009.RA000.WIN#PATH.SYSIN.H01 on volume:
 00023E 41F0 9051            00021  3107  1 00157920             LA    R15,PDBTIME         Move address of work area
 000242 58E0 A7C8/0DEE       00960  3108  1 00157930             XCALL FMTTIME             Convert time
 000248 4800 B168            00168  3112  1 00157940             LH    R0,TVTLINE          requestor's line number
 00024C 18F0/4100 0004       00004  3113  1 00157950             BTD   PDBLINO,4,(R0)
 000252 4110 905D            0002D  3131  1          +
 000256 58E0 A7CC/0DEE       00964  3134  1          +
 00025C D23F 9064 5098 00034 00098  3136  1 00157960             MVC   PDBDATA1,UPATRDAT   some data
 000262 0700/0ADE                   3137  1 00157970             QSNAP PDBMSG,PDB#LARG     log the debug data
 000266 086C00009038                3140  1          +
 00026C 9801 9030            00000  3141  1 00157980             LM    R0,R1,PDBSAVER      restore
 000270                             3142    00157990           END   ,                      (debug trace)
                                    3146    00158000           ¿þþþþþþþþþþþþþþþþþþþþþþþþþþþþþþþþþþþþþþþþþþþþþþþþþþþþþþþþþþþÜ
                                    3147    00159000           Ÿ  Return data to caller if not in "multiple line" format.  Ÿ
                                    3148    00160000           ¾þþþþþþþþþþþþþþþþþþþþþþþþþþþþþþþþþþþþþþþþþþþþþþþþþþþþþþþþþþþ»
 000270 5900 A7D8            00970  3149    00161000           IF    ((R0,LT,4),OR,(@R1,NE,X'00')),BEGIN
 000274 4740 A0E8            00280  3165             +
 000278 9500 1000      00000        3175             +
 00027C 4780 A116            002AE  3176             +
 000280 94BF 5004      00004        3181  1 00162000             CLEAR UPATFHDR            Flag not multiple line format
 000284 41F0 0001            00001  3188  1 00163000             INCR  R15,TVTCNTRECVD     Count transaction received
 000288 5EF0 B204            00204  3192  1          +
 00028C 50F0 B204            00204  3193  1          +
 000290 1BEE                        3194  1 00164000             CLEAR R14                 Zero high word for double
 000292 18F0                        3198  1 00165000             LR    R15,R0              Copy bytes read
 000294 5EF0 B214            00214  3199  1 00166000             ADL   R14,TVTCNTBRECVD    Count bytes received
 000298 47C0 A108            002A0  3208  1          +
 00029C 5EE0 A7DC            00974  3214  1          +
 0002A0 5EE0 B210            00210  3219  1          +
 0002A4 90EF B210            00210  3220  1 00167000             STM   R14,R15,TVTCNTBRECVD    Replace stats in TVT
 0002A8 1BFF                        3221  1 00168000             CLEAR R15                 RC=0
 0002AA 47F0 A18E            00326  3225  1 00169000             EXIT  PATHREAD            Exit
 0002AE                             3228    00170000           END
                                    3232    00171000
1PATH     (PATH2079) (10:10) (06JUN02) PATHREAD - Read record from path buffer                                              Page   16
0Current Usings:  (UPATH,R5) (PDBUGREC-(4+44),R9) (*,R10) (TVT,R11) (GVT,R12)
0Loc    Object Code    Addr1 Addr2  Stmt Lv Lineno    Source Statement           (Hibal 5, Asmedit 3.3)  HLASM R4.0  2002/06/06 10.10
+___    ______ ____    _____ _____  ____ __ ______    ______ _________
00002AE 9640 5004      00004        3233    00172000           SET   UPATFHDR            Data is in multiple line format
 0002B2 5010 5008            00008  3239    00173000           ST    R1,UPATDLOC         Save data location
 0002B6 5000 500C            0000C  3240    00174000           ST    R0,UPATDLEN         ...and remaining length
                                    3241    00175000           ¿þþþþþþþþþþþþþþþþþþþþþþþþþþþþþþþþþþþþþþþþþþþþþþþþþþþþþþþþþþþþþþþÜ
                                    3242    00176000           Ÿ  Return pointer to next line of data (R1,R0 = line loc,len).  Ÿ
                                    3243    00177000           ¾þþþþþþþþþþþþþþþþþþþþþþþþþþþþþþþþþþþþþþþþþþþþþþþþþþþþþþþþþþþþþþþ»
 0002BA 5820 500C/1222       0000C  3244    00178000  PRDOK    LT    R2,UPATDLEN
 0002C0 4770 A13C            002D4  3248    00179000           IF    Z,'SETMSG "NO DATA"; LH R15,=H"-4"; B PRDEXIT'
 0002C4 4110 A860            009F8  3262  1          +
 0002C8 4100 0007            00007  3263  1          +
 0002CC 48F0 A82C            009C4  3264  1          +
 0002D0 47F0 A18E            00326  3265             +
 0002D4 5830 5008            00008  3270    00180000           L     R3,UPATDLOC
 0002D8 5800 3000            00000  3271    00181000           L     R0,@R3              Get length
 0002DC 4130 3004            00004  3272    00182000           LA    R3,@R3+4            Adjust for length
 0002E0 4B20 A82E            009C6  3273    00183000           SH    R2,=H'4'
 0002E4 47B0 A152/1B22       002EA  3274    00184000           IF    NEG,'CLEAR R2'
 0002EA 1902/47D0 A15A       002F2  3294    00185000           CEIL  R0,R2               Not too much now
 0002F0 1802                        3299             +
 0002F2 1813                        3300    00186000           LR    R1,R3               Start of data
 0002F4 1A30                        3301    00187000           AR    R3,R0               Adjust for data bytes
 0002F6 1B20                        3302    00188000           SR    R2,R0
 0002F8 5030 5008            00008  3303    00189000           ST    R3,UPATDLOC
 0002FC 5020 500C            0000C  3304    00190000           ST    R2,UPATDLEN
 000300 41F0 0001            00001  3305    00191000           INCR  R15,TVTCNTRECVD     Count transaction received
 000304 5EF0 B204            00204  3309             +
 000308 50F0 B204            00204  3310             +
 00030C 1BEE                        3311    00192000           CLEAR R14                 Zero high word for double
 00030E 18F0                        3315    00193000           LR    R15,R0              Copy bytes read
 000310 5EF0 B214            00214  3316    00194000           ADL   R14,TVTCNTBRECVD    Count bytes received
 000314 47C0 A184            0031C  3325             +
 000318 5EE0 A7DC            00974  3331             +
 00031C 5EE0 B210            00210  3336             +
 000320 90EF B210            00210  3337    00195000           STM   R14,R15,TVTCNTBRECVD    Replace stats in TVT
                                    3338    00196000
 000324 1BFF                        3339    00197000           CLEAR R15                 A-ok
 000326 18D9/982C D004       00004  3343    00198000  PRDEXIT  PEND
 DROP   UPATH,R5
 DROP   PDBUGREC-(4+44),R9
 DROP   *,R10
 00032C 58E0 D000/12FF       00000  3370             +
 000332 07FE                        3373             +
1PATH     (PATH2079) (10:10) (06JUN02) PATHSEG - Path SEG routine                                                           Page   17
0Current Usings:  (TVT,R11) (GVT,R12)
0Loc    Object Code    Addr1 Addr2  Stmt Lv Lineno    Source Statement           (Hibal 5, Asmedit 3.3)  HLASM R4.0  2002/06/06 10.10
+___    ______ ____    _____ _____  ____ __ ______    ______ _________
0                                   3375    00200000  ¿þþþþþþþþþþþþþþþþþþþþþþþþþþþþþþþþþþþþþþþþþþþþþþþþþþþþþþþþþþþþþþþþþþþþþÜ
                                    3376    00201000  Ÿ                                                                     Ÿ
                                    3377    00202000  Ÿ   PATHSEG -- Seg processing routine to handle writing               Ÿ
                                    3378    00203000  Ÿ     data across the Suzan path.                                     Ÿ
                                    3379    00204000  Ÿ                                                                     Ÿ
                                    3380    00205000  Ÿ     On entry:                                                       Ÿ
                                    3381    00206000  Ÿ       R15 - SEGCB ptr                                               Ÿ
                                    3382    00207000  Ÿ                                                                     Ÿ
                                    3383    00208000  Ÿ     Note:                                                           Ÿ
                                    3384    00209000  Ÿ       In the SEGCB, "SEGCBUSR" must point to our UPATH.             Ÿ
                                    3385    00210000  Ÿ                                                                     Ÿ
                                                      ¾þþþþþþþþþþþþþþþþþþþþþþþþþþþþþþþþþþþþþþþþþþþþþþþþþþþþþþþþþþþþþþþþþþþþþ»
0000000                00000 00010  3386    00211000  PSGWA    RECORD BEGIN
 000000                             3394  1 00212000  PSGHDRA    DS    A                   SCOM parm: header address
 000004                             3395  1 00213000  PSGHDRL    DS    F                   SCOM parm: header length
 000008                             3396  1 00214000  PSGDATAA   DS    A                   SCOM parm: address
 00000C                             3397  1 00215000  PSGDATAL   DS    F                   SCOM parm: length
 000010                00010 00010  3398    00216000           END
                                    3407    00217000  þþþþ
 000334 50E0 D000            00000  3408    00218000  PATHSEG  XPROC PSGWA,TRACE=NO
 000338 900C D004/189D       00004  3423             +
 00033E 41D0 D048/0DA0       00048  3426             +
 USING  *,R10                       3458    00219000           CLEAR PSGWA
 USING  PSGWA-(4+52),R9
 000344 D70F 9038 9038 00000 00000  3464             +
                                    3465    00220000
 00034A 185F                        3466    00221000           LR    R5,R15              Move SEGCB address
 USING  SEGCB,R5                    3467    00222000           WITH  (SEGCB,R5)          Addressability to SEGCB
                                    3480    00223000           ¿þþþþþþþþþþþþþþþþþþþþþþþþþþþþþþÜ
                                    3481    00224000           Ÿ  SEGWR/SEGCR (or overflow).  Ÿ
                                    3482    00225000           ¾þþþþþþþþþþþþþþþþþþþþþþþþþþþþþþ»
 00034C 9502 5000      00000        3483    00226000           IF    (SEGCBWR,OR,SEGCBCR,OR,SEGCBOVF),BEGIN  SEGWR...
 000350 4780 A020            00364  3497             +
 000354 9506 5000      00000        3506             +
 000358 4780 A020            00364  3509             +
 00035C 9505 5000      00000        3518             +
 000360 4770 A1CE            00512  3519             +
                                    3524  1 00227000
 000364 5830 5038            00038  3525  1 00228000             L     R3,SEGCBUSR         Get our UPATH ptr
 USING  UPATH,R3                    3526  1 00229000             WITH  (UPATH,R3),BEGIN
 000368                             3540  2 00230000               FAIL  (UPATH,NE,'PATH'),'Bad UPATH address'
 000368 D503 A614 3000 00958 00000  3553  2          +
 00036E 4780 A042            00386  3554  2          +
 000372 FEDC11                      3559  3          +
 000375 C2818440E4D7C1E3            3560  2          +
 000386 9108 3004      00004        3566  2 00231000               IF    UPATFWHDR,BEGIN     Need to include wings header
 00038A 47E0 A052            00396  3576  2          +
 00038E 5B10 A634            00978  3581  3 00232000                 S     R1,=A(16)           Back off wings header length
 000392 5A00 A634            00978  3582  3 00233000                 A     R0,=A(16)           Adjust length to send
 000396                             3583  2 00234000               END   ,
 000396 1220                        3587  2 00235000               LTR   R2,R0
 000398 47D0 A1BC            00500  3588  2 00236000               IF    P,BEGIN             Current buffer length
 00039C 5900 A634            00978  3599  3 00237000                 IF    ((R0,GE,16),AND,(@R1,EQ,'FILE_ERROR:')),BEGIN
1PATH     (PATH2079) (10:10) (06JUN02) PATHSEG - Path SEG routine                                                           Page   18
0Current Usings:  (UPATH,R3) (SEGCB,R5) (PSGWA-(4+52),R9) (*,R10) (TVT,R11) (GVT,R12)
0Loc    Object Code    Addr1 Addr2  Stmt Lv Lineno    Source Statement           (Hibal 5, Asmedit 3.3)  HLASM R4.0  2002/06/06 10.10
+___    ______ ____    _____ _____  ____ __ ______    ______ _________
00003A0 4750 A070            003B4  3613  3          +
 0003A4 D50A A6BB 1000 009FF 00000  3625  3          +
 0003AA 4770 A070            003B4  3626  3          +
 0003AE 58E0 A638/0DEE       0097C  3631  4 00238000                   XCALL XPRTCMD             Log file_error return
 0003B4                             3635  3 00239000                 END   ,
 0003B4 41F0 0001            00001  3639  3 00240000                 INCR  R15,TVTCNTSENT      Tally scom send
 0003B8 5EF0 B200            00200  3643  3          +
 0003BC 50F0 B200            00200  3644  3          +
 0003C0 1BEE                        3645  3 00241000                 CLEAR R14                   zero for byte count
 0003C2 18F0                        3649  3 00242000                 LR    R15,R0                  set byte count of send
 0003C4 5EF0 B20C            0020C  3650  3 00243000                 ADL   R14,TVTCNTBSENT           tally total byte count
 0003C8 47C0 A08C            003D0  3659  3          +
 0003CC 5EE0 A630            00974  3665  3          +
 0003D0 5EE0 B208            00208  3670  3          +
 0003D4 90EF B208            00208  3671  3 00244000                 STM   R14,R15,TVTCNTBSENT         replace in tvt
 0003D8 5010 9040            00008  3672  3 00245000                 ST    R1,PSGDATAA         Seg data ptrs
 0003DC 5000 9044            0000C  3673  3 00246000                 ST    R0,PSGDATAL
                                    3674  3 00247000
 0003E0 4110 9044            0000C  3675  3 00248000                 SETMSG PSGDATAL
 0003E4 4100 0004            00004  3688  3          +
 0003E8 5010 9038            00000  3689  3 00249000                 ST    R1,PSGHDRA          Length
 0003EC 5000 903C            00004  3690  3 00250000                 ST    R0,PSGHDRL
 0003F0 5840 3074            00074  3691  3 00251000                 L     R4,UPATECB          ->SUZAN ECB             ML940224
                                    3692  3 00252000
 0003F4 9680 9040      00008        3693  3 00253000                 SET   PSGDATAA.X'80'      Set VL bit
                                    3700  3 00254000  *
                                    3701  3 00255000  *
 0003F8                             3702  3 00256000                 LOOP  BEGIN               Resend transaction on error
 0003F8 4110 9040            00008  3708  4 00257000                   LA    R1,PSGDATAA         Assume sending data only
 0003FC 9140 3004      00004        3709  4 00258000                   IF    UPATFHDR,'LA R1,PSGHDRA'  Send length + data
 000400 47E0 A0C4            00408  3719  4          +
 000404 4110 9038            00000  3725  4          +
 000408 9200 4000      00000        3730  4 00259000                   MVI   @R4,0               Clear SUZAN ECB         ML940224
 00040C 9180 B0A2      000A2        3731  4 00261000                   IF    TVTXDBUG,BEGIN      special debug trace     ml950515
 000410 47E0 A146            0048A  3741  4          +
 000414 187D/41D0 D074       00074  3746  5 00261010                     XPUSH ,,L'PDBUGREC,PTR=R7 Get debug space         ml960702
 USING  PDBUGREC,R7                 3749  5 00261020                     WITH  (PDBUGREC,R7),BEGIN
 00041A 9001 7000            00000  3763  6 00261030                       STM   R0,R1,PDBSAVER      save
 00041E D26B 7008 C0E0 00008 000E0  3764  6 00261040                       MVC   PDBMSG(PDB#LARG),GVTBLANK       clear
 000424 D203 7010 304C 00010 0004C  3765  6 00261050                       MVC   PDBMAGIC,UPATMGC    magic cookie
 00042A D209 7014 A684 00014 009C8  3766  6 00261060                       MVC   PDBTSTYP,=CL10'PathWrite'
 000430 D207 7008 B014 00008 00014  3767  6 00261070                       MVC   PDBSVNAM,TVTNAME    server name
 000436 1B00                        3768  6 00261080                       SR    R0,R0
 000438 4300 3088            00088  3769  6 00261090                       IC    R0,UPATSPST         SUZAN post flag byte
 00043C 18F0/4100 0002       00002  3770  6 00261100                       BTX   PDBFLAGS,2,(R0)     Dump flag bits
 000442 4110 701E            0001E  3788  6          +
 000446 58E0 A618/0DEE       0095C  3791  6          +
 00044C B205 B218      00218        3793  6 00261860                       STCK  TVTLCLDB            get time
 000450 9801 B218            00218  3794  6 00261870                       LM    R0,R1,TVTLCLDB
 000454 41F0 7021            00021  3795  6 00261880                       LA    R15,PDBTIME
 000458 58E0 A61C/0DEE       00960  3796  6 00261890                       XCALL FMTTIME             convert time
 00045E 4800 B168            00168  3800  6 00261900                       LH    R0,TVTLINE          requestor's line number
 000462 18F0/4100 0004       00004  3801  6 00261910                       BTD   PDBLINO,4,(R0)
 000468 4110 702D            0002D  3819  6          +
1PATH     (PATH2079) (10:10) (06JUN02) PATHSEG - Path SEG routine                                                           Page   19
0Current Usings:  (UPATH,R3) (SEGCB,R5) (PDBUGREC,R7) (PSGWA-(4+52),R9) (*,R10) (TVT,R11) (GVT,R12)
0Loc    Object Code    Addr1 Addr2  Stmt Lv Lineno    Source Statement           (Hibal 5, Asmedit 3.3)  HLASM R4.0  2002/06/06 10.10
+___    ______ ____    _____ _____  ____ __ ______    ______ _________
000046C 58E0 A620/0DEE       00964  3822  6          +
 000472 5810 9040            00008  3824  6 00261920                       L     R1,PSGDATAA         ->data
 000476 D23F 7034 1000 00034 00000  3825  6 00261930                       MVC   PDBDATA1,@R1        some data
 00047C 0ADE                        3826  6 00261940                       QSNAP PDBMSG,PDB#LARG   log debugging data
 00047E 086C00007008                3829  6          +
 000484 9801 7000            00000  3830  6 00261950                       LM    R0,R1,PDBSAVER      restore R0-R1
 DROP   PDBUGREC,R7                 3831  5 00261960                     END   ,                      (with R7)
 000488 18D7                        3839  5 00261970                     XPOP  PTR=R7              free workarea
 00048A                             3841  4 00261980                   END   ,                      (debug)
000048A 9200 3088      00088        3846  4 00262000                   MVI   UPATSPST,0          clr reason-for-post flags   ML02
 00048E 41F0 0008            00008  3847  4 00266000                   SCOM  SEND,(R1),L:UPATMGC Send transaction
 000492 5800 304C/0AFB       0004C  3859  4          +
 000498 90DF B0D4            000D4  3865  4 00267000                   PTRACE SCOMSEND
 00049C 58F0 C014/0DEF       00014  3868  4          +
 0004A2 E2C3D6D4E2C5D5C4            3870  4          +
 0004AA 98DF B0D4            000D4  3871  4          +
 0004AE 42F0 3005            00005  3872  4 00268000                   STC   R15,UPATWRC         Save return code
 0004B2 9180 B0A2      000A2        3873  4 00268100                   IF    TVTXDBUG,BEGIN      special debug trace     ml020111
 0004B6 47E0 A180            004C4  3883  4          +
 0004BA 0700/0ADE                   3888  5 00268200                     QSNAP (R15)               dump return code        ml020111
 0004BE 020100/F00000               3891  5          +
 0004C4                             3893  4 00268300                   END   ,                      (debug trace)        ml020111
 0004C4 12FF/4780 A1BC       00500  3897  4 00269000                   IF    (R15,Z),EXIT        Exit loop on successful send
 0004CA 58E0 5014/12EE       00014  3914  4 00270000                   LT    RAR,SEGCBERR        Load error recovery routine addr
 0004D0 4780 A1B8            004FC  3918  4 00271000                   IF    NZ,BEGIN            Enter recovery routine
 0004D4 181F                        3929  5 00272000                     LR    R1,R15              Save return code
 0004D6 18F5                        3930  5 00273000                     LR    R15,R5              Load address of segcb
 0004D8 05EE                        3931  5 00274000                     BALR  RAR,RAR             Enter recovery routine
 0004DA 4780 A1B8            004FC  3932  5 00275000                     IF    NZ,BEGIN
 0004DE FEDC1B                      3943  6 00276000                       FAIL  'Unexpected path return code'
 0004E1 E49585A7978583A3            3946  6          +
 0004FC                             3948  5 00277000                     END   ,                      (bad RC from recovery)
 0004FC                             3952  4 00278000                   END   ,                      (recovery)
 0004FC 47F0 A0B4            003F8  3956  3 00279000                 END   ,                      (loop)
 000500                             3961  2 00281000               END
 000500 9108 3004      00004        3965  2 00282000               IF    UPATFWHDR,BEGIN
 000504 47E0 A1C8            0050C  3975  2          +
 000508 5B20 A634            00978  3980  3 00283000                 S     R2,=A(16)           Adjust if we included the header
 00050C                             3981  2 00284000               END   ,
 00050C 1302                        3985  2 00285000               LCR   R0,R2               For overflow: nbytes processed
 00050E 5009 0004            00004  3986  2 00286000               PRETURN (R0)
 DROP   UPATH,R3                    3988  1 00287000             END   ,
 000512                             3996    00288000           END
                                    4000    00289000           ¿þþþþþþþþþþþþþþþþþþþþþþþþþþþþþþþþþþþþþþþþþþþÜ
                                    4001    00290000           Ÿ  Post processing (set return code only).  Ÿ
                                    4002    00291000           ¾þþþþþþþþþþþþþþþþþþþþþþþþþþþþþþþþþþþþþþþþþþþ»
 000512 9504 5000      00000        4003    00292000           IF    SEGCBSPP,BEGIN      Post processing...
 000516 4770 A1D8            0051C  4013             +
 00051A 1B00                        4018  1 00293000             CLEAR R0                  Assume A-ok
 00051C                             4022    00294000           END
                                    4026    00295000
 00051C 18D9/980C D004       00004  4027    00296000           PEND
 DROP   SEGCB,R5
1PATH     (PATH2079) (10:10) (06JUN02) PATHSEG - Path SEG routine                                                           Page   20
0Current Usings:  (TVT,R11) (GVT,R12)
0Loc    Object Code    Addr1 Addr2  Stmt Lv Lineno    Source Statement           (Hibal 5, Asmedit 3.3)  HLASM R4.0  2002/06/06 10.10
+___    ______ ____    _____ _____  ____ __ ______    ______ _________
0DROP   PSGWA-(4+52),R9
 DROP   *,R10
 000522 58E0 D000/12FF       00000  4053             +
 000528 07FE                        4056             +
1PATH     (PATH2079) (10:10) (06JUN02) PATHCLS - Close user path                                                            Page   21
0Current Usings:  (TVT,R11) (GVT,R12)
0Loc    Object Code    Addr1 Addr2  Stmt Lv Lineno    Source Statement           (Hibal 5, Asmedit 3.3)  HLASM R4.0  2002/06/06 10.10
+___    ______ ____    _____ _____  ____ __ ______    ______ _________
0                                   4058    00298000  ¿þþþþþþþþþþþþþþþþþþþþþþþþþþþþþþþþþþþþþþþþþþþþþþþþþþþþþþþþþþþþþþþþþþþþþÜ
                                    4059    00299000  Ÿ                                                                     Ÿ
                                    4060    00300000  Ÿ   PATHCLS -- Routine to close a user path.                          Ÿ
                                    4061    00301000  Ÿ                                                                     Ÿ
                                    4062    00302000  Ÿ     On entry:                                                       Ÿ
                                    4063    00303000  Ÿ       R1 - path number                                              Ÿ
                                    4064    00304000  Ÿ                                                                     Ÿ
                                    4065    00305000  Ÿ     On exit, R15 (and cc):                                          Ÿ
                                    4066    00306000  Ÿ       0 = closed                                                    Ÿ
                                    4067    00307000  Ÿ       4 = not closed; R1,R0 = error msg loc, len                    Ÿ
                                    4068    00308000  Ÿ                                                                     Ÿ
                                                      ¾þþþþþþþþþþþþþþþþþþþþþþþþþþþþþþþþþþþþþþþþþþþþþþþþþþþþþþþþþþþþþþþþþþþþþ»
000052A 90DF B0D4            000D4  4069    00309000  PATHCLS  XPROC PDBUGREC
 00052E 58F0 C014/0DEF       00014  4082             +
 000534 D7C1E3C8C3D3E240            4084             +
 00053C 98DF B0D4            000D4  4085             +
 000540 50E0 D000            00000  4088             +
 000544 900C D004/189D       00004  4091             +
 00054A 41D0 D0AC/0DA0       000AC  4094             +
 000550 1851                        4126    00310000           LR    R5,R1
 USING  *,R10
 USING  PDBUGREC-(4+52),R9
 USING  UPATH,R5                    4127    00311000           WITH  (UPATH,R5)
 000552                             4140    00312000           IF    (UPATH,NE,'PATH'),'FAIL "Bad UPATH address"'
 000552 D503 A408 5000 00958 00000  4151             +
 000558 4780 A020            00570  4152             +
 00055C FEDC11                      4160  1          +
 00055F C2818440E4D7C1E3            4161             +
                                    4167    00313000           ¿þþþþþþþþþþþþþþþþþþþþþþþþþþþþþþþþþþþþþþþþþþþþþþþþÜ
                                    4168    00314000           Ÿ  Close path (we don't care if it's not open).  Ÿ
                                    4169    00315000           ¾þþþþþþþþþþþþþþþþþþþþþþþþþþþþþþþþþþþþþþþþþþþþþþþþ»
 000570 9180 B0A2      000A2        4170    00315010           IF    TVTXDBUG,BEGIN      debug trace
 000574 47E0 A090            005E0  4180             +
 000578 D22F 9040 C0E0 00008 000E0  4185  1 00315020             MVC   PDBMSG(PDB#SMAL),GVTBLANK       clear
 00057E D203 9048 504C 00010 0004C  4186  1 00315030             MVC   PDBMAGIC,UPATMGC    magic cookie
 000584 D209 904C A482 00014 009D2  4187  1 00315040             MVC   PDBTSTYP,=CL10'PathClose'
 00058A D207 9040 B014 00008 00014  4188  1 00315050             MVC   PDBSVNAM,TVTNAME    server name
 000590 1B00                        4189  1 00315060             SR    R0,R0
 000592 4300 5088            00088  4190  1 00315070             IC    R0,UPATSPST         SUZAN post flag byte
 000596 18F0/4100 0002       00002  4191  1 00315080             BTX   PDBFLAGS,2,(R0)     Dump flag bits
 00059C 4110 9056            0001E  4209  1          +
 0005A0 58E0 A40C/0DEE       0095C  4212  1          +
 0005A6 B205 B218      00218        4214  1 00315890             STCK  TVTLCLDB             get time
 0005AA 9801 B218            00218  4215  1 00315900             LM    R0,R1,TVTLCLDB
 0005AE 41F0 9059            00021  4216  1 00315910             LA    R15,PDBTIME
 0005B2 58E0 A410/0DEE       00960  4217  1 00315920             XCALL FMTTIME             convert time
 0005B8 4800 B168            00168  4221  1 00315930             LH    R0,TVTLINE          requestor's line number
 0005BC 18F0/4100 0004       00004  4222  1 00315940             BTD   PDBLINO,4,(R0)
 0005C2 4110 9065            0002D  4240  1          +
 0005C6 58E0 A414/0DEE       00964  4243  1          +
 0005CC 5050 906C            00034  4245  1 00315950             ST    R5,PDBDATA1         path number is extra info
 0005D0 D23F 906C 5004 00034 00004  4246  1 00315960             MVC   PDBDATA1,UPATFLAG   some data
 0005D6 0700/0ADE                   4247  1 00315970             QSNAP PDBMSG,PDB#SMAL     dump it to log
1PATH     (PATH2079) (10:10) (06JUN02) PATHCLS - Close user path                                                            Page   22
0Current Usings:  (UPATH,R5) (PDBUGREC-(4+52),R9) (*,R10) (TVT,R11) (GVT,R12)
0Loc    Object Code    Addr1 Addr2  Stmt Lv Lineno    Source Statement           (Hibal 5, Asmedit 3.3)  HLASM R4.0  2002/06/06 10.10
+___    ______ ____    _____ _____  ____ __ ______    ______ _________
00005DA 083000009040                4250  1          +
 0005E0                             4251    00315980           END   ,                      (debug trace)
00005E0 41F0 0004            00004  4256    00316000           SCOM  CLOSE,0,L:UPATMGC   Close path
 0005E4 5800 504C/1B11       0004C  4268             +
 0005EA 0AFB                        4273             +
 0005EC D203 5000 A430 00000 00980  4274    00317000           MVC   UPATHID,=C'FPTH'    Zap id
                                    4275    00318000           ¿þþþþþþþþþþþþþþþþþþþþþþÜ
                                    4276    00319000           Ÿ  Free UPATH memory.  Ÿ
                                    4277    00320000           ¾þþþþþþþþþþþþþþþþþþþþþþ»
 0005F2 4110 5000            00000  4278    00321000           LA    R1,UPATH
 0005F6 58E0 A434/0DEE       00984  4279    00322000           VCALL FREECORE            Release memory
 0005FC 1BFF                        4283    00323000           CLEAR R15                 A-ok
 0005FE 18D9/980C D004       00004  4287    00324000           PEND
 DROP   UPATH,R5
 DROP   PDBUGREC-(4+52),R9
 DROP   *,R10
 000604 58E0 D000/12FF       00000  4313             +
 00060A 07FE                        4316             +
1PATH     (PATH2079) (10:10) (06JUN02) PATHINFO - Get path partner information                                              Page   23
0Current Usings:  (TVT,R11) (GVT,R12)
0Loc    Object Code    Addr1 Addr2  Stmt Lv Lineno    Source Statement           (Hibal 5, Asmedit 3.3)  HLASM R4.0  2002/06/06 10.10
+___    ______ ____    _____ _____  ____ __ ______    ______ _________
0                                   4318    00326000  ¿þþþþþþþþþþþþþþþþþþþþþþþþþþþþþþþþþþþþþþþþþþþþþþþþþþþþþþþþþþþþþþþþþþþþþÜ
                                    4319    00327000  Ÿ                                                                     Ÿ
                                    4320    00328000  Ÿ  PATHINFO -- Routine to get path partner information.               Ÿ
                                    4321    00329000  Ÿ                                                                     Ÿ
                                    4322    00330000  Ÿ    On entry:                                                        Ÿ
                                    4323    00331000  Ÿ      R1 - UPATH ptr                                                 Ÿ
                                    4324    00332000  Ÿ                                                                     Ÿ
                                    4325    00333000  Ÿ    On exit:                                                         Ÿ
                                    4326    00334000  Ÿ      UPATH information fields are filled in                         Ÿ
                                    4327    00335000  Ÿ                                                                     Ÿ
                                                      ¾þþþþþþþþþþþþþþþþþþþþþþþþþþþþþþþþþþþþþþþþþþþþþþþþþþþþþþþþþþþþþþþþþþþþþ»
0000000                00000 000EC  4328    00336000  PIWA     RECORD BEGIN
 000000                             4336  1 00337000  PIPARMS    DS    2A                  Suzan INFO parm: loc, len
                                    4337  1 00338000             ¿þþþþþþþþþþþþþþþþþþþþþþþþþþþþþþþþþþþþþþþþþþþþþþþþþþþÜ
                                    4338  1 00339000             Ÿ  Information returned from the "SCOM INFO" call.  Ÿ
                                    4339  1 00340000             ¾þþþþþþþþþþþþþþþþþþþþþþþþþþþþþþþþþþþþþþþþþþþþþþþþþþþ»
 000008                             4340  1 00341000  PIASCBP    DS    A                   Info:  Partner's ASCB ptr
 00000C                             4341  1 00342000  PIBUFSIZ   DS    F                   Info:  Partner's buffer size
 000010                             4342  1 00343000  PIPATHNM   DS    CL8                 Info:  Partner's path name
 000018                             4343  1 00344000  PIXACTP    DS    A                   Info:  Input XACT chain ptr
 00001C                             4344  1 00345000             DS    XL16                Info:  Zeros (reserved)
 00002C                             4345  1 00346000  PIPINFO    DS    XL(L'PINFO)         Info:  Partner's "PINFO"
                                    4346  1 00347000  PIINFO     EQU   PIASCBP,*-PIASCBP,C'X'
                                    4347  1 00348000
 0000AC                             4348  1 00349000  PIWORK     DS    XL64                Local work area
 0000EC                000EC 000EC  4349    00350000           END
                                    4358    00351000  þþþþ
 00060C 90DF B0D4            000D4  4359    00352000  PATHINFO XPROC PIWA
 000610 58F0 C014/0DEF       00014  4372             +
 000616 D7C1E3C8C9D5C6D6            4374             +
 00061E 98DF B0D4            000D4  4375             +
 000622 50E0 D000            00000  4378             +
 000626 900C D004/189D       00004  4381             +
 00062C 41D0 D124/0DA0       00124  4384             +
 000632 1851                        4416    00353000           LR    R5,R1
 USING  *,R10
 USING  PIWA-(4+52),R9
 USING  UPATH,R5                    4417    00354000           WITH  (UPATH,R5)
 000634                             4430    00355000           FAIL  (UPATH,NE,'PATH'),'Bad UPATH address'
 000634 D503 A326 5000 00958 00000  4443             +
 00063A 4780 A020            00652  4444             +
 00063E FEDC11                      4449  1          +
 000641 C2818440E4D7C1E3            4450             +
                                    4456    00356000           ¿þþþþþþþþþþþþþþþþþþþþþþþþþþþþþþþþþþþþÜ
                                    4457    00357000           Ÿ  Get path information from Suzan.  Ÿ
                                    4458    00358000           ¾þþþþþþþþþþþþþþþþþþþþþþþþþþþþþþþþþþþþ»
 000652 4100 9040            00008  4459    00359000           LA    R0,PIINFO           Addr of area
 000656 4110 00A4            000A4  4460    00360000           LA    R1,L'PIINFO         Length
 00065A 9001 9038            00000  4461    00361000           STM   R0,R1,PIPARMS
 00065E 9680 9038      00000        4462    00362000           SET   PIPARMS.X'80'       Mark as end of list
                                    4469    00363000
 000662 41F0 0020            00020  4470    00364000           SCOM  INFO,PIPARMS,L:UPATMGC  Get Suzan info
 000666 5800 504C            0004C  4482             +
1PATH     (PATH2079) (10:10) (06JUN02) PATHINFO - Get path partner information                                              Page   24
0Current Usings:  (UPATH,R5) (PIWA-(4+52),R9) (*,R10) (TVT,R11) (GVT,R12)
0Loc    Object Code    Addr1 Addr2  Stmt Lv Lineno    Source Statement           (Hibal 5, Asmedit 3.3)  HLASM R4.0  2002/06/06 10.10
+___    ______ ____    _____ _____  ____ __ ______    ______ _________
000066A 4110 9038/0AFB       00000  4489             +
 000670 12FF/4770 A112       00744  4491    00365000           IF    (R15,NZ),EXIT       Couldn't get info, forget it
                                    4508    00366000  *
 000676                             4509    00367000           IF    (PIASCBP,Z),EXIT    No partner's ASCB, forget it
 000676 D603 9040 9040 00008 00008  4519             +
 00067C 4780 A112            00744  4522             +
                                    4528    00368000
 000680 D203 5010 9040 00010 00008  4529    00369000           MVC   UPATPASC,PIASCBP    Save partner's ASCB ptr
                                    4530    00370000           ¿þþþþþþþþþþþþþþþþþþþþþþþþþþþþþþþþþþþþþþþþþþþþþþþþþþþÜ
                                    4531    00371000           Ÿ  Save partner information when PINFO is present.  Ÿ
                                    4532    00372000           ¾þþþþþþþþþþþþþþþþþþþþþþþþþþþþþþþþþþþþþþþþþþþþþþþþþþþ»
 000686 4140 9064            0002C  4533    00373000           LA    R4,PIPINFO
 USING  PINFO,R4                    4534    00374000           WITH  (PINFO,R4)
 00068A                             4547    00375000           IF    (PINFO,EQ,'PINF'),BEGIN  We have info...
 00068A D503 A356 4000 00988 00000  4558             +
 000690 4770 A0A8            006DA  4559             +
 000694                             4564  1 00376000             IF    (PINFOCAL,EQ,'AUTH'),'SET UPATFAUTH'  Authorized
 000694 D503 A35A 4020 0098C 00020  4575  1          +
 00069A 4770 A070            006A2  4576  1          +
 00069E 9604 5004      00004        4587  1          +
 0006A2 D207 5026 4008 00026 00008  4592  1 00377000             MVC   UPATPJOB,PINFOSYS   Save partner's "jobname"
 0006A8 D207 502E 4010 0002E 00010  4593  1 00378000             MVC   UPATPACT,PINFOACC   Save partner's account
 0006AE D201 5024 4032 00024 00032  4594  1 00379000             MVC   UPATPLNO,PINFOLNO   Save partner's line number
 0006B4 D213 5036 4038 00036 00038  4595  1 00380000             MVC   UPATPNAM,PINFONAM   Save partner's user name
 0006BA 5800 9044            0000C  4596  1 00381000             L     R0,PIBUFSIZ         Partner's buffer size   ml950602
 0006BE 5000 5020            00020  4597  1 00382000             ST    R0,UPATBUFL                                 ml950602
 0006C2 9120 4030      00030        4598  1 00383000             IF    PINFOIFL.KWRIFSPR,'SET UPATFSPR'  Sys privs
 0006C6 47E0 A09C            006CE  4609  1          +
 0006CA 9620 5004      00004        4620  1          +
 0006CE 9110 4030      00030        4625  1 00384000             IF    PINFOIFL.KWRIFOPR,'SET UPATFOPR'  Opr privs
 0006D2 47E0 A0A8            006DA  4636  1          +
 0006D6 9610 5004      00004        4647  1          +
 0006DA                             4652    00385000           END
                                    4656    00386000           ¿þþþþþþþþþþþþþþþþþþþþþþþþþþþþþþþþþþþþþþþþþþþþþþþþþþþþþþþÜ
                                    4657    00387000           Ÿ  Save partner information for batch jobs (no PINFO).  Ÿ
                                    4658    00388000           ¾þþþþþþþþþþþþþþþþþþþþþþþþþþþþþþþþþþþþþþþþþþþþþþþþþþþþþþþ»
 0006DA A0AC           006DA 00692  4659    00389000           ELSE  BEGIN               No PINFO, get jobname...
 0006DA 47F0 A110            00742  4664             +
 0006DE 0700/0ADE/2125              4670  1 00390000             QSNAP 'PATHINFO: No Wylbur/Orvyl PINFO block',MODE=WTL
 0006E4 4100 A3D8            00A0A  4674  1          +
 0006E8 4100 0004            00004  4675  1 00391000             HASPSERV JOBNAME,PIWORK,ASCB=UPATPASC  Get jobname
 0006EC 4110 90E4            000AC  4689  1          +
 0006F0 58F0 5010/0AFE       00010  4694  1          +
 0006F6 D207 5026 90E4 00026 000AC  4696  1 00392000             MVC   UPATPJOB,PIWORK     Save jobname
                                    4697  1 00393000
 0006FC 1B00/4110 90E4       000AC  4698  1 00394000             HASPSERV JOBACCT,PIWORK,ASCB=UPATPASC  Get account
 000702 58F0 5010/0AFE       00010  4714  1          +
 000708 D207 502E C0E0 0002E 000E0  4716  1 00395000             MVC   UPATPACT,GVTBLANK   Form "gg.uuu"...
 00070E D201 502E 90E7 0002E 000AF  4717  1 00396000             MVC   UPATPACT(2),PIWORK+3
 000714 924B 5030      00030        4718  1 00397000             MVI   UPATPACT+2,C'.'
 000718 D202 5031 90E4 00031 000AC  4719  1 00398000             MVC   UPATPACT+3(3),PIWORK
 00071E 9120 90EB      000B3        4720  1 00399000             IF    PIWORK+7.KWRIFSPR,'SET UPATFSPR'  Sys privs
 000722 47E0 A0F8            0072A  4731  1          +
 000726 9620 5004      00004        4742  1          +
1PATH     (PATH2079) (10:10) (06JUN02) PATHINFO - Get path partner information                                              Page   25
0Current Usings:  (PINFO,R4) (UPATH,R5) (PIWA-(4+52),R9) (*,R10) (TVT,R11) (GVT,R12)
0Loc    Object Code    Addr1 Addr2  Stmt Lv Lineno    Source Statement           (Hibal 5, Asmedit 3.3)  HLASM R4.0  2002/06/06 10.10
+___    ______ ____    _____ _____  ____ __ ______    ______ _________
000072A 9110 90EB      000B3        4747  1 00400000             IF    PIWORK+7.KWRIFOPR,'SET UPATFOPR'  Opr privs
 00072E 47E0 A104            00736  4758  1          +
 000732 9610 5004      00004        4769  1          +
                                    4774  1 00401000
 000736 D201 5024 A3AA 00024 009DC  4775  1 00402000             MVC   UPATPLNO,=H'-1'     No line number
 00073C                             4776  1 00403000             CLEAR UPATPNAM            No user name
 00073C D713 5036 5036 00036 00036  4782  1          +
 000742                             4783    00404000           END   ,                     (no PINFO)
                                    4787    00405000
 000742 1BFF                        4788    00406000           CLEAR R15                 (Neatness)
 000744 18D9/980C D004       00004  4792    00407000           PEND
 DROP   PINFO,R4
 DROP   UPATH,R5
 DROP   PIWA-(4+52),R9
 DROP   *,R10
 00074A 58E0 D000/12FF       00000  4823             +
 000750 07FE                        4826             +
1PATH     (PATH2079) (10:10) (06JUN02) PATHRC - Format path return code                                                     Page   26
0Current Usings:  (TVT,R11) (GVT,R12)
0Loc    Object Code    Addr1 Addr2  Stmt Lv Lineno    Source Statement           (Hibal 5, Asmedit 3.3)  HLASM R4.0  2002/06/06 10.10
+___    ______ ____    _____ _____  ____ __ ______    ______ _________
0                                   4828    00409000  ¿þþþþþþþþþþþþþþþþþþþþþþþþþþþþþþþþþþþþþþþþþþþþþþþþþþþþþþþþþþþþþþþþþþþþþÜ
                                    4829    00410000  Ÿ                                                                     Ÿ
                                    4830    00411000  Ÿ   PATHRC -- Routine to form string from return code.                Ÿ
                                    4831    00412000  Ÿ                                                                     Ÿ
                                    4832    00413000  Ÿ     On entry:                                                       Ÿ
                                    4833    00414000  Ÿ       R15 - return code from Suzan                                  Ÿ
                                    4834    00415000  Ÿ                                                                     Ÿ
                                    4835    00416000  Ÿ     On exit:                                                        Ÿ
                                    4836    00417000  Ÿ       R1,R0 - message loc, len                                      Ÿ
                                    4837    00418000  Ÿ                                                                     Ÿ
                                                      ¾þþþþþþþþþþþþþþþþþþþþþþþþþþþþþþþþþþþþþþþþþþþþþþþþþþþþþþþþþþþþþþþþþþþþþ»
0000752 90DF B0D4            000D4  4838    00419000  PATHRC   XPROC (R2,LSR)
 000756 58F0 C014/0DEF       00014  4850             +
 00075C D7C1E3C8D9C34040            4852             +
 000764 98DF B0D4            000D4  4853             +
 000768 50E0 D000            00000  4856             +
 00076C 902C D004/189D       00004  4859             +
 000772 41D0 D030/0DA0       00030  4861             +
 000778 4110 A266            009DE  4884    00420000           SETMSG 'OK'
 USING  *,R10
 00077C 4100 0002            00002  4887             +
 000780 12FF/4780 A016       0078E  4888    00421000           IF    (R15,NZ),'SETMSG "ERROR"'
 000786 4110 A2B7            00A2F  4905  1          +
 00078A 4100 0005            00005  4906             +
 00078E 59F0 A218            00990  4911    00422000           IF    (R15,EQ,=A(UPATRIFC)),'SETMSG "BAD SUZAN FUNCTION CODE"'
 000792 4770 A026            0079E  4922             +
 000796 4110 A2BC            00A34  4930  1          +
 00079A 4100 0017            00017  4931             +
 00079E 59F0 A21C            00994  4936    00423000           IF    (R15,EQ,=A(UPATRPMW)),'SETMSG "BAD SUZAN CONTROL BLOCK"'
 0007A2 4770 A036            007AE  4947             +
 0007A6 4110 A2D3            00A4B  4955  1          +
 0007AA 4100 0017            00017  4956             +
 0007AE 59F0 A220            00998  4961    00424000           IF    (R15,EQ,=A(UPATRBAF)),'SETMSG "BUFFER FULL"'
 0007B2 4770 A046            007BE  4972             +
 0007B6 4110 A2EA            00A62  4980  1          +
 0007BA 4100 000B            0000B  4981             +
 0007BE 59F0 A224            0099C  4986    00425000           IF    (R15,EQ,=A(UPATRNOP)),'SETMSG "NO PARTNER"'
 0007C2 4770 A056            007CE  4997             +
 0007C6 4110 A268            009E0  5005  1          +
 0007CA 4100 000A            0000A  5006             +
 0007CE 59F0 A228            009A0  5011    00426000           IF    (R15,EQ,=A(UPATRBOM)),'SETMSG "TOO BIG"'
 0007D2 4770 A066            007DE  5022             +
 0007D6 4110 A2F5            00A6D  5030  1          +
 0007DA 4100 0007            00007  5031             +
 0007DE 59F0 A22C            009A4  5036    00427000           IF    (R15,EQ,=A(UPATRIBS)),'SETMSG "BUFFER TOO SMALL"'
 0007E2 4770 A076            007EE  5047             +
 0007E6 4110 A1C8            00940  5055  1          +
 0007EA 4100 0010            00010  5056             +
 0007EE 59F0 A230            009A8  5061    00428000           IF    (R15,EQ,=A(UPATRBPI)),'SETMSG "BAD SUZAN BUFFER ADDR"'
 0007F2 4770 A086            007FE  5072             +
 0007F6 4110 A2FC            00A74  5080  1          +
 0007FA 4100 0015            00015  5081             +
 0007FE 59F0 A234            009AC  5086    00429000           IF    (R15,EQ,=A(UPATRIAD)),'SETMSG "BAD SUZAN ADDR"'
1PATH     (PATH2079) (10:10) (06JUN02) PATHRC - Format path return code                                                     Page   27
0Current Usings:  (*,R10) (TVT,R11) (GVT,R12)
0Loc    Object Code    Addr1 Addr2  Stmt Lv Lineno    Source Statement           (Hibal 5, Asmedit 3.3)  HLASM R4.0  2002/06/06 10.10
+___    ______ ____    _____ _____  ____ __ ______    ______ _________
0000802 4770 A096            0080E  5097             +
 000806 4110 A272            009EA  5105  1          +
 00080A 4100 000E            0000E  5106             +
 00080E 18D9/982C D004       00004  5111    00430000           PEND
 DROP   *,R10
 000814 58E0 D000/12FF       00000  5127             +
 00081A 07FE                        5130             +
                                    5131    00431000           ¿þþþþþþþþþþþþþþÜ
                                    5132    00432000           Ÿ  Constants.  Ÿ
                                    5133    00433000           ¾þþþþþþþþþþþþþþ»
                                    5134    00434000           COPY  MPATH               Model UPATH
                                    5135=   00001000 =¿þþþþþþþþþþþþþþþþþþþþþþþþþþþþþþþþþþþþþþþþþþþþþþþþþþþþþþþþþþþþþþþþþþþþþÜ
                                    5136=   00002000 =Ÿ                                                                     Ÿ
                                    5137=   00003000 =Ÿ    User Path control block.                                         Ÿ
                                    5138=   00004000 =Ÿ                                                                     Ÿ
                                    5139=   00005000 =Ÿ      MUST BE EXACTLY THE SAME AS UPATH!                             Ÿ
                                    5140=   00006000 =Ÿ                                                                     Ÿ
                                                      ¾þþþþþþþþþþþþþþþþþþþþþþþþþþþþþþþþþþþþþþþþþþþþþþþþþþþþþþþþþþþþþþþþþþþþþ»
0000820                             5141    00007000 =MPATH    DS    0D
 000820 D7C1E3C8                    5142    00008000 =MPATHID  DC    CL4'PATH'
 000824 00                          5143    00009000 =MPATFLAG FLAG
 MPATFLAG.MPATFO   80 ONES          5147    00010000 =         FLAG  MPATFO              - Path has opened
 MPATFLAG.MPATFHDR 40 ONES          5152    00011000 =         FLAG  MPATFHDR            - Send length word before data
 MPATFLAG.MPATFSPR 20 ONES          5157    00012000 =         FLAG  MPATFSPR            - Partner is SYS priv'd
 MPATFLAG.MPATFOPR 10 ONES          5162    00013000 =         FLAG  MPATFOPR            - Partner is OPR priv'd
 MPATFLAG.MPATFWHD 08 ONES          5167    00013100 =         FLAG  MPATFWHDR           - Send WINGS header command
 MPATFLAG.MPATFAUT 04 ONES          5172    00013200 =         FLAG  MPATFAUTH           - Partner is authorized
 MPATFLAG.MPATTWAI 02 ONES          5177    00013300 =         FLAG  MPATTWAIT
                                    5182    00014000 =
 000825                             5183    00015000 =MPATWRC  DS    X                   Last write return code
                                    5184    00016000 =
 000826 0000
 000828 00000000                    5185    00017000 =MPATDLOC DC    A(0)                Remaining data location
 00082C 00000000                    5186    00018000 =MPATDLEN DC    A(0)                Remaining data length
                                    5187    00019000 =
 000830 00000000                    5188    00020000 =MPATPASC DC    F'0'                Partner's ASCB ptr
 000834 0000000000000000            5189    00020100 =MPATECBL DC    A(0),A(0)           ECB list for Suzan/Timeout
 00083C 00000000                    5190    00020200 =MPATTOID DC    A(0)                Timer ID for timeout
 000840 00000000                    5191    00020300 =MPATBUFL DC    A(0)                Partner's buffer length
 000844 0000                        5192    00021000 =MPATPLNO DC    H'0'                Partner's line number
 000846 0000000000000000            5193    00022000 =MPATPJOB DC    XL8'00'             Partner's jobname
 00084E 0000000000000000            5194    00023000 =MPATPACT DC    XL8'00'             Partner's account
 000856 0000000000000000            5195    00024000 =MPATPNAM DC    XL20'00'            Partner's user name
                                    5196    00025000 =
                                    5197    00026000C=         PATH  VERSION=2,PFX=MPAT,FLAG=MPATSPST,ECB=MPATSECB,
 00086A 0000/00000000                       00027000                 MYTAG=MYTAG,PASS=PROD,BUFSIZE=16384
 000870 00000000                    5202             +
 000874 D4E8E3C1C7404040            5204             +
 00087C FFFFFFFFFFFFFFFF            5206             +
 000884 80/000000                   5208             +
 000888 00004000                    5219             +
 00088C 000008A8                    5221             +
 000890 D7D9D6C4                    5231             +
1PATH     (PATH2079) (10:10) (06JUN02) PATHRC - Format path return code                                                     Page   28
0Current Usings:  (TVT,R11) (GVT,R12)
0Loc    Object Code    Addr1 Addr2  Stmt Lv Lineno    Source Statement           (Hibal 5, Asmedit 3.3)  HLASM R4.0  2002/06/06 10.10
+___    ______ ____    _____ _____  ____ __ ______    ______ _________
0000894 000008A4                    5233             +
 000898 00000000                    5235             +
 00089C 00000000                    5237             +
 0008A0 00000000                    5239             +
                                    5258    00028000 =
 0008A4 00000000                    5259    00029000 =MPATSECB DC    F'0'                Suzan path ECB
                                    5260    00030000 =
 0008A8 00                          5261    00031000 =MPATSPST DC    X'00'               Suzan post flag byte
 0008A9 00                          5262    00032000 =MPATSFLG DC    X'00'               Copy of Suzan post flag byte
                                    5263    00033000 =
 0008AA 0000000000000000            5264    00034000 =MPATRTIM DC    XL8'00'             Time of last received msg
 0008B2 0000
 0008B4 00000000                    5265    00035000 =MPATRLEN DC    F'0'                Length of last received msg
 0008B8 0000000000000000            5266    00036000 =MPATRDAT DC    XL128'00'           Last received message
                                    5267    00435000
                                    5268    00436000           QLTORG
                                    5325    00437000  PATHX    EQU   *-PATH              Module length
                                    5326    00438000
 000A90                             5327    00439000           DC    0D'0'               FORCE OUT TO DOUBLE WORD
                                    5328    00440000           ENTRY SYMPATH             DEFINE SYMBOL ENTRY FOR PATH
 000A90 D7C1E3C840404040            5329    00441000  SYMPATH  DC    CL8'PATH',A(PATH),A(PATHX)
 000AA0 00000000                    5330    00442000           DC    A(0)                End of symbols
 000AA8                00AA8 00AA8  5331    00443000           END   .

1PATH     (PATH2079) (10:10) (06JUN02) Macro and Copy Code Source Summary                                                   Page   29
- Con Source                                        Volume    Members                        HLASM R4.0  2002/06/06 10.10
0     PRIMARY INPUT                                           CSECT    DROP     END      EX       LTORG    POP
                                                              PRINT    PUSH     START    USING
   L1 WYL.GA.MCL.WINGS.MACLIB                       STR211    BTD      BTX      DVWA     FAIL     GVT      LCLDBWA
                                                              MPATH    PDBUGREC PROC     PTRACE   REG      TPENTRY  TVT
                                                              UPATH    XCALL    XPOP     XPROC    XPUSH
   L2 WYL.GG.SYS.MACLIB                             STR210    $BC      $BFLKUP  $BV      $CCLKUP  $CRS     $CSS     $L
                                                              $LA      $LBLAD   $LEXP    $LOR     $REL     $RGLKUP
                                                              $USLKUP  ACALL    ADL      BASE     BEGIN    CEIL
                                                              CLEAR    CSECT    DATA     DEFCC    DEX      DROP     ELSE
                                                              END      EX       EXIT     FLAG     GEN      HIBAL
                                                              IDENT    IF       INCR     LABEL    LOOP     LS       LT
                                                              LTORG    MOVEL    PEND     POP      PRETURN  PRINT    PUSH
                                                              QLTORG   RECORD   REGS     SET      SETMSG   START
                                                              SYSLR    USING    VCALL    WITH
   L3 SYS3.IS.MACLIB                                SYSA03    DEFINE   KWR      SEGCB    SYSDEFN
   L4 SYS3.MACLIB                                   SYSA03    HASPSERV PATH     PINFO    QSNAP    SCOM

1PATH     (PATH2079) (10:10) (06JUN02) Using Map                                                                            Page   30
-                                                                                            HLASM R4.0  2002/06/06 10.10
   Stmt  -----Location----- Action ----------------Using----------------- Reg Max    Last  Label and Using Text
           Count      Id           Type          Value    Range     Id        Disp   Stmt
0   945  00000000  00000001 USING  ORDINARY    00000000 00001000 FFFFFFF0  15 000          @R15,15
    949  00000000  00000001 USING  ORDINARY    00000000 00001000 FFFFFFF1  14 000          @R14,14
    953  00000000  00000001 USING  ORDINARY    00000000 00001000 FFFFFFF2  13 000          @R13,13
    957  00000000  00000001 USING  ORDINARY    00000000 00001000 FFFFFFF3  12 000          @R12,12
    961  00000000  00000001 USING  ORDINARY    00000000 00001000 FFFFFFF4  11 000          @R11,11
    965  00000000  00000001 USING  ORDINARY    00000000 00001000 FFFFFFF5  10 000          @R10,10
    969  00000000  00000001 USING  ORDINARY    00000000 00001000 FFFFFFF6   9 000          @R9,9
    973  00000000  00000001 USING  ORDINARY    00000000 00001000 FFFFFFF7   8 000          @R8,8
    977  00000000  00000001 USING  ORDINARY    00000000 00001000 FFFFFFF8   7 000          @R7,7
    981  00000000  00000001 USING  ORDINARY    00000000 00001000 FFFFFFF9   6 000          @R6,6
    985  00000000  00000001 USING  ORDINARY    00000000 00001000 FFFFFFFA   5 000          @R5,5
    989  00000000  00000001 USING  ORDINARY    00000000 00001000 FFFFFFFB   4 000    3730  @R4,4
    993  00000000  00000001 USING  ORDINARY    00000000 00001000 FFFFFFFC   3 004    3272  @R3,3
    997  00000000  00000001 USING  ORDINARY    00000000 00001000 FFFFFFFD   2 000          @R2,2
   1001  00000000  00000001 USING  ORDINARY    00000000 00001000 FFFFFFFE   1 000    3825  @R1,1
   1005  00000000  00000001 USING  ORDINARY    00000000 00001000 FFFFFFFF   0 000          @R0,0
   1006  00000000  00000001 DROP                                            0              0
   2388  00000017  00000001 USING  ORDINARY    00000000 00001000 FFFFFFEC  12 0E0    4716  GVT,GVTR
   2397  00000017  00000001 USING  ORDINARY    00000000 00001000 FFFFFFEB  11 218    4221  TVT,TVTR
   2441  0000003E  00000001 USING  ORDINARY    0000003E 00001000 00000001  10 916    2497  $$$12B,10
   2470  0000004A  00000001 USING  ORDINARY    00000000 00001000 FFFFFFE7   5 088    2501  UPATH,R5
   2508  0000006E  00000001 USING  ORDINARY    00000000 00001000 FFFFFFFA   5 000          @R5,5
   2524  00000076  00000001 USING  ORDINARY    00000000 00001000 FFFFFFF5  10 000          @R10,10
   2595  000000AA  00000001 USING  ORDINARY    000000AA 00001000 00000001  10 906    2780  $$$15B,10
   2609  000000AA  00000001 USING  ORDINARY    FFFFFFC8 00001000 FFFFFFE6   9 06C    2787  PDBUGREC-(4+52),R9
   2623  000000AC  00000001 USING  ORDINARY    00000000 00001000 FFFFFFE7   5 088    2782  UPATH,R5
   2799  00000164  00000001 USING  ORDINARY    00000000 00001000 FFFFFFFA   5 000          @R5,5
   2804  00000164  00000001 USING  ORDINARY    00000000 00001000 FFFFFFF6   9 000          @R9,9
   2809  00000164  00000001 USING  ORDINARY    00000000 00001000 FFFFFFF5  10 000          @R10,10
   2873  00000198  00000001 USING  ORDINARY    00000198 00001000 00000001  10 8F2    3331  $$$22B,10
   2887  00000198  00000001 USING  ORDINARY    FFFFFFD0 00001000 FFFFFFE6   9 064    3141  PDBUGREC-(4+44),R9
   2901  0000019A  00000001 USING  ORDINARY    00000000 00001000 FFFFFFE7   5 098    3304  UPATH,R5
   3350  00000326  00000001 USING  ORDINARY    00000000 00001000 FFFFFFFA   5 000          @R5,5
   3355  00000326  00000001 USING  ORDINARY    00000000 00001000 FFFFFFF6   9 000          @R9,9
   3360  00000326  00000001 USING  ORDINARY    00000000 00001000 FFFFFFF5  10 000          @R10,10
   3440  00000344  00000001 USING  ORDINARY    00000344 00001000 00000001  10 6BB    4013  $$$40B,10
   3454  00000344  00000001 USING  ORDINARY    FFFFFFC8 00001000 FFFFFFE5   9 044    3824  PSGWA-(4+52),R9
   3476  0000034C  00000001 USING  ORDINARY    00000000 00001000 FFFFFFEA   5 038    4012  SEGCB,R5
   3535  00000368  00000001 USING  ORDINARY    00000000 00001000 FFFFFFE7   3 088    3974  UPATH,R3
   3758  0000041A  00000001 USING  ORDINARY    00000000 00001000 FFFFFFE6   7 034    3830  PDBUGREC,R7
   3837  00000488  00000001 USING  ORDINARY    00000000 00001000 FFFFFFF8   7 000          @R7,7
   3994  00000512  00000001 USING  ORDINARY    00000000 00001000 FFFFFFFC   3 000          @R3,3
   4033  0000051C  00000001 USING  ORDINARY    00000000 00001000 FFFFFFFA   5 000          @R5,5
   4038  0000051C  00000001 USING  ORDINARY    00000000 00001000 FFFFFFF6   9 000          @R9,9
   4043  0000051C  00000001 USING  ORDINARY    00000000 00001000 FFFFFFF5  10 000          @R10,10
   4108  00000550  00000001 USING  ORDINARY    00000550 00001000 00000001  10 482    4281  $$$64B,10
   4122  00000550  00000001 USING  ORDINARY    FFFFFFC8 00001000 FFFFFFE6   9 06C    4246  PDBUGREC-(4+52),R9
   4136  00000552  00000001 USING  ORDINARY    00000000 00001000 FFFFFFE7   5 088    4278  UPATH,R5
   4293  000005FE  00000001 USING  ORDINARY    00000000 00001000 FFFFFFFA   5 000          @R5,5
   4298  000005FE  00000001 USING  ORDINARY    00000000 00001000 FFFFFFF6   9 000          @R9,9
   4303  000005FE  00000001 USING  ORDINARY    00000000 00001000 FFFFFFF5  10 000          @R10,10
   4398  00000632  00000001 USING  ORDINARY    00000632 00001000 00000001  10 3D8    4775  $$$70B,10
   4412  00000632  00000001 USING  ORDINARY    FFFFFFC8 00001000 FFFFFFE4   9 0EB    4757  PIWA-(4+52),R9
1PATH     (PATH2079) (10:10) (06JUN02) Using Map                                                                            Page   31
   4426  00000634  00000001 USING  ORDINARY    00000000 00001000 FFFFFFE7   5 04C    4782  UPATH,R5
   4543  0000068A  00000001 USING  ORDINARY    00000000 00001000 FFFFFFE8   4 038    4635  PINFO,R4
   4798  00000744  00000001 USING  ORDINARY    00000000 00001000 FFFFFFFB   4 000          @R4,4
   4803  00000744  00000001 USING  ORDINARY    00000000 00001000 FFFFFFFA   5 000          @R5,5
   4808  00000744  00000001 USING  ORDINARY    00000000 00001000 FFFFFFF6   9 000          @R9,9
   4813  00000744  00000001 USING  ORDINARY    00000000 00001000 FFFFFFF5  10 000          @R10,10
   4875  00000778  00000001 USING  ORDINARY    00000778 00001000 00000001  10 2FC    5105  $$$89B,10
   5117  0000080E  00000001 USING  ORDINARY    00000000 00001000 FFFFFFF5  10 000          @R10,10

1         (PATH2079) (10:10) (06JUN02) General Purpose Register Cross Reference                                             Page   32
- Register  References (M=modified, B=branch, U=USING, D=DROP, N=index)                      HLASM R4.0  2002/06/06 10.10
0    0(0)    1005U 1006D 2425  2454M 2494M 2496M 2532M 2578  2669M 2669  2703M 2703  2704M 2709  2716M 2729M 2735M 2740
             2747M 2770M 2817M 2970M 3008M 3008  3021  3022  3076  3079M 3079  3080M 3085  3092M 3106M 3112M 3117  3124M
             3141M 3162  3198  3240  3263M 3271M 3297  3299M 3301  3302  3315  3423  3582M 3587  3612  3649  3673  3688M
             3690  3763  3768M 3768  3769M 3774  3781M 3794M 3800M 3805  3812M 3830M 3859M 3985M 3987  4021M 4021  4051M
             4091  4189M 4189  4190M 4195  4202M 4215M 4221M 4226  4233M 4268M 4311M 4381  4459M 4461  4482M 4596M 4597
             4674M 4682M 4702M 4702  4821M 4887M 4906M 4931M 4956M 4981M 5006M 5031M 5056M 5081M 5106M
     1(1)    1001U 2425  2460  2495M 2496M 2511M 2513  2532M 2578  2613  2656M 2657  2678M 2723M 2729M 2754M 2777M 2817M
             2891  2974M 2974  3076  3099M 3106M 3131M 3141M 3239  3262M 3300M 3423  3581M 3672  3683M 3689  3708M 3725M
             3763  3788M 3794M 3819M 3824M 3830M 3929M 4051M 4091  4126  4209M 4215M 4240M 4272M 4272  4278M 4311M 4381
             4416  4460M 4461  4489M 4689M 4709M 4821M 4886M 4905M 4930M 4955M 4980M 5005M 5030M 5055M 5080M 5105M
     2(2)     997U 2425  2532M 2578  2817M 2856  3246M 3247M 3247  3273M 3289M 3289  3297  3299  3302M 3304  3368M 3423
             3587M 3980M 3985  4051M 4091  4311M 4381  4821M 4859  5125M
     3(3)     993U 2425  2532M 2578  2817M 2856  3270M 3272M 3300  3301M 3303  3368M 3423  3525M 3535U 3994U 4051M 4091
             4311M 4381  4821M 4859  5125M
     4(4)     989U 2425  2532M 2578  2817M 2856  3368M 3423  3691M 4051M 4091  4311M 4381  4533M 4543U 4798U 4821M 4859
             5125M
     5(5)     985U 2425  2460M 2470U 2482  2508U 2511  2532M 2578  2613M 2623U 2799U 2817M 2856  2891M 2901U 3350U 3368M
             3423  3466M 3476U 3930  4033U 4051M 4091  4126M 4136U 4245  4293U 4311M 4381  4416M 4426U 4803U 4821M 4859
             5125M
     6(6)     981U 2425  2532M 2578  2817M 2856  3368M 3423  4051M 4091  4311M 4381  4821M 4859  5125M
     7(7)     977U 2425  2532M 2578  2817M 2856  3368M 3423  3747M 3758U 3837U 3840  4051M 4091  4311M 4381  4821M 4859
             5125M
     8(8)     973U 2425  2532M 2578  2817M 2856  3368M 3423  4051M 4091  4311M 4381  4821M 4859  5125M
     9(9)     969U 2425  2426M 2513N 2528  2532M 2578  2580M 2609U 2804U 2813  2817M 2856  2858M 2887U 3355U 3364  3368M
             3423  3425M 3454U 3987N 4038U 4047  4051M 4091  4093M 4122U 4298U 4307  4311M 4381  4383M 4412U 4808U 4817
             4821M 4859  4860M 5121  5125M
    10(A)     965U 2425  2430M 2441U 2524U 2532M 2578  2584M 2595U 2809U 2817M 2856  2862M 2873U 3360U 3368M 3423  3429M
             3440U 4043U 4051M 4091  4097M 4108U 4303U 4311M 4381  4387M 4398U 4813U 4821M 4859  4864M 4875U 5117U 5125M
    11(B)     961U 2397U 2415  2419  2425  2532M 2568  2572  2578  2817M 2846  2850  2856  3368M 3423  3867  3871  4051M
             4081  4085  4091  4311M 4371  4375  4381  4821M 4849  4853  4859  5125M
    12(C)     957U 2388U 2416  2425  2532M 2569  2578  2817M 2847  2856  3368M 3423  3868  4051M 4082  4091  4311M 4372
             4381  4821M 4850  4859  5125M
    13(D)     953U 2415  2419M 2422  2425  2426  2427M 2427  2528M 2532  2534  2568  2572M 2575  2578  2580  2581M 2581
             2813M 2817  2819  2846  2850M 2853  2856  2858  2859M 2859  3364M 3368  3370  3420  3423  3425  3426M 3426
             3747  3748M 3748  3840M 3867  3871M 4047M 4051  4053  4081  4085M 4088  4091  4093  4094M 4094  4307M 4311
             4313  4371  4375M 4378  4381  4383  4384M 4384  4817M 4821  4823  4849  4853M 4856  4859  4860  4861M 4861
             5121M 5125  5127
    14(E)     949U 2415  2417M 2419M 2422  2457M 2458M 2458B 2482M 2496M 2534M 2537B 2568  2570M 2572M 2575  2726M 2727M
             2727B 2733M 2734M 2734B 2757M 2758M 2758B 2780M 2781M 2781B 2819M 2822B 2846  2848M 2850M 2853  2992M 2993M
             2993B 3102M 3103M 3103B 3110M 3111M 3111B 3134M 3135M 3135B 3197M 3197  3214M 3219M 3220  3314M 3314  3331M
             3336M 3337  3370M 3373B 3420  3633M 3634M 3634B 3648M 3648  3665M 3670M 3671  3791M 3792M 3792B 3798M 3799M
             3799B 3822M 3823M 3823B 3867  3869M 3871M 3916M 3917M 3917  3931M 3931B 4053M 4056B 4081  4083M 4085M 4088
             4212M 4213M 4213B 4219M 4220M 4220B 4243M 4244M 4244B 4281M 4282M 4282B 4313M 4316B 4371  4373M 4375M 4378
             4823M 4826B 4849  4851M 4853M 4856  5127M 5130B
    15(F)     945U 2415  2416M 2417B 2419M 2489M 2495  2496M 2498M 2499  2500M 2501  2517M 2517  2536M 2536  2568  2569M
             2570B 2572M 2673M 2673  2698  2709M 2730M 2740M 2763M 2787M 2821M 2821  2846  2847M 2848B 2850M 2965M 2984M
             2984  3022M 3025  3037M 3044M 3046  3085M 3107M 3117M 3191M 3192M 3193  3198M 3207M 3220  3224M 3224  3264M
             3308M 3309M 3310  3315M 3324M 3337  3342M 3342  3372M 3372  3466  3642M 3643M 3644  3649M 3658M 3671  3774M
             3795M 3805M 3854M 3867  3868M 3869B 3871M 3872  3905M 3905  3929  3930M 4055M 4055  4081  4082M 4083B 4085M
             4195M 4216M 4226M 4263M 4286M 4286  4315M 4315  4371  4372M 4373B 4375M 4477M 4499M 4499  4694M 4714M 4791M
             4791  4825M 4825  4849  4850M 4851B 4853M 4896M 4896  4921  4946  4971  4996  5021  5046  5071  5096  5129M
             5129

1PATH     (PATH2079) (10:10) (06JUN02) Diagnostic Cross Reference and Assembler Summary                                     Page   33
-                                                                                            HLASM R4.0  2002/06/06 10.10
0Statements Flagged
0    3106(P1,194)

       1 Statement  Flagged in this Assembly        0 was Highest Severity Code
0HIGH LEVEL ASSEMBLER, 5696-234, RELEASE 4.0, PTF UQ57391
0SYSTEM: OS/390 02.10.00            JOBNAME: WIN#PATH    STEPNAME: ASM        PROCSTEP: ASM
0Datasets Allocated for this Assembly
  Con DDname   Dataset Name                                 Volume  Member
   P1 SYSIN    SYS02157.T101009.RA000.WIN#PATH.SYSIN.H01
   L1 SYSLIB   WYL.GA.MCL.WINGS.MACLIB                      STR211
   L2          WYL.GG.SYS.MACLIB                            STR210
   L3          SYS3.IS.MACLIB                               SYSA03
   L4          SYS3.MACLIB                                  SYSA03
   L5          SYS1.MACLIB                                  OS02AD
   L6          SYS1.MODGEN                                  OS02AD
   L7          SYS4.MACLIB                                  SYSA04
      SYSLIN   WYL.GA.MCL.WINGS.OBJECT                      STR203  PATH
      SYSPRINT SYS02157.T101009.RA000.WIN#PATH.PRINT.H01    SCR001
      SYSTERM  GA$MCL.WIN#PATH.JOB01211.D0000102.?

    9460K allocated to Buffer Pool,         1094K would be required for this to be an In-Storage Assembly
     529 Primary Input Records Read         4555 Library Records Read                  0 Work File Reads
       0 ASMAOPT Records Read               2270 Primary Print Records Written         0 Work File Writes
      63 Punch Records Written                 0 ADATA Records Written
0Assembly Start Time: 10.10.10 Stop Time: 10.10.11 Processor Time: 00.00.00.4868
 Return Code 000
