1         High Level Assembler Option Summary                   (PTF UQ57391)                                               Page    1
-                                                                                            HLASM R4.0  2002/06/06 10.10
0  No Overriding ASMAOPT Parameters
   Overriding Parameters-  TERM,RENT,NOXREF,NODXREF,LINECOUNT(32767),NORLD,USING(WARN(11))
   No Process Statements


   Options for this Assembly
0  NOADATA
     ALIGN
   NOASA
     BATCH
     CODEPAGE(047C)
   NOCOMPAT
   NODBCS
   NODECK
 3 NODXREF
     ESD
   NOEXIT
     FLAG(0,ALIGN,CONT,NOIMPLEN,NOPAGE0,PUSH,RECORD,NOSUBSTR,USING0)
   NOFOLD
   NOGOFF
   NOINFO
     LANGUAGE(EN)
   NOLIBMAC
 3   LINECOUNT(32767)
     LIST(121)
     MXREF(SOURCE)
     OBJECT
     OPTABLE(UNI,NOLIST)
   NOPCONTROL
   NOPESTOP
   NOPROFILE
   NORA2
 3   RENT
 3 NORLD
     RXREF
     SIZE(MAX)
     SYSPARM()
 3   TERM(WIDE)
   NOTEST
     THREAD
   NOTRANSLATE
 3   USING(NOLIMIT,MAP,WARN(11))
 3 NOXREF

   No Overriding DD Names

1SCANNER  External Symbol Dictionary                                                                                        Page    2
-Symbol   Type   Id     Address  Length     LD ID  Flags Alias-of                            HLASM R4.0  2002/06/06 10.10
0SCANNER   SD 00000001 00000000 00000B98             00
 SCAN9001  LD          00000000           00000001
 SCINIT    LD          00000018           00000001
 SCTELL    LD          00000044           00000001
 SCTYPE    LD          00000076           00000001
 SCAN      LD          000000AE           00000001
 DQSCAN    LD          000005EC           00000001
 SYMSCANN  LD          00000B88           00000001

1SCANNER  Wings Scanner                                                                                                     Page    3
0Loc    Object Code    Addr1 Addr2  Stmt Lv Lineno    Source Statement                    (Asmedit 3.3)  HLASM R4.0  2002/06/06 10.10
+___    ______ ____    _____ _____  ____ __ ______    ______ _________
0                                      2    00001100  *** %%Module: wings asm scanner
                                       3    00002000  ¿þþþþþþþþþþþþþþþþþþþþþþþþþþþþþþþþþþþþþþþþþþþþþþþþþþþþþþþþþþþþþþþþþþþþþÜ
                                       4    00003000  Ÿ                                                                     Ÿ
                                       5    00004000  Ÿ        Orvyl Scanner  --  4/88                                      Ÿ
                                       6    00005000  Ÿ                                                                     Ÿ
                                       7    00006000  Ÿ        Modified to run in 24-bit or                                 Ÿ
                                       8    00007000  Ÿ        31-bit mode ("CLRHI" statements added).                      Ÿ
                                       9    00008000  Ÿ                                                                     Ÿ
                                                      ¾þþþþþþþþþþþþþþþþþþþþþþþþþþþþþþþþþþþþþþþþþþþþþþþþþþþþþþþþþþþþþþþþþþþþþ»
0                                     10    00009000  SCANNER  HIBAL
                                     994    00010000           IDENT 9001
                                     997             +
                                     998    01-IDENT +         ENTRY SCAN9001
                                     999             +
 000000 16E2C3C1D5F9F0F0            1000    01-IDENT +SCAN9001 DC    AL1(22),C'SCAN9001,06JUN02,10:10'
                                    1001             +*
                                    1003    00011000  *
                                    1004    00012000           REGS  FSR,,,,,,,BR,WAR,,,,LSR,SPR,RAR
                                    1089    00013000
                                    1090    00014000           MACRO
                                    1091    00015000  &L       XENTER &R,&S,&SZ
                                    1092    00016000  .*  ADAPTED FOR ORVYL 5/15/76
                                    1093    00017000           AIF   ('&L' EQ '').NEP
                                    1094    00018000           ENTRY &L
                                    1095    00019000  .NEP     ANOP
                                    1096    00020000  &L       ST    14,0(,13)
                                    1097    00021000           STM   &R,&S,4(13)
                                    1098    00022000           LR    8,13
                                    1099    00023000           AIF   ('&SZ' EQ '').NWA
                                    1100    00024000           AIF   ('&SZ' EQ '*').MIN
                                    1101    00025000           LA    13,(&SZ+3)/4*4(,13)
                                    1102    00026000           AGO   .NWA
                                    1103    00027000  .MIN     ANOP
                                    1104    00028000           LA    13,(&S+2-(&R)+16*((&R)/(&S+1))/((&R)/(&S+1)))*4(,13)
                                    1105    00029000  .NWA     ANOP
                                    1106    00030000           BASE
                                    1107    00031000           MEND
1SCANNER  (SCAN9001) (10:10) (06JUN02) Wings Scanner                                                                        Page    4
0Loc    Object Code    Addr1 Addr2  Stmt Lv Lineno    Source Statement           (Hibal 5, Asmedit 3.3)  HLASM R4.0  2002/06/06 10.10
+___    ______ ____    _____ _____  ____ __ ______    ______ _________
0                                   1109    00043000  * SAVE AREA
                                    1110    00044000  *
 000000                00000 00054  1111    00045000  SA       RECORD BEGIN
 000000                             1119  1 00046000             DS    F
 000004                             1120  1 00047000             DS    (12-2+1)F
 000030                             1121  1 00048000  WORD       DS    2F
 000038                             1122  1 00049000  SV15       DS    F
 00003C                             1123  1 00050000  CPSAVE     DS    2F
 000044                             1124  1 00051000  TEMPD      DS    3F                      DWORD WORK AREA
 000050                             1125  1 00052000  PCNT       DS    H
 000052                             1126  1 00053000  FL         DS    X
                                    1127  1 00054000
                                    1128  1 00055000  FSQS       EQU   X'80'                   SINGLE QUOTED STRING
                                    1129  1 00056000  FDQS       EQU   X'40'                   DOUBLE QUOTED STRING
                                    1130  1 00057000  FPS        EQU   X'20'                   PARENED STRING
                                    1131  1 00058000  FISOL      EQU   X'01'                   STRING ISOLATION
 000053                00053 00052  1132  1 00058010             ORG   FL
 000052 00                          1133  1 00058100  FL2FL      FLAG  ,
 FL2FL.FLFSQS      80 ONES          1137  1 00058110             FLAG  FLFSQS
 FL2FL.FLFDQS      40 ONES          1142  1 00058120             FLAG  FLFDQS
 FL2FL.FLFPS       20 ONES          1147  1 00058130             FLAG  FLFPS
 FL2FL.FLFISOL     01 ONES          1152  1 00058140             FLAG  (FLFISOL,X'01')
 000053                00053 00053  1161  1 00058200             ORG   ,
 000054                             1162  1 00059000             DS    0F
                                    1163  1 00060000  SASIZ      EQU   *-SA
 000054                00054 00054  1164    00061000           END   ,
0                                   1174    00063000  FTBLE    EQU   X'F8'                   LAST/POP/PUSH
                                    1175    00064000  FLAST    EQU   X'FF'                   END
                                    1176    00065000  FPARM    EQU   X'80'                   PARM
                                    1177    00066000  FLINNO   EQU   X'60'                   LINE NO. CONV
                                    1178    00067000  FINTEG   EQU   X'40'                   INTEGER 0 OR GTR
                                    1179    00068000  FINTEGP  EQU   X'20'                   INTEGER GTR 0
                                    1180    00069000  FCMSET   EQU   X'10'                   SET 3 COMMAND CHARS
                                    1181    00070000  FLIMIT   EQU   X'10'                   LIMIT
                                    1182    00071000  FABBREV  EQU   X'08'                   ABBREVIATION
-000000                00000 00008  1184    00073000  PRTSTACK RECORD BEGIN                  PUSH/POP STACK
 000000                             1192  1 00074000  PRTSTP     DS    A                       STACK POINTER (RELATIVE)
 000004                             1193  1 00075000             DS    A                       STACK (UNKNOWN LENGTH)
 000008                00008 00008  1194    00076000           END   ,
 000000                00000 00020  1205    00079000  SCANCB   RECORD BEGIN
                                    1213  1 00080000             SCANCB PFX=
 000000                             1214  1 01-SCANC +CB         DS    0F
 000000                             1215  1 01-SCANC +VAL        DS    A                       Value returned
 000004                             1216  1 01-SCANC +KW         DS    CL8                     Current key word
 00000C                             1217  1 01-SCANC +LEN        DS    A                       Length left to scan
 000010                             1218  1 01-SCANC +LOC        DS    A                       Next thing to scan
 000014                             1219  1 01-SCANC +RA         DS    A                       Return address
 000018                             1220  1 01-SCANC +PRT        DS    A                       Routing table address
 00001C                             1221  1 01-SCANC +CLT        DS    A                       Scan type
                                    1222  1          +*                                          0 = Normal scan
                                    1223  1          +*                                          4 = Expression isolation
                                    1224  1          +*                                          8 = Expression scan
                                    1225  1 01-SCANC +CBL        EQU *-CB
1SCANNER  (SCAN9001) (10:10) (06JUN02) Wings Scanner                                                                        Page    5
0Loc    Object Code    Addr1 Addr2  Stmt Lv Lineno    Source Statement           (Hibal 5, Asmedit 3.3)  HLASM R4.0  2002/06/06 10.10
+___    ______ ____    _____ _____  ____ __ ______    ______ _________
0000020                00020 00020  1226    00081000           END   ,
1SCANNER  (SCAN9001) (10:10) (06JUN02) Wings Scanner                                                                        Page    6
0Loc    Object Code    Addr1 Addr2  Stmt Lv Lineno    Source Statement           (Hibal 5, Asmedit 3.3)  HLASM R4.0  2002/06/06 10.10
+___    ______ ____    _____ _____  ____ __ ______    ______ _________
0                                   1237    00086100  ¿þþþþþþþþþþþþþþþþþþþþþþþþþþþþþþþþþþþþþþþþþþþþþþþþþþþþþþþþþþþþþþþþþþþþþÜ
                                    1238    00086200  Ÿ                                                                     Ÿ
                                    1239    00087000  Ÿ   SCINIT - INITIALIZE SCANNER CONTROL BLOCK                         Ÿ
                                    1240    00088000  Ÿ                                                                     Ÿ
                                                      ¾þþþþþþþþþþþþþþþþþþþþþþþþþþþþþþþþþþþþþþþþþþþþþþþþþþþþþþþþþþþþþþþþþþþþþ»
0000018 50E0 D000            00000  1242    00090000  SCINIT   XPROC TRACE=NO
 00001C 900C D004/188D       00004  1256             +
 000022 41D0 D038/0D70       00038  1258             +
 USING  *,R7                        1281    00090100           WITH  (SCANCB,R15)        ADDRESSABILITY TO SCANCB
 USING  SCANCB,R15
 000028 4110 1000            00000  1294    00091000           LA    R1,@R1              CLEAR HIGH ORDER BYTE/BIT
 00002C 9001 F00C            0000C  1295    00092000           STM   R0,R1,LEN             SAVE LOCATION AND LENGTH OF STR
 000030 D703 F01C F01C 0001C 0001C  1296    00093000           XC    CLT,CLT                 RESET SCAN TYPE
 000036 18D8/980C D004       00004  1297    00094000           PEND  ,                         RETURN TO CALLER
 DROP   SCANCB,R15
 DROP   *,R7
 00003C 58E0 D000/12FF       00000  1318             +
 000042 07FE                        1321             +
-
0                                   1323    00095100  ¿þþþþþþþþþþþþþþþþþþþþþþþþþþþþþþþþþþþþþþþþþþþþþþþþþþþþþþþþþþþþþþþþþþþþþÜ
                                    1324    00095200  Ÿ                                                                     Ÿ
                                    1325    00096000  Ÿ  SCTELL - RETURN LOCATION AND LENGTH OF SCAN AND THE SCAN TYPE      Ÿ
                                    1326    00097000  Ÿ                                                                     Ÿ
                                    1327    00098000  Ÿ    - SCAN TYPE IS 0, 1, OR 2                                        Ÿ
                                    1328    00098100  Ÿ                                                                     Ÿ
                                                      ¾þþþþþþþþþþþþþþþþþþþþþþþþþþþþþþþþþþþþþþþþþþþþþþþþþþþþþþþþþþþþþþþþþþþþþ»
-000044 50E0 D000            00000  1330    00100000  SCTELL   XPROC TRACE=NO
 000048 900C D004/188D       00004  1344             +
 00004E 41D0 D038/0D70       00038  1346             +
 USING  *,R7                        1369    00100100           WITH  (SCANCB,R15)        ADDRESSABILITY TO SCANCB
 USING  SCANCB,R15
 000054 5810 F01C            0001C  1382    00101000           L     R1,CLT              RETREIVE CURRENT SCAN TYPE
 000058 8810 0002            00002  1383    00102000           SRL   R1,2                  SHIFT DOWN FOR (0-3)
 00005C 5010 F000            00000  1384    00103000           ST    R1,VAL                  RETURN IN THE SCANCB VAL
 000060 9801 F00C            0000C  1385    00104000           LM    R0,R1,LEN                 RETURN CURRENT LOC,LENGTH
 000064 9001 8004            00004  1386    00105000           PRETURN (R0,R1)                   RETURN REGISTERS TO USER
 000068 18D8/980C D004       00004  1388    00105100           PEND  ,
 DROP   SCANCB,R15
 DROP   *,R7
 00006E 58E0 D000/12FF       00000  1409             +
 000074 07FE                        1412             +
-
                                    1414    00106100  ¿þþþþþþþþþþþþþþþþþþþþþþþþþþþþþþþþþþþþþþþþþþþþþþþþþþþþþþþþþþþþþþþþþþþþþÜ
                                    1415    00106200  Ÿ                                                                     Ÿ
                                    1416    00107000  Ÿ  SCTYPE - SET SCAN TYPE                                             Ÿ
                                    1417    00108000  Ÿ                                                                     Ÿ
                                    1418    00109000  Ÿ    - SCAN TYPE IS 0, 1, 2, OR 3                                     Ÿ
                                    1419    00109100  Ÿ                                                                     Ÿ
1SCANNER  (SCAN9001) (10:10) (06JUN02) Wings Scanner                                                                        Page    7
0Loc    Object Code    Addr1 Addr2  Stmt Lv Lineno    Source Statement           (Hibal 5, Asmedit 3.3)  HLASM R4.0  2002/06/06 10.10
+___    ______ ____    _____ _____  ____ __ ______    ______ _________
0                                                     ¾þþþþþþþþþþþþþþþþþþþþþþþþþþþþþþþþþþþþþþþþþþþþþþþþþþþþþþþþþþþþþþþþþþþþþ»
-000076 50E0 D000            00000  1421    00111000  SCTYPE   XPROC TRACE=NO
 00007A 900C D004/188D       00004  1435             +
 000080 41D0 D038/0D70       00038  1437             +
 USING  *,R7                        1460    00111100           WITH  (SCANCB,R15)        ADDRESSABILITY TO SCANCB
 USING  SCANCB,R15
 000086 8910 0002            00002  1473    00112000           SLL   R1,2                SHIFT NEW SCAN TYPE
 00008A 5010 D000            00000  1474    00113000           ST    R1,@R13               SAVE NEW SCAN TYPE IN STACK
 00008E 5810 F01C            0001C  1475    00114000           L     R1,CLT                  RETRIEVE LAST SCAN TYPE
 000092 8810 0002            00002  1476    00115000           SRL   R1,2                      SHIFT DOWN TO (0-3)
 000096 D203 F01C D000 0001C 00000  1477    00116000           MVC   CLT,@R13                    SET NEW SCAN TYPE
 00009C 5018 0008            00008  1478    00116100           PRETURN (R1)              RETURN OLD SCAN-TYPE
 0000A0 18D8/980C D004       00004  1480    00117000           PEND  ,                   RETURN TO CALLER
 DROP   SCANCB,R15
 DROP   *,R7
 0000A6 58E0 D000/12FF       00000  1501             +
 0000AC 07FE                        1504             +
1SCANNER  (SCAN9001) (10:10) (06JUN02) Wings Scanner                                                                        Page    8
0Loc    Object Code    Addr1 Addr2  Stmt Lv Lineno    Source Statement           (Hibal 5, Asmedit 3.3)  HLASM R4.0  2002/06/06 10.10
+___    ______ ____    _____ _____  ____ __ ______    ______ _________
0USING  SA,R8                       1506    00120100           USING SA,WAR                  ##
 USING  PRTSTACK,R13                1515    00121000           USING PRTSTACK,R13            ##  KEYWORD TABLE STACK
 0000AE 50E0 D000            00000  1524    00122000  SCAN     XENTER R2,R12,SASIZ
 0000B2 902C D004/188D       00004  1527             +
 0000B8 41D0 D054/0D70       00054  1529             +
 USING  *,R7                        1544    00123000  BASE     DS    0H
 0000BE 18AF                        1545    00124000           LR    R10,R15             SET SCAN WORK AREA ADDRESS
 USING  SCANCB,R10                  1546    00125000           USING SCANCB,R10          ##
                                    1555    00126000           DROP  R15                     ##
 0000C0 50E0 A014            00014  1559    00127000           ST    R14,RA                  RETURN ADDR
 0000C4 5010 A018            00018  1560    00128000           ST    R1,PRT                  ROUTING TABLE
 0000C8 1B44                        1561    00129000           SR    R4,R4
 0000CA 9856 A00C            0000C  1562    00130000  SCANTOK  LM    R5,R6,LEN               PICK UP LOC AND LEN
 0000CE 9200 8052      00052        1563    00131000           MVI   FL,0                    CLEAR FLAGS
 0000D2 D503 A01C 7A9A 0001C 00B58  1564    00132000           CLC   CLT,=A(4)               STRING ISOLATION?
 0000D8 4770 7022            000E0  1565    00133000           BNE   SCANON                  NO
 0000DC 9201 8052      00052        1566    00134000           SET   (FLFISOL,EQ)        SET FOR STRING ISOLATION
 0000E0 4115 6000            00000  1573    00135000  SCANON   LA    R1,@R6(R5)
 0000E4 1255                        1574    00136000           LTR   R5,R5                   ANY LEFT?
 0000E6 47D0 74D6            00594  1575    00137000           BNP   DONE                    BR IF NOT
 0000EA 1B22                        1576    00138000           SR    2,2                     CLEAR TRT REGS
 0000EC 58F0 A01C            0001C  1577    00139000           L     R15,CLT
 0000F0 58FF 768A            00748  1578    00140000           L     R15,CLTS(R15)
 0000F4 0650                        1579    00141000           BCTR  R5,0
 0000F6 4450 7060            0011E  1580    00142000           EX    R5,TRT
 0000FA 47F2 7040            000FE  1582    00143000           B     *+4(2)                  BR ON DELIM CODE
 0000FE 47F0 7066            00124  1583    00144000           B     EOS                     0  END OF STRING
 000102 47F0 7080            0013E  1584    00145000           B     BLKCOM                  4  BLANK-COMMA
 000106 47F0 70CA            00188  1585    00146000           B     SQUOTE                  8  SINGLE QUOTE
 00010A 47F0 711A            001D8  1586    00147000           B     DQUOTE                  12 DOUBLE QUOTE
 00010E 47F0 7154            00212  1587    00148000           B     LPAR                    16 LEFT PAREN
 000112 47F0 7194            00252  1588    00149000           B     RPAR                    20 RIGHT PAREN
 000116 47F0 70B2            00170  1589    00150000           B     SLASH                    24 SLASH
 00011A 47F0 709C            0015A  1590    00151000           B     SEMI                    28 SEMI-COLON
 00011E DD00 6000 F000 00000 00000  1591    00152000  TRT      TRT   @R6(*-*),@R15           SCAN
1SCANNER  (SCAN9001) (10:10) (06JUN02) Wings Scanner                                                                        Page    9
0Current Usings:  (*,R7) (SA,R8) (SCANCB,R10) (PRTSTACK,R13)
0Loc    Object Code    Addr1 Addr2  Stmt Lv Lineno    Source Statement           (Hibal 5, Asmedit 3.3)  HLASM R4.0  2002/06/06 10.10
+___    ______ ____    _____ _____  ____ __ ______    ______ _________
0                                   1593    00154000  *
                                    1594    00155000  *  PROCESS END OF STRING
                                    1595    00156000  *
 000124                             1596    00157000  EOS      LABEL ,
 000124 91E0 8052      00052        1598    00157100           IF    (FLFSQS+FLFDQS+FLFPS,Z),TOKEN
 000128 4780 71E4            002A2  1619             +
 00012C 1B55                        1625    00159000  ILLSTR   SR    R5,R5                   UPDATE PTR
 00012E 1861                        1626    00160000           LR    R6,R1
 000130 1801                        1627    00161000           LR    R0,R1                   COMPUTE STRING PTR
 000132 5810 A010            00010  1628    00162000           L     R1,LOC
 000136 1B01                        1629    00163000           SR    R0,R1
 000138 1300                        1630    00164000           LCR   R0,R0                   INDICATE ILLEGAL STRING
 00013A 47F0 74FE            005BC  1631    00165000           B     RTN                  %% RETURN
                                    1632    00166000  *
                                    1633    00167000  * PROCESS BLANKS
                                    1634    00168000  *
 00013E                             1635    00169000  BLKCOM   LABEL
 00013E 91E0 8052      00052        1637    00169100           IF    FLFSQS+FLFDQS+FLFPS,GOSTRING  STRING BEING COLLECTED?
 000142 4770 71C2            00280  1656             +
 000146 5910 A010            00010  1662    00171000           C     R1,LOC                  BLANK AT START OF STRING?
 00014A 4770 71E4            002A2  1663    00172000           BNE   TOKEN                   NO
 00014E 4160 1001            00001  1664    00173000           LA    R6,@R1+1                SKIP OVER
 000152 9056 A00C            0000C  1665    00174000           STM   R5,R6,LEN               START OVER
 000156 47F0 7022            000E0  1666    00175000           B     SCANON
                                    1667    00176000  *
                                    1668    00177000  * PROCESS SEMI-COLON
                                    1669    00178000  *
 00015A                             1670    00179000  SEMI     LABEL
 00015A 91E0 8052      00052        1672    00179010           IF    FLFSQS+FLFDQS+FLFPS,GOSTRING  STRING BEING COLLECTED?
 00015E 4770 71C2            00280  1691             +
 000162 1851                        1697    00181000           LR    R5,R1
 000164 5B50 A010            00010  1698    00182000           S     R5,LOC                  TRUNCATE REST OF SCAN
 000168 5050 A00C            0000C  1699    00183000           ST    R5,LEN
 00016C 47F0 71E4            002A2  1700    00184000           B     TOKEN
1SCANNER  (SCAN9001) (10:10) (06JUN02) Wings Scanner                                                                        Page   10
0Current Usings:  (*,R7) (SA,R8) (SCANCB,R10) (PRTSTACK,R13)
0Loc    Object Code    Addr1 Addr2  Stmt Lv Lineno    Source Statement           (Hibal 5, Asmedit 3.3)  HLASM R4.0  2002/06/06 10.10
+___    ______ ____    _____ _____  ____ __ ______    ______ _________
0                                   1702    00186000  *  PROCESS SLASH
                                    1703    00187000  *
 000170                             1704    00188000  SLASH    LABEL
 000170 91E0 8052      00052        1706    00188010           IF    FLFSQS+FLFDQS+FLFPS,GOSTRING  STRING BEING COLLECTED?
 000174 4770 71C2            00280  1725             +
 000178 5910 A010            00010  1731    00190000           C     R1,LOC                   COMPUTE TOKEN SIZE
 00017C 4770 71E4            002A2  1732    00191000           BNE   TOKEN                    TOKEN WON'T BE "/"
 000180 4110 1001            00001  1733    00192000           LA    R1,@R1+1                 LENGTH "/" TOKEN
 000184 47F0 71E4            002A2  1734    00193000           B     TOKEN                    PROCESS
                                    1735    00194000  *
                                    1736    00195000  *  PROCESS SINGLE QUOTE
                                    1737    00196000  *
 000188                             1738    00197000  SQUOTE   LABEL
 000188 9160 8052      00052        1740    00197010           IF    FLFDQS+FLFPS,GOSTRING  STRING BEING COLLECTED?
 00018C 4770 71C2            00280  1755             +
 000190 9180 8052      00052        1761    00199000           TM    FL,FSQS                 OLD STRING?
 000194 4710 70EA            001A8  1762    00200000           BO    CSQ                     BR IF SO
 000198 5910 A010            00010  1763    00201000           C     R1,LOC                  COMPUTE TOKEN SIZE
 00019C 4770 71E4            002A2  1764    00202000           BNE   TOKEN                  BR IF PREVIOUS TOKEN
 0001A0 9680 8052      00052        1765    00203000           OI    FL,FSQS                 SET STRING SCAN
 0001A4 47F0 71C2            00280  1766    00204000           B     GOSTRING
                                    1767    00205000
 0001A8 1A56                        1768    00206000  CSQ      AR    R5,R6                   BUMP PTR
 0001AA 1B51                        1769    00207000           SR    R5,R1
 0001AC 4110 1001            00001  1770    00208000           LA    R1,@R1+1                POINT PAST QUOTE
 0001B0 1861                        1771    00209000           LR    R6,R1
 0001B2 47D0 71E4            002A2  1772    00210000           BNP   TOKEN                   BR IF END
 0001B6 957D 6000      00000        1773    00211000           CLI   @R6,C''''               QUOTE?
 0001BA 4780 7110            001CE  1774    00212000           BE    MVS
 0001BE 9101 8052      00052        1775    00213000  ISOLAT   TM    FL,FISOL                STRING ISOLATING?
 0001C2 4780 71E4            002A2  1776    00214000           BZ    TOKEN                   END OF STRING
 0001C6 941F 8052      00052        1777    00215000           NI    FL,255-FSQS-FDQS-FPS    END OF STRING
 0001CA 47F0 7022            000E0  1778    00216000           B     SCANON                  KEEP GOING
 0001CE 0650                        1779    00217000  MVS      BCTR  R5,0                    ELIMINATE 2ND QUOTE
 0001D0 4160 6001            00001  1780    00218000           LA    R6,@R6+1
 0001D4 47F0 7022            000E0  1781    00219000           B     SCANON
1SCANNER  (SCAN9001) (10:10) (06JUN02) Wings Scanner                                                                        Page   11
0Current Usings:  (*,R7) (SA,R8) (SCANCB,R10) (PRTSTACK,R13)
0Loc    Object Code    Addr1 Addr2  Stmt Lv Lineno    Source Statement           (Hibal 5, Asmedit 3.3)  HLASM R4.0  2002/06/06 10.10
+___    ______ ____    _____ _____  ____ __ ______    ______ _________
0                                   1783    00220100  *
                                    1784    00221000  *  PROCESS DOUBLE QUOTE
                                    1785    00222000  *
 0001D8                             1786    00223000  DQUOTE   LABEL
 0001D8 91A0 8052      00052        1788    00223100           TM    FL,FSQS+FPS             'STRING'?
 0001DC 4770 71C2            00280  1789    00224000           BNZ   GOSTRING                BR IF SO
 0001E0 9140 8052      00052        1790    00225000           TM    FL,FDQS                 OLD STRING?
 0001E4 4710 713A            001F8  1791    00226000           BO    CDQ                     BR IF SO
 0001E8 5910 A010            00010  1792    00227000           C     R1,LOC                  PASSED OVER TOKEN?
 0001EC 4770 71E4            002A2  1793    00228000           BNE   TOKEN
 0001F0 9640 8052      00052        1794    00229000           OI    FL,FDQS                 SET STRING SCAN
 0001F4 47F0 71C2            00280  1795    00230000           B     GOSTRING
                                    1796    00231000
 0001F8 1A56                        1797    00232000  CDQ      AR    R5,R6                   UPDATE PTR
 0001FA 1B51                        1798    00233000           SR    R5,R1
 0001FC 4110 1001            00001  1799    00234000           LA    R1,@R1+1                POINT PAST QUOTE
 000200 1861                        1800    00235000           LR    R6,R1
 000202 47D0 71E4            002A2  1801    00236000           BNP   TOKEN                   BR IF END
 000206 957F 6000      00000        1802    00237000           CLI   @R6,C'"'                QUOTE?
 00020A 4780 7110            001CE  1803    00238000           BE    MVS                     BR IF SO
 00020E 47F0 7100            001BE  1804    00239000           B     ISOLAT                  MAKE ISOLATION CHECK
                                    1805    00240000  *
                                    1806    00241000  *  PROCESS LEFT PAREN
                                    1807    00242000  *
 000212                             1808    00243000  LPAR     LABEL
 000212 91C0 8052      00052        1810    00243100           TM    FL,FSQS+FDQS            QUOTED STRING?
 000216 4770 71C2            00280  1811    00244000           BNZ   GOSTRING                BR IF SO
 00021A 9120 8052      00052        1812    00245000           TM    FL,FPS                  PAREN STRING?
 00021E 4710 7184            00242  1813    00246000           BO    INP                     BR IF SO
 000222 5910 A010            00010  1814    00247000           C     R1,LOC                  PREVIOUS TOKEN?
 000226 4780 7174            00232  1815    00248000           BE    LPAR1ST                 NO
 00022A 9101 8052      00052        1816    00249000           TM    FL,FISOL                ISOLATING STRING?
 00022E 4780 71E4            002A2  1817    00250000           BZ    TOKEN                   NO
                                    1818    00251000
 000232 9620 8052      00052        1819    00252000  LPAR1ST  OI    FL,FPS                  SET PAREN SCAN
 000236 4120 0001            00001  1820    00253000           LA    R2,1
 00023A 4020 8050            00050  1821    00254000           STH   R2,PCNT
 00023E 47F0 71C2            00280  1822    00255000           B     GOSTRING
                                    1823    00256000
 000242 4820 8050            00050  1824    00257000  INP      LH    R2,PCNT                 PAREN COUNT
 000246 4120 2001            00001  1825    00258000           LA    R2,@R2+1
 00024A 4020 8050            00050  1826    00259000           STH   R2,PCNT
 00024E 47F0 71C2            00280  1827    00260000           B     GOSTRING
1SCANNER  (SCAN9001) (10:10) (06JUN02) Wings Scanner                                                                        Page   12
0Current Usings:  (*,R7) (SA,R8) (SCANCB,R10) (PRTSTACK,R13)
0Loc    Object Code    Addr1 Addr2  Stmt Lv Lineno    Source Statement           (Hibal 5, Asmedit 3.3)  HLASM R4.0  2002/06/06 10.10
+___    ______ ____    _____ _____  ____ __ ______    ______ _________
0                                   1829    00261100  *
                                    1830    00262000  *  PROCESS RIGHT PAREN
                                    1831    00263000  *
 000252                             1832    00264000  RPAR     LABEL
 000252 91C0 8052      00052        1834    00264100           TM    FL,FSQS+FDQS            QUOTED STRING?
 000256 4770 71C2            00280  1835    00265000           BNZ   GOSTRING                BR IF SO
 00025A 9120 8052      00052        1836    00266000           TM    FL,FPS                  PAREN STRING?
 00025E 4780 71CE            0028C  1837    00267000           BZ    ILLPS                   BR IF NOT
 000262 4820 8050            00050  1838    00268000           LH    R2,PCNT                 DECR COUNT
 000266 0620                        1839    00269000           BCTR  R2,0
 000268 4020 8050            00050  1840    00270000           STH   R2,PCNT
 00026C 1222                        1841    00271000           LTR   R2,R2
 00026E 4770 71C2            00280  1842    00272000           BNZ   GOSTRING
 000272 1A56                        1843    00273000           AR    R5,R6                   UPDATE PTR
 000274 1B51                        1844    00274000           SR    R5,R1
 000276 4110 1001            00001  1845    00275000           LA    R1,@R1+1                POINT PAST QUOTE
 00027A 1861                        1846    00276000           LR    R6,R1
 00027C 47F0 7100            001BE  1847    00277000           B     ISOLAT                  ALL PARENS MATCHED
 000280 1B51                        1848    00278000  GOSTRING SR    R5,R1                   UPDATE STRING PTRS
 000282 1A56                        1849    00279000           AR    R5,R6
 000284 4160 1001            00001  1850    00280000           LA    R6,@R1+1
 000288 47F0 7022            000E0  1851    00281000           B     SCANON
                                    1852    00282000
 00028C 5800 A010            00010  1853    00283000  ILLPS    L     R0,LOC                  COMPUTE -LENGTH
 000290 1B01                        1854    00284000           SR    R0,R1
 000292 5810 A010            00010  1855    00285000           L     R1,LOC                  LOC OF TOKEN
 000296 1A50                        1856    00286000           AR    R5,R0                   DECR LENGTH
 000298 4160 1001            00001  1857    00287000           LA    R6,@R1+1
 00029C 1B60                        1858    00288000           SR    R6,R0                   BUMP PTR
 00029E 47F0 74FE            005BC  1859    00289000           B     RTN                  %%
1SCANNER  (SCAN9001) (10:10) (06JUN02) Wings Scanner                                                                        Page   13
0Current Usings:  (*,R7) (SA,R8) (SCANCB,R10) (PRTSTACK,R13)
0Loc    Object Code    Addr1 Addr2  Stmt Lv Lineno    Source Statement           (Hibal 5, Asmedit 3.3)  HLASM R4.0  2002/06/06 10.10
+___    ______ ____    _____ _____  ____ __ ______    ______ _________
0                                   1861    00290100  *
                                    1862    00291000  *  PROCESS A TOKEN
                                    1863    00292000  *
 0002A2                             1864    00293000  TOKEN    LABEL
 0002A2 9856 A00C            0000C  1866    00293100           LM    R5,R6,LEN               OLD LOC AND LENGTH
 0002A6 5010 A010            00010  1867    00294000           ST    R1,LOC                  NEXT NOKEN
 0002AA 1B16                        1868    00295000           SR    R1,R6                   LENGTH
 0002AC 4780 74D6            00594  1869    00296000           BZ    DONE
 0002B0 1B51                        1870    00297000           SR    R5,R1                   REDUCE REMAINING LENGTH
 0002B2 5050 A00C            0000C  1871    00298000           ST    R5,LEN
 0002B6 1801                        1872    00299000           LR    R0,R1                   TOKEN LENGTH
 0002B8 1816                        1873    00300000           LR    R1,R6                   TOKEN START
 0002BA 18F0                        1874    00301000           LR    R15,R0
 0002BC 9240 A004      00004        1875    00302000           MVI   KW,C' '                 CLEAR KW AREA
 0002C0 D206 A005 A004 00005 00004  1876    00303000           MVC   KW+1(7),KW
 0002C6 D703 D000 D000 00000 00000  1877    00304000           XC    PRTSTP,PRTSTP           CLEAR PUSH/POP STACK
 0002CC 91E1 8052      00052        1878    00305000           TM    FL,FSQS+FDQS+FPS+FISOL  QUOTE OR PAREN STRING?
 0002D0 4770 7238            002F6  1879    00306000           BNZ   PRKW                    BR IF QUOTE OR PAREN STRING
 0002D4 1820                        1880    00307000           LR    R2,R0                   COUNT
 0002D6 1831                        1881    00308000           LR    R3,R1                   PTR
 0002D8 9640 3000      00000        1882    00309000  MRECH    OI    @R3,X'40'               CAPITAL BIT
 0002DC 4130 3001            00001  1883    00310000           LA    R3,@R3+1                MOVE PTR
 0002E0 4620 721A            002D8  1884    00311000           BCT   R2,MRECH                MORE?
 0002E4 59F0 7A9E            00B5C  1885    00311100           IF    (R15,GT,8),'LA R15,8'   RESET TO MAXIMUM LENGTH
 0002E8 47D0 7232            002F0  1897             +
 0002EC 41F0 0008            00008  1903             +
 0002F0 06F0                        1908    00314000           BCTR  R15,0
 0002F2 44F0 7522            005E0  1909    00315000           EX    R15,MVT                 MOVE KW
 0002F6 1244                        1911    00316000  PRKW     LTR   R4,R4                   ROUTINE?
 0002F8 4770 732E            003EC  1912    00317000           BNZ   SETSR                   BR IF SO
 0002FC 5820 A018            00018  1913    00318000           L     R2,PRT                  ROUTING TABLE
 000300 1222                        1914    00319000           LTR   R2,R2
 000302 4770 7254            00312  1915    00320000           BNZ   KWSRCH                  BR IF ONE
 000306 5840 A014            00014  1916    00321000           L     R4,RA
 00030A 47F0 7332            003F0  1917    00322000           B     GORTN
                                    1918    00323000
 00030E 4123 2005            00005  1919    00324000  KWNEX    LA    R2,@R2+5(R3)            TRY NEXT
 000312 91F8 2000      00000        1920    00325000  KWSRCH   TM    @R2,FTBLE               TABLE END/PUSH/POP?
 000316 4710 72B8            00376  1921    00326000           BO    KWFND                   BR IF SO
 00031A 4330 2000            00000  1922    00327000           IC    R3,@R2                  EXTRACT (LEN-1)
 00031E 5430 7AA2            00B60  1923    00328000           N     R3,=X'00000007'
 000322 91E0 8052      00052        1924    00329000           TM    FL,FSQS+FDQS+FPS        QUOTE OR PAREN STRING?
 000326 4770 72A0            0035E  1925    00330000           BNZ   NXTRY                   BR IF QUOTE OR PAREN STRING
 00032A 1233                        1926    00331000           LTR   R3,R3                   TEST TOKEN LEN
 00032C 4770 727A            00338  1927    00332000           BNZ   COMPOK                  USER KW EXISTS
 000330 9540 2004      00004        1928    00333000           CLI   @R2+4,C' '              BLANK?
 000334 4780 72B8            00376  1929    00334000           BE    KWFND                   YES
 000338 193F                        1930    00335000  COMPOK   CR    R3,R15                  LEN OK?
 00033A 4770 7288            00346  1931    00336000           BNE   QABBRV                  ABBREV?
 00033E 4430 7528            005E6  1932    00337000           EX    R3,CLC                  COMPARE KEYWORDS
 000342 4780 72B8            00376  1934    00338000           BE    KWFND                   BR IF FOUND
 000346 9108 2000      00000        1935    00339000  QABBRV   TM    @R2,FABBREV             TRY ABBREVIATION?
 00034A 4780 72A0            0035E  1936    00340000           BZ    NXTRY                   NO
 00034E 4900 7ABA            00B78  1937    00341000           CH    R0,=Y(3)                3-CHARS?
1SCANNER  (SCAN9001) (10:10) (06JUN02) Wings Scanner                                                                        Page   14
0Current Usings:  (*,R7) (SA,R8) (SCANCB,R10) (PRTSTACK,R13)
0Loc    Object Code    Addr1 Addr2  Stmt Lv Lineno    Source Statement           (Hibal 5, Asmedit 3.3)  HLASM R4.0  2002/06/06 10.10
+___    ______ ____    _____ _____  ____ __ ______    ______ _________
0000352 4740 72A0            0035E  1938    00342000           BL    NXTRY                   MUST BE AT LEAST 3
 000356 44F0 7528            005E6  1939    00343000           EX    R15,CLC                 EQUAL TO GIVEN LENGTH?
 00035A 4780 72B8            00376  1941    00344000           BE    KWFND                   BR IF FOUND
 00035E 9110 2000      00000        1942    00345000  NXTRY    TM    @R2,FLIMIT              LIMIT?
 000362 4780 7250            0030E  1943    00346000           BZ    KWNEX                   NO
 000366 9160 2000      00000        1944    00347000           TM    @R2,FINTEG+FINTEGP      INTEGER?
 00036A 47B0 7250            0030E  1945    00348000           BNM   KWNEX                   NO
 00036E 4123 2009            00009  1946    00349000           LA    R2,@R2+9(R3)            TRY NEXT
 000372 47F0 7254            00312  1947    00350000           B     KWSRCH
1SCANNER  (SCAN9001) (10:10) (06JUN02) Wings Scanner                                                                        Page   15
0Current Usings:  (*,R7) (SA,R8) (SCANCB,R10) (PRTSTACK,R13)
0Loc    Object Code    Addr1 Addr2  Stmt Lv Lineno    Source Statement           (Hibal 5, Asmedit 3.3)  HLASM R4.0  2002/06/06 10.10
+___    ______ ____    _____ _____  ____ __ ______    ______ _________
0000376 941F 8052      00052        1949    00352000  KWFND    NI    FL,255-FSQS-FDQS-FPS    RESET STRING SCAN
 00037A D203 8044 2000 00044 00000  1950    00353000           MVC   TEMPD(4),@R2            TO TEMP BOUND
 000380 5840 8044            00044  1951    00354000           L     R4,TEMPD                ROUTINE
 000384 91F8 2000      00000        1952    00355000           TM    @R2,FTBLE               END/PUSH/POP?
 000388 4710 72DE            0039C  1953    00356000           BO    TSTLAST                 BR IF SO
 00038C 9180 2000      00000        1954    00357000           TM    @R2,FPARM               PARM?
 000390 4780 7332            003F0  1955    00358000           BZ    GORTN                   BR IF NOT
 000394 9023 8030            00030  1956    00359000           STM   R2,R3,WORD              SAVE SR/TR VALUES
 000398 47F0 700C            000CA  1957    00360000           B     SCANTOK                 FIND PARM
                                    1958    00361000
 00039C 9107 2000      00000        1959    00362000  TSTLAST  TM    @R2,255-FTBLE           IS IT LAST
 0003A0 4710 7332            003F0  1960    00363000           BO    GORTN                   ALL ON, YES
 0003A4 4740 730E            003CC  1961    00364000           BM    GOPOP                   MIXED, GO POP UP ONE LEVEL
                                    1962    00365000  *
                                    1963    00366000  * PUSH DOWN CURRENT SCAN TABLE POINTER
                                    1964    00367000  *
 0003A8 4120 2004            00004  1965    00368000           LA    R2,@R2+4                SET FOR NEXT AFTER POP
 0003AC 4140 4000            00000  1966    00369000           LA    R4,@R4                  FORM ADDRESS AND CHECK
 0003B0 1244                        1967    00370000           LTR   R4,R4                   BR IF ADDRESS
 0003B2 4780 7254            00312  1968    00371000           BZ    KWSRCH                  BR IF NO TABLE TO PUSH TO
 0003B6 58E0 D000            00000  1969    00372000  GOPUSH1  L     R14,PRTSTP              STACK POINTER
 0003BA 41E0 E004            00004  1970    00373000           LA    R14,@R14+4              NEXT ENTRY
 0003BE 50E0 D000            00000  1971    00374000           ST    R14,PRTSTP              REPLACE STACK COUNT
 0003C2 502E D000            00000  1972    00375000           ST    R2,PRTSTACK(R14)        SAVE CURRENT PRT POINTER
 0003C6 1824                        1973    00376000           LR    R2,R4                   SET NEW PRT ADDRESS
 0003C8 47F0 7254            00312  1974    00377000           B     KWSRCH                  GO SEARCH THIS TABLE
                                    1975    00378000  *
                                    1976    00379000  * POP UP A SAVE SCAN TABLE POINTER -- IGNORE IF AT TOP LEVEL
                                    1977    00380000  *
 0003CC                             1978    00381000  GOPOP    LABEL
 0003CC 58E0 D000            00000  1980    00381100           L     R14,PRTSTP              GET CURRENT STACK POINTER
 0003D0 5BE0 7A9A            00B58  1981    00382000           S     R14,=A(4)               POP
 0003D4 4740 7326            003E4  1982    00383000           BM    NXTRY1                  IGNORE IF TOP LEVEL
 0003D8 50E0 D000            00000  1983    00384000           ST    R14,PRTSTP              PUT BACK STACK POINTER
 0003DC 582E D004            00004  1984    00385000           L     R2,PRTSTACK+4(R14)      PICK UP OLD PRT POINTER
 0003E0 47F0 7254            00312  1985    00386000           B     KWSRCH                  BR TO CONTINUE SEARCH
                                    1986    00387000
 0003E4 4120 2001            00001  1987    00388000  NXTRY1   LA    R2,@R2+1                STEP PAST IGNORED POP
 0003E8 47F0 7254            00312  1988    00389000           B     KWSRCH                  CONTINUE IN SAME TABLE
1SCANNER  (SCAN9001) (10:10) (06JUN02) Wings Scanner                                                                        Page   16
0Current Usings:  (*,R7) (SA,R8) (SCANCB,R10) (PRTSTACK,R13)
0Loc    Object Code    Addr1 Addr2  Stmt Lv Lineno    Source Statement           (Hibal 5, Asmedit 3.3)  HLASM R4.0  2002/06/06 10.10
+___    ______ ____    _____ _____  ____ __ ______    ______ _________
00003EC 9823 8030            00030  1990    00391000  SETSR    LM    R2,R3,WORD              RESET SR/TR VALUES
 0003F0 8940 0008            00008  1991    00392000  GORTN    CLRHI R4                  XA: CLEAR HI BYTE
 0003F4 8840 0008            00008  1993             +
 0003F8 12E4                        1994    00393000           LTR   R14,R4                  TEST EP
 0003FA 4780 700C            000CA  1995    00394000           BZ    SCANTOK                 BR IF NONE
 0003FE 9001 803C            0003C  1996    00395000           STM   R0,R1,CPSAVE            SAVE PTRS
 000402 50F0 8038            00038  1997    00396000           ST    R15,SV15                SAVE 15
 000406 8920 0008            00008  1998    00397000           CLRHI R2                  XA: Clear high order byte
 00040A 8820 0008            00008  2000             +
 00040E 1222                        2001    00398000           LTR   R2,R2                   ROUTING TABLE?
 000410 4780 736A            00428  2002    00399000           BZ    NTCMV                   NO
 000414 95FF 2000      00000        2003    00400000           CLI   @R2,FLAST               END?
 000418 4780 736A            00428  2004    00401000           BE    NTCMV                   BR IF SO
 00041C 9160 2000      00000        2005    00402000           TM    @R2,FLINNO              INTEGER OR LINE NO CONV?
 000420 4710 73E8            004A6  2006    00403000           BO    LINNOCV                 LINE NO. CONV
 000424 4740 73B8            00476  2007    00404000           BM    INTGRCV                 INTEGER CONV
 000428                             2008    00405000  NTCMV    DS    0H
 000428 41F0 A004            00004  2009    00406000           LA    R15,KW                  KW PTR
 00042C                             2010    00407000  NOTKWPS  DS    0H
 00042C 50F0 A000            00000  2011    00408000           ST    R15,VAL                 SAVE VALUE
 000430 18FA                        2012    00409000           LR    R15,R10             RESTORE R15
                                    2013    00410000           USING SCANCB,R15              ##
 ** ASMA301W Prior active USING on statement number 1553 overridden by this USING
 ** ASMA435I Record 142 in WYL.GG.SYS.MACLIB(USING) on volume: STR210
 USING  SCANCB,R15                  2022    00411000           DROP  R10                 ##
 DROP   SCANCB,R10
 000432 18E4                        2029    00412000           LR    R14,R4                  SET EP
 000434 18D8                        2030    00413000           LR    R13,8                   RESTORE STACK
 000436 982C D004            00004  2031    00414000           LM    R2,R12,4(R13)
 00043A 92FF F018      00018        2032    00415000           MVI   PRT,X'FF'               SET OLD PRT
 00043E 89E0 0008            00008  2033    00416000           CLRHI R14                 XA: Clear high order byte
 000442 88E0 0008            00008  2035             +
 000446 1200                        2036    00417000           LTR   R0,R0                   SET CC
 000448 05EE                        2037    00418000           BALR  R14,R14                 GO TO PARM ROUTINE
                                    2038    00419000  * RETURN TO R14 TO CONTINUE SCAN
                                    2039    00420000  * RETURN TO 4(R14) TO CONTINUE SCAN WIH NEW KWRT
 00044A 9200 F018      00018        2040    00421000           MVI   PRT,0                   SET TO USE OLD PRT
 00044E 50E0 D000            00000  2041    00422000           XENTER R2,R12,SASIZ                 SAVE
 000452 902C D004/188D       00004  2043             +
 000458 41D0 D054/0D70       00054  2045             +
 00045E 5870 7706            00B64  2063    00423000           L     7,=A(BASE)              RESTORE BASE
 DROP   *,R7
 USING  *,R7
 DROP   *,R7                        2064    00424000           USING BASE,7                  ##
 USING  BASE,R7
 000462 18AF                        2076    00425000           LR    R10,R15             SET SCAN WORK AREA
 DROP   SCANCB,R15                  2077    00426000           DROP  R15                     ##
 USING  SCANCB,R10                  2084    00427000           USING SCANCB,R10          ##
 000464 1B44                        2093    00428000           SR    R4,R4                   NO ROUTINE
 000466 91FF A018      00018        2094    00429000           TM    PRT,X'FF'               USE OLD PRT?
 00046A 4780 700C            000CA  2095    00430000           BZ    SCANTOK                 YES
 00046E 5010 A018            00018  2096    00431000           ST    R1,PRT                  NEW PRT SPECIFIED
 000472 47F0 700C            000CA  2097    00432000           B     SCANTOK                 CONTINUE SCAN
1SCANNER  (SCAN9001) (10:10) (06JUN02) Wings Scanner                                                                        Page   17
0Current Usings:  (BASE,R7) (SA,R8) (SCANCB,R10) (PRTSTACK,R13)
0Loc    Object Code    Addr1 Addr2  Stmt Lv Lineno    Source Statement           (Hibal 5, Asmedit 3.3)  HLASM R4.0  2002/06/06 10.10
+___    ______ ____    _____ _____  ____ __ ______    ______ _________
0                                   2099    00433100  *
                                    2100    00434000  * DECIMAL TO BINARY CONV RTN FOR SCAN
                                    2101    00435000  *
 000476 45E0 7474            00532  2102    00436000  INTGRCV  BAL   R14,DOINT               GO DO CV
 00047A 9120 2000      00000        2103    00437000           TM    @R2,FINTEGP             POS INT?
 00047E 4780 73CA            00488  2104    00438000           BZ    ANYI                    NO
 000482 1200                        2105    00439000           LTR   R0,R0                   TEST INTEG
 000484 47D0 74B8            00576  2106    00440000           BNP   BOO                     NG
 000488 9110 2000      00000        2107    00441000  ANYI     TM    @R2,FLIMIT              LIMIT?
 00048C 4780 7430            004EE  2108    00442000           BZ    NTRSET                  NO
 000490 5000 8044            00044  2109    00443000           ST    R0,TEMPD                FOR CLC
 000494 4163 2005            00005  2110    00444000           LA    R6,@R2+5(R3)            PT AT LIMIT
 000498 D503 8044 6000 00044 00000  2111    00445000           CLC   TEMPD(4),@R6            CHECK LIMIT
 00049E 47D0 7430            004EE  2112    00446000           BNH   NTRSET                  OK
 0004A2 47F0 74B8            00576  2113    00447000           B     BOO                     NG
1SCANNER  (SCAN9001) (10:10) (06JUN02) Wings Scanner                                                                        Page   18
0Current Usings:  (BASE,R7) (SA,R8) (SCANCB,R10) (PRTSTACK,R13)
0Loc    Object Code    Addr1 Addr2  Stmt Lv Lineno    Source Statement           (Hibal 5, Asmedit 3.3)  HLASM R4.0  2002/06/06 10.10
+___    ______ ____    _____ _____  ____ __ ______    ______ _________
00004A6                             2115    00449000  LINNOCV  DS    0H
 0004A6 1200                        2116    00450000           LTR   R0,R0                   ANY STRING TO CONVERT?
 0004A8 4780 7430            004EE  2117    00451000           BZ    NTRSET                  CALLER CAN TELL FROM CC
 0004AC 5500 7AAA            00B68  2118    00452000           CL    R0,=A(9)                MAX LEN IS 8
 0004B0 4720 74B8            00576  2119    00453000           BH    BOO                     TOO BIG
 0004B4 1BFF                        2120    00454000           SR    R15,R15                 ZERO COUNTER
 0004B6 1861                        2121    00455000           LR    R6,R1                   PTR
 0004B8 954B 6000      00000        2122    00456000  CHKMR    CLI   @R6,C'.'                PERIOD?
 0004BC 4780 7412            004D0  2123    00457000           BE    HVPRD                   YES
 0004C0 41F0 F001            00001  2124    00458000           LA    R15,@R15+1              KICK COUNTER
 0004C4 4160 6001            00001  2125    00459000           LA    R6,@R6+1                KICK PTR
 0004C8 4600 73FA            004B8  2126    00460000           BCT   R0,CHKMR                MORE?
 0004CC 47F0 7416            004D4  2127    00461000           B     WHOL                    INTEGER LINE NO
                                    2128    00462000
 0004D0 4600 743A            004F8  2129    00463000  HVPRD    BCT   R0,CHKFR                FRACTION?
 0004D4 120F                        2130    00464000  WHOL     LTR   R0,R15                  INTEG COUNT
 0004D6 47D0 74B8            00576  2131    00465000           BNP   BOO                     "." NOT LEGAL
 0004DA 1BFF                        2132    00466000           SR    R15,R15                 ZERO FRACTION
 0004DC 5500 7AAE            00B6C  2133    00467000  WHOLDO   CL    R0,=A(5)                4 IS MAX
 0004E0 4720 74B8            00576  2134    00468000           BH    BOO
 0004E4 45E0 7474            00532  2135    00469000           BAL   R14,DOINT               CONV
 0004E8 4C00 7ABC            00B7A  2136    00470000           MH    R0,=H'1000'             SET INTEGER VALUE
 0004EC 1A0F                        2137    00471000           AR    R0,R15                  ADD FRACTION
 0004EE 18F0                        2138    00472000  NTRSET   LR    R15,R0                  SET RETURN VALUE INTO R15
 0004F0 9801 803C            0003C  2139    00473000           LM    R0,R1,CPSAVE            RESET PTRS
 0004F4 47F0 736E            0042C  2140    00474000           B     NOTKWPS                 READY TO RETURN
                                    2141    00475000
 0004F8 5500 7A9A            00B58  2142    00476000  CHKFR    CL    R0,=A(4)                3 IS MAX
 0004FC 47B0 74B8            00576  2143    00477000           BNL   BOO                     NG
 000500 D201 8045 7ABE 00045 00B7C  2144    00478000           MVC   TEMPD+1(2),=C'00'       PUT ZEROS
 000506 18E0                        2145    00479000           LR    R14,R0                  COUNT
 000508 06E0                        2146    00480000           BCTR  R14,0                   FOR EX
 00050A 44E0 746E            0052C  2147    00481000           EX    R14,MVFR                MVC   TEMP(0),1(PR)
 00050E 4100 0003            00003  2149    00482000           LA    R0,3                    CV COUNT
 000512 4110 8044            00044  2150    00483000           LA    R1,TEMPD                 PTR
 000516 45E0 7474            00532  2151    00484000           BAL   R14,DOINT               CV
 00051A 125F                        2152    00485000           LTR   R5,R15                  ANY INTEG COUNT?
 00051C 47D0 7430            004EE  2153    00486000           BNP   NTRSET                  FIN
 000520 18F0                        2154    00487000           LR    R15,R0                  SAVE FRAC
 000522 1805                        2155    00488000           LR    R0,R5                   INTEG COUNT
 000524 5810 8040            00040  2156    00489000           L     R1,CPSAVE+4             RESET START PTR
 000528 47F0 741E            004DC  2157    00490000           B     WHOLDO                  INTEGER LINE NO
                                    2158    00491000
 00052C D200 8044 6001 00044 00001  2159    00492000  MVFR     MVC   TEMPD(0),@R6+1
1SCANNER  (SCAN9001) (10:10) (06JUN02) Wings Scanner                                                                        Page   19
0Current Usings:  (BASE,R7) (SA,R8) (SCANCB,R10) (PRTSTACK,R13)
0Loc    Object Code    Addr1 Addr2  Stmt Lv Lineno    Source Statement           (Hibal 5, Asmedit 3.3)  HLASM R4.0  2002/06/06 10.10
+___    ______ ____    _____ _____  ____ __ ______    ______ _________
0000532                             2161    00494000  DOINT    DS    0H
 000532 1200                        2162    00495000           LTR   R0,R0                   ANY STRING TO CONVERT?
 000534 4780 7430            004EE  2163    00496000           BZ    NTRSET                  CALLER CAN TELL FROM CC
 000538 5500 7AB2            00B70  2164    00497000           CL    R0,=A(10)               MAX LEN IS 9
 00053C 47B0 74B8            00576  2165    00498000           BNL   BOO                     NG
 000540 1850                        2166    00499000           LR    R5,R0                   COUNT
 000542 1861                        2167    00500000           LR    R6,R1                   PTR
 000544 95F0 1000      00000        2168    00501000  CHNEXT   CLI   @R1,C'0'                TOO SMALL?
 000548 4740 74B8            00576  2169    00502000           BL    BOO                     YES
 00054C 95F9 1000      00000        2170    00503000           CLI   @R1,C'9'                TOO BIG?
 000550 4720 74B8            00576  2171    00504000           BH    BOO                     YES
 000554 4110 1001            00001  2172    00505000           LA    R1,@R1+1                NEXT
 000558 4600 7486            00544  2173    00506000           BCT   R0,CHNEXT               MORE?
 00055C 4110 804B            0004B  2174    00507000           LA    R1,TEMPD+7              GET A DOUBLEWORD
 000560 5410 7AB6            00B74  2175    00508000           N     R1,=F'-8'               ROUND UP
 000564 0650                        2176    00509000           BCTR  R5,0                    REDUCE FOR EX OF PACK
 000566 4450 74B2            00570  2177    00510000           EX    R5,CHPACK               PACK
 00056A 4F00 1000            00000  2179    00511000           CVB   R0,@R1                  TO DOUBLEWORD TEMP
 00056E 07FE                        2180    00512000           BR    R14                     RETURN
                                    2181    00513000
 000570 F270 1000 6000 00000 00000  2182    00514000  CHPACK   PACK  @R1(8),@R6(*-*)         PACK NUMBER
1SCANNER  (SCAN9001) (10:10) (06JUN02) Wings Scanner                                                                        Page   20
0Current Usings:  (BASE,R7) (SA,R8) (SCANCB,R10) (PRTSTACK,R13)
0Loc    Object Code    Addr1 Addr2  Stmt Lv Lineno    Source Statement           (Hibal 5, Asmedit 3.3)  HLASM R4.0  2002/06/06 10.10
+___    ______ ____    _____ _____  ____ __ ______    ______ _________
0000576                             2184    00516000  BOO      DS    0H
 000576 1B44                        2185    00517000           SR    R4,R4                    UNSET ROUTINE
 000578 9856 A00C            0000C  2186    00518000           LM    R5,R6,LEN                SET LOC AND LEN
 00057C 9801 803C            0003C  2187    00519000           LM    R0,R1,CPSAVE             PTRS
 000580 9180 2000      00000        2188    00520000           TM    @R2,FPARM                PARM?
 000584 58F0 8038            00038  2189    00521000           L     R15,SV15                SET 15
 000588 4780 72A0            0035E  2190    00522000           BZ    NXTRY                    NO
 00058C 1300                        2191    00523000           LCR   R0,R0                    NEG
 00058E 1B55                        2192    00524000           SR    R5,R5                    FIN LINE
 000590 47F0 74FE            005BC  2193    00525000           B     RTN                  %%
1SCANNER  (SCAN9001) (10:10) (06JUN02) Wings Scanner                                                                        Page   21
0Current Usings:  (BASE,R7) (SA,R8) (SCANCB,R10) (PRTSTACK,R13)
0Loc    Object Code    Addr1 Addr2  Stmt Lv Lineno    Source Statement           (Hibal 5, Asmedit 3.3)  HLASM R4.0  2002/06/06 10.10
+___    ______ ____    _____ _____  ____ __ ______    ______ _________
0                                   2195    00526100  *
                                    2196    00527000  *  TERMINAL PROCESSING
                                    2197    00528000  *
 000594                             2198    00529000  DONE     DS    0H
 000594 91E0 8052      00052        2199    00530000           TM    FL,FSQS+FDQS+FPS        COLLECTING STRING?
 000598 4770 706E            0012C  2200    00531000           BNZ   ILLSTR                  ERROR IF SO
 00059C 1B00                        2201    00532000           SR    R0,R0                   ZOT LOC AND LEN
 00059E 1B11                        2202    00533000           SR    R1,R1
 0005A0 9240 A004      00004        2203    00534000           MVI   KW,C' '                 CLEAR KW
 0005A4 D206 A005 A004 00005 00004  2204    00535000           MVC   KW+1(7),KW
 0005AA 9101 8052      00052        2205    00536000           TM    FL,FISOL                ISOLATING STRING?
 0005AE 4780 74F8            005B6  2206    00537000           BZ    DON1
 0005B2 9801 A00C            0000C  2207    00538000           LM    R0,R1,LEN               USE LAST POINTERS
 0005B6 1244                        2208    00539000  DON1     LTR   R4,R4                   PARM MISSING?
 0005B8 4770 732E            003EC  2209    00540000           BNZ   SETSR                %% BR IF SO
 0005BC 9056 A00C            0000C  2210    00541000  RTN      STM   R5,R6,LEN               SAVE STRING PTR
 0005C0 58E0 A014            00014  2211    00542000           L     R14,RA                  RETURN ADDR
 0005C4 89E0 0008            00008  2212    00543000           CLRHI R14                 XA: Clear high order byte
 0005C8 88E0 0008            00008  2214             +
 0005CC 41F0 A004            00004  2215    00544000           LA    R15,KW
 0005D0 50F0 A000            00000  2216    00545000           ST    R15,VAL                 SAVE RETURN VALUE
 0005D4 18FA                        2217    00546000           LR    R15,R10             RESTORE R15
 0005D6 18D8                        2218    00547000           LR    R13,8                   RESTORE STACK
 0005D8 982C D004            00004  2219    00548000           LM    R2,R12,4(R13)
 0005DC 1200                        2220    00549000           LTR   R0,R0
 0005DE 07FE                        2221    00550000           BR    R14
1SCANNER  (SCAN9001) (10:10) (06JUN02) Wings Scanner                                                                        Page   22
0Current Usings:  (BASE,R7) (SA,R8) (SCANCB,R10) (PRTSTACK,R13)
0Loc    Object Code    Addr1 Addr2  Stmt Lv Lineno    Source Statement           (Hibal 5, Asmedit 3.3)  HLASM R4.0  2002/06/06 10.10
+___    ______ ____    _____ _____  ____ __ ______    ______ _________
0                                   2223    00552000  *  CONSTANTS
                                    2224    00553000  *
 0005E0 D200 A004 1000 00004 00000  2225    00554000  MVT      MVC   KW(0),@R1               MOVE TOKEN
 0005E6 D500 A004 2004 00004 00004  2226    00555000  CLC      CLC   KW(0),@R2+4             COMPARE KEYWORDS
 DROP   SCANCB,R10                  2227    00556000           DROP  R10,WAR,R13         ##
 DROP   SA,R8
 DROP   PRTSTACK,R13
1SCANNER  (SCAN9001) (10:10) (06JUN02) Wings Scanner                                                                        Page   23
0Current Usings:  (BASE,R7)
0Loc    Object Code    Addr1 Addr2  Stmt Lv Lineno    Source Statement           (Hibal 5, Asmedit 3.3)  HLASM R4.0  2002/06/06 10.10
+___    ______ ____    _____ _____  ____ __ ______    ______ _________
0                                   2247    00557010  ¿þþþþþþþþþþþþþþþþþþþþþþþþþþþþþþþþþþþþþþþþþþþþþþþþþþþþþþþþþþþþþþþþþþþþþÜ
                                    2248    00557020  Ÿ                                                                     Ÿ
                                    2249    00557030  Ÿ  DOUBLE QUOTE SCAN                                                  Ÿ
                                    2250    00557040  Ÿ                                                                     Ÿ
                                    2251    00557050  Ÿ  ON ENTRY:   R0  - CONTAINS THE LENGTH OF THE STRING                Ÿ
                                    2252    00557060  Ÿ              R1  - CONTAINS THE STRING ADDRESS                      Ÿ
                                    2253    00557070  Ÿ                                                                     Ÿ
                                    2254    00557080  Ÿ  ON EXIT:    R0  - CONTAINS THE UPDATED STRING LENGTH               Ÿ
                                    2255    00557090  Ÿ              R1  - CONTAINS THE START OF THE STRING ADDRESS         Ÿ
                                    2256    00557100  Ÿ                                                                     Ÿ
                                                      ¾þþþþþþþþþþþþþþþþþþþþþþþþþþþþþþþþþþþþþþþþþþþþþþþþþþþþþþþþþþþþþþþþþþþþþ»
00005EC 50E0 D000            00000  2258    00557120  DQSCAN   XPROC ,TRACE=NO
 0005F0 900C D004/188D       00004  2272             +
 0005F6 41D0 D038/0D70       00038  2274             +
 0005FC 0600                        2300    00557130           BCTR  R0,0                    STRIP OFF OUTER QUOTES
 DROP   BASE,R7
 USING  *,R7
 0005FE 0600                        2301    00557140           BCTR  R0,0                      AND ADJUST STRING LENGTH
 000600 1841                        2302    00557150           LR    R4,R1                       REMEMBER KIND OF QUOTE
 000602 4110 1001            00001  2303    00557160           LA    R1,@R1+1                      POINT TO START OF STR
 000606 1861                        2304    00557170           LR    R6,R1                           SAVE ADDRESS OF STR
 000608 1850                        2305    00557180           LR    R5,R0                             SAVE LENGTH OF STR
000060A 1200/47D0 7034       00630  2307    00557200           IF    (R0,POS),BEGIN
 000610                             2321  1 00557210             LOOP  BEGIN                   LOOP THROUGH ENTIRE STRING
 000610 D500 6000 4000 00000 00000  2327  2 00557220               CLC   @R6(1),@R4          HAVE WE FOUND A QUOTE?
 000616 4770 702A            00626  2328  2 00557230               IF    EQ,BEGIN            YES - MOVE THE STRING OVER
 00061A 0650                        2339  3 00557240                 BCTR  R5,0                    DECREMENT STRING LENGTH
 00061C 0600                        2340  3 00557250                 BCTR  R0,0                    DECREMENT RETURNED LENGTH
 00061E 1825                        2341  3 00557260                 LR    R2,R5                   COPY LENGTH FOR EXECUTE
 000620 0620/4420 7582       00B7E  2342  3 00557270                 DEX   R2,'MVC @R6(0),@R6+1'   ELIMINATE 2ND QUOTE
 000B7E D200 6000 6001 00000 00001  2353  3          +
 000626                             2361  2 00557280               END   ,
 000626 4160 6001            00001  2365  2 00557290               LA    R6,@R6+1            BUMP TO NEXT CHARACTER IN STRING
 00062A 4650 7014            00610  2366  1 00557300             UNTIL (BCT,R5),END
 00062E 1200                        2376  1 00557310             LTR   R0,R0                   COURTESY
 000630                             2377    00557320           END
 000630 7038           00630 0060E  2381    00557330           ELSE  BEGIN (R0,NP)
 000630 47F0 703A            00636  2386             +
 000634 1B00                        2392  1 00557340             CLEAR R0
 000636                             2396    00557350           END
                                    2400    00557360
 000636 9001 8004            00004  2401    00557980           PRETURN (R0,R1)
 00063A 18D8/980C D004       00004  2403    00557990           PEND  ,
 DROP   *,R7
 USING  BASE,R7
 000640 58E0 D000/12FF       00000  2426             +
 000646 07FE                        2429             +
1SCANNER  (SCAN9001) (10:10) (06JUN02) Wings Scanner                                                                        Page   24
0Current Usings:  (BASE,R7)
0Loc    Object Code    Addr1 Addr2  Stmt Lv Lineno    Source Statement           (Hibal 5, Asmedit 3.3)  HLASM R4.0  2002/06/06 10.10
+___    ______ ____    _____ _____  ____ __ ______    ______ _________
0                                   2431    00586000  *  TRANSLATE TABLES
                                    2432    00587000  *
                                    2433    00588000  *    LOWER TO UPPER CASE
                                    2434    00589000  *
 000648 0001020304050607            2435    00590000  LCUCT    DC    256AL1(*-LCUCT)
 000748                00748 006C9  2436    00591000           ORG   LCUCT+X'81'
 0006C9 C1C2C3C4C5C6C7C8            2437    00592000           DC    C'ABCDEFGHI'
 0006D2                006D2 006D9  2438    00593000           ORG   LCUCT+X'91'
 0006D9 D1D2D3D4D5D6D7D8            2439    00594000           DC    C'JKLMNOPQR'
 0006E2                006E2 006EA  2440    00595000           ORG   LCUCT+X'A2'
 0006EA E2E3E4E5E6E7E8E9            2441    00596000           DC    C'STUVWXYZ'
 0006F2                006F2 00748  2442    00597000           ORG
                                    2443    00598000  *
                                    2444    00599000  *    CLASS TABLES
                                    2445    00600000  *
 000748 0000075800000858            2446    00601000  CLTS     DC    A(CLT0,CLT1,CLT2,CLT3)
                                    2447    00602000  *
                                    2448    00603000  *    NORMAL SCAN TABLE
                                    2449    00603100  *
                                    2450    00603200  *        00 - END OF STRING
                                    2451    00603300  *        04 - BLANK-COMMA
                                    2452    00603400  *        08 - SINGLE QUOTE
                                    2453    00603500  *        12 - DOUBLE QOUTE
                                    2454    00603600  *        16 - LEFT PAREN
                                    2455    00603700  *        20 - RIGHT PAREN
                                    2456    00603800  *        24 - SLASH
                                    2457    00603900  *        28 - SEMI-COLON
                                    2458    00604000  *
 000758 0404040404040404            2459    00605000  CLT0     DC    256AL1(4)
 000858                00858 007D9  2460    00606000           ORG   CLT0+X'81'
 0007D9 0000000000000000            2461    00607000           DC    9X'00'
 0007E2                007E2 007E9  2462    00608000           ORG   CLT0+X'91'
 0007E9 0000000000000000            2463    00609000           DC    9X'00'
 0007F2                007F2 007FA  2464    00610000           ORG   CLT0+X'A2'
 0007FA 0000000000000000            2465    00611000           DC    8X'00'
 000802                00802 00819  2466    00612000           ORG   CLT0+C'A'
 000819 0000000000000000            2467    00613000           DC    9X'00'
 000822                00822 00829  2468    00614000           ORG   CLT0+C'J'
 000829 0000000000000000            2469    00615000           DC    9X'00'
 000832                00832 0083A  2470    00616000           ORG   CLT0+C'S'
 00083A 0000000000000000            2471    00617000           DC    8X'00'
 000842                00842 00848  2472    00618000           ORG   CLT0+C'0'
 000848 0000000000000000            2473    00619000           DC    10X'00'
 000852                00852 007A3  2474    00620000           ORG   CLT0+C'.'
 0007A3 00                          2475    00621000           DC    X'00'
 0007A4                007A4 007B3  2476    00622000           ORG   CLT0+C'$'
 0007B3 00                          2477    00623000           DC    X'00'
 0007B4                007B4 007D4  2478    00624000           ORG   CLT0+C'@'
 0007D4 00                          2479    00625000           DC    X'00'
 0007D5                007D5 007D3  2480    00626000           ORG   CLT0+C'#'
 0007D3 00                          2481    00627000           DC    X'00'
 0007D4                007D4 007A8  2482    00628000           ORG   CLT0+C'&&'
 0007A8 00                          2483    00629000           DC    X'00'
 0007A9                007A9 007C5  2484    00630000           ORG   CLT0+C'_'
1SCANNER  (SCAN9001) (10:10) (06JUN02) Wings Scanner                                                                        Page   25
0Current Usings:  (BASE,R7)
0Loc    Object Code    Addr1 Addr2  Stmt Lv Lineno    Source Statement           (Hibal 5, Asmedit 3.3)  HLASM R4.0  2002/06/06 10.10
+___    ______ ____    _____ _____  ____ __ ______    ______ _________
00007C5 00                          2485    00631000           DC    X'00'
 0007C6                007C6 007A6  2486    00632000           ORG   CLT0+C'+'
 0007A6 18                          2487    00633000           DC    AL1(24)
 0007A7                007A7 007B8  2488    00634000           ORG   CLT0+C'-'
 0007B8 18                          2489    00635000           DC    AL1(24)
 0007B9                007B9 007A7  2490    00636000           ORG   CLT0+C'|'
 0007A7 18                          2491    00637000           DC    AL1(24)
 0007A8                007A8 007B9  2492    00638000           ORG   CLT0+C'/'
 0007B9 18                          2493    00639000           DC    AL1(24)
 0007BA                007BA 007B7  2494    00640000           ORG   CLT0+C'~'
 0007B7 18                          2495    00641000           DC    AL1(24)
 0007B8                007B8 00805  2496    00642000           ORG   CLT0+C'['
 000805 00                          2497    00643000           DC    X'00'                   MAKE IT A PRINTING CHAR
 000806                00806 00815  2498    00644000           ORG   CLT0+C']'
 000815 00                          2499    00645000           DC    X'00'                   MAKE IT A PRINTING CHAR
 000816                00816 00818  2500    00646000           ORG   CLT0+C'{'
 000818 00                          2501    00647000           DC    X'00'                   MAKE IT A PRINTING CHAR
 000819                00819 00828  2502    00648000           ORG   CLT0+C'}'
 000828 00                          2503    00649000           DC    X'00'                   MAKE IT A PRINTING CHAR
 000829                00829 00838  2504    00650000           ORG   CLT0+C'\'
 000838 00                          2505    00651000           DC    X'00'                   MAKE IT A PRINTING CHAR
 000839                00839 007D1  2506    00652000           ORG   CLT0+C'`'
 0007D1 00                          2507    00653000           DC    X'00'                   MAKE IT A PRINGING CHAR
 0007D2                007D2 007A2  2508    00654000           ORG   CLT0+C'^'               CENT SIGN OR CARAT
 0007A2 00                          2509    00655000           DC    X'00'
 0007A3                007A3 007B2  2510    00656000           ORG   CLT0+C'!'               EXCLAMATION POINT
 0007B2 00                          2511    00657000           DC    X'00'
 0007B3                007B3 007A4  2512    00658000           ORG   CLT0+C'<'
 0007A4 00                          2513    00659000           DC    X'00'
 0007A5                007A5 007C6  2514    00660000           ORG   CLT0+C'>'
 0007C6 00                          2515    00661000           DC    X'00'
 0007C7                007C7 007D2  2516    00662000           ORG   CLT0+C':'
 0007D2 00                          2517    00663000           DC    X'00'
 0007D3                007D3 007C4  2518    00664000           ORG   CLT0+C'%'
 0007C4 00                          2519    00665000           DC    X'00'
 0007C5                007C5 007C7  2520    00666000           ORG   CLT0+C'?'
 0007C7 00                          2521    00667000           DC    X'00'
 0007C8                007C8 007B4  2522    00668000           ORG   CLT0+C'*'
 0007B4 00                          2523    00669000           DC    X'00'
 0007B5                007B5 00798  2524    00670000           ORG   CLT0+C' '               A SPACE
 000798 04                          2525    00671000           DC    AL1(4)                   IS
 000799                00799 007C3  2526    00672000           ORG   CLT0+C','                 A COMMA
 0007C3 04                          2527    00673000           DC    AL1(4)                     IS
 0007C4                007C4 007D6  2528    00674000           ORG   CLT0+C'='                   AN EQUALS
 0007D6 04                          2529    00675000           DC    AL1(4)                       SIGN
 0007D7                007D7 007D5  2530    00676000           ORG   CLT0+C''''
 0007D5 08                          2531    00677000           DC    AL1(8)
 0007D6                007D6 007D7  2532    00678000           ORG   CLT0+C'"'
 0007D7 0C                          2533    00679000           DC    AL1(12)
 0007D8                007D8 007A5  2534    00680000           ORG   CLT0+C'('
 0007A5 10                          2535    00681000           DC    AL1(16)
 0007A6                007A6 007B5  2536    00682000           ORG   CLT0+C')'
 0007B5 14                          2537    00683000           DC    AL1(20)
 0007B6                007B6 007B6  2538    00684000           ORG   CLT0+C';'
1SCANNER  (SCAN9001) (10:10) (06JUN02) Wings Scanner                                                                        Page   26
0Current Usings:  (BASE,R7)
0Loc    Object Code    Addr1 Addr2  Stmt Lv Lineno    Source Statement           (Hibal 5, Asmedit 3.3)  HLASM R4.0  2002/06/06 10.10
+___    ______ ____    _____ _____  ____ __ ______    ______ _________
00007B6 1C                          2539    00685000           DC    AL1(28)
 0007B7                007B7 00858  2540    00686000           ORG
                                    2541    00687000  *
                                    2542    00688000  *  SCAN TABLE FOR ISOLATING STRING (BOUNDED BY BLANK OR COMMA)
                                    2543    00689000  *
 000858 0000000000000000            2544    00690000  CLT1     DC    256AL1(0)
 000958                00958 00898  2545    00691000           ORG   CLT1+C' '
 000898 04                          2546    00692000           DC    AL1(4)
 000899                00899 008C3  2547    00693000           ORG   CLT1+C','
 0008C3 04                          2548    00694000           DC    AL1(4)
 0008C4                008C4 008D6  2549    00695000           ORG   CLT1+C'='
 0008D6 04                          2550    00696000           DC    AL1(4)
 0008D7                008D7 008D5  2551    00697000           ORG   CLT1+C''''
 0008D5 08                          2552    00698000           DC    AL1(8)
 0008D6                008D6 008D7  2553    00699000           ORG   CLT1+C'"'
 0008D7 0C                          2554    00700000           DC    AL1(12)
 0008D8                008D8 008A5  2555    00701000           ORG   CLT1+C'('
 0008A5 10                          2556    00702000           DC    AL1(16)
 0008A6                008A6 008B5  2557    00703000           ORG   CLT1+C')'
 0008B5 14                          2558    00704000           DC    AL1(20)
 0008B6                008B6 008B6  2559    00705000           ORG   CLT1+C';'
 0008B6 1C                          2560    00706000           DC    AL1(28)
 0008B7                008B7 00958  2561    00707000           ORG
                                    2562    00708000  *
                                    2563    00709000  *  TABLE FOR SCANNING EXPRESSIONS
                                    2564    00710000  *
 000958 1818181818181818            2565    00711000  CLT2     DC    256AL1(24)
 000A58                00A58 009D9  2566    00712000           ORG   CLT2+X'81'
 0009D9 0000000000000000            2567    00713000           DC    9X'00'
 0009E2                009E2 009E9  2568    00714000           ORG   CLT2+X'91'
 0009E9 0000000000000000            2569    00715000           DC    9X'00'
 0009F2                009F2 009FA  2570    00716000           ORG   CLT2+X'A2'
 0009FA 0000000000000000            2571    00717000           DC    8X'00'
 000A02                00A02 00A19  2572    00718000           ORG   CLT2+C'A'
 000A19 0000000000000000            2573    00719000           DC    9X'00'
 000A22                00A22 00A29  2574    00720000           ORG   CLT2+C'J'
 000A29 0000000000000000            2575    00721000           DC    9X'00'
 000A32                00A32 00A3A  2576    00722000           ORG   CLT2+C'S'
 000A3A 0000000000000000            2577    00723000           DC    8X'00'
 000A42                00A42 00A48  2578    00724000           ORG   CLT2+C'0'
 000A48 0000000000000000            2579    00725000           DC    10X'00'
 000A52                00A52 009A3  2580    00726000           ORG   CLT2+C'.'
 0009A3 00                          2581    00727000           DC    X'00'
 0009A4                009A4 009B3  2582    00728000           ORG   CLT2+C'$'
 0009B3 00                          2583    00729000           DC    X'00'
 0009B4                009B4 009D4  2584    00730000           ORG   CLT2+C'@'
 0009D4 00                          2585    00731000           DC    X'00'
 0009D5                009D5 009D3  2586    00732000           ORG   CLT2+C'#'
 0009D3 00                          2587    00733000           DC    X'00'
 0009D4                009D4 009C5  2588    00734000           ORG   CLT2+C'_'
 0009C5 00                          2589    00735000           DC    X'00'
 0009C6                009C6 009D5  2590    00736000           ORG   CLT2+C''''
 0009D5 08                          2591    00737000           DC    AL1(8)
 0009D6                009D6 009D7  2592    00738000           ORG   CLT2+C'"'
1SCANNER  (SCAN9001) (10:10) (06JUN02) Wings Scanner                                                                        Page   27
0Current Usings:  (BASE,R7)
0Loc    Object Code    Addr1 Addr2  Stmt Lv Lineno    Source Statement           (Hibal 5, Asmedit 3.3)  HLASM R4.0  2002/06/06 10.10
+___    ______ ____    _____ _____  ____ __ ______    ______ _________
00009D7 0C                          2593    00739000           DC    AL1(12)
 0009D8                009D8 009B6  2594    00740000           ORG   CLT2+C';'
 0009B6 1C                          2595    00741000           DC    AL1(28)
 0009B7                009B7 00A58  2596    00742000           ORG
                                    2597    00742010           ¿þþþþþþþþþþþþþþþþþþþþþþþþþþþþþþþþþþþÜ
                                    2598    00742020           Ÿ  MAKE () PART OF A NORMAL STRING  Ÿ
                                    2599    00742030           ¾þþþþþþþþþþþþþþþþþþþþþþþþþþþþþþþþþþþ»
 000A58 0404040404040404            2600    00742180  CLT3     DC    256AL1(4)
 000B58                00B58 00AD9  2601    00742190           ORG   CLT3+X'81'
 000AD9 0000000000000000            2602    00742200           DC    9X'00'
 000AE2                00AE2 00AE9  2603    00742210           ORG   CLT3+X'91'
 000AE9 0000000000000000            2604    00742220           DC    9X'00'
 000AF2                00AF2 00AFA  2605    00742230           ORG   CLT3+X'A2'
 000AFA 0000000000000000            2606    00742240           DC    8X'00'
 000B02                00B02 00B19  2607    00742250           ORG   CLT3+C'A'
 000B19 0000000000000000            2608    00742260           DC    9X'00'
 000B22                00B22 00B29  2609    00742270           ORG   CLT3+C'J'
 000B29 0000000000000000            2610    00742280           DC    9X'00'
 000B32                00B32 00B3A  2611    00742290           ORG   CLT3+C'S'
 000B3A 0000000000000000            2612    00742300           DC    8X'00'
 000B42                00B42 00B48  2613    00742310           ORG   CLT3+C'0'
 000B48 0000000000000000            2614    00742320           DC    10X'00'
 000B52                00B52 00AA3  2615    00742330           ORG   CLT3+C'.'
 000AA3 00                          2616    00742340           DC    X'00'
 000AA4                00AA4 00AB3  2617    00742350           ORG   CLT3+C'$'
 000AB3 00                          2618    00742360           DC    X'00'
 000AB4                00AB4 00AD4  2619    00742370           ORG   CLT3+C'@'
 000AD4 00                          2620    00742380           DC    X'00'
 000AD5                00AD5 00AD3  2621    00742390           ORG   CLT3+C'#'
 000AD3 00                          2622    00742400           DC    X'00'
 000AD4                00AD4 00AA8  2623    00742410           ORG   CLT3+C'&&'
 000AA8 00                          2624    00742420           DC    X'00'
 000AA9                00AA9 00AC5  2625    00742430           ORG   CLT3+C'_'
 000AC5 00                          2626    00742440           DC    X'00'
 000AC6                00AC6 00AA6  2627    00742450           ORG   CLT3+C'+'
 000AA6 18                          2628    00742460           DC    AL1(24)
 000AA7                00AA7 00AB8  2629    00742470           ORG   CLT3+C'-'
 000AB8 18                          2630    00742480           DC    AL1(24)
 000AB9                00AB9 00AA7  2631    00742490           ORG   CLT3+C'|'
 000AA7 18                          2632    00742500           DC    AL1(24)
 000AA8                00AA8 00AB9  2633    00742510           ORG   CLT3+C'/'
 000AB9 18                          2634    00742520           DC    AL1(24)
 000ABA                00ABA 00AB7  2635    00742530           ORG   CLT3+C'~'
 000AB7 18                          2636    00742540           DC    AL1(24)
 000AB8                00AB8 00B05  2637    00742550           ORG   CLT3+C'['
 000B05 00                          2638    00742560           DC    X'00'                   MAKE IT A PRINTING CHAR
 000B06                00B06 00B15  2639    00742570           ORG   CLT3+C']'
 000B15 00                          2640    00742580           DC    X'00'                   MAKE IT A PRINTING CHAR
 000B16                00B16 00B18  2641    00742590           ORG   CLT3+C'{'
 000B18 00                          2642    00742600           DC    X'00'                   MAKE IT A PRINTING CHAR
 000B19                00B19 00B28  2643    00742610           ORG   CLT3+C'}'
 000B28 00                          2644    00742620           DC    X'00'                   MAKE IT A PRINTING CHAR
 000B29                00B29 00B38  2645    00742630           ORG   CLT3+C'\'
 000B38 00                          2646    00742640           DC    X'00'                   MAKE IT A PRINTING CHAR
1SCANNER  (SCAN9001) (10:10) (06JUN02) Wings Scanner                                                                        Page   28
0Current Usings:  (BASE,R7)
0Loc    Object Code    Addr1 Addr2  Stmt Lv Lineno    Source Statement           (Hibal 5, Asmedit 3.3)  HLASM R4.0  2002/06/06 10.10
+___    ______ ____    _____ _____  ____ __ ______    ______ _________
0000B39                00B39 00AD1  2647    00742650           ORG   CLT3+C'`'
 000AD1 00                          2648    00742660           DC    X'00'                   MAKE IT A PRINGING CHAR
 000AD2                00AD2 00AA2  2649    00742670           ORG   CLT3+C'^'               CENT SIGN OR CARAT
 000AA2 00                          2650    00742680           DC    X'00'
 000AA3                00AA3 00AB2  2651    00742690           ORG   CLT3+C'!'               EXCLAMATION POINT
 000AB2 00                          2652    00742700           DC    X'00'
 000AB3                00AB3 00AA4  2653    00742710           ORG   CLT3+C'<'
 000AA4 00                          2654    00742720           DC    X'00'
 000AA5                00AA5 00AC6  2655    00742730           ORG   CLT3+C'>'
 000AC6 00                          2656    00742740           DC    X'00'
 000AC7                00AC7 00AD2  2657    00742750           ORG   CLT3+C':'
 000AD2 00                          2658    00742760           DC    X'00'
 000AD3                00AD3 00AC4  2659    00742770           ORG   CLT3+C'%'
 000AC4 00                          2660    00742780           DC    X'00'
 000AC5                00AC5 00AC7  2661    00742790           ORG   CLT3+C'?'
 000AC7 00                          2662    00742800           DC    X'00'
 000AC8                00AC8 00AB4  2663    00742810           ORG   CLT3+C'*'
 000AB4 00                          2664    00742820           DC    X'00'
 000AB5                00AB5 00A98  2665    00742830           ORG   CLT3+C' '               A SPACE
 000A98 04                          2666    00742840           DC    AL1(4)                   IS
 000A99                00A99 00AC3  2667    00742850           ORG   CLT3+C','                 A COMMA
 000AC3 04                          2668    00742860           DC    AL1(4)                     IS
 000AC4                00AC4 00AD6  2669    00742870           ORG   CLT3+C'='                   AN EQUALS
 000AD6 04                          2670    00742880           DC    AL1(4)                       SIGN
 000AD7                00AD7 00AD5  2671    00742890           ORG   CLT3+C''''
 000AD5 08                          2672    00742900           DC    AL1(8)
 000AD6                00AD6 00AD7  2673    00742910           ORG   CLT3+C'"'
 000AD7 0C                          2674    00742920           DC    AL1(12)
 000AD8                00AD8 00AA5  2675    00742930           ORG   CLT3+C'('           NORMAL STRING FOR "("
 000AA5 00                          2676    00742940           DC    AL1(00)
 000AA6                00AA6 00AB5  2677    00742950           ORG   CLT3+C')'           NORMAL STRING FOR ")"
 000AB5 00                          2678    00742960           DC    AL1(00)
 000AB6                00AB6 00AB6  2679    00742970           ORG   CLT3+C';'
 000AB6 1C                          2680    00742980           DC    AL1(28)
 000AB7                00AB7 00B58  2681    00742990           ORG
                                    2682    00743000
 000B58                             2683    00744000           LTORG
 000B58 00000004                    2685                             =A(4)
 000B5C 00000008                    2686                             =A(8)
 000B60 00000007                    2687                             =X'00000007'
 000B64 000000BE                    2688                             =A(BASE)
 000B68 00000009                    2689                             =A(9)
 000B6C 00000005                    2690                             =A(5)
 000B70 0000000A                    2691                             =A(10)
 000B74 FFFFFFF8                    2692                             =F'-8'
 000B78 0003                        2693                             =Y(3)
 000B7A 03E8                        2694                             =H'1000'
 000B7C F0F0           00B84 00B98  2695                             =C'00'
                                    2699    00745000  *
 000B84 00000000
 000B88                             2700    00745110           DC    0D'0'
                                    2701    00745120           ENTRY SYMSCANN
 000B88 E2C3C1D5D5C5D940            2702    00745200  SYMSCANN DC    CL8'SCANNER'
 000B90 00000000                    2703    00745210           DC    A(SCANNER)
1SCANNER  (SCAN9001) (10:10) (06JUN02) Wings Scanner                                                                        Page   29
0Current Usings:  (BASE,R7)
0Loc    Object Code    Addr1 Addr2  Stmt Lv Lineno    Source Statement           (Hibal 5, Asmedit 3.3)  HLASM R4.0  2002/06/06 10.10
+___    ______ ____    _____ _____  ____ __ ______    ______ _________
0000B94 00000B98                    2704    00745220           DC    A(SCANNERX)
                                    2705    00745400  SCANNERX EQU   *-SCANNER
 000B98                00B98 00B98  2706    00746000           END   .

1SCANNER  (SCAN9001) (10:10) (06JUN02) Macro and Copy Code Source Summary                                                   Page   30
- Con Source                                        Volume    Members                        HLASM R4.0  2002/06/06 10.10
0     PRIMARY INPUT                                           CSECT    DROP     END      EX       LTORG    POP
                                                              PRINT    PUSH     START    USING    XENTER
   L1 WYL.GA.MCL.WINGS.MACLIB                       STR211    PROC     REG      SCANCB   XPROC
   L2 WYL.GG.SYS.MACLIB                             STR210    $BC      $BFLKUP  $BV      $CCLKUP  $CRS     $LBLAD
                                                              $LEXP    $LOR     $REL     $RGLKUP  $USLKUP  BASE
                                                              BEGIN    CLEAR    CSECT    DATA     DEFCC    DEX      DROP
                                                              ELSE     END      EX       FLAG     GEN      HIBAL
                                                              IDENT    IF       LABEL    LOOP     LTORG    PEND     POP
                                                              PRETURN  PRINT    PUSH     RECORD   REGS     SET
                                                              START    UNTIL    USING    WHILE    WITH
   L3 SYS3.IS.MACLIB                                SYSA03    CLRHI

1SCANNER  (SCAN9001) (10:10) (06JUN02) Using Map                                                                            Page   31
-                                                                                            HLASM R4.0  2002/06/06 10.10
   Stmt  -----Location----- Action ----------------Using----------------- Reg Max    Last  Label and Using Text
           Count      Id           Type          Value    Range     Id        Disp   Stmt
0   928  00000000  00000001 USING  ORDINARY    00000000 00001000 FFFFFFF0  15 000          @R15,15
    932  00000000  00000001 USING  ORDINARY    00000000 00001000 FFFFFFF1  14 004    1970  @R14,14
    936  00000000  00000001 USING  ORDINARY    00000000 00001000 FFFFFFF2  13 000    1477  @R13,13
    940  00000000  00000001 USING  ORDINARY    00000000 00001000 FFFFFFF3  12 000          @R12,12
    944  00000000  00000001 USING  ORDINARY    00000000 00001000 FFFFFFF4  11 000          @R11,11
    948  00000000  00000001 USING  ORDINARY    00000000 00001000 FFFFFFF5  10 000          @R10,10
    952  00000000  00000001 USING  ORDINARY    00000000 00001000 FFFFFFF6   9 000          @R9,9
    956  00000000  00000001 USING  ORDINARY    00000000 00001000 FFFFFFF7   8 000          @R8,8
    960  00000000  00000001 USING  ORDINARY    00000000 00001000 FFFFFFF8   7 000          @R7,7
    964  00000000  00000001 USING  ORDINARY    00000000 00001000 FFFFFFF9   6 001    2365  @R6,6
    968  00000000  00000001 USING  ORDINARY    00000000 00001000 FFFFFFFA   5 000          @R5,5
    972  00000000  00000001 USING  ORDINARY    00000000 00001000 FFFFFFFB   4 000    2327  @R4,4
    976  00000000  00000001 USING  ORDINARY    00000000 00001000 FFFFFFFC   3 001    1883  @R3,3
    980  00000000  00000001 USING  ORDINARY    00000000 00001000 FFFFFFFD   2 009    2226  @R2,2
    984  00000000  00000001 USING  ORDINARY    00000000 00001000 FFFFFFFE   1 001    2303  @R1,1
    988  00000000  00000001 USING  ORDINARY    00000000 00001000 FFFFFFFF   0 000          @R0,0
    989  00000000  00000001 DROP                                            0              0
   1272  00000028  00000001 USING  ORDINARY    00000028 00001000 00000001   7 000          $$$2B,7
   1290  00000028  00000001 USING  ORDINARY    00000000 00001000 FFFFFFED  15 01C    1296  SCANCB,R15
   1303  00000036  00000001 USING  ORDINARY    00000000 00001000 FFFFFFF0  15 000          @R15,15
   1308  00000036  00000001 USING  ORDINARY    00000000 00001000 FFFFFFF8   7 000          @R7,7
   1360  00000054  00000001 USING  ORDINARY    00000054 00001000 00000001   7 000          $$$5B,7
   1378  00000054  00000001 USING  ORDINARY    00000000 00001000 FFFFFFED  15 01C    1385  SCANCB,R15
   1394  00000068  00000001 USING  ORDINARY    00000000 00001000 FFFFFFF0  15 000          @R15,15
   1399  00000068  00000001 USING  ORDINARY    00000000 00001000 FFFFFFF8   7 000          @R7,7
   1451  00000086  00000001 USING  ORDINARY    00000086 00001000 00000001   7 000          $$$8B,7
   1469  00000086  00000001 USING  ORDINARY    00000000 00001000 FFFFFFED  15 01C    1477  SCANCB,R15
   1486  000000A0  00000001 USING  ORDINARY    00000000 00001000 FFFFFFF0  15 000    1591  @R15,15
   1491  000000A0  00000001 USING  ORDINARY    00000000 00001000 FFFFFFF8   7 000          @R7,7
   1513  000000AE  00000001 USING  ORDINARY    00000000 00001000 FFFFFFEF   8 052    2205  SA,WAR
   1522  000000AE  00000001 USING  ORDINARY    00000000 00001000 FFFFFFEE  13 004    1984  PRTSTACK,R13
   1542  000000BE  00000001 USING  ORDINARY    000000BE 00001000 00000001   7 ABA    2007  $$$10B,7
   1553  000000C0  00000001 USING  ORDINARY    00000000 00001000 FFFFFFED  10 01C    2011  SCANCB,R10
   2020  00000432  00000001 USING  ORDINARY    00000000 00001000 FFFFFFED  15 018    2040  SCANCB,R15
   2027  00000432  00000001 USING  ORDINARY    00000000 00001000 FFFFFFF5  10 000          @R10,10
   2058  0000045E  00000001 USING  ORDINARY    00000000 00001000 FFFFFFF8   7 000          @R7,7
   2061  0000045E  00000001 USING  ORDINARY    0000045E 00001000 00000001   7 706    2063  $$$21B,7
   2071  00000462  00000001 USING  ORDINARY    00000000 00001000 FFFFFFF8   7 000          @R7,7
   2074  00000462  00000001 USING  ORDINARY    000000BE 00001000 00000001   7 ABE    2209  BASE,7
   2082  00000464  00000001 USING  ORDINARY    00000000 00001000 FFFFFFF0  15 001    2124  @R15,15
   2091  00000464  00000001 USING  ORDINARY    00000000 00001000 FFFFFFED  10 018    2226  SCANCB,R10
   2232  000005EC  00000001 USING  ORDINARY    00000000 00001000 FFFFFFF5  10 000          @R10,10
   2238  000005EC  00000001 USING  ORDINARY    00000000 00001000 FFFFFFF7   8 000          @R8,8
   2244  000005EC  00000001 USING  ORDINARY    00000000 00001000 FFFFFFF2  13 000          @R13,13
   2288  000005FC  00000001 USING  ORDINARY    00000000 00001000 FFFFFFF8   7 000          @R7,7
   2291  000005FC  00000001 USING  ORDINARY    000005FC 00001000 00000001   7 582    2386  $$$25B,7
   2413  0000063A  00000001 USING  ORDINARY    00000000 00001000 FFFFFFF8   7 000          @R7,7
   2416  0000063A  00000001 USING  ORDINARY    000000BE 00001000 00000001   7 000          BASE,7

1         (SCAN9001) (10:10) (06JUN02) General Purpose Register Cross Reference                                             Page   32
- Register  References (M=modified, B=branch, U=USING, D=DROP, N=index)                      HLASM R4.0  2002/06/06 10.10
0    0(0)     988U  989D 1256  1295  1316M 1344  1385M 1387  1407M 1435  1499M 1627M 1629M 1630M 1630  1853M 1854M 1856
             1858  1872M 1874  1880  1937  1996  2036M 2036  2105M 2105  2109  2116M 2116  2118  2126M 2129M 2130M 2133
             2136M 2137M 2138  2139M 2142  2145  2149M 2154  2155M 2162M 2162  2164  2166  2173M 2179M 2187M 2191M 2191
             2201M 2201  2207M 2220M 2220  2272  2300M 2301M 2305  2315M 2315  2340M 2376M 2376  2395M 2395  2402  2424M
     1(1)     984U 1256  1294M 1295  1316M 1344  1382M 1383M 1384  1385M 1387  1407M 1435  1473M 1474  1475M 1476M 1479
             1499M 1560  1573M 1591M 1626  1627  1628M 1629  1662  1697  1731  1733M 1763  1769  1770M 1771  1792  1798
             1799M 1800  1814  1844  1845M 1846  1848  1854  1855M 1867  1868M 1870  1872  1873M 1881  1996  2096  2121
             2139M 2150M 2156M 2167  2172M 2174M 2175M 2187M 2202M 2202  2207M 2272  2302  2303M 2304  2402  2424M
     2(2)     980U 1256  1316M 1344  1407M 1435  1499M 1527  1576M 1576  1582N 1591M 1820M 1821  1824M 1825M 1826  1838M
             1839M 1840  1841M 1841  1880M 1884M 1913M 1914M 1914  1919M 1946M 1956  1965M 1972  1973M 1984M 1987M 1990M
             1999M 2000M 2001M 2001  2031M 2043  2219M 2272  2341M 2344M 2346  2424M
     3(3)     976U 1256  1316M 1344  1407M 1435  1499M 1527  1881M 1883M 1919N 1922M 1923M 1926M 1926  1930  1933  1946N
             1956  1990M 2031M 2043  2110N 2219M 2272  2424M
     4(4)     972U 1256  1316M 1344  1407M 1435  1499M 1527  1561M 1561  1911M 1911  1916M 1951M 1966M 1967M 1967  1973
             1992M 1993M 1994  2029  2031M 2043  2093M 2093  2185M 2185  2208M 2208  2219M 2272  2302M 2424M
     5(5)     968U 1256  1316M 1344  1407M 1435  1499M 1527  1562M 1573N 1574M 1574  1579M 1581  1625M 1625  1665  1697M
             1698M 1699  1768M 1769M 1779M 1797M 1798M 1843M 1844M 1848M 1849M 1856M 1866M 1870M 1871  2031M 2043  2152M
             2155  2166M 2176M 2178  2186M 2192M 2192  2210  2219M 2272  2305M 2339M 2341  2371M 2424M
     6(6)     964U 1256  1316M 1344  1407M 1435  1499M 1527  1562M 1626M 1664M 1665  1768  1771M 1780M 1797  1800M 1843
             1846M 1849  1850M 1857M 1858M 1866M 1868  1873  2031M 2043  2110M 2121M 2125M 2167M 2186M 2210  2219M 2272
             2304M 2365M 2424M
     7(7)     960U 1256  1261M 1272U 1308U 1316M 1344  1349M 1360U 1399U 1407M 1435  1440M 1451U 1491U 1499M 1527  1532M
             1542U 2031M 2043  2048M 2058U 2061U 2063M 2071U 2074U 2219M 2272  2277M 2288U 2291U 2413U 2416U 2424M
     8(8)     956U 1256  1257M 1312  1316M 1344  1345M 1387  1403  1407M 1435  1436M 1479N 1495  1499M 1513U 1527  1528M
             2030  2031M 2043  2044M 2218  2219M 2238U 2272  2273M 2402  2420  2424M
     9(9)     952U 1256  1316M 1344  1407M 1435  1499M 1527  2031M 2043  2219M 2272  2424M
    10(A)     948U 1256  1316M 1344  1407M 1435  1499M 1527  1545M 1553U 2012  2027U 2031M 2043  2076M 2091U 2217  2219M
             2232U 2272  2424M
    11(B)     944U 1256  1316M 1344  1407M 1435  1499M 1527  2031M 2043  2219M 2272  2424M
    12(C)     940U 1256  1316M 1344  1407M 1435  1499M 1527  2031M 2043  2219M 2272  2424M
    13(D)     936U 1253  1256  1257  1258M 1258  1312M 1316  1318  1341  1344  1345  1346M 1346  1403M 1407  1409  1432
             1435  1436  1437M 1437  1495M 1499  1501  1522U 1526  1527  1528  1529M 1529  2030M 2031  2042  2043  2044
             2045M 2045  2218M 2219  2244U 2269  2272  2273  2274M 2274  2420M 2424  2426
    14(E)     932U 1253  1318M 1321B 1341  1409M 1412B 1432  1501M 1504B 1526  1559  1969M 1970M 1971  1972N 1980M 1981M
             1983  1984N 1994M 2029M 2034M 2035M 2037M 2037B 2042  2102M 2135M 2145M 2146M 2148  2151M 2180B 2211M 2213M
             2214M 2221B 2269  2426M 2429B
    15(F)     928U 1290U 1303U 1320M 1320  1378U 1394U 1411M 1411  1469U 1486U 1503M 1503  1545  1577M 1578M 1578N 1874M
             1896  1903M 1908M 1910  1930  1940  1997  2009M 2011  2012M 2020U 2076  2082U 2120M 2120  2124M 2130  2132M
             2132  2137  2138M 2152  2154M 2189M 2215M 2216  2217M 2428M 2428

1SCANNER  (SCAN9001) (10:10) (06JUN02) Diagnostic Cross Reference and Assembler Summary                                     Page   33
-                                                                                            HLASM R4.0  2002/06/06 10.10
0Statements Flagged
0    2020(L2:USING,142)

       1 Statement  Flagged in this Assembly        4 was Highest Severity Code
0HIGH LEVEL ASSEMBLER, 5696-234, RELEASE 4.0, PTF UQ57391
0SYSTEM: OS/390 02.10.00            JOBNAME: WIN#SCAN    STEPNAME: ASM        PROCSTEP: ASM
0Datasets Allocated for this Assembly
  Con DDname   Dataset Name                                 Volume  Member
   P1 SYSIN    SYS02157.T101044.RA000.WIN#SCAN.SYSIN.H01
   L1 SYSLIB   WYL.GA.MCL.WINGS.MACLIB                      STR211
   L2          WYL.GG.SYS.MACLIB                            STR210
   L3          SYS3.IS.MACLIB                               SYSA03
   L4          SYS3.MACLIB                                  SYSA03
   L5          SYS1.MACLIB                                  OS02AD
   L6          SYS1.MODGEN                                  OS02AD
   L7          SYS4.MACLIB                                  SYSA04
      SYSLIN   WYL.GA.MCL.WINGS.OBJECT                      STR203  SCANNER
      SYSPRINT SYS02157.T101044.RA000.WIN#SCAN.PRINT.H01    SCR003
      SYSTERM  GA$MCL.WIN#SCAN.JOB01214.D0000102.?

    9460K allocated to Buffer Pool,          711K would be required for this to be an In-Storage Assembly
     873 Primary Input Records Read         2559 Library Records Read                  0 Work File Reads
       0 ASMAOPT Records Read               1519 Primary Print Records Written         0 Work File Writes
     167 Punch Records Written                 0 ADATA Records Written
0Assembly Start Time: 10.10.44 Stop Time: 10.10.45 Processor Time: 00.00.00.2229
 Return Code 004
