1         High Level Assembler Option Summary                   (PTF UQ57391)                                               Page    1
-                                                                                            HLASM R4.0  2002/06/06 10.18
0  No Overriding ASMAOPT Parameters
   Overriding Parameters-  TERM,RENT,NOXREF,NODXREF,LINECOUNT(32767),NORLD,USING(WARN(11))
   No Process Statements


   Options for this Assembly
0  NOADATA
     ALIGN
   NOASA
     BATCH
     CODEPAGE(047C)
   NOCOMPAT
   NODBCS
   NODECK
 3 NODXREF
     ESD
   NOEXIT
     FLAG(0,ALIGN,CONT,NOIMPLEN,NOPAGE0,PUSH,RECORD,NOSUBSTR,USING0)
   NOFOLD
   NOGOFF
   NOINFO
     LANGUAGE(EN)
   NOLIBMAC
 3   LINECOUNT(32767)
     LIST(121)
     MXREF(SOURCE)
     OBJECT
     OPTABLE(UNI,NOLIST)
   NOPCONTROL
   NOPESTOP
   NOPROFILE
   NORA2
 3   RENT
 3 NORLD
     RXREF
     SIZE(MAX)
     SYSPARM()
 3   TERM(WIDE)
   NOTEST
     THREAD
   NOTRANSLATE
 3   USING(NOLIMIT,MAP,WARN(11))
 3 NOXREF

   No Overriding DD Names

1UTILS    External Symbol Dictionary                                                                                        Page    2
-Symbol   Type   Id     Address  Length     LD ID  Flags Alias-of                            HLASM R4.0  2002/06/06 10.18
0UTILS     SD 00000001 00000000 000029D0             00
 PTRACE    LD          00000000           00000001
 PRTINIT   LD          00000038           00000001
 PRTCLOSE  LD          00000186           00000001
 PRTSEG    LD          00000218           00000001
 WTOINIT   LD          00000346           00000001
 SETCONID  LD          000003BA           00000001
 SETAUXSG  LD          000003FE           00000001
 WTOSEG    LD          00000442           00000001
 GETLOW    ER 00000002
 SEGINIT   ER 00000003
 SEGINITR  ER 00000004
 AMODE24   ER 00000005
 AMODE31   ER 00000006
 FREECORE  ER 00000007
 FMTTIME   ER 00000008
 GETCORE   ER 00000009
 SEG       ER 0000000A
 SEGTB     ER 0000000B
 SEGT      ER 0000000C
 SEGWR     ER 0000000D
 SEGCLR    ER 0000000E
 MCMDINIT  LD          000006A0           00000001
 AMODE31   LD          000007E4           00000001
 AMODE24   LD          00000822           00000001
 GETCORE   LD          0000085C           00000001
 GETLOW    LD          000008FE           00000001
 GETSHARE  LD          0000099E           00000001
 FREECORE  LD          00000A42           00000001
 RTRIM     LD          00000B6E           00000001
 LRTRIM    LD          00000BA8           00000001
 DINTPACK  LD          00000BFA           00000001
 DINTCONV  LD          00000C74           00000001
 TOUPPER   LD          00000CFA           00000001
 DTB       LD          00000E58           00000001
 XTB       LD          00000EA6           00000001
 BTD       LD          00000F0C           00000001
 BTX       LD          00000F88           00000001
 BTR       LD          00000FF4           00000001
 HEXSTR    LD          00001070           00000001
 FMTXDATE  LD          00001186           00000001
 DTB       ER 0000000F
 FMTIDLE   LD          00001372           00000001
 FMTCLCK   LD          00001424           00000001
 FMTRCLCK  LD          0000147C           00000001
 FMTTIME   LD          000014F4           00000001
 FMTDATE   LD          00001566           00000001
 FMTNDATE  LD          00001612           00000001
 FMTDAY    LD          000016DC           00000001
 FMTJUL    LD          000017A2           00000001
 TIMEDATE  LD          000017EC           00000001
 BDATE     LD          00001868           00000001
 DATE      LD          000018C8           00000001
 NDATE     LD          0000199E           00000001
 TIME      LD          00001A80           00000001
1UTILS    External Symbol Dictionary                                                                                        Page    3
 BTR       ER 00000010
 BTD       ER 00000011
 ADDSYM    LD          00001BE0           00000001
 DELSYM    LD          00001C58           00000001
 UNPRESS   LD          00001CBC           00000001
 DEQUOTE   LD          00001D48           00000001
 DEQSTR    LD          00001D4C           00000001
 HEXSEG    LD          00001DC2           00000001
 HEXDUMP   LD          00001E3C           00000001
 SEGINIT   LD          000021B2           00000001
 SEGINITR  LD          000021DE           00000001
 SEGB      LD          00002204           00000001
 SEGTB     LD          00002238           00000001
 SEGCR     LD          0000226C           00000001
 SEGWR     LD          000022A8           00000001
 SEGT      LD          000022F8           00000001
 SEG       LD          00002346           00000001
 SEGCOL    LD          0000245E           00000001
 SEGBLANK  LD          000024A0           00000001
 SEGDAY    LD          000024F0           00000001
 SEGCLR    LD          00002568           00000001
 SEGMARK   LD          000025A4           00000001
 SEGDC     LD          000025AC           00000001
 SEGHX     LD          000025E8           00000001
 BTX       ER 00000012
 SEGMARK   ER 00000013
 SEGBLANK  ER 00000014
 SEGB      ER 00000015
 SYMUTILS  LD          000029B8           00000001

1UTILS    Wings Utility Routines                                                                                            Page    4
0Loc    Object Code    Addr1 Addr2  Stmt Lv Lineno    Source Statement                    (Asmedit 3.3)  HLASM R4.0  2002/06/06 10.18
+___    ______ ____    _____ _____  ____ __ ______    ______ _________
0                                      2    00002000  ********************************************************************
                                       3    00003000  *** %%Module: wings asm utils;                                     *
                                       4    00004000  ********************************************************************
                                       5    00005000  ***                                                                *
                                       6    00006000  ***                                                                *
                                       7    00007000  ***  WINGS -- FILE SERVER UTILITY ROUTINES.                        *
                                       8    00008000  ***                                                                *
                                       9    00009000  ***    This module is a collection of miscellaneous utility        *
                                      10    00010000  ***    routines.                                                   *
                                      11    00011000  ***                                                                *
                                      12    00012000  ***                                                                *
                                      13    00013000  ***  Modifications:                                                *
                                      14    00013900  ***  2002/06/06  mcl  MSG->SETMSG                                  *
                                      15    00014000  ***  1996/10/10  mcl  more TZ adjustments                          *
                                      16    00014100  ***  1996/09/23  mcl  BDATE routine; corrections to TZ offset      *
                                      17    00015000  ***  1995/01/09  mcl  more NDATE cleanup                           *
                                      18    00016000  ***  1994/07/11  mcl  NDATE cleanup, fix some 24-bit dependencies  *
                                      19    00017000  ***  1994/07/07  mcl  add "new date" proc FMTNDATE for yyyy/mm/dd  *
                                      20    00018000  ***  1990/12/15  Niz  Cleanup.                                     *
                                      21    00019000  ***  1990/11/24  Niz  Initial version.                             *
                                      22    00020000  ***                                                                *
                                      23    00021000  ***                                                                *
                                      24    00022000  ********************************************************************
                                      25    00023000  UTILS    HIBAL ASSOC=YES
                                    1009    00024000           REGS  FSR,,,,,,,BR,WAR,,,TVTR,(GVTR,LSR),SPR,RAR
                                    1119    00025000
                                    1120    00026000           GBLC  &ZONE,&ALTZONE
                                    1121    00027000           SYSDEFN
                                    1122    00028000
 000000                00000 0003C  1123    00029000  SEGCB    RECORD 'SEGCB'
 000000 00                          1133  1 03-SEGCB +$$$SEGCB0   DS   0F
 SEGCBCOD.SEGCBSEG 01 EQ
 SEGCBCOD.SEGCBWR  02 EQ
 SEGCBCOD.SEGCBCLR 03 EQ
 SEGCBCOD.SEGCBSPP 04 EQ
 SEGCBCOD.SEGCBOVF 05 EQ
 SEGCBCOD.SEGCBCR  06 EQ
 SEGCBCOD.SEGCBMAR 07 EQ
 000001 00                          1208  1 03-SEGCB +           DC    X'00'               Reserved
 000002 0000                              1          +
 000004 00000000                    1209  1 03-SEGCB +SEGCBMAXF   DC   A(0)                Maximum buffer length
 000008 00000000                    1210  1 03-SEGCB +SEGCBMRKF   DC   A(0)                Length at last mark
 00000C 00000000                    1211  1 03-SEGCB +SEGCBLENF   DC   A(0)                Current length
 000010 00000000                    1212  1 03-SEGCB +SEGCBINDF   DC   A(0)                Overflow/indent count
 000014 00000000                    1213  1 03-SEGCB +SEGCBERR   DC    A(0)                Address of error recovery routine
 000018 0000000000000000            1214  1 03-SEGCB +           DC    2F'0'               Reserved
 000020 00000000                    1215  1 03-SEGCB +SEGCBLOC   DC    A(0)                Location of buffer
 000024 00000000                    1216  1 03-SEGCB +SEGCBRTN   DC    A(0)                Processing routine
 000028 0000000000000000            1217  1 03-SEGCB +           DC    4F'0'               Reserved
 000038 00000000       0003C 0003C  1218    03-SEGCB +SEGCBUSR DC    A(0)                USER field
                                    1228    00030000  *
 000000                00000 029D0  1229    00031000           PUSH  DSECTS              Common DSECTS
                                    5127    00062000
 USING  GVT,R12                     5128    00063000           USING GVT                 Universal assumption
 USING  TVT,R11                     5137    00064000           USING TVT                 Universal assumption
1UTILS    Procedure Tracing Routine                                                                                         Page    5
0Current Usings:  (TVT,R11) (GVT,R12)
0Loc    Object Code    Addr1 Addr2  Stmt Lv Lineno    Source Statement           (Hibal 5, Asmedit 3.3)  HLASM R4.0  2002/06/06 10.18
+___    ______ ____    _____ _____  ____ __ ______    ______ _________
0                                   5147    00066000  ¿þþþþþþþþþþþþþþþþþþþþþþþþþþþþþþþþþþþþþþþþþþþþþþþþþþþþþþþþþþþþþþþþþþþþþÜ
                                    5148    00067000  Ÿ                                                                     Ÿ
                                    5149    00068000  Ÿ  PTRACE -- Entered every time a procedure is entered to make        Ÿ
                                    5150    00069000  Ÿ    a trace table entry.  Efficiency is important here.              Ÿ
                                    5151    00070000  Ÿ                                                                     Ÿ
                                                      ¾þþþþþþþþþþþþþþþþþþþþþþþþþþþþþþþþþþþþþþþþþþþþþþþþþþþþþþþþþþþþþþþþþþþþþ»
0                                   5152    00071000           ENTRY PTRACE
 000000                             5153    00072000  PTRACE   DS    0H
 USING  PTRACE,R15                  5154    00073000           WITH  (PTRACE,R15),BEGIN
 000000 9180 B09E      0009E        5168  1 00074000             IF    TVTFTRC,BEGIN       If tracing active...
 000004 47E0 F034            00034  5178  1          +
 000008 58D0 B0CC            000CC  5183  2 00075000               L     R13,TVTTRCUR        Get current entry address
 00000C 41DD 0050            00050  5184  2 00076000               LA    R13,L'TRCENTRY(R13) Step to next entry
 000010 59D0 B0D0            000D0  5185  2 00077000               IF    (R13,GE,TVTTREND),'L R13,TVTTRBEG'  Check for wrap
 000014 4750 F01C            0001C  5197  2          +
 000018 58D0 B0C8            000C8  5203  2          +
 00001C 50D0 B0CC            000CC  5208  2 00078000               ST    R13,TVTTRCUR        Save current entry pointer
 USING  TRCENTRY,R13                5209  2 00079000               WITH  (TRCENTRY,R13)
 000020 B205 D000      00000        5222  2 00080000               STCK  TRCCLOCK            Time stamp
 000024 D207 D008 E000 00008 00000  5223  2 00081000               MVC   TRCNAME,@R14        Move in id
 00002A 900C D010            00010  5224  2 00082000               STM   R0,R12,TRCREGS      Save R0-R12
 00002E D20B D044 B0D4 00044 000D4  5225  2 00083000               MVC   TRCREGS+13*4(12),TVTTRSAV  Move in R13-R15
 DROP   TRCENTRY,R13                5226  1 00084000             END
 000034 47FE 0008            00008  5235  1 00085000             B     8(R14)              Return to caller (step over id)
 DROP   PTRACE,R15                  5236    00086000           END
1UTILS    PRTINIT -- Initialize output file                                                                                 Page    6
0Current Usings:  (TVT,R11) (GVT,R12)
0Loc    Object Code    Addr1 Addr2  Stmt Lv Lineno    Source Statement           (Hibal 5, Asmedit 3.3)  HLASM R4.0  2002/06/06 10.18
+___    ______ ____    _____ _____  ____ __ ______    ______ _________
0                                   5245    00088000  ¿þþþþþþþþþþþþþþþþþþþþþþþþþþþþþþþþþþþþþþþþþþþþþþþþþþþþþþþþþþþþþþþþþþþþþÜ
                                    5246    00089000  Ÿ                                                                     Ÿ
                                    5247    00090000  Ÿ   PRTINIT -- Routine to initialize an output SEGCB.                 Ÿ
                                    5248    00091000  Ÿ                                                                     Ÿ
                                    5249    00092000  Ÿ     On entry:                                                       Ÿ
                                    5250    00093000  Ÿ       R1  - 8 character DDNAME                                      Ÿ
                                    5251    00094000  Ÿ       R15 - SEGCB ptr                                               Ÿ
                                    5252    00095000  Ÿ                                                                     Ÿ
                                    5253    00096000  Ÿ     On exit, R15 (and cc):                                          Ÿ
                                    5254    00097000  Ÿ       0 - opened ok                                                 Ÿ
                                    5255    00098000  Ÿ       nz- error of some sort                                        Ÿ
                                    5256    00099000  Ÿ                                                                     Ÿ
                                                      ¾þþþþþþþþþþþþþþþþþþþþþþþþþþþþþþþþþþþþþþþþþþþþþþþþþþþþþþþþþþþþþþþþþþþþþ»
0000000                00000 00004  5258    00101000  PRTIWRK  RECORD BEGIN
                                    5266  1 00102000  OPNLIST    OPEN  (*-*,(OUTPUT)),MF=L
 000000                             5267  1 01-OPEN  +OPNLIST    DC    0F'0'                             ALIGN LIST TO FULLWORD
 000000 8F                          5268  1 01-OPEN  +           DC    AL1(143)                     OPTION BYTE
 000001 000000                      5269  1 01-OPEN  +           DC    AL3(*-*)                     DCB ADDRESS
 000004                00004 00004  5270    00103000           END   ,
0000038 90DF B0D4            000D4  5280    00105000  PRTINIT  XPROC PRTIWRK
 00003C 58F0 C014/0DEF       00014  5293             +
 000042 D7D9E3C9D5C9E340            5295             +
 00004A 98DF B0D4            000D4  5296             +
 00004E 50E0 D000            00000  5299             +
 000052 900C D004/188D       00004  5302             +
 000058 41D0 D03C/0D70       0003C  5305             +
 00005E 186F                        5337    00106000           LR    R6,R15              Save SEGCB ptr
 USING  *,R7
 USING  PRTIWRK-(4+52),R8
 USING  SEGCB,R6                    5338    00107000           WITH  (SEGCB,R6)
                                    5351    00108000           ¿þþþþþþþþþþþþþþþþþþþþþþþþþþþþþþþþþþþÜ
                                    5352    00109000           Ÿ  Allocate DCB and output buffer.  Ÿ
                                    5353    00110000           ¾þþþþþþþþþþþþþþþþþþþþþþþþþþþþþþþþþþþ»
 000060 1821                        5354    00111000           LR    R2,R1               Save DDNAME ptr
                                    5355    00112000
 000062 4100 0128            00128  5356    00113000           LA    R0,L'PRTIDCB+PRTLEN#  Model DCB
 000066 58E0 75CA/0DEE       00628  5357    00114000           VCALL GETLOW              Get DCB and output buffer
 00006C 4140 1060            00060  5361    00115000           LA    R4,@R1+L'PRTIDCB    Start of output buffer
 000070 1851                        5362    00116000           LR    R5,R1               DCB ptr
 USING  DCB,R5                      5363    00117000           WITH  (DCB,R5)
 000072 D25F 5000 70BE 00000 0011C  5376    00118000           MVC   DCB(L'PRTIDCB),PRTIDCB  Initialize model DCB
 000078 D207 5028 2000 00028 00000  5377    00119000           MVC   DCBDDNAM,@R2        Initialize DDNAME
                                    5378    00120000
 00007E 1814/4100 00C8       000C8  5379    00121000           SEGINIT (R4),PRTLEN#,SEGCB,RTN=PRTSEG  Initialize SEGCB
 000084 18F6/58E0 75CE       0062C  5401             +
 00008A 0DEE/5800 75D2       00630  5405             +
 000090 1B11/18F6                   5410             +
 000094 58E0 75D6/0DEE       00634  5421             +
 00009A 5050 6038            00038  5423    00122000           ST    R5,SEGCBUSR         Save DCB ptr in user field
1UTILS    PRTINIT -- Initialize output file                                                                                 Page    7
0Current Usings:  (DCB,R5) (SEGCB,R6) (*,R7) (PRTIWRK-(4+52),R8) (TVT,R11) (GVT,R12)
0Loc    Object Code    Addr1 Addr2  Stmt Lv Lineno    Source Statement           (Hibal 5, Asmedit 3.3)  HLASM R4.0  2002/06/06 10.18
+___    ______ ____    _____ _____  ____ __ ______    ______ _________
0                                   5424    00123000           ¿þþþþþþþþþþþþþþþþþþþþþÜ
                                    5425    00124000           Ÿ  Open output file.  Ÿ
                                    5426    00125000           ¾þþþþþþþþþþþþþþþþþþþþþ»
 00009E 184D/41D0 D018       00018  5427    00126000           XPUSH ,,L'DVTAREA,PTR=R4
 USING  DVTAREA,R4                  5430    00127000           WITH  (DVTAREA,R4)
 0000A4 58E0 75DA/0DEE       00638  5443    00128000           VCALL AMODE24             ********
 0000AA 4110 5028            00028  5447    00129000           DEVTYPE DCBDDNAM,DVTAREA  Is DDNAME defined?
 0000AE 4100 4000/0A18       00000  5450             +
 0000B4 58E0 75DE/0DEE       0063C  5452    00130000           VCALL AMODE31             ********
 0000BA 12FF/4780 706A       000C8  5456    00131000           IF    (R15,NZ),'LA R15,8; EXIT PRTINIT'  No, scram
 0000C0 41F0 0008            00008  5471  1          +
 0000C4 47F0 70B0            0010E  5474             +
                                    5479    00132000
 0000C8 4120 5000            00000  5480    00133000           LA    R2,DCB
 0000CC 58E0 75DA/0DEE       00638  5481    00134000           VCALL AMODE24             ********
 0000D2                             5485    00135000           CLEAR OPNLIST             CLEAR OPEN PARAMETER LIST
 0000D2 D703 8038 8038 00000 00000  5491             +
 0000D8 9680 8038      00000        5492    00136000           OI    OPNLIST,X'80'       MARK ONLY ONE FILE
 0000DC 4110 8038            00000  5493    00137000           OPEN  ((2),(OUTPUT)),MF=(E,OPNLIST)
 0000E0 94F0 1000      00000        5496             +
 0000E4 960F 1000      00000        5497             +
 0000E8 43E1 0000            00000  5498             +
 0000EC 5021 0000            00000  5499             +
 0000F0 42E1 0000/0A13       00000  5500             +
 0000F6 58E0 75DE/0DEE       0063C  5502    00138000           VCALL AMODE31             ********
 0000FC 9110 5030      00030        5506    00139000           IF    ~DCBOFLGS.DCBOFOPN,'LA R15,20; EXIT PRTINIT'
 000100 4710 70AE            0010C  5517             +
 000104 41F0 0014            00014  5523  1          +
 000108 47F0 70B0            0010E  5526             +
                                    5531    00140000
 00010C 1BFF                        5532    00141000           CLEAR R15                 Set good return code
 00010E 18D8/980C D004       00004  5536    00142000           PEND
 DROP   DVTAREA,R4
 DROP   DCB,R5
 DROP   SEGCB,R6
 DROP   PRTIWRK-(4+52),R8
 DROP   *,R7
 000114 58E0 D000/12FF       00000  5572             +
 00011A 07FE                        5575             +
                                    5576    00143000
                                    5577    00144000           SEGDEF DUMMY              (Neatness)
                                    5578    00145000           ¿þþþþþþþþþþþþþþÜ
                                    5579    00146000           Ÿ  Model DCB.  Ÿ
                                    5580    00147000           ¾þþþþþþþþþþþþþþ»
                                    5581    00148000  PRTLEN#  EQU   200,,C'N'           Maximum length print line
                                    5582    00149000C PRTIDCBX DCB   DDNAME=SYSPRINT,DSORG=PS,MACRF=PL,
 00011C                                     00150000                 RECFM=VBA,LRECL=PRTLEN#,BLKSIZE=6233,EXLST=PRTIEXL
 00011C 0000000000000000            5589             +
 00012C 00000000/00                 5590             +
 000131 000001/0000                 5593             +
 000136 4000/00000001               5595             +
 00013C 00/000001/54                5598             +
 000141 00017C                      5601             +
 000144 E2E8E2D7D9C9D5E3            5603             +
1UTILS    PRTINIT -- Initialize output file                                                                                 Page    8
0Current Usings:  (TVT,R11) (GVT,R12)
0Loc    Object Code    Addr1 Addr2  Stmt Lv Lineno    Source Statement           (Hibal 5, Asmedit 3.3)  HLASM R4.0  2002/06/06 10.18
+___    ______ ____    _____ _____  ____ __ ______    ______ _________
000014C 02/00/0048/00               5604             +
 000151 000001                      5609             +
 000154 00000001/0000               5610             +
 00015A 1859/00000000               5612             +
 000160 00000001                    5614             +
 000164 00000001                    5616             +
 000168 00000001/0000               5617             +
 00016E 00C8/00/000001              5619             +
 000174 00000000                    5622             +
 000178 00000001                    5623             +
                                    5624    00151000  PRTIDCB  EQU   PRTIDCBX,*-PRTIDCBX,C'X'
                                    5625    00152000
 00017C 91000180                    5626    00153000  PRTIEXL  DC    0A(0),X'91',AL3(PRTIAEX)   DCB abend exit
                                    5627    00154000
 USING  *,R15                       5628    00155000  PRTIAEX  WITH  (*,R15),BEGIN
 000180 9204 1003      00003        5644  1 00156000             MVI   @R1+3,4             Tell OS to ignore the abend
 000184 07FE                        5645  1 00157000             BR    R14                 Return
 DROP   *,R15                       5646    00158000           END
1UTILS    PRTCLOSE -- Close output file                                                                                     Page    9
0Current Usings:  (TVT,R11) (GVT,R12)
0Loc    Object Code    Addr1 Addr2  Stmt Lv Lineno    Source Statement           (Hibal 5, Asmedit 3.3)  HLASM R4.0  2002/06/06 10.18
+___    ______ ____    _____ _____  ____ __ ______    ______ _________
0                                   5655    00160000  ¿þþþþþþþþþþþþþþþþþþþþþþþþþþþþþþþþþþþþþþþþþþþþþþþþþþþþþþþþþþþþþþþþþþþþþÜ
                                    5656    00161000  Ÿ                                                                     Ÿ
                                    5657    00162000  Ÿ  PRTCLOSE -- Routine to close the output file specified.            Ÿ
                                    5658    00163000  Ÿ                                                                     Ÿ
                                    5659    00164000  Ÿ    On entry:                                                        Ÿ
                                    5660    00165000  Ÿ      R15 - SEGCB ptr                                                Ÿ
                                    5661    00166000  Ÿ                                                                     Ÿ
                                                      ¾þþþþþþþþþþþþþþþþþþþþþþþþþþþþþþþþþþþþþþþþþþþþþþþþþþþþþþþþþþþþþþþþþþþþþ»
0000000                00000 00004  5663    00168000  PRTCWRK  RECORD BEGIN
                                    5671  1 00169000  CLSLST     CLOSE (*-*),MF=L
 000000                             5672  1 01-CLOSE +CLSLST     DC    0F'0'             ALIGN LIST TO FULLWORD
 000000 80                          5673  1 01-CLOSE +           DC    AL1(128)                          OPTION BYTE
 000001 000000                      5674  1 01-CLOSE +           DC    AL3(*-*)                          DCB ADDRESS
 000004                00004 00004  5675    00170000           END   ,
0000186 90DF B0D4            000D4  5685    00172000  PRTCLOSE XPROC PRTCWRK
 00018A 58F0 C014/0DEF       00014  5698             +
 000190 D7D9E3C3D3D6E2C5            5700             +
 000198 98DF B0D4            000D4  5701             +
 00019C 50E0 D000            00000  5704             +
 0001A0 900C D004/188D       00004  5707             +
 0001A6 41D0 D03C/0D70       0003C  5710             +
 0001AC 186F                        5742    00173000           LR    R6,R15
 USING  *,R7
 USING  PRTCWRK-(4+52),R8
 USING  SEGCB,R6                    5743    00174000           WITH  (SEGCB,R6)
                                    5756    00175000
 0001AE 5850 6038            00038  5757    00176000           L     R5,SEGCBUSR         User field points to DCB
 0001B2 1255/4780 705E       0020A  5758    00177000           IF    (R5,NZ),BEGIN       We have a DCB...
 USING  DCB,R5                      5772  1 00178000             WITH  (DCB,R5)
                                    5785  1 00179000             ¿þþþþþþþþþþþþþþþþþþþþþþþþþþþþþþþþþþþþþþþþÜ
                                    5786  1 00180000             Ÿ  Only close if DCB is currently open.  Ÿ
                                    5787  1 00181000             ¾þþþþþþþþþþþþþþþþþþþþþþþþþþþþþþþþþþþþþþþþ»
 0001B8 9110 5030      00030        5788  1 00182000             IF    DCBOFLGS.DCBOFOPN,BEGIN  DCB is open...
 0001BC 47E0 703C            001E8  5799  1          +
 0001C0 58E0 748C/0DEE       00638  5804  2 00183000               VCALL AMODE24             ********
 0001C6                             5808  2 00184000               CLEAR CLSLST              CLEAR CLOSE PARAMETER LIST
 0001C6 D703 8038 8038 00000 00000  5814  2          +
 0001CC 9680 8038      00000        5815  2 00185000               OI    CLSLST,X'80'        MARK ONLY ONE DCB
 0001D0 4110 8038            00000  5816  2 00186000               CLOSE ((R5)),MF=(E,CLSLST)
 0001D4 43E1 0000            00000  5819  2          +
 0001D8 5051 0000            00000  5820  2          +
 0001DC 42E1 0000/0A14       00000  5821  2          +
 0001E2 58E0 7490/0DEE       0063C  5823  2 00187000               VCALL AMODE31             ********
 0001E8                             5827  1 00188000             END
                                    5831  1 00189000             ¿þþþþþþþþþþþþþþþþþþþþþþþþþþþþþþþþþþþþþþþþþþþþþþþþþþþþþþÜ
                                    5832  1 00190000             Ÿ  Now free the memory for the DCB and output buffer.  Ÿ
                                    5833  1 00191000             ¾þþþþþþþþþþþþþþþþþþþþþþþþþþþþþþþþþþþþþþþþþþþþþþþþþþþþþþ»
 0001E8                             5834  1 00192000             CLEAR SEGCBLOC,SEGCBLENF,SEGCBMAXF  Reset
 0001E8 D703 6020 6020 00020 00020  5840  1          +
 0001EE D703 600C 600C 0000C 0000C  5845  1          +
 0001F4 D703 6004 6004 00004 00004  5850  1          +
                                    5851  1 00193000
1UTILS    PRTCLOSE -- Close output file                                                                                     Page   10
0Current Usings:  (DCB,R5) (SEGCB,R6) (*,R7) (PRTCWRK-(4+52),R8) (TVT,R11) (GVT,R12)
0Loc    Object Code    Addr1 Addr2  Stmt Lv Lineno    Source Statement           (Hibal 5, Asmedit 3.3)  HLASM R4.0  2002/06/06 10.18
+___    ______ ____    _____ _____  ____ __ ______    ______ _________
00001FA 5810 6038            00038  5852  1 00194000             L     R1,SEGCBUSR         DCB/buffer storage
 0001FE                             5853  1 00195000             CLEAR SEGCBUSR            Reset buffer ptr
 0001FE D703 6038 6038 00038 00038  5859  1          +
 000204 58E0 7494/0DEE       00640  5860  1 00196000             VCALL FREECORE            Free them both
 DROP   DCB,R5                      5864    00197000           END
                                    5873    00198000
 00020A 18D8/980C D004       00004  5874    00199000           PEND
 DROP   SEGCB,R6
 DROP   PRTCWRK-(4+52),R8
 DROP   *,R7
 000210 58E0 D000/12FF       00000  5900             +
 000216 07FE                        5903             +
1UTILS    PRTSEG -- Output seg processing routine                                                                           Page   11
0Current Usings:  (TVT,R11) (GVT,R12)
0Loc    Object Code    Addr1 Addr2  Stmt Lv Lineno    Source Statement           (Hibal 5, Asmedit 3.3)  HLASM R4.0  2002/06/06 10.18
+___    ______ ____    _____ _____  ____ __ ______    ______ _________
0                                   5905    00201000  ¿þþþþþþþþþþþþþþþþþþþþþþþþþþþþþþþþþþþþþþþþþþþþþþþþþþþþþþþþþþþþþþþþþþþþþÜ
                                    5906    00202000  Ÿ                                                                     Ÿ
                                    5907    00203000  Ÿ   PRTSEG -- Seg routine to write line to an output file.            Ÿ
                                    5908    00204000  Ÿ                                                                     Ÿ
                                    5909    00205000  Ÿ     On entry:                                                       Ÿ
                                    5910    00206000  Ÿ                                                                     Ÿ
                                    5911    00207000  Ÿ       R15 - SEGCB ptr                                               Ÿ
                                    5912    00208000  Ÿ                                                                     Ÿ
                                                      ¾þþþþþþþþþþþþþþþþþþþþþþþþþþþþþþþþþþþþþþþþþþþþþþþþþþþþþþþþþþþþþþþþþþþþþ»
0000000                00000 0000C  5913    00209000  PRTWA    RECORD BEGIN
 000000                             5921  1 00210000  PRTSTAMP   DS    CL12                Timestamp ("hh:mm:ss.hh ")
 00000C                0000C 0000C  5922    00211000           END
                                    5931    00212000  þþþþ
 000218 50E0 D000            00000  5932    00213000  PRTSEG   XPROC (R2,LSR),PRTWA,TRACE=NO
 00021C 902C D004/188D       00004  5946             +
 000222 41D0 D03C/0D70       0003C  5949             +
 000228 186F                        5981    00214000           LR    R6,R15
 USING  *,R7
 USING  PRTWA-(4+44),R8
 USING  SEGCB,R6                    5982    00215000           WITH  (SEGCB,R6)
                                    5995    00216000
 00022A 9506 6000      00000        5996    00217000           IF    (SEGCBCR,OR,SEGCBWR,OR,SEGCBOVF),BEGIN  Segwr...
 00022E 4780 701A            00242  6010             +
 000232 9502 6000      00000        6019             +
 000236 4780 701A            00242  6022             +
 00023A 9505 6000      00000        6031             +
 00023E 4770 7104            0032C  6032             +
 000242 5900 741C            00644  6037  1 00218000             CEIL  R0,PRTLEN#          Not too long
 000246 47D0 7026            0024E  6046  1          +
 00024A 5800 741C            00644  6051  1          +
 00024E 1851                        6056  1 00219000             LR    R5,R1
 000250 1840                        6057  1 00220000             LR    R4,R0
                                    6058  1 00221000
 000252 1B00/1B11                   6059  1 00222000             CLEAR R0,R1
 000256 41F0 8030            00000  6065  1 00223000             LA    R15,PRTSTAMP
 00025A 58E0 7420/0DEE       00648  6066  1 00224000             VCALL FMTTIME             Get current time
 000260 9240 803B      0000B        6070  1 00225000             MVI   PRTSTAMP+11,C' '
                                    6071  1 00226000             ¿þþþþþþþþþþþþþþþþþþþþþþþþþþþþþþþþþþþþþþþþþþÜ
                                    6072  1 00227000             Ÿ  Copy print line to in-core log buffer.  Ÿ
                                    6073  1 00228000             ¾þþþþþþþþþþþþþþþþþþþþþþþþþþþþþþþþþþþþþþþþþþ»
 000264 58E0 B170/12EE       00170  6074  1 00229000             LT    R14,TVTLGCUR        Get log buffer pointer
 00026A 4780 7080            002A8  6078  1 00230000             IF    NZ,BEGIN            We have a in core log...
 00026E 41EE 0064            00064  6089  2 00231000               LA    R14,LOGLEN(R14)     Step to next slot
 000272 59E0 B174            00174  6090  2 00232000               IF    (R14,GE,TVTLGEND),'L R14,TVTLGBEG'  Check for wrap
 000276 4750 7056            0027E  6102  2          +
 00027A 58E0 B16C            0016C  6108  2          +
 00027E 50E0 B170            00170  6113  2 00233000               ST    R14,TVTLGCUR        Save new pointer
 000282 D20B E000 8030 00000 00000  6114  2 00234000               MVC   @R14(L'PRTSTAMP),PRTSTAMP   Move in time stamp
 000288 41EE 000C            0000C  6115  2 00235000               LA    R14,L'PRTSTAMP(R14) Target area address
 00028C 41F0 0058            00058  6116  2 00236000               LA    R15,LOGLEN-L'PRTSTAMP  Target area length
 000290 1805                        6117  2 00237000               LR    R0,R5               Message start
 000292 1814                        6118  2 00238000               LR    R1,R4               Message length
 000294 BF18 C0E0            000E0  6119  2 00239000               ICM   R1,8,GVTBLANK       Blank fill
1UTILS    PRTSEG -- Output seg processing routine                                                                           Page   12
0Current Usings:  (SEGCB,R6) (*,R7) (PRTWA-(4+44),R8) (TVT,R11) (GVT,R12)
0Loc    Object Code    Addr1 Addr2  Stmt Lv Lineno    Source Statement           (Hibal 5, Asmedit 3.3)  HLASM R4.0  2002/06/06 10.18
+___    ______ ____    _____ _____  ____ __ ______    ______ _________
0000298 0EE0                        6120  2 00240000               MVCL  R14,R0              Move text to log buffer
 00029A 58F0 B170            00170  6121  2 00241000               L     R15,TVTLGCUR        Get pointer again
 00029E 58E0 7424            0064C  6122  2 00242000               L     R14,=A(SEGTRTBL)
 0002A2 DC63 F000 E000 00000 00000  6123  2 00243000               TR    @R15(LOGLEN),@R14   Translate unprintable chars
 0002A8                             6124  1 00244000             END
                                    6128  1 00245000
 0002A8 5830 6038            00038  6129  1 00246000             L     R3,SEGCBUSR         SYSPRINT DCB
 0002AC 9110 3030      00030        6130  1 00247000             IF    @R3+(DCBOFLGS-DCB).DCBOFOPN,BEGIN  It's open...
 0002B0 47E0 70F0            00318  6141  1          +
 0002B4 1824                        6146  2 00248000               LR    R2,R4
 0002B6 4120 2005            00005  6147  2 00249000               LA    R2,4+1+@R2          l'rdw + cc char + text
                                    6148  2 00250000  ****!!!  IF    ~GVTFPNTS,'LA R2,L"PRTSTAMP(R2)'
 0002BA 4020 3052            00052  6149  2 00251000               STH   R2,@R3+(DCBLRECL-DCB)
 0002BE 58E0 7410/0DEE       00638  6150  2 00252000               VCALL AMODE24             ********
 0002C4 1813/1FFF                   6154  2 00253000               PUT   (R3)                Get buffer space
 0002C8 BFF7 1031/05EF       00031  6158  2          +
 0002CE 58E0 7414/0DEE       0063C  6160  2 00254000               VCALL AMODE31             ********
 0002D4 9110 3030      00030        6164  2 00255000               IF    ~@R3+(DCBOFLGS-DCB).DCBOFOPN,EXIT  DCB abend, scram
 0002D8 47E0 70F0            00318  6177  2          +
 0002DC 4020 1000            00000  6183  2 00256000               STH   R2,@R1              Rdw len
 0002E0                             6184  2 00257000               CLEAR (@R1+2,2)           Rdw flags
 0002E0 D701 1002 1002 00002 00002  6190  2          +
 0002E6 9240 1004      00004        6191  2 00258000               MVI   @R1+4,C' '          Cc char
 0002EA 9500 711C      00344        6192  2 00259000               IF    (GVTPRCC,NZ),'MVC @R1+4,GVTPRCC'
 0002EE 4780 70D0            002F8  6203  2          +
 0002F2 D200 1004 711C 00004 00344  6209  2          +
 0002F8 4120 1005            00005  6214  2 00260000               LA    R2,4+1+@R1
                                    6215  2 00261000  ***!!!   IF    ~GVTFPNTS,BEGIN
                                    6216  2 00262000  ***!!!   MVC   @R2(L'PRTSTAMP),PRTSTAMP  Timestamp
                                    6217  2 00263000  ***!!!   LA    R2,L'PRTSTAMP(R2)
                                    6218  2 00264000  ***!!!   END
 0002FC 1244/47D0 70F0       00318  6219  2 00265000               IF    (R4,POS),BEGIN
 000302 18F4                        6233  3 00266000                 LR    R15,R4
 000304 06F0/12FF                   6234  3 00267000                 MOVE  R15,@R2,@R5
 000308 4740 70E8            00310  6247  3          +
 00030C 44F0 746C            00694  6253  4          +
 000694 D200 2000 5000 00000 00000  6260  4          +
 000310 58E0 7424            0064C  6272  3 00268000                 L     R14,=A(SEGTRTBL)
 000314 44F0 7472            0069A  6273  3 00269000                 EX    R15,'TR @R2,@R14'
 00069A DC00 2000 E000 00000 00000  6281  3          +
 000318                             6289  2 00270000               END
 000318                             6293  1 00271000             END
                                    6297  1 00272000  *
                                    6298  1 00273000  *!!!!    CLEAR GVTPRCC             Reset
 000318 1304                        6299  1 00274000             LCR   R0,R4               Amnt we reduced bfr--for segcbovf
 00031A 9506 6000      00000        6300  1 00275000             IF    SEGCBCR,'CLEAR R0,SEGCBMRKF,SEGCBLENF'  no cr char
 00031E 4770 7104/1B00       0032C  6310  1          +
 000324 5000 6008            00008  6324  2          +
 000328 5000 600C            0000C  6329  1          +
 00032C                             6334    00276000           END
                                    6338    00277000
 00032C 9504 6000      00000        6339    00278000           IF    SEGCBSPP,'CLEAR R0'  always set good return code
 000330 4770 710E/1B00       00336  6349             +
 000336 18D8/982C D004       00004  6363    00279000           PEND
1UTILS    PRTSEG -- Output seg processing routine                                                                           Page   13
0Current Usings:  (TVT,R11) (GVT,R12)
0Loc    Object Code    Addr1 Addr2  Stmt Lv Lineno    Source Statement           (Hibal 5, Asmedit 3.3)  HLASM R4.0  2002/06/06 10.18
+___    ______ ____    _____ _____  ____ __ ______    ______ _________
0DROP   SEGCB,R6
 DROP   PRTWA-(4+44),R8
 DROP   *,R7
 00033C 58E0 D000/12FF       00000  6389             +
 000342 07FE                        6392             +
                                    6393    00280000
 000344 40                          6394    00281000  GVTPRCC  DC    C' '                Next CC char to use !!!!!!!!
1UTILS    WTOINIT -- Initialize WTO SEGCB                                                                                   Page   14
0Current Usings:  (TVT,R11) (GVT,R12)
0Loc    Object Code    Addr1 Addr2  Stmt Lv Lineno    Source Statement           (Hibal 5, Asmedit 3.3)  HLASM R4.0  2002/06/06 10.18
+___    ______ ____    _____ _____  ____ __ ______    ______ _________
0                                   6396    00283000  ¿þþþþþþþþþþþþþþþþþþþþþþþþþþþþþþþþþþþþþþþþþþþþþþþþþþþþþþþþþþþþþþþþþþþþþÜ
                                    6397    00284000  Ÿ                                                                     Ÿ
                                    6398    00285000  Ÿ   WTOINIT -- Routine to initialize an WTO SEGCB.                    Ÿ
                                    6399    00286000  Ÿ                                                                     Ÿ
                                    6400    00287000  Ÿ     On entry:                                                       Ÿ
                                    6401    00288000  Ÿ       R15 - SEGCB ptr                                               Ÿ
                                    6402    00289000  Ÿ                                                                     Ÿ
                                    6403    00290000  Ÿ     On exit, R15 (and cc):                                          Ÿ
                                    6404    00291000  Ÿ       0 - ok                                                        Ÿ
                                    6405    00292000  Ÿ       nz- error of some sort                                        Ÿ
                                    6406    00293000  Ÿ                                                                     Ÿ
                                                      ¾þþþþþþþþþþþþþþþþþþþþþþþþþþþþþþþþþþþþþþþþþþþþþþþþþþþþþþþþþþþþþþþþþþþþþ»
0000346 90DF B0D4            000D4  6407    00294000  WTOINIT  XPROC
 00034A 58F0 C014/0DEF       00014  6419             +
 000350 E6E3D6C9D5C9E340            6421             +
 000358 98DF B0D4            000D4  6422             +
 00035C 50E0 D000            00000  6425             +
 000360 900C D004/188D       00004  6428             +
 000366 41D0 D038/0D70       00038  6430             +
 00036C 186F                        6453    00295000           LR    R6,R15              Save SEGCB ptr
 USING  *,R7
 USING  SEGCB,R6                    6454    00296000           WITH  (SEGCB,R6)
                                    6467    00297000           ¿þþþþþþþþþþþþþþþþþþþþþþþþþþþþþþþþþþþþþÜ
                                    6468    00298000           Ÿ  Allocate WTOCB and output buffer.  Ÿ
                                    6469    00299000           ¾þþþþþþþþþþþþþþþþþþþþþþþþþþþþþþþþþþþþþ»
 00036E 4100 009C            0009C  6470    00300000           LA    R0,L'WTOCB+WTOMAXL#  WTOCB and buffer
 000372 58E0 72E4/0DEE       00650  6471    00301000           VCALL GETCORE             Get WTOCB and output buffer
 000378 4140 1024            00024  6475    00302000           LA    R4,@R1+L'WTOCB      Start of output buffer
 00037C 1851                        6476    00303000           LR    R5,R1               WTOCB ptr
 USING  WTOCB,R5                    6477    00304000           WITH  (WTOCB,R5)
 00037E                             6490    00305000           CLEAR WTOCB               Initialize
 00037E D723 5000 5000 00000 00000  6496             +
 000384 D203 5000 72E8 00000 00654  6497    00306000           MVC   WTOID,=CL4'WTO'     Self identification
                                    6498    00307000
 00038A 1814/4100 0078       00078  6499    00308000           SEGINIT (R4),WTOMAXL#,SEGCB,RTN=WTOSEG  Initialize SEGCB
 000390 18F6/58E0 72C0       0062C  6521             +
 000396 0DEE/5800 72EC       00658  6525             +
 00039C 1B11/18F6                   6530             +
 0003A0 58E0 72C8/0DEE       00634  6541             +
 0003A6 5050 6038            00038  6543    00309000           ST    R5,SEGCBUSR         Save WTOCB ptr in user field
                                    6544    00310000
 0003AA 1BFF                        6545    00311000           CLEAR R15                 Set good return code
 0003AC 18D8/980C D004       00004  6549    00312000           PEND
 DROP   WTOCB,R5
 DROP   SEGCB,R6
 DROP   *,R7
 0003B2 58E0 D000/12FF       00000  6575             +
 0003B8 07FE                        6578             +
                                    6579    00313000
                                    6580    00314000           SEGDEF DUMMY              (Neatness)
1UTILS    WTOINIT -- Initialize WTO SEGCB                                                                                   Page   15
0Current Usings:  (TVT,R11) (GVT,R12)
0Loc    Object Code    Addr1 Addr2  Stmt Lv Lineno    Source Statement           (Hibal 5, Asmedit 3.3)  HLASM R4.0  2002/06/06 10.18
+___    ______ ____    _____ _____  ____ __ ______    ______ _________
0                                   6582    00316000  ¿þþþþþþþþþþþþþþþþþþþþþþþþþþþþþþþþþþþþþþþþþþþþþþþþþþþþþþþþþþþþþþþþþþþþþÜ
                                    6583    00317000  Ÿ                                                                     Ÿ
                                    6584    00318000  Ÿ  SETCONID - Set console id to be used on WTO.                       Ÿ
                                    6585    00319000  Ÿ     Set console ID to zero to use routcode=2.                       Ÿ
                                    6586    00320000  Ÿ                                                                     Ÿ
                                    6587    00321000  Ÿ  On entry:                                                          Ÿ
                                    6588    00322000  Ÿ     R0 - console ID                                                 Ÿ
                                    6589    00323000  Ÿ     R15 - segcb pointer                                             Ÿ
                                    6590    00324000  Ÿ                                                                     Ÿ
                                    6591    00325000  Ÿ  NOTE:                                                              Ÿ
                                    6592    00326000  Ÿ  For now we use 1 byte CIBCONID in CIB field.                       Ÿ
                                    6593    00327000  Ÿ  (see qedit macro.)  This must be upgraded to CIBXCNID              Ÿ
                                    6594    00328000  Ÿ  or CIBCART in future versions of MVS.                              Ÿ
                                    6595    00329000  Ÿ                                                                     Ÿ
                                    6596    00330000  Ÿ  NOTE:                                                              Ÿ
                                    6597    00331000  Ÿ  Once set this all WTO segs will go to this console                 Ÿ
                                    6598    00332000  Ÿ  until cleared.  YEOW !                                             Ÿ
                                    6599    00333000  Ÿ                                                                     Ÿ
                                    6600    00334000  Ÿ  NOTE:                                                              Ÿ
                                    6601    00335000  Ÿ  Caller is responsible to make sure a SEGWR forces out              Ÿ
                                    6602    00336000  Ÿ  the SEG buffer before changing console ID's.  Otherwise            Ÿ
                                    6603    00337000  Ÿ  buffered output may be directed to the wrong console.              Ÿ
                                    6604    00338000  Ÿ                                                                     Ÿ
                                    6605    00339000  Ÿ                                                                     Ÿ
                                                      ¾þþþþþþþþþþþþþþþþþþþþþþþþþþþþþþþþþþþþþþþþþþþþþþþþþþþþþþþþþþþþþþþþþþþþþ»
00003BA 90DF B0D4            000D4  6606    00340000  SETCONID XPROC ,
 0003BE 58F0 C014/0DEF       00014  6618             +
 0003C4 E2C5E3C3D6D5C9C4            6620             +
 0003CC 98DF B0D4            000D4  6621             +
 0003D0 50E0 D000            00000  6624             +
 0003D4 900C D004/188D       00004  6627             +
 0003DA 41D0 D038/0D70       00038  6629             +
 0003E0 186F                        6652    00341000           LR    R6,R15
 USING  *,R7
 USING  SEGCB,R6                    6653    00342000           WITH  (SEGCB,R6)
 0003E2 5850 6038            00038  6666    00343000           L     R5,SEGCBUSR
 USING  WTOCB,R5                    6667    00344000           WITH  (WTOCB,R5)
 0003E6 1255/4780 7010       003F0  6680    00345000           IF    (R5,NZ),BEGIN
 0003EC 4200 5010            00010  6694  1 00346000             STC   R0,WTOCONID
 0003F0                             6695    00347000           END
 0003F0 18D8/980C D004       00004  6699    00348000           PEND
 DROP   WTOCB,R5
 DROP   SEGCB,R6
 DROP   *,R7
 0003F6 58E0 D000/12FF       00000  6725             +
 0003FC 07FE                        6728             +
1UTILS    WTOINIT -- Initialize WTO SEGCB                                                                                   Page   16
0Current Usings:  (TVT,R11) (GVT,R12)
0Loc    Object Code    Addr1 Addr2  Stmt Lv Lineno    Source Statement           (Hibal 5, Asmedit 3.3)  HLASM R4.0  2002/06/06 10.18
+___    ______ ____    _____ _____  ____ __ ______    ______ _________
0                                   6730    00350000  ¿þþþþþþþþþþþþþþþþþþþþþþþþþþþþþþþþþþþþþþþþþþþþþþþþþþþþþþþþþþþþþþþþþþþþþÜ
                                    6731    00351000  Ÿ                                                                     Ÿ
                                    6732    00352000  Ÿ  SETAUXID - Set auxiliary place to SEG WTO output.                  Ÿ
                                    6733    00353000  Ÿ     Often used to additionally seg WTO output to a log.             Ÿ
                                    6734    00354000  Ÿ                                                                     Ÿ
                                    6735    00355000  Ÿ  On entry:                                                          Ÿ
                                    6736    00356000  Ÿ     R0 - auxiliary segcb pointer (zero means none)                  Ÿ
                                    6737    00357000  Ÿ     R15 - WTO segcb pointer                                         Ÿ
                                    6738    00358000  Ÿ                                                                     Ÿ
                                    6739    00359000  Ÿ                                                                     Ÿ
                                    6740    00360000  Ÿ                                                                     Ÿ
                                                      ¾þþþþþþþþþþþþþþþþþþþþþþþþþþþþþþþþþþþþþþþþþþþþþþþþþþþþþþþþþþþþþþþþþþþþþ»
00003FE 90DF B0D4            000D4  6741    00361000  SETAUXSG XPROC ,
 000402 58F0 C014/0DEF       00014  6753             +
 000408 E2C5E3C1E4E7E2C7            6755             +
 000410 98DF B0D4            000D4  6756             +
 000414 50E0 D000            00000  6759             +
 000418 900C D004/188D       00004  6762             +
 00041E 41D0 D038/0D70       00038  6764             +
 000424 186F                        6787    00362000           LR    R6,R15
 USING  *,R7
 USING  SEGCB,R6                    6788    00363000           WITH  (SEGCB,R6)
 000426 5850 6038            00038  6801    00364000           L     R5,SEGCBUSR
 USING  WTOCB,R5                    6802    00365000           WITH  (WTOCB,R5)
 00042A 1255/4780 7010       00434  6815    00366000           IF    (R5,NZ),BEGIN
 000430 5000 500C            0000C  6829  1 00367000             ST    R0,WTOAUXSG
 000434                             6830    00368000           END
 000434 18D8/980C D004       00004  6834    00369000           PEND
 DROP   WTOCB,R5
 DROP   SEGCB,R6
 DROP   *,R7
 00043A 58E0 D000/12FF       00000  6860             +
 000440 07FE                        6863             +
1UTILS    WTOSEG -- WTO seg processing routine                                                                              Page   17
0Current Usings:  (TVT,R11) (GVT,R12)
0Loc    Object Code    Addr1 Addr2  Stmt Lv Lineno    Source Statement           (Hibal 5, Asmedit 3.3)  HLASM R4.0  2002/06/06 10.18
+___    ______ ____    _____ _____  ____ __ ______    ______ _________
0                                   6865    00371000  ¿þþþþþþþþþþþþþþþþþþþþþþþþþþþþþþþþþþþþþþþþþþþþþþþþþþþþþþþþþþþþþþþþþþþþþÜ
                                    6866    00372000  Ÿ                                                                     Ÿ
                                    6867    00373000  Ÿ  WTOSEG -- Routine to send a write to operator (WTO) message.       Ÿ
                                    6868    00374000  Ÿ    This routine is entered as a SEG exit routine, with the          Ÿ
                                    6869    00375000  Ÿ    SEGCB containing a pointed to the "WTOCB" with speical           Ÿ
                                    6870    00376000  Ÿ    options.                                                         Ÿ
                                    6871    00377000  Ÿ                                                                     Ÿ
                                    6872    00378000  Ÿ    On entry:                                                        Ÿ
                                    6873    00379000  Ÿ      R15 - SEGCB ptr                                                Ÿ
                                    6874    00380000  Ÿ                                                                     Ÿ
                                                      ¾þþþþþþþþþþþþþþþþþþþþþþþþþþþþþþþþþþþþþþþþþþþþþþþþþþþþþþþþþþþþþþþþþþþþþ»
0000000                00000 000E4  6875    00381000  WTOWA    RECORD BEGIN
 000000                             6883  1 00382000  WTOXCB     DS    CL(L'WTOCB)         Default WTOCB area
                                    6884  1 00383000
                                    6885  1 00384000  WTOS       SEGCB
 000024 00                          6886  1 01-SEGCB +$$$SEGCB60   DS  0F
 WTOSCOD.WTOSSEG   01 EQ
 WTOSCOD.WTOSWR    02 EQ
 WTOSCOD.WTOSCLR   03 EQ
 WTOSCOD.WTOSSPP   04 EQ
 WTOSCOD.WTOSOVF   05 EQ
 WTOSCOD.WTOSCR    06 EQ
 WTOSCOD.WTOSMAR   07 EQ
 000025 00                          6961  1 01-SEGCB +           DC    X'00'               Reserved
 000026 0000                              1          +
 000028 00000000                    6962  1 01-SEGCB +WTOSMAXF   DC    A(0)                Maximum buffer length
 00002C 00000000                    6963  1 01-SEGCB +WTOSMRKF   DC    A(0)                Length at last mark
 000030 00000000                    6964  1 01-SEGCB +WTOSLENF   DC    A(0)                Current length
 000034 00000000                    6965  1 01-SEGCB +WTOSINDF   DC    A(0)                Overflow/indent count
 000038 00000000                    6966  1 01-SEGCB +WTOSERR    DC    A(0)                Address of error recovery routine
 00003C 0000000000000000            6967  1 01-SEGCB +           DC    2F'0'               Reserved
 000044 00000000                    6968  1 01-SEGCB +WTOSLOC    DC    A(0)                Location of buffer
 000048 00000000                    6969  1 01-SEGCB +WTOSRTN    DC    A(0)                Processing routine
 00004C 0000000000000000            6970  1 01-SEGCB +           DC    4F'0'               Reserved
 00005C 00000000                    6971  1 01-SEGCB +WTOSUSR    DC    A(0)                USER field
                                    6972  1 01-SEGCB +WTOS       EQU   $$$SEGCB60,*-$$$SEGCB60,C'X'
                                    6973  1 00385000
 000060                             6974  1 00386000  WTOWORK    DS    F                   Working fullword
                                    6975  1 00387000
 000064                             6976  1 00388000             DS    0F
 000064                             6977  1 00389000  WTOPAD     DS    F                   Padder
 000068                             6978  1 00390000  WTOHDR     DS    H                   MCS header (length)
 00006A                             6979  1 00391000  WTOMCS     DS    H                   MCS flags
 00006C                0006C 00064  6980  1 00392000             ORG   WTOPAD
 000064                             6981  1 00393000             DS    H                   Padder
 000066                             6982  1 00394000  WTOPARM    DS    X                   MILSERV: Must be zero
 000067                             6983  1 00395000  WTOACCT    DS    CL5                 MILSERV: Account (uuugg)
                                    6984  1 00396000  WTOPFX     EQU   WTOPARM,*-WTOPARM,C'X'
 00006C                0006C 0006C  6985  1 00397000             ORG
 00006C                             6986  1 00398000  WTOSBUF    DS    CL120               Work buffer
 0000E4                000E4 000E4  6987    00399000           END
                                    6996    00400000  þþþþ
 000442 50E0 D000            00000  6997    00401000  WTOSEG   XPROC WTOWA,TRACE=NO
1UTILS    WTOSEG -- WTO seg processing routine                                                                              Page   18
0Current Usings:  (TVT,R11) (GVT,R12)
0Loc    Object Code    Addr1 Addr2  Stmt Lv Lineno    Source Statement           (Hibal 5, Asmedit 3.3)  HLASM R4.0  2002/06/06 10.18
+___    ______ ____    _____ _____  ____ __ ______    ______ _________
0000446 900C D004/188D       00004  7012             +
 00044C 41D0 D11C/0D70       0011C  7015             +
 USING  *,R7                        7047    00402000  *
 USING  WTOWA-(4+52),R8
 000452 186F                        7048    00403000           LR    R6,R15
 USING  SEGCB,R6                    7049    00404000           WITH  (SEGCB,R6)
                                    7062    00405000           ¿þþþþþþþþþþþþþþþþÜ
                                    7063    00406000           Ÿ  SEGCR/SEGWR.  Ÿ
                                    7064    00407000           ¾þþþþþþþþþþþþþþþþ»
 000454 9506 6000      00000        7065    00408000           IF    (SEGCBCR,OR,SEGCBWR),BEGIN  Write...
 000458 4780 7012            00464  7079             +
 00045C 9502 6000      00000        7088             +
 000460 4770 71C2            00614  7089             +
 000464 5850 6038/1255       00038  7094  1 00409000             LT    R5,SEGCBUSR         User info ptr
 00046A 4770 702C            0047E  7098  1 00410000             IF    Z,BEGIN             No WTOCB ptr...
 00046E 4150 8038            00000  7109  2 00411000               LA    R5,WTOXCB           Make a dummy WTOCB
 USING  WTOCB,R5                    7110  2 00412000               WITH  (WTOCB,R5),'CLEAR WTOCB; MVC WTOID,=C"WTO "'
 000472 D723 5000 5000 00000 00000  7131  3          +
 000478 D203 5000 720A 00000 0065C  7132  2          +
 DROP   WTOCB,R5
 00047E                             7141  1 00413000             END
                                    7145  1 00414000
 USING  WTOCB,R5                    7146  1 00415000             WITH  (WTOCB,R5)
 00047E                             7159  1 00416000             FAIL  (WTOCB,NE,'WTO'),'Bad WTOCB ptr.'
 00047E D502 723A 5000 0068C 00000  7172  1          +
 000484 4780 7048            0049A  7173  1          +
 000488 FEDC0E                      7178  2          +
 00048B C2818440E6E3D6C3            7179  1          +
                                    7185  1 00417000             ¿þþþþþþþþþþþÜ
                                    7186  1 00418000             Ÿ  Do WTO.  Ÿ
                                    7187  1 00419000             ¾þþþþþþþþþþþ»
 00049A                             7188  1 00420000             CLEAR WTOLID              Reset WTO id
 00049A D703 5008 5008 00008 00008  7194  1          +
                                    7195  1 00421000
 0004A0 4110 80A4            0006C  7196  1 00422000             SEGINIT WTOSBUF,,WTOS
 0004A4 4100 0078            00078  7210  1          +
 0004A8 41F0 805C            00024  7218  1          +
 0004AC 58E0 71DA/0DEE       0062C  7221  1          +
 0004B2 9140 5004      00004        7223  1 00423000             IF    ~WTOFNOPFX,BEGIN    Prefix is OK...
 0004B6 4710 709E            004F0  7233  1          +
 0004BA 4110 720E            00660  7238  2 00424000               SEG   '*** '
 0004BE 4100 0004            00004  7242  2          +
 0004C2 41F0 805C            00024  7250  2          +
 0004C6 58E0 7212/0DEE       00664  7253  2          +
 0004CC 4110 C030            00030  7255  2 00425000               SEGTB GVTJOBNM
 0004D0 4100 0008            00008  7270  2          +
 0004D4 41F0 805C            00024  7278  2          +
 0004D8 58E0 7216/0DEE       00668  7281  2          +
 0004DE 4110 720E            00660  7283  2 00426000               SEG   '*** '
 0004E2 4100 0004            00004  7287  2          +
 0004E6 41F0 805C            00024  7295  2          +
 0004EA 58E0 7212/0DEE       00664  7298  2          +
 0004F0                             7300  1 00427000             END
                                    7304  1 00428000
1UTILS    WTOSEG -- WTO seg processing routine                                                                              Page   19
0Current Usings:  (WTOCB,R5) (SEGCB,R6) (*,R7) (WTOWA-(4+52),R8) (TVT,R11) (GVT,R12)
0Loc    Object Code    Addr1 Addr2  Stmt Lv Lineno    Source Statement           (Hibal 5, Asmedit 3.3)  HLASM R4.0  2002/06/06 10.18
+___    ______ ____    _____ _____  ____ __ ______    ______ _________
00004F0 5810 6020            00020  7305  1 00429000             SEGT  L:SEGCBLOC,L:SEGCBLENF  Message text
 0004F4 5800 600C            0000C  7318  1          +
 0004F8 41F0 805C            00024  7326  1          +
 0004FC 58E0 721A/0DEE       0066C  7329  1          +
                                    7331  1 00430000  *
                                    7332  1 00431000  *                                  Set routcd=nn and Desc=nnn
 000502 D203 8098 721E 00060 00670  7333  1 00432000             MVC   WTOWORK,=X'00004000' Default is Routcde=2
 000508 9180 C04C      0004C        7334  1 00433000             IF    GVTFTEST,BEGIN      If test wings, Rout=11
 00050C 47E0 70C4            00516  7344  1          +
 000510 D203 8098 7222 00060 00674  7349  2 00434000               MVC   WTOWORK,=X'00000020'
 000516                             7350  1 00435000             END
 000516 9180 5004      00004        7354  1 00436000             IF    WTOFWTL,BEGIN       If WTL, Rout=11
 00051A 47E0 70D2            00524  7364  1          +
 00051E D203 8098 7222 00060 00674  7369  2 00437000               MVC   WTOWORK,=X'00000020'
 000524                             7370  1 00438000             END
 000524 9120 5004      00004        7374  1 00439000             IF    WTOFACTION,BEGIN    If action req, Desc=1 Rout=2
 000528 47E0 70E0            00532  7384  1          +
 00052C D203 8098 7226 00060 00678  7389  2 00440000               MVC   WTOWORK,=X'80004000'
 000532                             7390  1 00441000             END
 000532 9500 5010      00010        7394  1 00442000             IF    (WTOCONID,NZ),BEGIN If console id, rout=0
 000536 4780 70EE            00540  7405  1          +
 00053A D201 809A 7232 00062 00684  7410  2 00443000               MVC   WTOWORK+2(2),=X'0000'
 000540                             7411  1 00444000             END
 000540 4110 8098            00060  7415  1 00445000             SEG   WTOWORK             Add MCS suffix
 000544 4100 0004            00004  7429  1          +
 000548 41F0 805C            00024  7437  1          +
 00054C 58E0 7212/0DEE       00664  7440  1          +
                                    7442  1 00446000
 000552 58F0 8068            00030  7443  1 00447000             L     R15,WTOSLENF        Total text length
 000556 40F0 80A0            00068  7444  1 00448000             STH   R15,WTOHDR          Save length in MCS header
 00055A D201 80A2 7234 0006A 00686  7445  1 00449000             MVC   WTOMCS,=X'8000'     MCS flags (rout suffix present)
 000560 D601 80A2 7236 0006A 00688  7446  1 00450000             OC    WTOMCS,=X'4000'     MCS flags (REG0 R0 is console id)
                                    7447  1 00451000
 000566 1F00/4300 5010       00010  7448  1 00452000             LC    R0,WTOCONID
 00056C 4110 80A0            00068  7453  1 00453000             LA    R1,WTOHDR
 000570 0A23                        7454  1 00454000             WTO   MF=(E,(1))          Do WTO
 000572 5010 5008            00008  7457  1 00455000             ST    R1,WTOLID           Save WTO id
                                    7458  1 00456000             ¿þþþþþþþþþþþþþþþþþþþþþþþþþþþþþþþþþþÜ
                                    7459  1 00457000             Ÿ  Do AUXILIARY seg if requested.  Ÿ
                                    7460  1 00458000             ¾þþþþþþþþþþþþþþþþþþþþþþþþþþþþþþþþþþ»
 000576                             7461  1 00459000             IF    (WTOAUXSG,NZ),BEGIN
 000576 D603 500C 500C 0000C 0000C  7471  1          +
 00057C 4780 7140            00592  7472  1          +
 000580 5810 6020            00020  7477  2 00460000               SETMSG L:SEGCBLOC,L:SEGCBLENF
 000584 5800 600C            0000C  7488  2          +
 000588 58F0 500C            0000C  7489  2 00461000               L     R15,WTOAUXSG
 00058C 58E0 722A/0DEE       0067C  7490  2 00462000               SEGWR (R1),(R0),.(R15)
 000592                             7511  1 00463000             END
                                    7515  1 00464000             ¿þþþþþþþþþþþþþþþþþþþþþþþþþþþþþþþþþþþþþþþþþÜ
                                    7516  1 00465000             Ÿ  Do MILSERV NOTIFY (for test systems).  Ÿ
                                    7517  1 00466000             ¾þþþþþþþþþþþþþþþþþþþþþþþþþþþþþþþþþþþþþþþþþ»
 000592                             7518  1 00467000             IF    (GVTNOTFY,NZ),BEGIN  We have an account to notify...
 000592 D607 C044 C044 00044 00044  7528  1          +
 000598 4780 71C2            00614  7529  1          +
1UTILS    WTOSEG -- WTO seg processing routine                                                                              Page   20
0Current Usings:  (WTOCB,R5) (SEGCB,R6) (*,R7) (WTOWA-(4+52),R8) (TVT,R11) (GVT,R12)
0Loc    Object Code    Addr1 Addr2  Stmt Lv Lineno    Source Statement           (Hibal 5, Asmedit 3.3)  HLASM R4.0  2002/06/06 10.18
+___    ______ ____    _____ _____  ____ __ ______    ______ _________
000059C 9180 5004      00004        7534  2 00468000               IF    WTOFWTL,EXIT        Just a WTL, forget it
 0005A0 4710 71C2            00614  7546  2          +
                                    7552  2 00469000
 0005A4 41F0 805C            00024  7553  2 00470000               SEGCLR
 0005A8 58E0 722E/0DEE       00680  7564  2          +
 0005AE 4110 723D            0068F  7566  2 00471000               SEG   'From '
 0005B2 4100 0005            00005  7570  2          +
 0005B6 41F0 805C            00024  7578  2          +
 0005BA 58E0 7212/0DEE       00664  7581  2          +
 0005C0 4110 C030            00030  7583  2 00472000               SEGT  GVTJOBNM            Jobname
 0005C4 4100 0008            00008  7598  2          +
 0005C8 41F0 805C            00024  7606  2          +
 0005CC 58E0 721A/0DEE       0066C  7609  2          +
 0005D2 4110 7238            0068A  7611  2 00473000               SEG   ': '
 0005D6 4100 0002            00002  7615  2          +
 0005DA 41F0 805C            00024  7623  2          +
 0005DE 58E0 7212/0DEE       00664  7626  2          +
 0005E4 5810 6020            00020  7628  2 00474000               SEGT  L:SEGCBLOC,L:SEGCBLENF  Message text
 0005E8 5800 600C            0000C  7641  2          +
 0005EC 41F0 805C            00024  7649  2          +
 0005F0 58E0 721A/0DEE       0066C  7652  2          +
                                    7654  2 00475000
 0005F6 9200 809E      00066        7655  2 00476000               CLEAR WTOPARM             Clear MILSERV parm
 0005FA D204 809F C044 00067 00044  7662  2 00477000               MVC   WTOACCT,GVTNOTFY    Set notification account
 000600 4100 0006            00006  7663  2 00478000               LA    R0,L'WTOPFX         MILSERV prefix
 000604 5A00 8068            00030  7664  2 00479000               A     R0,WTOSLENF         Total MILSERV parm length
                                    7665  2 00480000
 000608 4110 809E            00066  7666  2 00481000               MILSERV WTOPARM,(R0),LA:2  Send message to the owner
 00060C 41F0 0002/0AF2       00002  7684  2          +
 000612 12FF                        7686  2          +
 000614                             7687  1 00482000             END
 DROP   WTOCB,R5                    7691    00483000           END
                                    7700    00484000
 000614 18D8/980C D004       00004  7701    00485000           PEND
 DROP   SEGCB,R6
 DROP   WTOWA-(4+52),R8
 DROP   *,R7
 00061A 58E0 D000/12FF       00000  7727             +
 000620 07FE                        7730             +
                                    7731    00486000
                                    7732    00487000           QLTORG
1UTILS    MONITOR CMD seg stuff                                                                                             Page   21
0Current Usings:  (TVT,R11) (GVT,R12)
0Loc    Object Code    Addr1 Addr2  Stmt Lv Lineno    Source Statement           (Hibal 5, Asmedit 3.3)  HLASM R4.0  2002/06/06 10.18
+___    ______ ____    _____ _____  ____ __ ______    ______ _________
0                                   7774    00489000  *
                                    7775    00490000  *  MCMDINIT - init monitor command
                                    7776    00491000  *
                                    7777    00492000  *  ON ENTRY:
                                    7778    00493000  *    R0,R1 - seg buffer loc, length
                                    7779    00494000  *    R2 - TVT
                                    7780    00495000  *    R15 - SEGCB
                                    7781    00496000  *
                                    7782    00497000  *  NOTE:
                                    7783    00498000  *  SEGCBUSR IS TVT ADDRESS
                                    7784    00499000  *
                                    7785    00500000  *
 0006A0 90DF B0D4            000D4  7786    00501000  MCMDINIT XPROC ,
 0006A4 58F0 C014/0DEF       00014  7798             +
 0006AA D4C3D4C4C9D5C9E3            7800             +
 0006B2 98DF B0D4            000D4  7801             +
 0006B6 50E0 D000            00000  7804             +
 0006BA 900C D004/188D       00004  7807             +
 0006C0 41D0 D038/0D70       00038  7809             +
 0006C6 186F                        7832    00502000           LR    R6,R15
 USING  *,R7
 USING  SEGCB,R6                    7833    00503000           WITH  (SEGCB,R6)
 0006C8 18B2                        7846    00504000           LR    TVTR,R2
                                    7847    00505000           WITH  TVT
                                    7850    00506000  *
                                    7851    00507000  *                                  INIT SEGCB
 0006CA 58E0 7102/0DEE       007C8  7852    00508000           SEGINIT (R1),(R0),(R15),RTN=MCMDSEG
 0006D0 5800 7106/1B11       007CC  7872             +
 0006D6 58E0 710A/0DEE       007D0  7884             +
 0006DC 4110 B000            00000  7886    00509000           LA    R1,TVT
 0006E0 5010 6038            00038  7887    00510000           ST    R1,SEGCBUSR
                                    7888    00511000  *
                                    7889    00512000  *                                  CLEAR RESPONSE BUFFER LEN
 0006E4 5810 B0BC            000BC  7890    00513000           L     R1,TVTRSPBF
 0006E8 4100 0004            00004  7891    00514000           LA    R0,4
 0006EC 5000 1000            00000  7892    00515000           ST    R0,@R1
 0006F0 18D8/980C D004       00004  7893    00516000           PEND
 DROP   SEGCB,R6
 DROP   *,R7
 0006F6 58E0 D000/12FF       00000  7914             +
 0006FC 07FE                        7917             +
1UTILS    MONITOR CMD seg stuff                                                                                             Page   22
0Current Usings:  (TVT,R11) (GVT,R12)
0Loc    Object Code    Addr1 Addr2  Stmt Lv Lineno    Source Statement           (Hibal 5, Asmedit 3.3)  HLASM R4.0  2002/06/06 10.18
+___    ______ ____    _____ _____  ____ __ ______    ______ _________
0                                   7919    00518000  *
                                    7920    00519000  *  MCMDSEG - monitor command seg processing routine
                                    7921    00520000  *
                                    7922    00521000  *  We put each line into TVTRSPBF (response buffer)
                                    7923    00522000  *  Response buffer is 4 bytes total length (including
                                    7924    00523000  *  self). followed by lines of text. each line of text
                                    7925    00524000  *  is 1 byte length followed by length bytes of text.
                                    7926    00525000  *  (1 byte length is length of text does not include
                                    7927    00526000  *  lenfth byte)
                                    7928    00527000  *
                                    7929    00528000  *  NOTE:
                                    7930    00529000  *  SEGCBUSR IS TVT ADDRESS
                                    7931    00530000  *
                                    7932    00531000  *
 0006FE 90DF B0D4            000D4  7933    00532000  MCMDSEG  PROC
 000702 58F0 C014/0DEF       00014  7943             +
 000708 D4C3D4C4E2C5C740            7945             +
 000710 98DF B0D4            000D4  7946             +
 000714 50E0 D000            00000  7949             +
 000718 900C D004/188D       00004  7952             +
 00071E 41D0 D038/0D70       00038  7954             +
 000724 186F                        7977    00533000           LR    R6,R15
 USING  *,R7
 USING  SEGCB,R6                    7978    00534000           WITH  (SEGCB,R6)
 000726 58B0 6038            00038  7991    00535000           L     TVTR,SEGCBUSR
                                    7992    00536000           WITH  TVT
                                    7995    00537000  *
                                    7996    00538000  *                                  WRITE
 00072A 9502 6000      00000        7997    00539000           IF    (SEGCBWR,OR,SEGCBOVF),BEGIN
 00072E 4780 7016            0073A  8011             +
 000732 9505 6000      00000        8020             +
 000736 4770 707A            0079E  8021             +
                                    8026  1 00540000  *                                  CHECK IF ROOM IN RESPONSE BUF
 00073A 5810 B0BC            000BC  8027  1 00541000             L     R1,TVTRSPBF
 00073E 5800 1000            00000  8028  1 00542000             L     R0,@R1
 000742 5A00 70B0            007D4  8029  1 00543000             A     R0,=A(256)
 000746 5900 B0C0            000C0  8030  1 00544000             IF    (R0,LT,TVTRSPLN),BEGIN  IF ROOM
 00074A 47B0 7072            00796  8042  1          +
                                    8047  2 00545000  *                                  MOVE TEXT INTO RESPONSE BUFFER
 00074E 5810 B0BC            000BC  8048  2 00546000               L     R1,TVTRSPBF         R1 - RESPONSE BUFFER
 000752 1821                        8049  2 00547000               LR    R2,R1               R2,R3 DEST LOC, LEN
 000754 5A20 1000            00000  8050  2 00548000               A     R2,@R1              R4,R5 SOURCE LOC, LEN
 000758 5830 600C            0000C  8051  2 00549000               L     R3,SEGCBLENF
 00075C 5930 70B4            007D8  8052  2 00550000               CEIL  R3,255
 000760 47D0 7044            00768  8061  2          +
 000764 5830 70B4            007D8  8066  2          +
 000768 5840 6020            00020  8071  2 00551000               L     R4,SEGCBLOC
 00076C 1853                        8072  2 00552000               LR    R5,R3
 00076E 4230 2000            00000  8073  2 00553000               STC   R3,@R2
 000772 5E20 70B8            007DC  8074  2 00554000               INCR  R2
 000776 0E24                        8077  2 00555000               MVCL  R2,R4
                                    8078  2 00556000  *                                  UPDATE TOTAL LENGTH
 000778 5820 1000            00000  8079  2 00557000               L     R2,@R1
 00077C 5830 600C            0000C  8080  2 00558000               L     R3,SEGCBLENF
1UTILS    MONITOR CMD seg stuff                                                                                             Page   23
0Current Usings:  (SEGCB,R6) (*,R7) (TVT,R11) (GVT,R12)
0Loc    Object Code    Addr1 Addr2  Stmt Lv Lineno    Source Statement           (Hibal 5, Asmedit 3.3)  HLASM R4.0  2002/06/06 10.18
+___    ______ ____    _____ _____  ____ __ ______    ______ _________
0000780 5930 70B4            007D8  8081  2 00559000               CEIL  R3,255
 000784 47D0 7068            0078C  8090  2          +
 000788 5830 70B4            007D8  8095  2          +
 00078C 5E30 70B8            007DC  8100  2 00560000               INCR  R3
 000790 1A23                        8103  2 00561000               AR    R2,R3
 000792 5020 1000            00000  8104  2 00562000               ST    R2,@R1
 000796                             8105  1 00563000             END
                                    8109  1 00564000  *                                  SET RETURNS
 000796 5800 600C            0000C  8110  1 00565000             L     R0,SEGCBLENF
 00079A 1300                        8111  1 00566000             LCR   R0,R0               RETURN FOR SEGCBOVF
 00079C 1BFF                        8112  1 00567000             CLEAR R15
 00079E                             8116    00568000           END
                                    8120    00569000  *
                                    8121    00570000  *                                  SEGCR, TREAT AS SEGWR
                                    8122    00571000  *                                  THIS CODE NEVER EXECUTED I HOPE
 00079E 9506 6000      00000        8123    00572000           IF    SEGCBCR,BEGIN
 0007A2 4770 708C            007B0  8133             +
 0007A6 1B00/18F6                   8138  1 00573000             SEGWR ,,.SEGCB
 0007AA 58E0 70BC/0DEE       007E0  8160  1          +
 0007B0                             8162    00574000           END
                                    8166    00575000  *
                                    8167    00576000  *                                  POST PROCESSING
 0007B0 9504 6000      00000        8168    00577000           IF    SEGCBSPP,BEGIN
 0007B4 4770 7096            007BA  8178             +
 0007B8 1B00                        8183  1 00578000             CLEAR R0                  ASSUME ALL OK
 0007BA                             8187    00579000           END
                                    8191    00580000
 0007BA 18D8/980C D004       00004  8192    00581000           PEND
 DROP   SEGCB,R6
 DROP   *,R7
 0007C0 58E0 D000/12FF       00000  8213             +
 0007C6 07FE                        8216             +
                                    8217    00582000
                                    8218    00583000           QLTORG
1UTILS    AMODE switching routines                                                                                          Page   24
0Current Usings:  (TVT,R11) (GVT,R12)
0Loc    Object Code    Addr1 Addr2  Stmt Lv Lineno    Source Statement           (Hibal 5, Asmedit 3.3)  HLASM R4.0  2002/06/06 10.18
+___    ______ ____    _____ _____  ____ __ ______    ______ _________
0                                   8238    00585000  ¿þþþþþþþþþþþþþþþþþþþþþþþþþþþþþþþþþþþþþþþþþþþþþþþþþþþþþþþþþþþþþþþþþþþþþÜ
                                    8239    00586000  Ÿ                                                                     Ÿ
                                    8240    00587000  Ÿ  AMODE31 -- Routine to switch to 31-bit addressing mode if          Ÿ
                                    8241    00588000  Ÿ    we are running MVS/XA.                                           Ÿ
                                    8242    00589000  Ÿ                                                                     Ÿ
                                    8243    00590000  Ÿ    (If you are not running MVS/XA then this routine can be          Ÿ
                                    8244    00591000  Ÿ    commented out.)                                                  Ÿ
                                    8245    00592000  Ÿ                                                                     Ÿ
                                                      ¾þþþþþþþþþþþþþþþþþþþþþþþþþþþþþþþþþþþþþþþþþþþþþþþþþþþþþþþþþþþþþþþþþþþþþ»
00007E4 90DF B0D4            000D4  8246    00593000  AMODE31  XPROC
 0007E8 58F0 C014/0DEF       00014  8258             +
 0007EE C1D4D6C4C5F3F140            8260             +
 0007F6 98DF B0D4            000D4  8261             +
 0007FA 50E0 D000            00000  8264             +
 0007FE 900C D004/188D       00004  8267             +
 000804 41D0 D038/0D70       00038  8269             +
 00080A 4120 700A            00814  8292    00594000           LA    R2,A31GO
 USING  *,R7
 00080E 5620 7AEE            012F8  8293    00595000           O     R2,=A(X'80000000')  31 bit mode wanted
 000812 0B02                        8294    00596000           BSM   0,R2
                                    8295    00597000
 000814                             8296    00598000  A31GO    LABEL
                                    8298    00599000
 000814 18D8/980C D004       00004  8299    00600000           PEND
 DROP   *,R7
 00081A 58E0 D000/12FF       00000  8315             +
 000820 07FE                        8318             +
-                                   8320    00602000  ¿þþþþþþþþþþþþþþþþþþþþþþþþþþþþþþþþþþþþþþþþþþþþþþþþþþþþþþþþþþþþþþþþþþþþþÜ
                                    8321    00603000  Ÿ                                                                     Ÿ
                                    8322    00604000  Ÿ  AMODE24 -- Routine to switch back to 24-bit addressing mode.       Ÿ
                                    8323    00605000  Ÿ                                                                     Ÿ
                                                      ¾þþþþþþþþþþþþþþþþþþþþþþþþþþþþþþþþþþþþþþþþþþþþþþþþþþþþþþþþþþþþþþþþþþþþþ»
0000822 90DF B0D4            000D4  8324    00606000  AMODE24  XPROC
 000826 58F0 C014/0DEF       00014  8336             +
 00082C C1D4D6C4C5F2F440            8338             +
 000834 98DF B0D4            000D4  8339             +
 000838 50E0 D000            00000  8342             +
 00083C 900C D004/188D       00004  8345             +
 000842 41D0 D038/0D70       00038  8347             +
 000848 4120 7006            0084E  8370    00607000           LA    R2,A24GO
 USING  *,R7
 00084C 0B02                        8371    00608000           BSM   0,R2                24 bit mode wanted
                                    8372    00609000
 00084E                             8373    00610000  A24GO    LABEL
                                    8375    00611000
 00084E 18D8/980C D004       00004  8376    00612000           PEND
 DROP   *,R7
 000854 58E0 D000/12FF       00000  8392             +
 00085A 07FE                        8395             +
1UTILS    Memory Management Routines                                                                                        Page   25
0Current Usings:  (TVT,R11) (GVT,R12)
0Loc    Object Code    Addr1 Addr2  Stmt Lv Lineno    Source Statement           (Hibal 5, Asmedit 3.3)  HLASM R4.0  2002/06/06 10.18
+___    ______ ____    _____ _____  ____ __ ______    ______ _________
0                                   8397    00614000  ¿þþþþþþþþþþþþþþþþþþþþþþþþþþþþþþþþþþþþþþþþþþþþþþþþþþþþþþþþþþþþþþþþþþþþþÜ
                                    8398    00615000  Ÿ                                                                     Ÿ
                                    8399    00616000  Ÿ   GETCORE -- Routine to get memory.                                 Ÿ
                                    8400    00617000  Ÿ                                                                     Ÿ
                                    8401    00618000  Ÿ     On entry:                                                       Ÿ
                                    8402    00619000  Ÿ       R0 - no. of bytes needed                                      Ÿ
                                    8403    00620000  Ÿ                                                                     Ÿ
                                    8404    00621000  Ÿ     On exit:                                                        Ÿ
                                    8405    00622000  Ÿ       R1 - addr of memory                                           Ÿ
                                    8406    00623000  Ÿ       R0 - no. of bytes obtained (ge needed)                        Ÿ
                                    8407    00624000  Ÿ                                                                     Ÿ
                                                      ¾þþþþþþþþþþþþþþþþþþþþþþþþþþþþþþþþþþþþþþþþþþþþþþþþþþþþþþþþþþþþþþþþþþþþþ»
000085C 90DF B0D4            000D4  8408    00625000  GETCORE  XPROC
 000860 58F0 C014/0DEF       00014  8420             +
 000866 C7C5E3C3D6D9C540            8422             +
 00086E 98DF B0D4            000D4  8423             +
 000872 50E0 D000            00000  8426             +
 000876 900C D004/188D       00004  8429             +
 00087C 41D0 D038/0D70       00038  8431             +
 000882 186E                        8454    00626000           LR    R6,RAR              Save callers addr
 USING  *,R7
                                    8455    00627000
 000884 1200/4720 7022       008A4  8456    00628000           FAIL  (R0,NP),'Bad GETCORE length parm'
 00088A FEDC17                      8472  1          +
 00088D C2818440C7C5E3C3            8473             +
 0008A4 4A00 7ACE            01350  8479    00629000           AH    R0,=H'7'
 0008A8 5400 7A7A            012FC  8480    00630000           N     R0,=F'-8'           Doubleword
 0008AC 4A00 7AD0            01352  8481    00631000           AH    R0,=H'16'           Overhead
 0008B0 1840                        8482    00632000           LR    R4,R0               Save length for later
                                    8483    00633000
 0008B2 0700/47F0 703A       008BC  8484    00634000           GETMAIN RU,LV=(0),LOC=ANY  Get memory (above 16M is OK)
 0008B8 00/00/00/72                 8488             +
 0008BC 58F0 7036/1B11       008B8  8493             +
 0008C2 0A78                        8495             +
 0008C4 D203 1000 7A7E 00000 01300  8496    00635000           MVC   @R1(4),=C'MEM '     Identifier
                                    8497    00636000
 0008CA 5040 1004            00004  8498    00637000           ST    R4,@R1+4            Len
 0008CE 5060 1008            00008  8499    00638000           ST    R6,@R1+8            Caller's addr (for debugging)
 0008D2 41F4 1000            00000  8500    00639000           LA    R15,@R1(R4)
 0008D6 4BF0 7AD2            01354  8501    00640000           SH    R15,=H'4'
 0008DA D203 F000 7A82 00000 01304  8502    00641000           MVC   @R15(4),=C'MEND'    Ending identifier
                                    8503    00642000  *
                                    8504    00643000  *DONT    L     R2,NITMEMT          Keep count of bytes...
                                    8505    00644000  *DONT    AR    R2,R4               ...allocated
                                    8506    00645000  *DONT    ST    R2,NITMEMT          ...by GETCORE
                                    8507    00646000  *
 0008E0 4110 100C            0000C  8508    00647000           LA    R1,@R1+12           Skip past overhead prefix
 0008E4 1804                        8509    00648000           LR    R0,R4
 0008E6 4B00 7AD0            01352  8510    00649000           SH    R0,=H'16'           Deduct overhead
 0008EA 9001 8004            00004  8511    00650000           PRETURN (R0,R1)           Return len, loc
                                    8513    00651000
 0008EE 1BFF                        8514    00652000           CLEAR R15                 Always good rc
 0008F0 18D8/980C D004       00004  8518    00653000           PEND
1UTILS    Memory Management Routines                                                                                        Page   26
0Current Usings:  (TVT,R11) (GVT,R12)
0Loc    Object Code    Addr1 Addr2  Stmt Lv Lineno    Source Statement           (Hibal 5, Asmedit 3.3)  HLASM R4.0  2002/06/06 10.18
+___    ______ ____    _____ _____  ____ __ ______    ______ _________
0DROP   *,R7
 0008F6 58E0 D000/12FF       00000  8534             +
 0008FC 07FE                        8537             +
1UTILS    Memory Management Routines                                                                                        Page   27
0Current Usings:  (TVT,R11) (GVT,R12)
0Loc    Object Code    Addr1 Addr2  Stmt Lv Lineno    Source Statement           (Hibal 5, Asmedit 3.3)  HLASM R4.0  2002/06/06 10.18
+___    ______ ____    _____ _____  ____ __ ______    ______ _________
0                                   8539    00655000  ¿þþþþþþþþþþþþþþþþþþþþþþþþþþþþþþþþþþþþþþþþþþþþþþþþþþþþþþþþþþþþþþþþþþþþþÜ
                                    8540    00656000  Ÿ                                                                     Ÿ
                                    8541    00657000  Ÿ   GETLOW -- Routine to get memory below the 16M line.               Ÿ
                                    8542    00658000  Ÿ                                                                     Ÿ
                                    8543    00659000  Ÿ     On entry:                                                       Ÿ
                                    8544    00660000  Ÿ       R0 - no. of bytes needed                                      Ÿ
                                    8545    00661000  Ÿ                                                                     Ÿ
                                    8546    00662000  Ÿ     On exit:                                                        Ÿ
                                    8547    00663000  Ÿ       R1 - addr of memory                                           Ÿ
                                    8548    00664000  Ÿ       R0 - no. of bytes obtained (ge needed)                        Ÿ
                                    8549    00665000  Ÿ                                                                     Ÿ
                                                      ¾þþþþþþþþþþþþþþþþþþþþþþþþþþþþþþþþþþþþþþþþþþþþþþþþþþþþþþþþþþþþþþþþþþþþþ»
00008FE 90DF B0D4            000D4  8550    00666000  GETLOW   XPROC
 000902 58F0 C014/0DEF       00014  8562             +
 000908 C7C5E3D3D6E64040            8564             +
 000910 98DF B0D4            000D4  8565             +
 000914 50E0 D000            00000  8568             +
 000918 900C D004/188D       00004  8571             +
 00091E 41D0 D038/0D70       00038  8573             +
 000924 186E                        8596    00667000           LR    R6,RAR              Save callers addr
 USING  *,R7
                                    8597    00668000
 000926 1200/4720 7022       00946  8598    00669000           FAIL  (R0,NP),'Bad GETLOW length parm'
 00092C FEDC16                      8614  1          +
 00092F C2818440C7C5E3D3            8615             +
 000946 4A00 7A2C            01350  8621    00670000           AH    R0,=H'7'
 00094A 5400 79D8            012FC  8622    00671000           N     R0,=F'-8'           Doubleword
 00094E 4A00 7A2E            01352  8623    00672000           AH    R0,=H'16'           Overhead
 000952 1840                        8624    00673000           LR    R4,R0               Save length for later
                                    8625    00674000
 000954 47F0 7038/00         0095C  8626    00675000           GETMAIN RU,LV=(0),LOC=(BELOW,ANY)  Get mem below 16M line
 000959 00/00/52                    8631             +
 00095C 58F0 7034/1B11       00958  8635             +
 000962 0A78                        8637             +
 000964 D203 1000 79DC 00000 01300  8638    00676000           MVC   @R1(4),=C'MEM '     Identifier
                                    8639    00677000
 00096A 5040 1004            00004  8640    00678000           ST    R4,@R1+4            Len
 00096E 5060 1008            00008  8641    00679000           ST    R6,@R1+8            Caller's addr (for debugging)
 000972 41F4 1000            00000  8642    00680000           LA    R15,@R1(R4)
 000976 4BF0 7A30            01354  8643    00681000           SH    R15,=H'4'
 00097A D203 F000 79E0 00000 01304  8644    00682000           MVC   @R15(4),=C'MEND'    Ending identifier
                                    8645    00683000  *
                                    8646    00684000  *DONT    L     R2,NITMEMT          Keep count of bytes...
                                    8647    00685000  *DONT    AR    R2,R4               ...allocated
                                    8648    00686000  *DONT    ST    R2,NITMEMT          ...by GETLOW
                                    8649    00687000  *
 000980 4110 100C            0000C  8650    00688000           LA    R1,@R1+12           Skip past overhead prefix
 000984 1804                        8651    00689000           LR    R0,R4
 000986 4B00 7A2E            01352  8652    00690000           SH    R0,=H'16'           Deduct overhead
 00098A 9001 8004            00004  8653    00691000           PRETURN (R0,R1)           Return len, loc
                                    8655    00692000
 00098E 1BFF                        8656    00693000           CLEAR R15                 Always good rc
 000990 18D8/980C D004       00004  8660    00694000           PEND
1UTILS    Memory Management Routines                                                                                        Page   28
0Current Usings:  (TVT,R11) (GVT,R12)
0Loc    Object Code    Addr1 Addr2  Stmt Lv Lineno    Source Statement           (Hibal 5, Asmedit 3.3)  HLASM R4.0  2002/06/06 10.18
+___    ______ ____    _____ _____  ____ __ ______    ______ _________
0DROP   *,R7
 000996 58E0 D000/12FF       00000  8676             +
 00099C 07FE                        8679             +
1UTILS    Memory Management Routines                                                                                        Page   29
0Current Usings:  (TVT,R11) (GVT,R12)
0Loc    Object Code    Addr1 Addr2  Stmt Lv Lineno    Source Statement           (Hibal 5, Asmedit 3.3)  HLASM R4.0  2002/06/06 10.18
+___    ______ ____    _____ _____  ____ __ ______    ______ _________
0                                   8681    00696000  ¿þþþþþþþþþþþþþþþþþþþþþþþþþþþþþþþþþþþþþþþþþþþþþþþþþþþþþþþþþþþþþþþþþþþþþÜ
                                    8682    00697000  Ÿ                                                                     Ÿ
                                    8683    00698000  Ÿ   GETSHARE - Routine to get memory shared with mother subtask.      Ÿ
                                    8684    00699000  Ÿ                                                                     Ÿ
                                    8685    00700000  Ÿ   IE. this routine obtains memory that will not automatically       Ÿ
                                    8686    00701000  Ÿ   be cleaned up when this task exits.  it will be cleaned up        Ÿ
                                    8687    00702000  Ÿ   when mother task exits by MVS or can explicitly be freed by       Ÿ
                                    8688    00703000  Ÿ   FREECORE routine.                                                 Ÿ
                                    8689    00704000  Ÿ                                                                     Ÿ
                                    8690    00705000  Ÿ     On entry:                                                       Ÿ
                                    8691    00706000  Ÿ       R0 - no. of bytes needed                                      Ÿ
                                    8692    00707000  Ÿ                                                                     Ÿ
                                    8693    00708000  Ÿ     On exit:                                                        Ÿ
                                    8694    00709000  Ÿ       R1 - addr of memory                                           Ÿ
                                    8695    00710000  Ÿ       R0 - no. of bytes obtained (ge needed)                        Ÿ
                                    8696    00711000  Ÿ                                                                     Ÿ
                                                      ¾þþþþþþþþþþþþþþþþþþþþþþþþþþþþþþþþþþþþþþþþþþþþþþþþþþþþþþþþþþþþþþþþþþþþþ»
000099E 90DF B0D4            000D4  8697    00712000  GETSHARE XPROC
 0009A2 58F0 C014/0DEF       00014  8709             +
 0009A8 C7C5E3E2C8C1D9C5            8711             +
 0009B0 98DF B0D4            000D4  8712             +
 0009B4 50E0 D000            00000  8715             +
 0009B8 900C D004/188D       00004  8718             +
 0009BE 41D0 D038/0D70       00038  8720             +
 0009C4 186E                        8743    00713000           LR    R6,RAR              Save callers addr
 USING  *,R7
                                    8744    00714000
 0009C6 1200/4720 7024       009E8  8745    00715000           FAIL  (R0,NP),'Bad GETSHARE length parm'
 0009CC FEDC18                      8761  1          +
 0009CF C2818440C7C5E3E2            8762             +
 0009E8 4A00 798C            01350  8768    00716000           AH    R0,=H'7'
 0009EC 5400 7938            012FC  8769    00717000           N     R0,=F'-8'           Doubleword
 0009F0 4A00 798E            01352  8770    00718000           AH    R0,=H'16'           Overhead
 0009F4 1840                        8771    00719000           LR    R4,R0               Save length for later
                                    8772    00720000
 0009F6 0700/47F0 703C       00A00  8773    00721000           GETMAIN RU,LV=(0),LOC=ANY,SP=2
 0009FC 00/00/02/72                 8777             +
 000A00 58F0 7038/1B11       009FC  8782             +
 000A06 0A78                        8784             +
 000A08 D203 1000 7944 00000 01308  8785    00722000           MVC   @R1(4),=C'MEMS'     Identifier
                                    8786    00723000
 000A0E 5040 1004            00004  8787    00724000           ST    R4,@R1+4            Len
 000A12 5060 1008            00008  8788    00725000           ST    R6,@R1+8            Caller's addr (for debugging)
 000A16 41F4 1000            00000  8789    00726000           LA    R15,@R1(R4)
 000A1A 4BF0 7990            01354  8790    00727000           SH    R15,=H'4'
 000A1E D203 F000 7940 00000 01304  8791    00728000           MVC   @R15(4),=C'MEND'    Ending identifier
                                    8792    00729000  *
                                    8793    00730000  *DONT    L     R2,NITMEMT          Keep count of bytes...
                                    8794    00731000  *DONT    AR    R2,R4               ...allocated
                                    8795    00732000  *DONT    ST    R2,NITMEMT          ...by GETLOW
                                    8796    00733000  *
 000A24 4110 100C            0000C  8797    00734000           LA    R1,@R1+12           Skip past overhead prefix
 000A28 1804                        8798    00735000           LR    R0,R4
1UTILS    Memory Management Routines                                                                                        Page   30
0Current Usings:  (*,R7) (TVT,R11) (GVT,R12)
0Loc    Object Code    Addr1 Addr2  Stmt Lv Lineno    Source Statement           (Hibal 5, Asmedit 3.3)  HLASM R4.0  2002/06/06 10.18
+___    ______ ____    _____ _____  ____ __ ______    ______ _________
0000A2A 4B00 798E            01352  8799    00736000           SH    R0,=H'16'           Deduct overhead
 000A2E 9001 8004            00004  8800    00737000           PRETURN (R0,R1)           Return len, loc
                                    8802    00738000
 000A32 1BFF                        8803    00739000           CLEAR R15                 Always good rc
 000A34 18D8/980C D004       00004  8807    00740000           PEND
 DROP   *,R7
 000A3A 58E0 D000/12FF       00000  8823             +
 000A40 07FE                        8826             +
1UTILS    Memory Management Routines                                                                                        Page   31
0Current Usings:  (TVT,R11) (GVT,R12)
0Loc    Object Code    Addr1 Addr2  Stmt Lv Lineno    Source Statement           (Hibal 5, Asmedit 3.3)  HLASM R4.0  2002/06/06 10.18
+___    ______ ____    _____ _____  ____ __ ______    ______ _________
0                                   8828    00742000  ¿þþþþþþþþþþþþþþþþþþþþþþþþþþþþþþþþþþþþþþþþþþþþþþþþþþþþþþþþþþþþþþþþþþþþþÜ
                                    8829    00743000  Ÿ                                                                     Ÿ
                                    8830    00744000  Ÿ   FREECORE -- Routine to release memory.                            Ÿ
                                    8831    00745000  Ÿ                                                                     Ÿ
                                    8832    00746000  Ÿ     On entry:                                                       Ÿ
                                    8833    00747000  Ÿ       R1 - address of memory being released                         Ÿ
                                    8834    00748000  Ÿ                                                                     Ÿ
                                                      ¾þþþþþþþþþþþþþþþþþþþþþþþþþþþþþþþþþþþþþþþþþþþþþþþþþþþþþþþþþþþþþþþþþþþþþ»
0000A42 90DF B0D4            000D4  8835    00749000  FREECORE XPROC
 000A46 58F0 C014/0DEF       00014  8847             +
 000A4C C6D9C5C5C3D6D9C5            8849             +
 000A54 98DF B0D4            000D4  8850             +
 000A58 50E0 D000            00000  8853             +
 000A5C 900C D004/188D       00004  8856             +
 000A62 41D0 D038/0D70       00038  8858             +
 000A68 186E                        8881    00750000           LR    R6,RAR              Save caller's addr
 USING  *,R7
                                    8882    00751000
 000A6A 1851                        8883    00752000           LR    R5,R1
                                    8884    00753000  *
                                    8885    00754000  *                                  Memory free
 000A6C 4B50 78EE            01356  8886    00755000           SH    R5,=H'12'           Backup for prefix
 000A70                             8887    00756000           IF    (@R5,EQ,'MEM '),BEGIN
 000A70 D503 7898 5000 01300 00000  8897             +
 000A76 4770 706A            00AD2  8898             +
 000A7A 5840 5004            00004  8903  1 00757000             L     R4,@R5+4            Len
 000A7E 41F4 5000            00000  8904  1 00758000             LA    R15,@R5(R4)
 000A82 4BF0 78EC            01354  8905  1 00759000             SH    R15,=H'4'
 000A86                             8906  1 00760000             FAIL  (@R15,NE,'MEND'),'FREECORE buffer clobbered'
 000A86 D503 789C F000 01304 00000  8918  1          +
 000A8C 4780 7044            00AAC  8919  1          +
 000A90 FEDC19                      8924  2          +
 000A93 C6D9C5C5C3D6D9C5            8925  1          +
 000AAC D203 5000 78A4 00000 0130C  8931  1 00761000             MVC   @R5(4),=C'FRMX'     Tag as free
 000AB2 5060 5008            00008  8932  1 00762000             ST    R6,@R5+8
 000AB6 D203 F000 78A8 00000 01310  8933  1 00763000             MVC   @R15(4),=C'FEND'    Ending tag
 000ABC 1804                        8934  1 00764000             LR    R0,R4
 000ABE 0700/47F0 7060       00AC8  8935  1 00765000             FREEMAIN RU,A=(R5),LV=(R0)  Release memory
 000AC4 00/00/00/03                 8939  1          +
 000AC8 1800/1815                   8943  1          +
 000ACC 58F0 705C/0A78       00AC4  8945  1          +
 000AD2                             8947    00766000           END
                                    8951    00767000  *
                                    8952    00768000  *                                  Shared Memory free
 000AD2 706E           00AD2 00A78  8953    00769000           ELSEIF    (@R5,EQ,'MEMS'),BEGIN
 000AD2 47F0 70CE            00B36  8959             +
 000AD6 D503 78A0 5000 01308 00000  8972             +
 000ADC 4770 70CE            00B36  8973             +
 000AE0 5840 5004            00004  8978  1 00770000             L     R4,@R5+4            Len
 000AE4 41F4 5000            00000  8979  1 00771000             LA    R15,@R5(R4)
 000AE8 4BF0 78EC            01354  8980  1 00772000             SH    R15,=H'4'
 000AEC                             8981  1 00773000             FAIL  (@R15,NE,'MEND'),'FREECORE buffer clobbered'
 000AEC D503 789C F000 01304 00000  8993  1          +
1UTILS    Memory Management Routines                                                                                        Page   32
0Current Usings:  (*,R7) (TVT,R11) (GVT,R12)
0Loc    Object Code    Addr1 Addr2  Stmt Lv Lineno    Source Statement           (Hibal 5, Asmedit 3.3)  HLASM R4.0  2002/06/06 10.18
+___    ______ ____    _____ _____  ____ __ ______    ______ _________
0000AF2 4780 70AA            00B12  8994  1          +
 000AF6 FEDC19                      8999  2          +
 000AF9 C6D9C5C5C3D6D9C5            9000  1          +
 000B12 D203 5000 78A4 00000 0130C  9006  1 00774000             MVC   @R5(4),=C'FRMX'     Tag as free
 000B18 5060 5008            00008  9007  1 00775000             ST    R6,@R5+8
 000B1C D203 F000 78A8 00000 01310  9008  1 00776000             MVC   @R15(4),=C'FEND'    Ending tag
 000B22 1804                        9009  1 00777000             LR    R0,R4
 000B24 47F0 70C4/00         00B2C  9010  1 00778000             FREEMAIN RU,A=(R5),LV=(R0),SP=2
 000B29 00/02/03/1800               9015  1          +
 000B2E 1815/58F0 70C0       00B28  9019  1          +
 000B34 0A78                        9021  1          +
 000B36                             9022    00779000           END
                                    9026    00780000
 000B36 70D2           00B36 00ADE  9027    00781000           ELSE  BEGIN
 000B36 47F0 70F0            00B58  9032             +
 000B3A 1900/4780 70F0       00B58  9038  1 00782000             FAIL  (R0,NE,R0),'Bad FREECORE address.'
 000B40 FEDC15                      9055  2          +
 000B43 C2818440C6D9C5C5            9056  1          +
 000B58                             9062    00783000           END
                                    9066    00784000  *
                                    9067    00785000  *DONT    L     R2,NITMEMT          Keep count of bytes...
                                    9068    00786000  *DONT    SR    R2,R4               ...allocated
                                    9069    00787000  *DONT    ST    R2,NITMEMT          ...by GETCORE
                                    9070    00788000  *
 000B58 1B11                        9071    00789000           CLEAR R1
 000B5A 5018 0008            00008  9075    00790000           PRETURN (R1)              Return loc of zero (tidy)
                                    9077    00791000
 000B5E 1BFF                        9078    00792000           CLEAR R15                 Always good rc
 000B60 18D8/980C D004       00004  9082    00793000           PEND
 DROP   *,R7
 000B66 58E0 D000/12FF       00000  9098             +
 000B6C 07FE                        9101             +
1UTILS    Utility Routines                                                                                                  Page   33
0Current Usings:  (TVT,R11) (GVT,R12)
0Loc    Object Code    Addr1 Addr2  Stmt Lv Lineno    Source Statement           (Hibal 5, Asmedit 3.3)  HLASM R4.0  2002/06/06 10.18
+___    ______ ____    _____ _____  ____ __ ______    ______ _________
0                                   9103    00795000           ¿þþþþþþþþþþþþþÜ
                                    9104    00796000           Ÿ  work area  Ÿ
                                    9105    00797000           ¾þþþþþþþþþþþþþ»
 000000                00000 00031  9106    00798000  WA       RECORD BEGIN
 000000                             9114  1 00799000             DS    F                   Double word insurance
 000004                             9115  1 00800000  DW         DS    2F                  Double word
 00000C                             9116  1 00801000  HEXW       DS    F
 000010                             9117  1 00802000  HEXS       DS    CL16
                                    9118  1 00803000
 000020                00020 0000C  9119  1 00804000             ORG   HEXW                Work area for FMTXDATE
 00000C                             9120  1 00805000  SAVEDAY    DS    F                   Save area for day-of-week
 000010                             9121  1 00806000  SAVEDATE   DS    F                   Save area for day-of-month
 000014                00014 00020  9122  1 00807000             ORG   ,
                                    9123  1 00808000
 000020                             9124  1 00809000  REDITWA    DS    CL17
 000031                00031 00031  9125    00810000           END
-000000                00000 00010  9135    00812000  DEC      RECORD 'DS 2D'
 000000                00010 00010  9144    02-GEN   +         DS    2D
1UTILS    Utility Routines                                                                                                  Page   34
0Current Usings:  (TVT,R11) (GVT,R12)
0Loc    Object Code    Addr1 Addr2  Stmt Lv Lineno    Source Statement           (Hibal 5, Asmedit 3.3)  HLASM R4.0  2002/06/06 10.18
+___    ______ ____    _____ _____  ____ __ ______    ______ _________
0                                   9155    00814000  ¿þþþþþþþþþþþþþþþþþþþþþþþþþþþþþþþþþþþþþþþþþþþþþþþþþþþþþþþþþþþþþþþþþþþþþÜ
                                    9156    00815000  Ÿ                                                                     Ÿ
                                    9157    00816000  Ÿ  RTRIM -- Trim right-side (trailing) blanks.                        Ÿ
                                    9158    00817000  Ÿ                                                                     Ÿ
                                    9159    00818000  Ÿ    On entry:                                                        Ÿ
                                    9160    00819000  Ÿ      R1,R0 - string loc, len                                        Ÿ
                                    9161    00820000  Ÿ                                                                     Ÿ
                                                      ¾þþþþþþþþþþþþþþþþþþþþþþþþþþþþþþþþþþþþþþþþþþþþþþþþþþþþþþþþþþþþþþþþþþþþþ»
0000B6E 50E0 D000            00000  9162    00821000  RTRIM    XPROC (R2,LSR),TRACE=NO
 000B72 902C D004/188D       00004  9176             +
 000B78 41D0 D030/0D70       00030  9178             +
 000B7E 1861                        9201    00822000           LR    R6,R1
 USING  *,R7
 000B80 1A60                        9202    00823000           AR    R6,R0
 000B82 0660                        9203    00824000           DECR  R6
 000B84 1200/47D0 701C       00B9A  9205    00825000           WHILE ((R0,POS),AND,(@R6,EQ,' ')),'DECR R6; DECR R0'
 000B8A 9540 6000      00000        9230             +
 000B8E 4770 701C/0660       00B9A  9231             +
 000B94 0600/47F0 7006       00B84  9240             +
 000B9A 18D8/982C D004       00004  9246    00826000           PEND
 DROP   *,R7
 000BA0 58E0 D000/12FF       00000  9262             +
 000BA6 07FE                        9265             +
-                                   9267    00828000  ¿þþþþþþþþþþþþþþþþþþþþþþþþþþþþþþþþþþþþþþþþþþþþþþþþþþþþþþþþþþþþþþþþþþþþþÜ
                                    9268    00829000  Ÿ                                                                     Ÿ
                                    9269    00830000  Ÿ  LRTRIM -- Trim left and right-side (leading/trailing) blanks.      Ÿ
                                    9270    00831000  Ÿ                                                                     Ÿ
                                    9271    00832000  Ÿ    On entry:                                                        Ÿ
                                    9272    00833000  Ÿ      R1,R0 - string loc, len                                        Ÿ
                                    9273    00834000  Ÿ                                                                     Ÿ
                                                      ¾þþþþþþþþþþþþþþþþþþþþþþþþþþþþþþþþþþþþþþþþþþþþþþþþþþþþþþþþþþþþþþþþþþþþþ»
0000BA8 50E0 D000            00000  9274    00835000  LRTRIM   XPROC (R2,LSR),TRACE=NO
 000BAC 902C D004/188D       00004  9288             +
 000BB2 41D0 D030/0D70       00030  9290             +
 000BB8 1200/47D0 7018       00BD0  9313    00836000           WHILE ((R0,POS),AND,(@R1,EQ,' ')),'LA R1,@R1+1; DECR R0'
 USING  *,R7
 000BBE 9540 1000      00000        9338             +
 000BC2 4770 7018            00BD0  9339             +
 000BC6 4110 1001/0600       00001  9345             +
 000BCC 47F0 7000            00BB8  9351             +
                                    9353    00837000
 000BD0 1861                        9354    00838000           LR    R6,R1
 000BD2 1A60                        9355    00839000           AR    R6,R0
 000BD4 0660                        9356    00840000           DECR  R6
 000BD6 1200/47D0 7034       00BEC  9358    00841000           WHILE ((R0,POS),AND,(@R6,EQ,' ')),'DECR R6; DECR R0'
 000BDC 9540 6000      00000        9383             +
 000BE0 4770 7034/0660       00BEC  9384             +
 000BE6 0600/47F0 701E       00BD6  9393             +
 000BEC 18D8/982C D004       00004  9399    00842000           PEND
 DROP   *,R7
1UTILS    Utility Routines                                                                                                  Page   35
0Current Usings:  (TVT,R11) (GVT,R12)
0Loc    Object Code    Addr1 Addr2  Stmt Lv Lineno    Source Statement           (Hibal 5, Asmedit 3.3)  HLASM R4.0  2002/06/06 10.18
+___    ______ ____    _____ _____  ____ __ ______    ______ _________
0000BF2 58E0 D000/12FF       00000  9415             +
 000BF8 07FE                        9418             +
1UTILS    Wings: DINTPACK - Convert double-word integer                                                                     Page   36
0Current Usings:  (TVT,R11) (GVT,R12)
0Loc    Object Code    Addr1 Addr2  Stmt Lv Lineno    Source Statement           (Hibal 5, Asmedit 3.3)  HLASM R4.0  2002/06/06 10.18
+___    ______ ____    _____ _____  ____ __ ______    ______ _________
0                                   9420    00844000  ¿þþþþþþþþþþþþþþþþþþþþþþþþþþþþþþþþþþþþþþþþþþþþþþþþþþþþþþþþþþþþþþþþþþþþþÜ
                                    9421    00845000  Ÿ                                                                     Ÿ
                                    9422    00846000  Ÿ  DINTPACK - Convert double-word integer to packed decimal           Ÿ
                                    9423    00847000  Ÿ                                                                     Ÿ
                                    9424    00848000  Ÿ  On entry:   (R0,R1) Contains the double-word quantity              Ÿ
                                    9425    00849000  Ÿ              R15     Contains address of an aligned double-word     Ÿ
                                    9426    00850000  Ÿ                      work area.                                     Ÿ
                                    9427    00851000  Ÿ                                                                     Ÿ
                                    9428    00852000  Ÿ  On exit:    R15=0   The work area contains the packed decimal      Ÿ
                                    9429    00853000  Ÿ                      value.                                         Ÿ
                                    9430    00854000  Ÿ              R15=4   The converted value would have exceeded 15     Ÿ
                                    9431    00855000  Ÿ                      decimal digits.                                Ÿ
                                    9432    00856000  Ÿ                                                                     Ÿ
                                                      ¾þþþþþþþþþþþþþþþþþþþþþþþþþþþþþþþþþþþþþþþþþþþþþþþþþþþþþþþþþþþþþþþþþþþþþ»
0000000                00000 00014  9434    00858000  DINTPWRK RECORD BEGIN              Number conversion work area
 000000 0000000000000000            9442  1 00859000             DC    5A(0)               Conversion double words
 000014                00014 00014  9443    00860000           END   ,
0000BFA 90DF B0D4            000D4  9453    00862000  DINTPACK XPROC DINTPWRK            Enter and obtain work area
 000BFE 58F0 C014/0DEF       00014  9466             +
 000C04 C4C9D5E3D7C1C3D2            9468             +
 000C0C 98DF B0D4            000D4  9469             +
 000C10 50E0 D000            00000  9472             +
 000C14 900C D004/188D       00004  9475             +
 000C1A 41D0 D04C/0D70       0004C  9478             +
                                    9510    00863000           ¿þþþþþþþþþþþþþþþþþþþþþþþþþþþþþþþþþþþþþþþþþþþþþþþþþþþþþÜ
                                    9511    00864000           Ÿ  Insure the stack word area is double-word aligned  Ÿ
                                    9512    00865000           ¾þþþþþþþþþþþþþþþþþþþþþþþþþþþþþþþþþþþþþþþþþþþþþþþþþþþþþ»
 000C20 184F                        9513    00866000           LR    R4,R15              Save address of return area
 USING  *,R7
 USING  DINTPWRK-(4+52),R8
 000C22 41F0 0004            00004  9514    00867000           LA    R15,4               Preset error return code
 000C26 5900 76F4            01314  9515    00868000           IF    (R0,LE,1000),BEGIN  Validity check input value
 000C2A 4730 7046            00C66  9527             +
 000C2E 4130 8038            00000  9532  1 00869000             LA    R3,DINTPWRK         Start of work area
 000C32 4130 3007            00007  9533  1 00870000             LA    R3,@R3+7              Round up to double word
 000C36 5430 76F8            01318  9534  1 00871000             N     R3,=A(X'FFFFFFFC')      Guarantee double word bndry
                                    9535  1 00872000             ¿þþþþþþþþþþþþþþþþþþþþþþþþþþþþþþþþþþþþþþþþÜ
                                    9536  1 00873000             Ÿ  Convert high order portion of result  Ÿ
                                    9537  1 00874000             ¾þþþþþþþþþþþþþþþþþþþþþþþþþþþþþþþþþþþþþþþþ»
 000C3A 4E00 3000            00000  9538  1 00875000             CVD   R0,@R3              Convert to decimal
 000C3E FC75 3000 70C0 00000 00CE0  9539  1 00876000             MP    @R3(8),NUMCONV1       shift over by 2^32
                                    9540  1 00877000             ¿þþþþþþþþþþþþþþþþþþþþþþþþþþþþþþþþþþþþþþþþþþþþþþþþþþþþþþþþþþþÜ
                                    9541  1 00878000             Ÿ  Convert low order portion of result, check for negative  Ÿ
                                    9542  1 00879000             Ÿ  result and adjust the conversion if necessary            Ÿ
                                    9543  1 00880000             ¾þþþþþþþþþþþþþþþþþþþþþþþþþþþþþþþþþþþþþþþþþþþþþþþþþþþþþþþþþþþ»
 000C44 4E10 3008            00008  9544  1 00881000             CVD   R1,@R3+8            Convert low order portion
 000C48 F970 3008 7744 00008 01364  9545  1 00882000             CP    @R3+8(8),=PL1'0'     Is the result negative?
 000C4E 47B0 7038            00C58  9546  1 00883000             IF    M,BEGIN              Yes, adjust result
 000C52 FA75 3008 70C0 00008 00CE0  9557  2 00884000               AP    @R3+8(8),NUMCONV1    Wrap around sign
 000C58                             9558  1 00885000             END   ,
 000C58 FA77 3000 3008 00000 00008  9562  1 00886000             AP    @R3(8),@R3+8(8)     Add to high order portion
 000C5E D207 4000 3000 00000 00000  9563  1 00887000             MVC   @R4(8),@R3          Pass back packed decimal field
1UTILS    Wings: DINTPACK - Convert double-word integer                                                                     Page   37
0Current Usings:  (*,R7) (DINTPWRK-(4+52),R8) (TVT,R11) (GVT,R12)
0Loc    Object Code    Addr1 Addr2  Stmt Lv Lineno    Source Statement           (Hibal 5, Asmedit 3.3)  HLASM R4.0  2002/06/06 10.18
+___    ______ ____    _____ _____  ____ __ ______    ______ _________
0000C64 1BFF                        9564  1 00888000             CLEAR R15                 Zero return code
 000C66                             9568    00889000           END   ,
 000C66 18D8/980C D004       00004  9572    00890000           PEND  ,
 DROP   DINTPWRK-(4+52),R8
 DROP   *,R7
 000C6C 58E0 D000/12FF       00000  9593             +
 000C72 07FE                        9596             +
1UTILS    Wings: DINTCONV - Convert double-word integer                                                                     Page   38
0Current Usings:  (TVT,R11) (GVT,R12)
0Loc    Object Code    Addr1 Addr2  Stmt Lv Lineno    Source Statement           (Hibal 5, Asmedit 3.3)  HLASM R4.0  2002/06/06 10.18
+___    ______ ____    _____ _____  ____ __ ______    ______ _________
0                                   9598    00892000  ¿þþþþþþþþþþþþþþþþþþþþþþþþþþþþþþþþþþþþþþþþþþþþþþþþþþþþþþþþþþþþþþþþþþþþþÜ
                                    9599    00893000  Ÿ                                                                     Ÿ
                                    9600    00894000  Ÿ  DINTCONV - Convert double-word integer to EBCDIC character string  Ÿ
                                    9601    00895000  Ÿ                                                                     Ÿ
                                    9602    00896000  Ÿ  On entry:   (R0,R1) Contains the double-word quantity              Ÿ
                                    9603    00897000  Ÿ              R15     Contains address of a 20-byte work area        Ÿ
                                    9604    00898000  Ÿ                                                                     Ÿ
                                    9605    00899000  Ÿ  On exit:    R0  Contains the length of the coverted number         Ÿ
                                    9606    00900000  Ÿ              R1  Contains the address of the start                  Ÿ
                                    9607    00901000  Ÿ                                                                     Ÿ
                                                      ¾þþþþþþþþþþþþþþþþþþþþþþþþþþþþþþþþþþþþþþþþþþþþþþþþþþþþþþþþþþþþþþþþþþþþþ»
0000000                00000 00020  9609    00903000  NUMCONVW RECORD BEGIN              Number conversion work area
 000000 0000000000000000            9617  1 00904000             DC    3A(0)               Conversion double words
 00000C 402020204B202020            9618  1 00905000  NUMCED     DC    XL20'402020204B2020204B2020204B2020204B202120'
 000020                00020 00020  9619    00906000           END   ,
0000C74 90DF B0D4            000D4  9629    00908000  DINTCONV XPROC NUMCONVW            Enter and obtain work area
 000C78 58F0 C014/0DEF       00014  9642             +
 000C7E C4C9D5E3C3D6D5E5            9644             +
 000C86 98DF B0D4            000D4  9645             +
 000C8A 50E0 D000            00000  9648             +
 000C8E 900C D004/188D       00004  9651             +
 000C94 41D0 D058/0D70       00058  9654             +
 000C9A 184F                        9686    00909000           LR    R4,R15              SAVE ADDRESS OF PASSED WORK AREA
 USING  *,R7
 USING  NUMCONVW-(4+52),R8
 000C9C 4130 8038            00000  9687    00910000           LA    R3,NUMCONVW         Start of work area
 000CA0 4130 3007            00007  9688    00911000           LA    R3,@R3+7              Round up to double word
 000CA4 5430 767E            01318  9689    00912000           N     R3,=A(X'FFFFFFFC')      Guarantee double word bndry
 000CA8 18F3                        9690    00913000           LR    R15,R3              Set address of double word
 000CAA 58E0 7682/0DEE       0131C  9691    00914000           ACALL DINTPACK            Convert to packed decimal
 000CB0 D213 4000 704C 00000 00CE6  9695    00915000           MVC   @R4(20),NUMCONV2    Move in edit mask
 000CB6 4110 4013            00013  9696    00916000           LA    R1,@R4+19           ->lo digit in case 0    ML940215
 000CBA DF13 4000 3000 00000 00000  9697    00917000           EDMK  @R4(20),@R3         Edit value
 000CC0 1F14                        9698    00918000           SLR   R1,R4               Compute length of zero digits
 000CC2 4141 4000            00000  9699    00919000           LA    R4,@R4(R1)          Point to first non-zero digit
 000CC6 4100 0014            00014  9700    00920000           LA    R0,20               Set maximum length
 000CCA 1F01                        9701    00921000           SLR   R0,R1               Compute converted string length
 000CCC 1814                        9702    00922000           LR    R1,R4               Move in address to return
 000CCE 9001 8004            00004  9703    00923000           PRETURN (R0,R1)           Return location and length
 000CD2 18D8/980C D004       00004  9705    00924000           PEND  ,
 DROP   NUMCONVW-(4+52),R8
 DROP   *,R7
 000CD8 58E0 D000/12FF       00000  9726             +
 000CDE 07FE                        9729             +
 000CE0 04294967296C                9730    00925000  NUMCONV1 DC    PL6'4294967296'
 000CE6 402020206B202020            9731    00926000  NUMCONV2 DC    XL20'402020206B2020206B2020206B2020206B202120'
1UTILS    Wings: DINTCONV - Convert double-word integer                                                                     Page   39
0Current Usings:  (TVT,R11) (GVT,R12)
0Loc    Object Code    Addr1 Addr2  Stmt Lv Lineno    Source Statement           (Hibal 5, Asmedit 3.3)  HLASM R4.0  2002/06/06 10.18
+___    ______ ____    _____ _____  ____ __ ______    ______ _________
0                                   9733    00928000  ¿þþþþþþþþþþþþþþþþþþþþþþþþþþþþþþþþþþþþþþþþþþþþþþþþþþþþþþþþþþþþþþþþþþþþþÜ
                                    9734    00929000  Ÿ                                                                     Ÿ
                                    9735    00930000  Ÿ  TOUPPER -- Routine to convert text to all upper case.              Ÿ
                                    9736    00931000  Ÿ                                                                     Ÿ
                                    9737    00932000  Ÿ    On entry:                                                        Ÿ
                                    9738    00933000  Ÿ      R1,R0 - text loc, len                                          Ÿ
                                    9739    00934000  Ÿ                                                                     Ÿ
                                    9740    00935000  Ÿ    On exit:                                                         Ÿ
                                    9741    00936000  Ÿ      R1,R0 - translated text loc, len                               Ÿ
                                    9742    00937000  Ÿ              (the text is translated in place)                      Ÿ
                                    9743    00938000  Ÿ                                                                     Ÿ
                                                      ¾þþþþþþþþþþþþþþþþþþþþþþþþþþþþþþþþþþþþþþþþþþþþþþþþþþþþþþþþþþþþþþþþþþþþþ»
0000CFA 90DF B0D4            000D4  9744    00939000  TOUPPER  XPROC
 000CFE 58F0 C014/0DEF       00014  9756             +
 000D04 E3D6E4D7D7C5D940            9758             +
 000D0C 98DF B0D4            000D4  9759             +
 000D10 50E0 D000            00000  9762             +
 000D14 900C D004/188D       00004  9765             +
 000D1A 41D0 D038/0D70       00038  9767             +
 000D20 4120 7038            00D58  9790    00940000           LA    R2,UPPTBL           Upper case only xl table
 USING  *,R7
                                    9791    00941000
 000D24 1200/47D0 702A       00D4A  9792    00942000           WHILE (R0,POS),BEGIN      Translate text...
 000D2A 18F0                        9808  1 00943000             LR    R15,R0
 000D2C 59F0 7600            01320  9809  1 00944000             CEIL  R15,256
 000D30 47D0 7018            00D38  9818  1          +
 000D34 58F0 7600            01320  9823  1          +
 000D38 06F0/44F0 7646       01366  9828  1 00945000             DEX   R15,'TR @R1,@R2'    To upper case only
 001365 00                                2          +
 001366 DC00 1000 2000 00000 00000  9839  1          +
                                    9847  1 00946000  *
 000D3E 4110 1100            00100  9848  1 00947000             LA    R1,@R1+256
 000D42 4B00 7638            01358  9849  1 00948000             SH    R0,=H'256'
 000D46 47F0 7004            00D24  9850    00949000           END
 000D4A 18D8/980C D004       00004  9855    00950000           PEND
 DROP   *,R7
 000D50 58E0 D000/12FF       00000  9871             +
 000D56 07FE                        9874             +
                                    9875    00951000  þþþþ
 000D58 0001020304050607            9876    00952000  UPPTBL   DC    256AL1(*-UPPTBL)
 000E58                00E58 00DD9  9877    00953000           ORG   UPPTBL+C'a'         Lowercase
 000DD9 C1C2C3C4C5C6C7C8            9878    00954000           DC    C'ABCDEFGHI'
 000DE2                00DE2 00DE9  9879    00955000           ORG   UPPTBL+C'j'         Lowercase
 000DE9 D1D2D3D4D5D6D7D8            9880    00956000           DC    C'JKLMNOPQR'
 000DF2                00DF2 00DFA  9881    00957000           ORG   UPPTBL+C's'         Lowercase
 000DFA E2E3E4E5E6E7E8E9            9882    00958000           DC    C'STUVWXYZ'
 000E02                00E02 00E58  9883    00959000           ORG
1UTILS    Wings: DINTCONV - Convert double-word integer                                                                     Page   40
0Current Usings:  (TVT,R11) (GVT,R12)
0Loc    Object Code    Addr1 Addr2  Stmt Lv Lineno    Source Statement           (Hibal 5, Asmedit 3.3)  HLASM R4.0  2002/06/06 10.18
+___    ______ ____    _____ _____  ____ __ ______    ______ _________
0                                   9885    00961000  ¿þþþþþþþþþþþþþþþþþþþþþþþþþþþþþþþþþþþþþþþþþþþþþþþþþþþþþþþþþþþþþþþþþþþþþÜ
                                    9886    00962000  Ÿ                                                                     Ÿ
                                    9887    00963000  Ÿ  decimal to binary conversion                                       Ÿ
                                    9888    00964000  Ÿ                                                                     Ÿ
                                                      ¾þþþþþþþþþþþþþþþþþþþþþþþþþþþþþþþþþþþþþþþþþþþþþþþþþþþþþþþþþþþþþþþþþþþþþ»
0000E58 50E0 D000            00000  9889    00965000  DTB      XPROC (R2,LSR),TRACE=NO
 000E5C 902C D004/188D       00004  9903             +
 000E62 41D0 D030/0D70       00030  9905             +
 000E68 1BFF                        9928    00966000           CLEAR R15                 Clear result
 USING  *,R7
 000E6A 1200                        9932    00967000  DTBL     LTR   R0,R0               Done?
 000E6C 47D0 7032            00E9A  9933    00968000           BNP   DTBX
 000E70 95F0 1000      00000        9934    00969000           CLI   @R1,C'0'            Digit?
 000E74 4740 7032            00E9A  9935    00970000           BL    DTBX                Br if too low
 000E78 95F9 1000      00000        9936    00971000           CLI   @R1,C'9'
 000E7C 4720 7032            00E9A  9937    00972000           BH    DTBX                Br if too high
 000E80 1F22/4320 1000       00000  9938    00973000           LC    R2,@R1
 000E86 5F20 74BC            01324  9945    00974000           SL    R2,=A(C'0')
 000E8A 4CF0 74F2            0135A  9946    00975000           MH    R15,=H'10'          Build result
 000E8E 1EF2                        9947    00976000           ALR   R15,R2
 000E90 4110 1001            00001  9948    00977000           LA    R1,@R1+1
 000E94 0600                        9949    00978000           DECR  R0
 000E96 47F0 7002            00E6A  9951    00979000           B     DTBL
 000E9A 18D8/982C D004       00004  9952    00980000  DTBX     PEND  *
 DROP   *,R7
 000EA0 58E0 D000/07FE       00000  9969             +
1UTILS    Wings: DINTCONV - Convert double-word integer                                                                     Page   41
0Current Usings:  (TVT,R11) (GVT,R12)
0Loc    Object Code    Addr1 Addr2  Stmt Lv Lineno    Source Statement           (Hibal 5, Asmedit 3.3)  HLASM R4.0  2002/06/06 10.18
+___    ______ ____    _____ _____  ____ __ ______    ______ _________
0                                   9973    00982000  ¿þþþþþþþþþþþþþþþþþþþþþþþþþþþþþþþþþþþþþþþþþþþþþþþþþþþþþþþþþþþþþþþþþþþþþÜ
                                    9974    00983000  Ÿ                                                                     Ÿ
                                    9975    00984000  Ÿ  hexadecimal to binary conversion                                   Ÿ
                                    9976    00985000  Ÿ                                                                     Ÿ
                                    9977    00986000  Ÿ  On entry:   R0  Contains the length of the hex string              Ÿ
                                    9978    00987000  Ÿ              R1  Contains the address of the hex string             Ÿ
                                    9979    00988000  Ÿ                                                                     Ÿ
                                    9980    00989000  Ÿ  On exit:    R15 Contains the converted hex value                   Ÿ
                                    9981    00990000  Ÿ                                                                     Ÿ
                                                      ¾þþþþþþþþþþþþþþþþþþþþþþþþþþþþþþþþþþþþþþþþþþþþþþþþþþþþþþþþþþþþþþþþþþþþþ»
0000EA6 50E0 D000            00000  9982    00991000  XTB      XPROC (R2,LSR),TRACE=NO
 000EAA 902C D004/188D       00004  9996             +
 000EB0 41D0 D030/0D70       00030  9998             +
 000EB6 1BFF                       10021    00992000           CLEAR R15
 USING  *,R7
 000EB8 1200                       10025    00993000  XTBL     LTR   R0,R0               Done?
 000EBA 47D0 704A            00F00 10026    00994000           BNP   XTBX                Br if so
 000EBE 1F22/4320 1000       00000 10027    00995000           LC    R2,@R1              Pick up digit
 000EC4 95C1 1000      00000       10034    00996000           CLI   @R1,C'A'
 000EC8 4740 7026            00EDC 10035    00997000           BL    XTBN
 000ECC 95C6 1000      00000       10036    00998000           CLI   @R1,C'F'
 000ED0 4720 7026            00EDC 10037    00999000           BH    XTBN
 000ED4 5F20 7472            01328 10038    01000000           SL    R2,=A(C'A'-10)
 000ED8 47F0 703A            00EF0 10039    01001000           B     XTBB
                                   10040    01002000
 000EDC 95F0 1000      00000       10041    01003000  XTBN     CLI   @R1,C'0'
 000EE0 4740 704A            00F00 10042    01004000           BL    XTBX
 000EE4 95F9 1000      00000       10043    01005000           CLI   @R1,C'9'
 000EE8 4720 704A            00F00 10044    01006000           BH    XTBX
 000EEC 5F20 746E            01324 10045    01007000           SL    R2,=A(C'0')
 000EF0 89F0 0004            00004 10046    01008000  XTBB     SLL   R15,4               Add new digit in
 000EF4 16F2                       10047    01009000           OR    R15,R2
 000EF6 4110 1001            00001 10048    01010000           LA    R1,@R1+1            Next digit
 000EFA 0600                       10049    01011000           DECR  R0
 000EFC 47F0 7002            00EB8 10051    01012000           B     XTBL
                                   10052    01013000
 000F00 18D8/982C D004       00004 10053    01014000  XTBX     PEND  *
 DROP   *,R7
 000F06 58E0 D000/07FE       00000 10070             +
1UTILS    Wings: DINTCONV - Convert double-word integer                                                                     Page   42
0Current Usings:  (TVT,R11) (GVT,R12)
0Loc    Object Code    Addr1 Addr2  Stmt Lv Lineno    Source Statement           (Hibal 5, Asmedit 3.3)  HLASM R4.0  2002/06/06 10.18
+___    ______ ____    _____ _____  ____ __ ______    ______ _________
0                                  10074    01016000  ¿þþþþþþþþþþþþþþþþþþþþþþþþþþþþþþþþþþþþþþþþþþþþþþþþþþþþþþþþþþþþþþþþþþþþþÜ
                                   10075    01017000  Ÿ                                                                     Ÿ
                                   10076    01018000  Ÿ  binary to decimal conversion                                       Ÿ
                                   10077    01019000  Ÿ                                                                     Ÿ
                                                      ¾þþþþþþþþþþþþþþþþþþþþþþþþþþþþþþþþþþþþþþþþþþþþþþþþþþþþþþþþþþþþþþþþþþþþþ»
0000F0C 50E0 D000            00000 10078    01020000  BTD      XPROC (R2,LSR),WA,TRACE=NO
 000F10 902C D004/188D       00004 10092             +
 000F16 41D0 D064/0D70       00064 10095             +
 000F1C 4160 8034            00004 10127    01021000           LA    R6,DW               Get a double word
 USING  *,R7
 USING  WA-(4+44),R8
 000F20 5460 7410            0132C 10128    01022000           N     R6,=X'FFFFFFF8'     down to doubleword bdy.
 USING  DEC,R6                     10129    01023000           WITH  (DEC,R6)
 000F24 4EF0 6000            00000 10142    01024000           CVD   R15,DEC             Convert number to packed
 000F28 D20F 8040 705C 00010 00F78 10143    01025000           MVC   HEXS(16),ED15       Edit mask
 000F2E 1841                       10144    01026000           LR    R4,1                Save result loc.
 000F30 4110 804F            0001F 10145    01027000           LA    R1,HEXS+15
 000F34 DF0F 8040 6000 00010 00000 10146    01028000           EDMK  HEXS(16),DEC
 000F3A 12FF                       10147    01029000           LTR   R15,R15             Negative?
 000F3C 47B0 702A            00F46 10148    01030000           BNM   *+10                Br if not
 000F40 0610                       10149    01031000           DECR  R1                  Put in a sign
 000F42 9260 1000      00000       10151    01032000           MVI   @R1,C'-'
 000F46 4130 8050            00020 10152    01033000           LA    R3,HEXS+16          Compute actual length
 000F4A 1B31                       10153    01034000           SR    R3,R1
 000F4C 1814                       10154    01035000           LR    R1,R4               Restore result pointer
 000F4E 1200                       10155    01036000           LTR   R0,R0               Field size given?
 000F50 4720 703C            00F58 10156    01037000           BP    *+8                 Br if so
 000F54 1300                       10157    01038000           LCR   R0,R0
 000F56 1A03                       10158    01039000           AR    R0,R3               Compute field size
 000F58 1830                       10159    01040000           LR    R3,R0               Field length
 000F5A 4120 8050            00020 10160    01041000           LA    R2,HEXS+16          Compute starting addr
 000F5E 1B23                       10161    01042000           SR    R2,R3
 000F60 0630/4430 7056       00F72 10162    01043000           DEX   R3,BTDMV            Move to result loc.
 000F66 18D8/982C D004       00004 10167    01044000           PEND  *
 DROP   DEC,R6
 DROP   WA-(4+44),R8
 DROP   *,R7
 000F6C 58E0 D000/07FE       00000 10193             +
                                   10196    01045000
 000F72 D200 1000 2000 00000 00000 10197    01046000  BTDMV    MVC   @R1,@R2
                                   10198    01047000
 000F78 4020202020202020           10199    01048000  ED15     DC    C' ',13X'20',X'2120'
1UTILS    Wings: DINTCONV - Convert double-word integer                                                                     Page   43
0Current Usings:  (TVT,R11) (GVT,R12)
0Loc    Object Code    Addr1 Addr2  Stmt Lv Lineno    Source Statement           (Hibal 5, Asmedit 3.3)  HLASM R4.0  2002/06/06 10.18
+___    ______ ____    _____ _____  ____ __ ______    ______ _________
0                                  10201    01050000  ¿þþþþþþþþþþþþþþþþþþþþþþþþþþþþþþþþþþþþþþþþþþþþþþþþþþþþþþþþþþþþþþþþþþþþþÜ
                                   10202    01051000  Ÿ                                                                     Ÿ
                                   10203    01052000  Ÿ  binary to hexadecimal conversion                                   Ÿ
                                   10204    01053000  Ÿ                                                                     Ÿ
                                                      ¾þþþþþþþþþþþþþþþþþþþþþþþþþþþþþþþþþþþþþþþþþþþþþþþþþþþþþþþþþþþþþþþþþþþþþ»
0000F88 50E0 D000            00000 10205    01054000  BTX      XPROC (R2,LSR),WA,TRACE=NO
 000F8C 902C D004/188D       00004 10219             +
 000F92 41D0 D064/0D70       00064 10222             +
 000F98 50F0 803C            0000C 10254    01055000           ST    R15,HEXW            Word to be converted
 USING  *,R7
 USING  WA-(4+44),R8
 000F9C F384 8040 803C 00010 0000C 10255    01056000           UNPK  HEXS(9),HEXW(5)     To zoned format
 000FA2 DC07 8040 7A86 00010 01A1E 10256    01057000           TR    HEXS(8),HEXTBL-C'0' To hex format
 000FA8 1230                       10257    01058000           LTR   R3,R0               Length
 000FAA 4780 7026            00FBE 10258    01059000           BZ    BTX0                Zero means calculate it
 000FAE 4120 8048            00018 10259    01060000           LA    R2,HEXS+8           Compute addr to move from
 000FB2 1B23                       10260    01061000           SR    R2,R3
 000FB4 0630                       10261    01062000           DECR  R3
 000FB6 4430 7056            00FEE 10263    01063000  BTXC     EX    R3,HEXMV            Move to users area
 000FBA 47F0 704A            00FE2 10265    01064000           EXIT
                                   10268    01065000
 000FBE 4120 803F            0000F 10269    01066000  BTX0     LA    R2,HEXS-1
 000FC2 4130 0007            00007 10270    01067000           LA    R3,7
 000FC6 4120 2001            00001 10271    01068000  BTXCHK0  LA    R2,@R2+1            Bump
 000FCA 95F0 2000      00000       10272    01069000           CLI   @R2,C'0'            Start of non-zero stuff?
 000FCE 4770 7042            00FDA 10273    01070000           BNE   BTXX                No, branch
 000FD2 4630 702E            00FC6 10274    01071000           BCT   R3,BTXCHK0          Loop if not last dig
 000FD6 4120 2001            00001 10275    01072000           LA    R2,@R2+1            Point to last digit
 000FDA 4100 3001            00001 10276    01073000  BTXX     LA    R0,@R3+1            Get real length in r0
                                   10277    01074000  *              now return with r3 having the length in ex form
 000FDE 47F0 701E            00FB6 10278    01075000           B     BTXC
                                   10279    01076000
 000FE2 18D8/982C D004       00004 10280    01077000           PEND  *
 DROP   WA-(4+44),R8
 DROP   *,R7
 000FE8 58E0 D000/07FE       00000 10301             +
                                   10304    01078000
 000FEE D200 1000 2000 00000 00000 10305    01079000  HEXMV    MVC   @R1,@R2
1UTILS    Wings: DINTCONV - Convert double-word integer                                                                     Page   44
0Current Usings:  (TVT,R11) (GVT,R12)
0Loc    Object Code    Addr1 Addr2  Stmt Lv Lineno    Source Statement           (Hibal 5, Asmedit 3.3)  HLASM R4.0  2002/06/06 10.18
+___    ______ ____    _____ _____  ____ __ ______    ______ _________
0                                  10307    01081000  ¿þþþþþþþþþþþþþþþþþþþþþþþþþþþþþþþþþþþþþþþþþþþþþþþþþþþþþþþþþþþþþþþþþþþþþÜ
                                   10308    01082000  Ÿ                                                                     Ÿ
                                   10309    01083000  Ÿ  binary to real conversion                                          Ÿ
                                   10310    01084000  Ÿ                                                                     Ÿ
                                                      ¾þþþþþþþþþþþþþþþþþþþþþþþþþþþþþþþþþþþþþþþþþþþþþþþþþþþþþþþþþþþþþþþþþþþþþ»
0000FF4 50E0 D000            00000 10311    01085000  BTR      XPROC (R2,LSR),WA,TRACE=NO
 000FF8 902C D004/188D       00004 10325             +
 000FFE 41D0 D064/0D70       00064 10328             +
 USING  *,R7                       10360    01086000  *** r15 has value, r1 has output addr, r0 = length*256+no of digits
 USING  WA-(4+44),R8
 001004 4160 8034            00004 10361    01087000           LA    R6,DW               Set up
 001008 5460 72F8            012FC 10362    01088000           N     R6,=F'-8'           Double word
 USING  DEC,R6                     10363    01089000           WITH  (DEC,R6)
 00100C 1851                       10376    01090000           LR    R5,R1               Save output pointer
 00100E 4EF0 6000            00000 10377    01091000           CVD   R15,DEC
 001012 4120 0007            00007 10378    01092000           LA    R2,X'07'            Get number
 001016 1420                       10379    01093000           NR    R2,R0               ...of digits
 001018 4132 7AF2            01AF6 10380    01094000           LA    R3,BTREDMSK(R2)     Get start of mask to use
 00101C 4110 805F            0002F 10381    01095000           LA    R1,REDITWA+15       Default starting point
 001020 1B12                       10382    01096000           SR    R1,R2               Minus offset
 001022 D210 8050 3000 00020 00000 10383    01097000           MVC   REDITWA,@R3         Get mask
 001028 9240 8050      00020       10384    01098000           MVI   REDITWA,C' '        First byte is pad char
 00102C DF10 8050 6000 00020 00000 10385    01099000           EDMK  REDITWA,DEC         Edit number
 001032 12FF/47B0 703A       0103E 10386    01100000           IF    (R15,NEG),'DECR R1; MVI @R1,C"-"'
 001038 0610/9260 1000 00000       10402             +
 00103E 8A00 0008            00008 10408    01101000           SRA   R0,8                Get number of digits to produce
 001042 4770 7048            0104C 10409    01102000           IF    Z,BEGIN             If 0, use as much as necessary
 001046 4100 8061            00031 10420  1 01103000             LA    R0,REDITWA+L'REDITWA  r1 points to start,
 00104A 1B01                       10421  1 01104000             SR    R0,R1               Get length in r0
 00104C                            10422    01105000           END
 00104C 704C           0104C 01044 10426    01106000           ELSE  BEGIN
 00104C 47F0 7052            01056 10431             +
 001050 4110 8061            00031 10437  1 01107000             LA    R1,REDITWA+L'REDITWA  r0 has length,
 001054 1B10                       10438  1 01108000             SR    R1,R0               Get start in r1
 001056                            10439    01109000           END
 001056 1820                       10443    01110000           LR    R2,R0               Length in r2 for execute
 001058 0620/4420 7368       0136C 10444    01111000           DEX   R2,'MVC @R5,@R1'    Move to output area
 00136C D200 5000 1000 00000 00000 10455             +
 00105E 1815                       10463    01112000           LR    R1,R5               Set r1 to point to output
 001060 18D8/982C D004       00004 10464    01113000           PEND
 DROP   DEC,R6
 DROP   WA-(4+44),R8
 DROP   *,R7
 001066 58E0 D000/12FF       00000 10490             +
 00106C 07FE                       10493             +
1UTILS    Wings: DINTCONV - Convert double-word integer                                                                     Page   45
0Current Usings:  (TVT,R11) (GVT,R12)
0Loc    Object Code    Addr1 Addr2  Stmt Lv Lineno    Source Statement           (Hibal 5, Asmedit 3.3)  HLASM R4.0  2002/06/06 10.18
+___    ______ ____    _____ _____  ____ __ ______    ______ _________
0                                  10495    01115000  ¿þþþþþþþþþþþþþþþþþþþþþþþþþþþþþþþþþþþþþþþþþþþþþþþþþþþþþþþþþþþþþþþþþþþþþÜ
                                   10496    01116000  Ÿ                                                                     Ÿ
                                   10497    01117000  Ÿ  HEXCONV/HEXSTR -- Routine to convert hex digits to binary.         Ÿ
                                   10498    01118000  Ÿ                                                                     Ÿ
                                   10499    01119000  Ÿ    On entry:                                                        Ÿ
                                   10500    01120000  Ÿ      R1,R0 - string loc,len                                         Ÿ
                                   10501    01121000  Ÿ      R15   - output string loc (only for "HEXSTR" entry)            Ÿ
                                   10502    01122000  Ÿ                                                                     Ÿ
                                   10503    01123000  Ÿ    On exit, CC:                                                     Ÿ
                                   10504    01124000  Ÿ      neg   - bad hex string (R1,R0 - as on entry)                   Ÿ
                                   10505    01125000  Ÿ      z,pos - hex string converted. CC set by string len.            Ÿ
                                   10506    01126000  Ÿ                (R1,R0 - string loc, len)                            Ÿ
                                   10507    01127000  Ÿ                                                                     Ÿ
                                                      ¾þþþþþþþþþþþþþþþþþþþþþþþþþþþþþþþþþþþþþþþþþþþþþþþþþþþþþþþþþþþþþþþþþþþþþ»
0000000                00000 00008 10508    01128000  HXWA     RECORD BEGIN
 000000                            10516  1 01129000  HXDOUB     DS    D                   Working double word
 000008                00008 00008 10517    01130000           END
                                   10526    01131000  þþþþ
 00106E 18F1                       10527    01132000  HEXCONV  LR    R15,R1              Convert to hex in place
                                   10528    01133000
 001070 90DF B0D4            000D4 10529    01134000  HEXSTR   XPROC (R2,LSR),HXWA
 001074 58F0 C014/0DEF       00014 10541             +
 00107A C8C5E7E2E3D94040           10543             +
 001082 98DF B0D4            000D4 10544             +
 001086 50E0 D000            00000 10547             +
 00108A 902C D004/188D       00004 10550             +
 001090 41D0 D038/0D70       00038 10553             +
 001096 957D 1000      00000       10585    01135000           IF    ((@R1,EQ,''''),OR,(@R1,EQ,'"')),BEGIN  string quotes...
 USING  *,R7
 USING  HXWA-(4+44),R8
 00109A 4780 7010            010A6 10600             +
 00109E 957F 1000      00000       10610             +
 0010A2 4770 7018            010AE 10611             +
 0010A6 4110 1001            00001 10616  1 01136000             LA    R1,@R1+1
 0010AA 4B00 72C6            0135C 10617  1 01137000             SH    R0,=H'2'
 0010AE                            10618    01138000           END
                                   10622    01139000
 0010AE 9001 D000            00000 10623    01140000           XPUSH R0,R1               Ptrs restored if bad hex
 0010B2 41D0 D008            00008 10625             +
                                   10626    01141000
 0010B6 186F                       10627    01142000           LR    R6,R15              Output string ptr
 0010B8 1B55                       10628    01143000           CLEAR R5                  Output string len
 0010BA 1B44/1B33                  10632    01144000           CLEAR R4,R3               Ic regs
                                   10638    01145000
 0010BE 1200/47D0 70D0       01166 10639    01146000           WHILE (R0,POS),BEGIN
 0010C4 5000 8030            00000 10655  1 01147000             ST    R0,HXDOUB
 0010C8 9101 8033      00003       10656  1 01148000             IF    HXDOUB+3.1,BEGIN    Odd no. of digits...
 0010CC 47E0 704A            010E0 10667  1          +
 0010D0 92F0 8030      00000       10672  2 01149000               MVI   HXDOUB,C'0'
 0010D4 D200 8031 1000 00001 00000 10673  2 01150000               MVC   HXDOUB+1(1),@R1
 0010DA 4110 1001            00001 10674  2 01151000               LA    R1,@R1+1
 0010DE 0600                       10675  2 01152000               DECR  R0
 0010E0                            10677  1 01153000             END
1UTILS    Wings: DINTCONV - Convert double-word integer                                                                     Page   46
0Current Usings:  (*,R7) (HXWA-(4+44),R8) (TVT,R11) (GVT,R12)
0Loc    Object Code    Addr1 Addr2  Stmt Lv Lineno    Source Statement           (Hibal 5, Asmedit 3.3)  HLASM R4.0  2002/06/06 10.18
+___    ______ ____    _____ _____  ____ __ ______    ______ _________
00010E0 704E           010E0 010CE 10681  1 01154000             ELSE  BEGIN               Even no. of digits...
 0010E0 47F0 705C            010F2 10686  1          +
 0010E4 D201 8030 1000 00000 00000 10692  2 01155000               MVC   HXDOUB(2),@R1
 0010EA 4110 1002            00002 10693  2 01156000               LA    R1,@R1+2            Kick ptr
 0010EE 4B00 72C8            0135E 10694  2 01157000               SH    R0,=Y(2)            & remaining len
 0010F2                            10695  1 01158000             END
 0010F2 D601 8030 C0E0 00000 000E0 10699  1 01159000             OC    HXDOUB(2),GVTBLANK  Upper case
                                   10700  1 01160000  *  first digit...
 0010F8 95C1 8030      00000       10701  1 01161000             IF    (HXDOUB,LT,'A'),HEXBAD
 0010FC 4740 70D8            0116E 10715  1          +
 001100 4330 8030            00000 10721  1 01162000             IC    R3,HXDOUB           Get char
 001104 4120 00B7            000B7 10722  1 01163000             LA    R2,C'A'-10          Assume alpha adjustment
 001108 95C6 8030      00000       10723  1 01164000             IF    (HXDOUB,GT,'F'),BEGIN
 00110C 47D0 708E            01124 10735  1          +
 001110 95F0 8030      00000       10740  2 01165000               IF    ((HXDOUB,LT,'0'),OR,(HXDOUB,GT,'9')),HEXBAD
 001114 4740 70D8            0116E 10756  2          +
 001118 95F9 8030      00000       10767  2          +
 00111C 4720 70D8            0116E 10770  2          +
 001120 4120 00F0            000F0 10776  2 01166000               LA    R2,C'0'             Numeric adjustment
 001124                            10777  1 01167000             END
 001124 1B32                       10781  1 01168000             SR    R3,R2               Binary
                                   10782  1 01169000  *  second digit...
 001126 95C1 8031      00001       10783  1 01170000             IF    (HXDOUB+1,LT,'A'),HEXBAD
 00112A 4740 70D8            0116E 10797  1          +
 00112E 4340 8031            00001 10803  1 01171000             IC    R4,HXDOUB+1         Get char
 001132 4120 00B7            000B7 10804  1 01172000             LA    R2,C'A'-10          Assume alpha adjustment
 001136 95C6 8031      00001       10805  1 01173000             IF    (HXDOUB+1,GT,'F'),BEGIN
 00113A 47D0 70BC            01152 10817  1          +
 00113E 95F0 8031      00001       10822  2 01174000               IF    ((HXDOUB+1,LT,'0'),OR,(HXDOUB+1,GT,'9')),HEXBAD
 001142 4740 70D8            0116E 10838  2          +
 001146 95F9 8031      00001       10849  2          +
 00114A 4720 70D8            0116E 10852  2          +
 00114E 4120 00F0            000F0 10858  2 01175000               LA    R2,C'0'             Numeric adjustment
 001152                            10859  1 01176000             END
 001152 1B42                       10863  1 01177000             SR    R4,R2               Binary
                                   10864  1 01178000
 001154 8930 0004            00004 10865  1 01179000             SLL   R3,4                Move high byte over
 001158 1A34                       10866  1 01180000             AR    R3,R4               Form byte
 00115A 4235 6000            00000 10867  1 01181000             STC   R3,@R6(R5)
 00115E 4150 5001            00001 10868  1 01182000             LA    R5,@R5+1
 001162 47F0 7028            010BE 10869    01183000           END
 001166 1816                       10874    01184000           LR    R1,R6               Loc
 001168 1205                       10875    01185000           LTR   R0,R5               Len
 00116A 47F0 70E2            01178 10876    01186000           B     HEXEXIT
                                   10877    01187000
 00116E 4BD0 72CA            01360 10878    01188000  HEXBAD   XPOP  R0,R1               Restore orig ptrs
 001172 9801 D000            00000 10880             +
 001176 11F7                       10881    01189000           LNR   R15,BR              Set cc=neg
 001178 18D8/982C D004       00004 10882    01190000  HEXEXIT  PEND
 DROP   HXWA-(4+44),R8
 DROP   *,R7
 00117E 58E0 D000/12FF       00000 10904             +
 001184 07FE                       10907             +
1UTILS    Wings: DINTCONV - Convert double-word integer                                                                     Page   47
0Current Usings:  (TVT,R11) (GVT,R12)
0Loc    Object Code    Addr1 Addr2  Stmt Lv Lineno    Source Statement           (Hibal 5, Asmedit 3.3)  HLASM R4.0  2002/06/06 10.18
+___    ______ ____    _____ _____  ____ __ ______    ______ _________
0                                  10909    01192000  ¿þþþþþþþþþþþþþþþþþþþþþþþþþþþþþþþþþþþþþþþþþþþþþþþþþþþþþþþþþþþþþþþþþþþþþÜ
                                   10910    01193000  Ÿ                                                                     Ÿ
                                   10911    01194000  Ÿ   FMTXDATE -- Routine to format Arpa-style time/date from TOD       Ÿ
                                   10912    01195000  Ÿ     clock.                                                          Ÿ
                                   10913    01196000  Ÿ                                                                     Ÿ
                                   10914    01197000  Ÿ     On entry:                                                       Ÿ
                                   10915    01198000  Ÿ       R0-R1 - 64 bit clock (zero = current time/date)               Ÿ
                                   10916    01199000  Ÿ       R15   - return area (32 bytes)                                Ÿ
                                   10917    01200000  Ÿ                                                                     Ÿ
                                   10918    01201000  Ÿ     On exit:                                                        Ÿ
                                   10919    01202000  Ÿ       R1,R0 - text loc, len                                         Ÿ
                                   10920    01203000  Ÿ               returns: DAY, dd MON yy hh:mm:ss ZON                  Ÿ
                                   10921    01204000  Ÿ                                                                     Ÿ
                                                      ¾þþþþþþþþþþþþþþþþþþþþþþþþþþþþþþþþþþþþþþþþþþþþþþþþþþþþþþþþþþþþþþþþþþþþþ»
0001186 50E0 D000            00000 10922    01205000  FMTXDATE XPROC (R2,LSR),WA,TRACE=NO
 00118A 902C D004/188D       00004 10936             +
 001190 41D0 D064/0D70       00064 10939             +
 001196 186F                       10971    01206000           LR    R6,R15
 USING  *,R7
 USING  WA-(4+44),R8
 001198 D21F 6000 C0E0 00000 000E0 10972    01207000           MVC   @R6(32),GVTBLANK
                                   10973    01208000
 00119E 1200/4770 7028       011BE 10974    01209000           IF    ((R0,Z),AND,(R1,Z)),BEGIN   get time
 0011A4 1211/4770 7028       011BE 10995             +
 0011AA B205 8034      00004       11001  1 01209100             STCK  DW                  system clock
 0011AE 9801 8034            00004 11002  1 01209200             LM    R0,R1,DW
 0011B2 5820 0010            00010 11003  1 01209300             L     R2,CVTPTR
 0011B6 5E00 2130            00130 11004  1 01209400             WITH  (CVT,R2),'AL R0,CVTTZ'  Time zone adjustment
 USING  CVT,R2
 DROP   CVT,R2
 0011BA 5000 8034            00004 11028  1 01210000             ST    R0,DW               save adjusted time
 0011BE                            11029    01210010           END   ,                      (get time)
 0011BE 1840                       11033    01210100           LR    R4,R0
 0011C0 1851                       11034    01211000           LR    R5,R1
                                   11035    01212000           ¿þþþþþþþþþþþþþþþþþþþþþþþþþþþÜ
                                   11036    01213000           Ÿ  Format day of the week.  Ÿ
                                   11037    01214000           ¾þþþþþþþþþþþþþþþþþþþþþþþþþþþ»
 0011C2 4DE0 7546            016DC 11038    01215000           LCALL FMTDAY              Get day of the week
 0011C6 50F0 803C            0000C 11040    01216000           ST    R15,SAVEDAY         Save day number
 0011CA D202 6000 1000 00000 00000 11041    01217000           MVC   @R6(3),@R1          Move in first three chars
 0011D0 94BF 6001      00001       11042    01218000           NI    @R6+1,255-C' '      (Lower case)
 0011D4 94BF 6002      00002       11043    01219000           NI    @R6+2,255-C' '      (Lower case)
                                   11044    01220000
 0011D8 926B 6003      00003       11045    01221000           MVI   @R6+3,C','
                                   11046    01222000           ¿þþþþþþþþþþþþþþþþÜ
                                   11047    01223000           Ÿ  Format date.  Ÿ
                                   11048    01224000           ¾þþþþþþþþþþþþþþþþ»
 0011DC 1804                       11049    01225000           LR    R0,R4
 0011DE 1815                       11050    01226000           LR    R1,R5
 0011E0 41F0 8034            00004 11051    01227000           LA    R15,DW              Point to 8 byte area
 0011E4 4DE0 73D0            01566 11052    01228000           LCALL FMTDATE             mm/dd/yy
 0011E8 D201 6005 1003 00005 00003 11054    01229000           MVC   @R6+5(2),@R1+3      "dd"
 0011EE 95F0 6005      00005       11055    01230000           IF    (@R6+5,EQ,'0'),'MVI @R6+5,C" "'  Blank leading zero
1UTILS    Wings: DINTCONV - Convert double-word integer                                                                     Page   48
0Current Usings:  (*,R7) (WA-(4+44),R8) (TVT,R11) (GVT,R12)
0Loc    Object Code    Addr1 Addr2  Stmt Lv Lineno    Source Statement           (Hibal 5, Asmedit 3.3)  HLASM R4.0  2002/06/06 10.18
+___    ______ ____    _____ _____  ____ __ ______    ______ _________
00011F2 4770 7064            011FA 11066             +
 0011F6 9240 6005      00005       11072             +
                                   11077    01231000
 0011FA D201 600C 1006 0000C 00006 11078    01232000           MVC   @R6+12(2),@R1+6     "yy"
                                   11079    01233000
 001200 1821                       11080    01234000           LR    R2,R1
 001202 4110 2003            00003 11081    01235000           DTB   @R2+3,2             Day-of-month
 001206 4100 0002            00002 11097             +
 00120A 58E0 719A/0DEE       01330 11100             +
 001210 50F0 8040            00010 11102    01236000           ST    R15,SAVEDATE
 001214 1812/4100 0002       00002 11103    01237000           DTB   @R2,2               Month
 00121A 58E0 719A/0DEE       01330 11122             +
 001220 59F0 719E            01334 11124    01238000           IF    ((R15,LT,0),OR,(R15,GT,12)),'CLEAR R15'  Bad month
 001224 4740 709A            01230 11140             +
 001228 59F0 71A2            01338 11151             +
 00122C 47D0 709C/1BFF       01232 11152             +
 001232 183F                       11166    01239000           LR    R3,R15              Save for later
 001234 4CF0 71CC            01362 11167    01240000           MH    R15,=H'3'
 001238 411F 713A            012D0 11168    01241000           LA    R1,FMTXMON(R15)     Month string
 00123C D202 6008 1000 00008 00000 11169    01242000           MVC   @R6+8(3),@R1
                                   11170    01243000           ¿þþþþþþþþþþþþþþþþþþþþþþþÜ
                                   11171    01244000           Ÿ  Format time of day.  Ÿ
                                   11172    01245000           ¾þþþþþþþþþþþþþþþþþþþþþþþ»
 001242 1804                       11173    01246000           LR    R0,R4
 001244 1815                       11174    01247000           LR    R1,R5
 001246 41F0 600F            0000F 11175    01248000           LA    R15,@R6+15
 00124A 4DE0 735E            014F4 11176    01249000           LCALL FMTTIME             hh:mm:ss
                                   11178    01250000           ¿þþþþþþþþþþþþþþþþþþþþþÜ
                                   11179    01251000           Ÿ  Format time zone.  Ÿ
                                   11180    01252000           ¾þþþþþþþþþþþþþþþþþþþþþ»
 00124E                            11181    01253000           MVC   @R6+23(4),=C' &ZONE'  Set time zone, assume std
 00124E D203 6017 71A6 00017 0133C                   +
 001254 5930 71AA            01340 11182    01254000           IF    ((R3,GE,4),AND,(R3,LE,10)),BEGIN
 001258 4750 7126            012BC 11196             +
 00125C 5930 71AE            01344 11209             +
 001260 4730 7126            012BC 11210             +
 001264                            11215  1 01255000             MVC   @R6+23(4),=C' &ALTZONE'  Assume daylight time
 001264 D203 6017 71B2 00017 01348        1          +
                                   11216  1 01256000             ¿þþþþþþþþþþþþþþþþþþþþþþþþþþþþþþþþþþþþþþþþþþþþþþþþþþþÜ
                                   11217  1 01257000             Ÿ  Now handle special cases for April and October.  Ÿ
                                   11218  1 01258000             ¾þþþþþþþþþþþþþþþþþþþþþþþþþþþþþþþþþþþþþþþþþþþþþþþþþþþ»
 00126A 5930 71AA            01340 11219  1 01259000             IF    ((R3,EQ,4),OR,(R3,EQ,10)),BEGIN
 00126E 4780 70E4            0127A 11235  1          +
 001272 5930 71AE            01344 11246  1          +
 001276 4770 7126            012BC 11247  1          +
 00127A 5810 8040            00010 11252  2 01260000               L     R1,SAVEDATE         Get binary day-of-month
 00127E 5820 803C            0000C 11253  2 01261000               L     R2,SAVEDAY          Get binary day-of-week
 001282 4100 001E            0001E 11254  2 01262000               LA    R0,30               Assume April
 001286 5930 71AE            01344 11255  2 01263000               IF    (R3,EQ,10),'LA R0,31'
 00128A 4770 70FC            01292 11267  2          +
 00128E 4100 001F            0001F 11273  2          +
 001292 1B01                       11278  2 01264000               SR    R0,R1               Days in month - day of month
 001294 1A02                       11279  2 01265000               AR    R0,R2               ... + day of week
                                   11280  2 01266000C              IF    (((R0,GT,7),AND,(R3,EQ,4)),OR,
1UTILS    Wings: DINTCONV - Convert double-word integer                                                                     Page   49
0Current Usings:  (*,R7) (WA-(4+44),R8) (TVT,R11) (GVT,R12)
0Loc    Object Code    Addr1 Addr2  Stmt Lv Lineno    Source Statement           (Hibal 5, Asmedit 3.3)  HLASM R4.0  2002/06/06 10.18
+___    ______ ____    _____ _____  ____ __ ______    ______ _________
0001296 5900 71B6            0134C        2 01267000                     ((R0,LE,7),AND,(R3,EQ,10))),BEGIN
 00129A 47D0 7110            012A6 11296  2          +
 00129E 5930 71AA            01340 11309  2          +
 0012A2 4780 7120            012B6 11312  2          +
 0012A6 5900 71B6            0134C 11325  2          +
 0012AA 4730 7126            012BC 11326  2          +
 0012AE 5930 71AE            01344 11339  2          +
 0012B2 4770 7126            012BC 11340  2          +
 0012B6                            11345  3 01268000                 MVC   @R6+23(4),=C' &ZONE'  Re-do assumption
 0012B6 D203 6017 71A6 00017 0133C        3          +
 0012BC                            11346  2 01269000               END
 0012BC                            11350  1 01270000             END
 0012BC                            11354    01271000           END
                                   11358    01272000
 0012BC 1816/4100 001B       0001B 11359    01273000           SETMSG @R6,27             Formatted date
 0012C2 18D8/982C D004       00004 11375    01274000           PEND
 DROP   WA-(4+44),R8
 DROP   *,R7
 0012C8 58E0 D000/12FF       00000 11396             +
 0012CE 07FE                       11399             +
                                   11400    01275000
 0012D0 6F6F6FD18195C685           11401    01276000  FMTXMON  DC    C'???JanFebMarAprMayJunJulAugSepOctNovDec'
 0012F8                            11402    01277000           LTORG ,
 0012F8 80000000                   11404                             =A(X'80000000')
 0012FC FFFFFFF8                   11405                             =F'-8'
 001300 D4C5D440                   11406                             =C'MEM '
 001304 D4C5D5C4                   11407                             =C'MEND'
 001308 D4C5D4E2                   11408                             =C'MEMS'
 00130C C6D9D4E7                   11409                             =C'FRMX'
 001310 C6C5D5C4                   11410                             =C'FEND'
 001314 000003E8                   11411                             =A(1000)
 001318 FFFFFFFC                   11412                             =A(X'FFFFFFFC')
 00131C 00000BFA                   11413                             =A(DINTPACK)
 001320 00000100                   11414                             =A(256)
 001324 000000F0                   11415                             =A(C'0')
 001328 000000B7                   11416                             =A(C'A'-10)
 00132C FFFFFFF8                   11417                             =X'FFFFFFF8'
 001330 00000000                   11418                             =V(DTB)
 001334 00000000                   11419                             =A(0)
 001338 0000000C                   11420                             =A(12)
 00133C 40D7E2E3                   11421                             =C' PST'
 001340 00000004                   11422                             =A(4)
 001344 0000000A                   11423                             =A(10)
 001348 40D7C4E3                   11424                             =C' PDT'
 00134C 00000007                   11425                             =A(7)
 001350 0007                       11426                             =H'7'
 001352 0010                       11427                             =H'16'
 001354 0004                       11428                             =H'4'
 001356 000C                       11429                             =H'12'
 001358 0100                       11430                             =H'256'
 00135A 000A                       11431                             =H'10'
 00135C 0002                       11432                             =H'2'
 00135E 0002                       11433                             =Y(2)
 001360 0008                       11434                             =Y((R1+1-(R0)+16*((R0)/(R1+1))/((R0)/(R1+1)))*4)
1UTILS    Wings: DINTCONV - Convert double-word integer                                                                     Page   50
0Current Usings:  (TVT,R11) (GVT,R12)
0Loc    Object Code    Addr1 Addr2  Stmt Lv Lineno    Source Statement           (Hibal 5, Asmedit 3.3)  HLASM R4.0  2002/06/06 10.18
+___    ______ ____    _____ _____  ____ __ ______    ______ _________
0001362 0003                       11435                             =H'3'
 001364 0C             01372 029D0 11436                             =PL1'0'
1UTILS    Wings: DINTCONV - Convert double-word integer                                                                     Page   51
0Current Usings:  (TVT,R11) (GVT,R12)
0Loc    Object Code    Addr1 Addr2  Stmt Lv Lineno    Source Statement           (Hibal 5, Asmedit 3.3)  HLASM R4.0  2002/06/06 10.18
+___    ______ ____    _____ _____  ____ __ ______    ______ _________
0                                  11441    01279000  ¿þþþþþþþþþþþþþþþþþþþþþþþþþþþþþþþþþþþþþþþþþþþþþþþþþþþþþþþþþþþþþþþþþþþþþÜ
                                   11442    01280000  Ÿ                                                                     Ÿ
                                   11443    01281000  Ÿ  FMTIDLE -- Routine to format elapsed time based on two TOD         Ÿ
                                   11444    01282000  Ÿ             clock values                                            Ÿ
                                   11445    01283000  Ÿ                                                                     Ÿ
                                   11446    01284000  Ÿ  On entry:   R1  Contains the address of two double-words:          Ÿ
                                   11447    01285000  Ÿ                  +0  STCK value indicating the end time             Ÿ
                                   11448    01286000  Ÿ                  +8  STCK value indicating the start time           Ÿ
                                   11449    01287000  Ÿ              R15 Return area (13 bytes)                             Ÿ
                                   11450    01288000  Ÿ                                                                     Ÿ
                                   11451    01289000  Ÿ  On exit:                                                           Ÿ
                                   11452    01290000  Ÿ                                                                     Ÿ
                                   11453    01291000  Ÿ                                                                     Ÿ
                                                      ¾þþþþþþþþþþþþþþþþþþþþþþþþþþþþþþþþþþþþþþþþþþþþþþþþþþþþþþþþþþþþþþþþþþþþþ»
0000000                00000 00014 11454    01292000  FMTIDLEW RECORD BEGIN
 000000 0000000000000000           11462  1 01293000             DC    5A(0)               Conversion work area
 000014                00014 00014 11463    01294000           END   ,
 001372 50E0 D000            00000 11472    01295000  FMTIDLE  XPROC FMTIDLEW,TRACE=NO
 001376 900C D004/188D       00004 11487             +
 00137C 41D0 D04C/0D70       0004C 11490             +
 001382 4140 8038            00000 11522    01296000           LA    R4,FMTIDLEW         Address of work area
 USING  *,R7
 USING  FMTIDLEW-(4+52),R8
 001386 5E40 77D6            01B58 11523    01297000           AL    R4,=A(7)              insure double word boundary
 00138A 5440 77DA            01B5C 11524    01298000           N     R4,=X'FFFFFFF8'       for conversion routine
000138E 9823 1000            00000 11526    01300000           LM    R2,R3,@R1           Load ending time
 001392 5F30 100C            0000C 11527    01301000           SDL   R2,@R1+8              subtract double logical
 001396 47B0 701A/0620       0139C 11529             +
 00139C 5F20 1008            00008 11531             +
 0013A0 8C20 000C            0000C 11532    01302000           SRDL  R2,12                   convert to micro-seconds
 0013A4 5D20 77DE            01B60 11533    01303000           D     R2,=A(10000)              convert to .01 second units
 0013A8 1B22                       11534    01304000           CLEAR R2
00013AA 5D20 77E2            01B64 11539    01306000           D     R2,=A(60*60*100)    Determine number of hours
 0013AE 4E30 4000            00000 11540    01307000           CVD   R3,@R4              Convert hours to packed decimal
 0013B2 8C20 0020            00020 11541    01308000           SRDL  R2,32               Prepare for next divide
 0013B6 5D20 77E6            01B68 11542    01309000           D     R2,=A(60*100)       Determine number of minutes
 0013BA 4E30 4008            00008 11543    01310000           CVD   R3,@R4+8            Convert minutes to packed decimal
 0013BE FC71 4000 7822 00000 01BA4 11544    01311000           MP    @R4(8),=P'100'      Move over hours
 0013C4 FA77 4000 4008 00000 00008 11545    01312000           AP    @R4(8),@R4+8(8)     Add in minutes
 0013CA 8C20 0020            00020 11546    01313000           SRDL  R2,32               Prepare for next divide
 0013CE 5D20 77EA            01B6C 11547    01314000           D     R2,=A(100)          Compute number of seconds
 0013D2 4E30 4008            00008 11548    01315000           CVD   R3,@R4+8            Convert seconds to packed decimal
 0013D6 FC71 4000 7822 00000 01BA4 11549    01316000           MP    @R4(8),=P'100'      Move orver hh:mm
 0013DC FA77 4000 4008 00000 00008 11550    01317000           AP    @R4(8),@R4+8(8)     Add in seconds
 0013E2 4E20 4008            00008 11551    01318000           CVD   R2,@R4+8            Convert .tt's to packed decimal
 0013E6 FC71 4000 7822 00000 01BA4 11552    01319000           MP    @R4(8),=P'100'      Move orver hh:mm:ss
 0013EC FA77 4000 4008 00000 00008 11553    01320000           AP    @R4(8),@R4+8(8)     Add in .tt's
 0013F2 D20C F000 7094 00000 01416 11554    01321000           MVC   @R15(13),FMTIDLEM   Set edit mask
 0013F8 DE0C F000 4003 00000 00003 11555    01322000           ED    @R15(13),@R4+3      Edit result
 0013FE 181F                       11556    01323000           LR    R1,R15              Set return address
 001400 4100 000D            0000D 11557    01324000           LA    R0,13               And length of return
1UTILS    Wings: DINTCONV - Convert double-word integer                                                                     Page   52
0Current Usings:  (*,R7) (FMTIDLEW-(4+52),R8) (TVT,R11) (GVT,R12)
0Loc    Object Code    Addr1 Addr2  Stmt Lv Lineno    Source Statement           (Hibal 5, Asmedit 3.3)  HLASM R4.0  2002/06/06 10.18
+___    ______ ____    _____ _____  ____ __ ______    ______ _________
0001404 9001 8004            00004 11558    01325000           PRETURN (R0,R1)           Return text loc and length
 001408 18D8/980C D004       00004 11560    01326000           PEND  ,
 DROP   FMTIDLEW-(4+52),R8
 DROP   *,R7
 00140E 58E0 D000/12FF       00000 11581             +
 001414 07FE                       11584             +
 001416 402020207A20207A           11585    01327000  FMTIDLEM DC    XL13'402020207A20207A20214B2020'
1UTILS    Wings: DINTCONV - Convert double-word integer                                                                     Page   53
0Current Usings:  (TVT,R11) (GVT,R12)
0Loc    Object Code    Addr1 Addr2  Stmt Lv Lineno    Source Statement           (Hibal 5, Asmedit 3.3)  HLASM R4.0  2002/06/06 10.18
+___    ______ ____    _____ _____  ____ __ ______    ______ _________
0                                  11587    01329000  ¿þþþþþþþþþþþþþþþþþþþþþþþþþþþþþþþþþþþþþþþþþþþþþþþþþþþþþþþþþþþþþþþþþþþþþÜ
                                   11588    01330000  Ÿ                                                                     Ÿ
                                   11589    01331000  Ÿ   FMTCLCK -- Routine to format time/date from TOD clock.            Ÿ
                                   11590    01332000  Ÿ                                                                     Ÿ
                                   11591    01333000  Ÿ     On entry:                                                       Ÿ
                                   11592    01334000  Ÿ       R0-R1 - 64 bit clock (zero = current time/date)               Ÿ
                                   11593    01335000  Ÿ       R15   - return area (26 bytes)                                Ÿ
                                   11594    01336000  Ÿ                                                                     Ÿ
                                   11595    01337000  Ÿ     On exit:                                                        Ÿ
                                   11596    01338000  Ÿ       R1,R0 - text loc, len  returns: hh:mm:ss mm/dd/yy (yy.ddd)    Ÿ
                                   11597    01339000  Ÿ                                                                     Ÿ
                                                      ¾þþþþþþþþþþþþþþþþþþþþþþþþþþþþþþþþþþþþþþþþþþþþþþþþþþþþþþþþþþþþþþþþþþþþþ»
0001424 50E0 D000            00000 11598    01340000  FMTCLCK  XPROC (R2,LSR),TRACE=NO
 001428 902C D004/188D       00004 11612             +
 00142E 41D0 D030/0D70       00030 11614             +
 001434 186F                       11637    01341000           LR    R6,R15
 USING  *,R7
 001436 D219 6000 C0E0 00000 000E0 11638    01342000           MVC   @R6(26),GVTBLANK
                                   11639    01343000
 00143C 1840                       11640    01344000           LR    R4,R0
 00143E 1851                       11641    01345000           LR    R5,R1
 001440 4DE0 70C0            014F4 11642    01346000           LCALL FMTTIME             Hh:mm:ss
 001444 9240 6008      00008       11644    01347000           MVI   @R6+8,C' '
                                   11645    01348000
 001448 1804                       11646    01349000           LR    R0,R4
 00144A 1815                       11647    01350000           LR    R1,R5
 00144C 41F0 6009            00009 11648    01351000           LA    R15,@R6+9
 001450 4DE0 7132            01566 11649    01352000           LCALL FMTDATE             Mm/dd/yy
                                   11651    01353000
 001454 924D 6012      00012       11652    01354000           MVI   @R6+18,C'('
 001458 1804                       11653    01355000           LR    R0,R4
 00145A 1815                       11654    01356000           LR    R1,R5
 00145C 41F0 6013            00013 11655    01357000           LA    R15,@R6+19
 001460 4DE0 736E            017A2 11656    01358000           LCALL FMTJUL              Yy.ddd
 001464 925D 6019      00019       11658    01359000           MVI   @R6+25,C')'
                                   11659    01360000
 001468 1816/4100 001A       0001A 11660    01361000           SETMSG @R6,26
 00146E 18D8/982C D004       00004 11676    01362000           PEND
 DROP   *,R7
 001474 58E0 D000/12FF       00000 11692             +
 00147A 07FE                       11695             +
1UTILS    Wings: DINTCONV - Convert double-word integer                                                                     Page   54
0Current Usings:  (TVT,R11) (GVT,R12)
0Loc    Object Code    Addr1 Addr2  Stmt Lv Lineno    Source Statement           (Hibal 5, Asmedit 3.3)  HLASM R4.0  2002/06/06 10.18
+___    ______ ____    _____ _____  ____ __ ______    ______ _________
0                                  11697    01364000  ¿þþþþþþþþþþþþþþþþþþþþþþþþþþþþþþþþþþþþþþþþþþþþþþþþþþþþþþþþþþþþþþþþþþþþþÜ
                                   11698    01365000  Ÿ                                                                     Ÿ
                                   11699    01366000  Ÿ   FMTRCLCK -- Routine to format time/conditional-date from TOD      Ÿ
                                   11700    01367000  Ÿ     clock.                                                          Ÿ
                                   11701    01368000  Ÿ                                                                     Ÿ
                                   11702    01369000  Ÿ     On entry:                                                       Ÿ
                                   11703    01370000  Ÿ       R0-R1 - 64 bit clock                                          Ÿ
                                   11704    01371000  Ÿ       R2-R3 - 64 bit comparison clock (zero = current)              Ÿ
                                   11705    01372000  Ÿ       R15   - return area (17 bytes)                                Ÿ
                                   11706    01373000  Ÿ                                                                     Ÿ
                                   11707    01374000  Ÿ     On exit:                                                        Ÿ
                                   11708    01375000  Ÿ       R1,R0 - text loc,len    hh:mm:ss -or- hh:mm:ss mm/dd/yy       Ÿ
                                   11709    01376000  Ÿ                                                                     Ÿ
                                                      ¾þþþþþþþþþþþþþþþþþþþþþþþþþþþþþþþþþþþþþþþþþþþþþþþþþþþþþþþþþþþþþþþþþþþþþ»
000147C 50E0 D000            00000 11710    01377000  FMTRCLCK XPROC (R2,LSR),TRACE=NO
 001480 902C D004/188D       00004 11724             +
 001486 41D0 D030/0D70       00030 11726             +
 00148C 186F                       11749    01378000           LR    R6,R15
 USING  *,R7
 00148E D210 6000 C0E0 00000 000E0 11750    01379000           MVC   @R6(17),GVTBLANK
                                   11751    01380000
 001494 1840                       11752    01381000           LR    R4,R0
 001496 1851                       11753    01382000           LR    R5,R1
 001498 18FD/41D0 D00C       0000C 11754    01383000           PUSH  11,PTR=R15
 00149E 4DE0 7068            014F4 11758    01384000           LCALL FMTTIME
 0014A2 D207 6000 1000 00000 00000 11760    01385000           MVC   @R6(8),@R1          "hh:mm"
                                   11761    01386000
 0014A8 18F1                       11762    01387000           LR    R15,R1
 0014AA 1804                       11763    01388000           LR    R0,R4
 0014AC 1815                       11764    01389000           LR    R1,R5
 0014AE 4DE0 70DA            01566 11765    01390000           LCALL FMTDATE
 0014B2 D207 6009 1000 00009 00000 11767    01391000           MVC   @R6+9(8),@R1        "mm/dd/yy"
 0014B8 4BD0 771A            01BA6 11768    01392000           POP   11
                                   11772    01393000
 0014BC 1804                       11773    01394000           LR    R0,R4
 0014BE 4110 0005            00005 11774    01395000           LA    R1,R5
 0014C2 4DE0 7360            017EC 11775    01396000           LCALL TIMEDATE            Get date in R1
 0014C6 1851                       11777    01397000           LR    R5,R1
                                   11778    01398000
 0014C8 1802                       11779    01399000           LR    R0,R2
 0014CA 1813                       11780    01400000           LR    R1,R3
 0014CC 4DE0 7360            017EC 11781    01401000           LCALL TIMEDATE            Get "comparison" date in R1
                                   11783    01402000
 0014D0 1915/4770 7050       014DC 11784    01403000           IF    (R1,EQ,R5),'SETMSG @R6,8'  same day
 0014D6 1816/4100 0008       00008 11808             +
 0014DC 7054           014DC 014D4 11820    01404000           ELSE  'SETMSG @R6,17'
 0014DC 47F0 705A/1816       014E6 11825             +
 0014E2 4100 0011            00011 11847             +
 0014E6 18D8/982C D004       00004 11852    01405000           PEND
 DROP   *,R7
 0014EC 58E0 D000/12FF       00000 11868             +
 0014F2 07FE                       11871             +
1UTILS    Wings: DINTCONV - Convert double-word integer                                                                     Page   55
0Current Usings:  (TVT,R11) (GVT,R12)
0Loc    Object Code    Addr1 Addr2  Stmt Lv Lineno    Source Statement           (Hibal 5, Asmedit 3.3)  HLASM R4.0  2002/06/06 10.18
+___    ______ ____    _____ _____  ____ __ ______    ______ _________
0                                  11873    01407000  ¿þþþþþþþþþþþþþþþþþþþþþþþþþþþþþþþþþþþþþþþþþþþþþþþþþþþþþþþþþþþþþþþþþþþþþÜ
                                   11874    01408000  Ÿ                                                                     Ÿ
                                   11875    01409000  Ÿ   FMTTIME -- Routine to format time from TOD clock.                 Ÿ
                                   11876    01410000  Ÿ                                                                     Ÿ
                                   11877    01411000  Ÿ     On entry:                                                       Ÿ
                                   11878    01412000  Ÿ       R0-R1 - 64 bit clock (zero = current time)                    Ÿ
                                   11879    01413000  Ÿ       R15   - return area (11 bytes)                                Ÿ
                                   11880    01414000  Ÿ                                                                     Ÿ
                                   11881    01415000  Ÿ     On exit:                                                        Ÿ
                                   11882    01416000  Ÿ       R1,R0 - text loc, len    returns: hh:mm:ss.hh                 Ÿ
                                   11883    01417000  Ÿ                                                                     Ÿ
                                                      ¾þþþþþþþþþþþþþþþþþþþþþþþþþþþþþþþþþþþþþþþþþþþþþþþþþþþþþþþþþþþþþþþþþþþþþ»
00014F4 50E0 D000            00000 11884    01418000  FMTTIME  XPROC (R2,LSR),TRACE=NO
 0014F8 902C D004/188D       00004 11898             +
 0014FE 41D0 D030/0D70       00030 11900             +
 001504 186F                       11923    01419000           LR    R6,R15
 USING  *,R7
 001506 D20A 6000 76C2 00000 01BC6 11924    01420000           MVC   @R6(11),=C'??:??:??.??'
                                   11925    01421000
 00150C 4DE0 72E8            017EC 11926    01422000           LCALL TIMEDATE            Get time in r0
 001510 1850                       11928    01423000           LR    R5,R0
 001512 1B44                       11929    01424000           CLEAR R4
 001514 5D40 7664            01B68 11933    01425000           D     R4,=A(60*100)
 001518 18F4/4100 0502       00502 11934    01426000           BTR   @R6+6,(5,2),(R4)    Sec.hsec
 00151E 4110 6006            00006 11952             +
 001522 58E0 766C/0DEE       01B70 11955             +
 001528 1B44                       11957    01427000           CLEAR R4
 00152A 5D40 7670            01B74 11961    01428000           D     R4,=A(60)           R4=min, r5=hours
 00152E 18F4/4100 0002       00002 11962    01429000           BTD   @R6+3,2,(R4)        Min
 001534 4110 6003            00003 11980             +
 001538 58E0 7674/0DEE       01B78 11983             +
 00153E 18F5/4100 0002       00002 11985    01430000           BTD   @R6,2,(R5)          Hours
 001544 1816/58E0 7674       01B78 12003             +
 00154A 0DEE                       12007             +
 00154C D60A 6000 76CD 00000 01BD1 12008    01431000           OC    @R6(11),=C'00 00 00 00'  leading zeros
                                   12009    01432000
 001552 1816/4100 000B       0000B 12010    01433000           SETMSG @R6,11
 001558 18D8/982C D004       00004 12026    01434000           PEND
 DROP   *,R7
 00155E 58E0 D000/12FF       00000 12042             +
 001564 07FE                       12045             +
1UTILS    Wings: DINTCONV - Convert double-word integer                                                                     Page   56
0Current Usings:  (TVT,R11) (GVT,R12)
0Loc    Object Code    Addr1 Addr2  Stmt Lv Lineno    Source Statement           (Hibal 5, Asmedit 3.3)  HLASM R4.0  2002/06/06 10.18
+___    ______ ____    _____ _____  ____ __ ______    ______ _________
0                                  12047    01436000  ¿þþþþþþþþþþþþþþþþþþþþþþþþþþþþþþþþþþþþþþþþþþþþþþþþþþþþþþþþþþþþþþþþþþþþþÜ
                                   12048    01437000  Ÿ                                                                     Ÿ
                                   12049    01438000  Ÿ   FMTDATE -- Routine to format date from TOD clock.                 Ÿ
                                   12050    01439000  Ÿ                                                                     Ÿ
                                   12051    01440000  Ÿ     On entry:                                                       Ÿ
                                   12052    01441000  Ÿ       R0-R1 - 64 bit clock (zero = current date)                    Ÿ
                                   12053    01442000  Ÿ       R15   - return area (8 bytes)                                 Ÿ
                                   12054    01443000  Ÿ                                                                     Ÿ
                                   12055    01444000  Ÿ     On exit:                                                        Ÿ
                                   12056    01445000  Ÿ       R1,R0 - text loc,len    returns: mm/dd/yy                     Ÿ
                                   12057    01446000  Ÿ                                                                     Ÿ
                                                      ¾þþþþþþþþþþþþþþþþþþþþþþþþþþþþþþþþþþþþþþþþþþþþþþþþþþþþþþþþþþþþþþþþþþþþþ»
0001566 50E0 D000            00000 12058    01447000  FMTDATE  XPROC (R2,LSR),TRACE=NO
 00156A 902C D004/188D       00004 12072             +
 001570 41D0 D030/0D70       00030 12074             +
 001576 186F                       12097    01448000           LR    R6,R15
 USING  *,R7
 001578 D207 6000 75BA 00000 01B30 12098    01449000           MVC   @R6(8),=C'??/??/??'
                                   12099    01450000
 00157E 4DE0 7276            017EC 12100    01451000           LCALL TIMEDATE            Get julian date in r1
 001582                            12102    01452000           CLEAR (@R13,4)
 001582 D703 D000 D000 00000 00000 12108             +
 001588 5010 D004            00004 12109    01453000           ST    R1,@R13+4
 00158C 4F50 D000            00000 12110    01454000           CVB   R5,@R13             Get "yyddd" in binary
 001590 1B44                       12111    01455000           CLEAR R4
 001592 5D40 7606            01B7C 12115    01456000           D     R4,=A(1000)         R4=days, r5=year
 001596 18F5/4100 0002       00002 12116    01457000           BTD   @R6+6,2,(R5)
 00159C 4110 6006            00006 12134             +
 0015A0 58E0 7602/0DEE       01B78 12137             +
 0015A6 5450 760A            01B80 12139    01458000           IF    ('N R5,=F"3"',NZ),BEGIN  non-leap year...
 0015AA 4780 7044            015BA 12147             +
 0015AE 5940 760E            01B84 12152  1 01459000             IF    (R4,GE,31+29),'LA R4,@R4+1'  skip feb29th
 0015B2 4750 7044            015BA 12164  1          +
 0015B6 4140 4001            00001 12170  1          +
 0015BA                            12175    01460000           END
                                   12179    01461000
 0015BA 4150 0001            00001 12180    01462000           LA    R5,1                Month
 0015BE 4130 714C            016C2 12181    01463000           LA    R3,MTBL
 0015C2 4940 3000            00000 12182    01464000           WHILE ('CH R4,@R3',GT),BEGIN  not this month...
 0015C6 47D0 7064            015DA 12192             +
 0015CA 4150 5001            00001 12197  1 01465000             LA    R5,@R5+1
 0015CE 4B40 3000            00000 12198  1 01466000             SH    R4,@R3
 0015D2 4130 3002            00002 12199  1 01467000             LA    R3,@R3+2
 0015D6 47F0 704C            015C2 12200    01468000           END
 0015DA 18F5/4100 0002       00002 12205    01469000           BTD   @R6,2,(R5)          Month
 0015E0 1816/58E0 7602       01B78 12223             +
 0015E6 0DEE                       12227             +
 0015E8 18F4/4100 0002       00002 12228    01470000           BTD   @R6+3,2,(R4)        Day
 0015EE 4110 6003            00003 12246             +
 0015F2 58E0 7602/0DEE       01B78 12249             +
 0015F8 D607 6000 75C2 00000 01B38 12251    01471000           OC    @R6(8),=C'00 00 00'
                                   12252    01472000
 0015FE 1816/4100 0008       00008 12253    01473000           SETMSG @R6,8
1UTILS    Wings: DINTCONV - Convert double-word integer                                                                     Page   57
0Current Usings:  (TVT,R11) (GVT,R12)
0Loc    Object Code    Addr1 Addr2  Stmt Lv Lineno    Source Statement           (Hibal 5, Asmedit 3.3)  HLASM R4.0  2002/06/06 10.18
+___    ______ ____    _____ _____  ____ __ ______    ______ _________
0001604 18D8/982C D004       00004 12269    01474000           PEND
 DROP   *,R7
 00160A 58E0 D000/12FF       00000 12285             +
 001610 07FE                       12288             +
                                   12289    01475000  *
                                   12290    01476000  ¿þþþþþþþþþþþþþþþþþþþþþþþþþþþþþþþþþþþþþþþþþþþþþþþþþþþþþþþþþþþþþþþþþþþþþÜ
                                   12291    01477000  Ÿ                                                                     Ÿ
                                   12292    01478000  Ÿ   FMTNDATE -- Routine to format "NEW" date from TOD clock.          Ÿ
                                   12293    01479000  Ÿ                                                                     Ÿ
                                   12294    01480000  Ÿ     On entry:                                                       Ÿ
                                   12295    01481000  Ÿ       R0-R1 - 64 bit clock (zero = current date)                    Ÿ
                                   12296    01482000  Ÿ       R15   - return area (10 bytes)                                Ÿ
                                   12297    01483000  Ÿ                                                                     Ÿ
                                   12298    01484000  Ÿ     On exit:                                                        Ÿ
                                   12299    01485000  Ÿ       R1,R0 - text loc,len    returns: yyyy/mm/dd                   Ÿ
                                   12300    01486000  Ÿ                                                                     Ÿ
                                                      ¾þþþþþþþþþþþþþþþþþþþþþþþþþþþþþþþþþþþþþþþþþþþþþþþþþþþþþþþþþþþþþþþþþþþþþ»
0001612 50E0 D000            00000 12301    01487000  FMTNDATE XPROC (R2,LSR),TRACE=NO
 001616 902C D004/188D       00004 12315             +
 00161C 41D0 D030/0D70       00030 12317             +
 001622 186F                       12340    01488000           LR    R6,R15
 USING  *,R7
 001624 D209 6000 7586 00000 01BA8 12341    01489000           MVC   @R6(10),=C'????/??/??'
                                   12342    01490000
 00162A 4DE0 71CA            017EC 12343    01491000           LCALL TIMEDATE            Get julian date in r1
                                   12345    01492000  *  Note:  Format is packed decimal, as 0cyyddds, where "c" is
                                   12346    01493000  *  0 for dates in 1900s, 1 for dates in 2000s.
 00162E                            12347    01494000           CLEAR (@R13,4)
 00162E D703 D000 D000 00000 00000 12353             +
 001634 5010 D004            00004 12354    01495000           ST    R1,@R13+4
 001638 4F50 D000            00000 12355    01496000           CVB   R5,@R13             Get "cyyddd" in binary
 00163C 1B44                       12356    01497000           CLEAR R4
 00163E 5D40 755A            01B7C 12360    01498000           D     R4,=A(1000)         R4=days, r5=year, cyy
 001642 4150 576C            0076C 12361    01499000           LA    R5,@R5+1900         Get yyyy
 001646 18F5/4100 0004       00004 12362    01500000           BTD   @R6,4,(R5)
 00164C 1816/58E0 7556       01B78 12380             +
 001652 0DEE                       12384             +
 001654 5450 755E            01B80 12385    01501000           IF    ('N R5,=F"3"',NZ),BEGIN  non-leap year...
 001658 4780 7046            01668 12393             +
 00165C 5940 7562            01B84 12398  1 01502000             IF    (R4,GE,31+29),'LA R4,@R4+1'  skip feb29th
 001660 4750 7046            01668 12410  1          +
 001664 4140 4001            00001 12416  1          +
 001668                            12421    01503000           END
                                   12425    01504000
 001668 4150 0001            00001 12426    01505000           LA    R5,1                Month
 00166C 4130 70A0            016C2 12427    01506000           LA    R3,MTBL
 001670 4940 3000            00000 12428    01507000           WHILE ('CH R4,@R3',GT),BEGIN  not this month...
 001674 47D0 7066            01688 12438             +
 001678 4150 5001            00001 12443  1 01508000             LA    R5,@R5+1
 00167C 4B40 3000            00000 12444  1 01509000             SH    R4,@R3
 001680 4130 3002            00002 12445  1 01510000             LA    R3,@R3+2
 001684 47F0 704E            01670 12446    01511000           END
 001688 18F5/4100 0002       00002 12451    01512000           BTD   @R6+5,2,(R5)          Month
1UTILS    Wings: DINTCONV - Convert double-word integer                                                                     Page   58
0Current Usings:  (*,R7) (TVT,R11) (GVT,R12)
0Loc    Object Code    Addr1 Addr2  Stmt Lv Lineno    Source Statement           (Hibal 5, Asmedit 3.3)  HLASM R4.0  2002/06/06 10.18
+___    ______ ____    _____ _____  ____ __ ______    ______ _________
000168E 4110 6005            00005 12469             +
 001692 58E0 7556/0DEE       01B78 12472             +
 001698 18F4/4100 0002       00002 12474    01513000           BTD   @R6+8,2,(R4)        Day
 00169E 4110 6008            00008 12492             +
 0016A2 58E0 7556/0DEE       01B78 12495             +
 0016A8 D609 6000 7590 00000 01BB2 12497    01514000           OC    @R6(10),=C'0000 00 00'   ch signs to zones
                                   12498    01515000
 0016AE 1816/4100 000A       0000A 12499    01516000           SETMSG @R6,10
 0016B4 18D8/982C D004       00004 12515    01517000           PEND
 DROP   *,R7
 0016BA 58E0 D000/12FF       00000 12531             +
 0016C0 07FE                       12534             +
                                   12535    01518000
 0016C2 001F001D001F001E           12536    01519000  MTBL     DC    H'31,29,31,30,31,30,31,31,30,31,30,31,999'
1UTILS    Wings: DINTCONV - Convert double-word integer                                                                     Page   59
0Current Usings:  (TVT,R11) (GVT,R12)
0Loc    Object Code    Addr1 Addr2  Stmt Lv Lineno    Source Statement           (Hibal 5, Asmedit 3.3)  HLASM R4.0  2002/06/06 10.18
+___    ______ ____    _____ _____  ____ __ ______    ______ _________
0                                  12538    01521000  ¿þþþþþþþþþþþþþþþþþþþþþþþþþþþþþþþþþþþþþþþþþþþþþþþþþþþþþþþþþþþþþþþþþþþþþÜ
                                   12539    01522000  Ÿ                                                                     Ÿ
                                   12540    01523000  Ÿ   FMTDAY -- Routine to format the day of the week from TOD clock    Ÿ
                                   12541    01524000  Ÿ                                                                     Ÿ
                                   12542    01525000  Ÿ     On entry:                                                       Ÿ
                                   12543    01526000  Ÿ       R0-R1 - 64 bit clock (zero=current date)                      Ÿ
                                   12544    01527000  Ÿ                                                                     Ÿ
                                   12545    01528000  Ÿ     On exit:                                                        Ÿ
                                   12546    01529000  Ÿ       R15 - day number (1=Sunday, 2=Monday, etc.)                   Ÿ
                                   12547    01530000  Ÿ       R1,R0 - day text loc, len ("SUNDAY", "MONDAY", etc.)          Ÿ
                                   12548    01531000  Ÿ                                                                     Ÿ
                                                      ¾þþþþþþþþþþþþþþþþþþþþþþþþþþþþþþþþþþþþþþþþþþþþþþþþþþþþþþþþþþþþþþþþþþþþþ»
00016DC 50E0 D000            00000 12549    01532000  FMTDAY   XPROC (R2,LSR),TRACE=NO
 0016E0 902C D004/188D       00004 12563             +
 0016E6 41D0 D030/0D70       00030 12565             +
 0016EC 1200/4770 701C       01708 12588    01533000           IF    ((R0,Z),AND,(R1,Z)),BEGIN   get current
 USING  *,R7
 0016F2 1211/4770 701C       01708 12609             +
 0016F8 B205 D000      00000       12615  1 01533100             STCK @R13
 0016FC 9801 D000            00000 12616  1 01533200             LM R0,R1,@R13             system clock
 001700 5820 0010            00010 12617  1 01535000             L     R2,CVTPTR
 001704 5E00 2130            00130 12618  1 01536000             WITH  (CVT,R2),'AL R0,CVTTZ'  Time zone adjustment
 USING  CVT,R2
 DROP   CVT,R2
 001708                            12642    01537000           END   ,                          (get current)
                                   12646    01537100
 001708 8C00 0012            00012 12647    01538000           SRDL  R0,12+6             .000001*64 of a sec
 00170C 5D00 749C            01B88 12648    01539000           D     R0,=A(1000000/64*60*60*24)  One day
 001710 4130 1001            00001 12649    01540000           LA    R3,@R1+1            No. of days since 1900
                                   12650    01541000
 001714 1B22                       12651    01542000           CLEAR R2
 001716 5D20 74A0            01B8C 12655    01543000           D     R2,=F'7'            Get day of the week in R15
                                   12656    01544000
 00171A 1812                       12657    01545000           LR    R1,R2               Day number 0 to 6
 00171C 8910 0002            00002 12658    01546000           SLL   R1,2                Times four for word offset
 001720 5811 7054            01740 12659    01547000           L     R1,DAYTBL(R1)
                                   12660    01548000
 001724 1F00/4300 1000       00000 12661    01549000           LC    R0,@R1              Get string length
 00172A 4110 1001            00001 12666    01550000           LA    R1,@R1+1
 00172E 41F0 2001            00001 12667    01551000           LA    R15,@R2+1           Return day number (1..7)
 001732 18D8/982C D004       00004 12668    01552000           PEND
 DROP   *,R7
 001738 58E0 D000/12FF       00000 12684             +
 00173E 07FE                       12687             +
                                   12688    01553000
 001740 0000175C00001766           12689    01554000  DAYTBL   DC    A(DAYSUN,DAYMON,DAYTUE,DAYWED,DAYTHU,DAYFRI,DAYSAT)
 00175C 06E2A4958481A840           12690    01555000  DAYSUN   DC    AL1(6),CL9'Sunday'
 001766 06D496958481A840           12691    01556000  DAYMON   DC    AL1(6),CL9'Monday'
 001770 07E3A485A28481A8           12692    01557000  DAYTUE   DC    AL1(7),CL9'Tuesday'
 00177A 09E685849585A284           12693    01558000  DAYWED   DC    AL1(9),CL9'Wednesday'
 001784 08E388A499A28481           12694    01559000  DAYTHU   DC    AL1(8),CL9'Thursday'
 00178E 06C699898481A840           12695    01560000  DAYFRI   DC    AL1(6),CL9'Friday'
 001798 08E281A3A4998481           12696    01561000  DAYSAT   DC    AL1(8),CL9'Saturday'
1UTILS    Wings: DINTCONV - Convert double-word integer                                                                     Page   60
0Current Usings:  (TVT,R11) (GVT,R12)
0Loc    Object Code    Addr1 Addr2  Stmt Lv Lineno    Source Statement           (Hibal 5, Asmedit 3.3)  HLASM R4.0  2002/06/06 10.18
+___    ______ ____    _____ _____  ____ __ ______    ______ _________
0                                  12698    01563000  ¿þþþþþþþþþþþþþþþþþþþþþþþþþþþþþþþþþþþþþþþþþþþþþþþþþþþþþþþþþþþþþþþþþþþþþÜ
                                   12699    01564000  Ÿ                                                                     Ÿ
                                   12700    01565000  Ÿ   FMTJUL -- routine to format julian date from TOD clock.           Ÿ
                                   12701    01566000  Ÿ                                                                     Ÿ
                                   12702    01567000  Ÿ     On entry:                                                       Ÿ
                                   12703    01568000  Ÿ       R0-R1 - 64 bit clock (zero = current date)                    Ÿ
                                   12704    01569000  Ÿ       R15   - return area (6 bytes)                                 Ÿ
                                   12705    01570000  Ÿ                                                                     Ÿ
                                   12706    01571000  Ÿ     On exit:                                                        Ÿ
                                   12707    01572000  Ÿ       R1,R0 - text loc,len    returns: yy.ddd                       Ÿ
                                   12708    01573000  Ÿ                                                                     Ÿ
                                                      ¾þþþþþþþþþþþþþþþþþþþþþþþþþþþþþþþþþþþþþþþþþþþþþþþþþþþþþþþþþþþþþþþþþþþþþ»
00017A2 50E0 D000            00000 12709    01574000  FMTJUL   XPROC (R2,LSR),TRACE=NO
 0017A6 902C D004/188D       00004 12723             +
 0017AC 41D0 D030/0D70       00030 12725             +
 0017B2 186F                       12748    01575000           LR    R6,R15
 USING  *,R7
                                   12749    01576000
 0017B4 4DE0 703A            017EC 12750    01577000           LCALL TIMEDATE            Get julian date in R1
 0017B8                            12752    01578000           CLEAR (@R13,4)
 0017B8 D703 D000 D000 00000 00000 12758             +
 0017BE 5010 D004            00004 12759    01579000           ST    R1,@R13+4
 0017C2 4FF0 D000            00000 12760    01580000           CVB   R15,@R13            Get "yyddd" in binary
 0017C6 4100 0603/1816       00603 12761    01581000           BTR   @R6,(6,3),(R15)
 0017CC 58E0 73BE/0DEE       01B70 12781             +
 0017D2 D605 6000 740A 00000 01BBC 12783    01582000           OC    @R6(6),=C'00 000'
                                   12784    01583000
 0017D8 1816/4100 0006       00006 12785    01584000           SETMSG @R6,6
 0017DE 18D8/982C D004       00004 12801    01585000           PEND
 DROP   *,R7
 0017E4 58E0 D000/12FF       00000 12817             +
 0017EA 07FE                       12820             +
1UTILS    Wings: DINTCONV - Convert double-word integer                                                                     Page   61
0Current Usings:  (TVT,R11) (GVT,R12)
0Loc    Object Code    Addr1 Addr2  Stmt Lv Lineno    Source Statement           (Hibal 5, Asmedit 3.3)  HLASM R4.0  2002/06/06 10.18
+___    ______ ____    _____ _____  ____ __ ______    ______ _________
0                                  12822    01587000  ¿þþþþþþþþþþþþþþþþþþþþþþþþþþþþþþþþþþþþþþþþþþþþþþþþþþþþþþþþþþþþþþþþþþþþþÜ
                                   12823    01588000  Ÿ                                                                     Ÿ
                                   12824    01589000  Ÿ   TIMEDATE -- Routine to calculate time/date from TOD clock.        Ÿ
                                   12825    01590000  Ÿ     (Note format returned is the same as the "TIME BIN" svc.)       Ÿ
                                   12826    01591000  Ÿ                                                                     Ÿ
                                   12827    01592000  Ÿ     On entry:                                                       Ÿ
                                   12828    01593000  Ÿ       R0-R1 - 64 bit clock (zero = current time/date)               Ÿ
                                   12829    01594000  Ÿ                                                                     Ÿ
                                   12830    01595000  Ÿ     On exit:                                                        Ÿ
                                   12831    01596000  Ÿ       R0 - time (in .01 sec's past midnight)                        Ÿ
                                   12832    01597000  Ÿ       R1 - date (in "yydddf" packed decimal format)                 Ÿ
                                   12833    01598000  Ÿ            For year>1999, will be 01yydddf                          Ÿ
                                   12834    01599000  Ÿ                                                                     Ÿ
                                                      ¾þþþþþþþþþþþþþþþþþþþþþþþþþþþþþþþþþþþþþþþþþþþþþþþþþþþþþþþþþþþþþþþþþþþþþ»
00017EC 50E0 D000            00000 12835    01600000  TIMEDATE XPROC (R2,LSR),TRACE=NO
 0017F0 902C D004/188D       00004 12849             +
 0017F6 41D0 D030/0D70       00030 12851             +
 0017FC 1200/4770 701C       01818 12874    01601000           IF    ((R0,Z),AND,(R1,Z)),BEGIN    get current time
 USING  *,R7
 001802 1211/4770 701C       01818 12895             +
 001808 B205 D000      00000       12901  1 01601100             STCK  @R13                clock
 00180C 9801 D000            00000 12902  1 01601200             LM    R0,R1,@R13
 001810 5820 0010            00010 12903  1 01603000             L     R2,CVTPTR
 001814 5E00 2130            00130 12904  1 01604000             WITH  (CVT,R2),'AL R0,CVTTZ'  Time zone adjustment
 USING  CVT,R2
 DROP   CVT,R2
 001818                            12928    01605000           END   ,                      (get current time)
0001818 8C00 0012            00012 12933    01606000           SRDL  R0,12+6             .000001*64 of a sec
 00181C 5D00 738C            01B88 12934    01607000           D     R0,=A(1000000/64*60*60*24)  one day
 001820 4130 1001            00001 12935    01608000           LA    R3,@R1+1            No. of days since 1900
 001824 1810                       12936    01609000           LR    R1,R0               .000001*64 sec since midnight
 001826 1B00                       12937    01610000           CLEAR R0
 001828 8D00 0006            00006 12941    01611000           SLDL  R0,6                .000001 sec since midnight
 00182C 5D00 7364            01B60 12942    01612000           D     R0,=A(10000)        .01 sec since midnight
 001830 1801                       12943    01613000           LR    R0,R1
                                   12944    01614000
 001832 1B22                       12945    01615000           CLEAR R2
 001834 5C20 7370            01B6C 12949    01616000           M     R2,=A(100)
 001838 5D20 7394            01B90 12950    01617000           D     R2,=A(36525)        Days/365.25 = years
 00183C 1813                       12951    01618000           LR    R1,R3               Year
 00183E 4C10 73C6            01BC2 12952    01619000           MH    R1,=H'1000'         Yy*1000
 001842 1832                       12953    01620000           LR    R3,R2
 001844 1B22                       12954    01621000           CLEAR R2
 001846 5D20 7370            01B6C 12958    01622000           D     R2,=A(100)          R3 = days in this year (rel zero)
 00184A 4111 3001            00001 12959    01623000           LA    R1,@R3+1(R1)        Form "yyddd"
 00184E 4E10 D000            00000 12960    01624000           CVD   R1,@R13
 001852 960F D007      00007       12961    01625000           OI    @R13+7,X'0F'        Make sign correct
 001856 5810 D004            00004 12962    01626000           L     R1,@R13+4           Date in packed decimal
 00185A 18D8/982C D004       00004 12963    01627000           PEND
 DROP   *,R7
 001860 58E0 D000/12FF       00000 12979             +
 001866 07FE                       12982             +
1UTILS    Wings: DINTCONV - Convert double-word integer                                                                     Page   62
0Current Usings:  (TVT,R11) (GVT,R12)
0Loc    Object Code    Addr1 Addr2  Stmt Lv Lineno    Source Statement           (Hibal 5, Asmedit 3.3)  HLASM R4.0  2002/06/06 10.18
+___    ______ ____    _____ _____  ____ __ ______    ______ _________
0                                  12984    01629000  ¿þþþþþþþþþþþþþþþþþþþþþþþþþþþþþþþþþþþþþþþþþþþþþþþþþþþþþþþþþþþþþþþþþþþþþÜ
                                   12985    01630000  Ÿ                                                                     Ÿ
                                   12986    01631000  Ÿ     BDATE  -- Routine to calculate date from TOD clock.  Format     Ÿ
                                   12987    01632000  Ÿ     returned is the same as used for CRDAT, EXPDT in a DSCB.        Ÿ
                                   12988    01633000  Ÿ                                                                     Ÿ
                                   12989    01634000  Ÿ     On entry:                                                       Ÿ
                                   12990    01635000  Ÿ       R0-R1 - 64 bit clock (zero = get current time/date)           Ÿ
                                   12991    01636000  Ÿ                                                                     Ÿ
                                   12992    01637000  Ÿ     On exit:                                                        Ÿ
                                   12993    01638000  Ÿ       R0 - date.                                                    Ÿ
                                   12994    01639000  Ÿ            byte 0 = 0                                               Ÿ
                                   12995    01640000  Ÿ            byte 1 = year excess 1900, i.e. dec '96' is 1996,        Ÿ
                                   12996    01641000  Ÿ                     X'FF' is 2155                                   Ÿ
                                   12997    01642000  Ÿ            bytes 2-3 = day of the year (binary halfword)            Ÿ
                                   12998    01643000  Ÿ                                                                     Ÿ
                                   12999    01644000  Ÿ     This routine is a modification of TIMEDATE above.               Ÿ
                                                      ¾þþþþþþþþþþþþþþþþþþþþþþþþþþþþþþþþþþþþþþþþþþþþþþþþþþþþþþþþþþþþþþþþþþþþþ»
0001868 50E0 D000            00000 13001    01646000  BDATE    XPROC (R2,LSR),TRACE=NO
 00186C 902C D004/188D       00004 13015             +
 001872 41D0 D030/0D70       00030 13017             +
 001878 1200/4770 700E       01886 13040    01647000           IF    (R0,Z),'STCK @R13; LM R0,R1,@R13'
 USING  *,R7
 00187E B205 D000      00000       13055  1          +
 001882 9801 D000            00000 13056             +
                                   13061    01648000
 001886 5820 0010            00010 13062    01649000           L     R2,CVTPTR
 00188A 5E00 2130            00130 13063    01650000           WITH  (CVT,R2),'AL R0,CVTTZ'  Time zone adjustment
 USING  CVT,R2
 DROP   CVT,R2
                                   13087    01651000
 00188E 8C00 0012            00012 13088    01652000           SRDL  R0,12+6             .000001*64 of a sec
 001892 5D00 7310            01B88 13089    01653000           D     R0,=A(1000000/64*60*60*24)  one day
 001896 4130 1001            00001 13090    01654000           LA    R3,@R1+1            No. of days since 1900
                                   13091    01655000
 00189A 1B22                       13092    01656000           CLEAR R2                  for divide
 00189C 5C20 72F4            01B6C 13096    01657000           M     R2,=A(100)
 0018A0 5D20 7318            01B90 13097    01658000           D     R2,=A(36525)        Days/365.25 = years
                                   13098    01659000  * R2 remainder = day of year*100  R3 quotient = year
 0018A4 1803                       13099    01660000           LR    R0,R3               Year
 0018A6 1832                       13100    01661000           LR    R3,R2               day*100 (remainder above)
 0018A8 1B22                       13101    01662000           CLEAR R2                  for divide
 0018AA 5D20 72F4            01B6C 13105    01663000           D     R2,=A(100)          R3 = day of this year (rel zero)
 0018AE 4110 3001            00001 13106    01664000           LA    R1,@R3+1            day of this year (1-366)
 0018B2 8910 0010            00010 13107    01665000           SLL   R1,16               in left halfword
 0018B6 8D00 0010            00010 13108    01666000           SLDL  R0,16               00yy dddd in R0 (binary byte,
                                   13109    01667000  *                                  binary halfword)
 0018BA 18D8/982C D004       00004 13110    01668000           PEND
 DROP   *,R7
 0018C0 58E0 D000/12FF       00000 13126             +
 0018C6 07FE                       13129             +
1UTILS    Wings: DINTCONV - Convert double-word integer                                                                     Page   63
0Current Usings:  (TVT,R11) (GVT,R12)
0Loc    Object Code    Addr1 Addr2  Stmt Lv Lineno    Source Statement           (Hibal 5, Asmedit 3.3)  HLASM R4.0  2002/06/06 10.18
+___    ______ ____    _____ _____  ____ __ ______    ______ _________
0                                  13131    01670000  ¿þþþþþþþþþþþþþþþþþþþþþþþþþþþþþþþþþþþþþþþþþþþþþþþþþþþþþþþþþþþþþþþþþþþþþÜ
                                   13132    01671000  Ÿ                                                                     Ÿ
                                   13133    01672000  Ÿ   DATE -- Routine to convert packed decimal julian date (as         Ÿ
                                   13134    01673000  Ÿ     returned by 'TIME BIN') to 'mm/dd/yy' format.                   Ÿ
                                   13135    01674000  Ÿ                                                                     Ÿ
                                   13136    01675000  Ÿ       On entry:                                                     Ÿ
                                   13137    01676000  Ÿ         R0 - packed julian date (yydddf)                            Ÿ
                                   13138    01677000  Ÿ         R1 - 8 byte return area (for 'mm/dd/yy')                    Ÿ
                                   13139    01678000  Ÿ                                                                     Ÿ
                                   13140    01679000  Ÿ       On exit:                                                      Ÿ
                                   13141    01680000  Ÿ         R1,R0 - return area loc,len                                 Ÿ
                                   13142    01681000  Ÿ                                                                     Ÿ
                                                      ¾þþþþþþþþþþþþþþþþþþþþþþþþþþþþþþþþþþþþþþþþþþþþþþþþþþþþþþþþþþþþþþþþþþþþþ»
00018C8 50E0 D000            00000 13143    01682000  DATE     XPROC (R2,LSR),WA,TRACE=NO
 0018CC 902C D004/188D       00004 13157             +
 0018D2 41D0 D064/0D70       00064 13160             +
 0018D8 4160 8034            00004 13192    01683000           LA    R6,DW
 USING  *,R7
 USING  WA-(4+44),R8
 0018DC 5460 7284            01B5C 13193    01684000           N     R6,=X'FFFFFFF8'     Doubleword
 USING  DEC,R6                     13194    01685000           WITH  (DEC,R6)
 0018E0 5000 6004            00004 13207    01686000           ST    R0,DEC+4            Plant date
 0018E4 F342 1000 6005 00000 00005 13208    01687000           UNPK  @R1(5),DEC+5(3)     Convert year (and day to make dec)
 0018EA 96F0 1000      00000       13209    01688000           OI    @R1,X'F0'           Ensure valid plus sign
 0018EE D303 1001 1000 00001 00000 13210    01689000           MVZ   @R1+1(4),@R1        all have x'f0' zone
 0018F4 DD04 1000 7156 00000 01A2E 13211    01690000           TRT   @R1(5),DATEVAL-C'0'
 0018FA 4770 706A            01942 13212    01691000           BNZ   DATERR
 0018FE D201 1006 1000 00006 00000 13213    01692000           MVC   @R1+6(2),@R1        Put year into area
 001904 F271 6000 1006 00000 00006 13214    01693000           PACK  DEC(8),@R1+6(2)     Repack it
 00190A 4F30 6000            00000 13215    01694000           CVB   R3,DEC              Convert to binary
 00190E F272 6000 1002 00000 00002 13216    01695000           PACK  DEC(8),@R1+2(3)     Repack date (should be valid now)
 001914 4F20 6000            00000 13217    01696000           CVB   R2,DEC              Day of year
 001918 5430 72A8            01B80 13218    01697000           IF    ('N R3,=F"3"',Z),BEGIN  leap year
 00191C 4770 7062            0193A 13226             +
 001920 5920 72AC            01B84 13231  1 01698000             IF    (R2,EQ,=A(31+29)),'LA R2,29; LA R4,20; B DATE1'
 001924 4770 705C            01934 13242  1          +
 001928 4120 001D            0001D 13248  2          +
 00192C 4140 0014            00014 13249  2          +
 001930 47F0 7094            0196C 13250  1          +
 001934 47D0 7062/0620       0193A 13255  1 01699000             IF    GT,'DECR R2'
 00193A                            13273    01700000           END
 00193A 5920 72BC            01B94 13277    01701000           IF    (R2,GT,365),BEGIN
 00193E 47D0 7074            0194C 13289             +
 001942 D207 1000 7258 00000 01B30 13294  1 01702000  DATERR     MVC   @R1(8),=C'??/??/??'
 001948 47F0 70B4            0198C 13295  1 01703000             B     DATEX
 00194C                            13296    01704000           END
 00194C 4140 000A            0000A 13300    01705000           LA    R4,10               Set month to jan
 001950 4130 7268            01B40 13301    01706000           LA    R3,=H'31,28,31,30,31,30,31,31,30,31,30,31'
 001954 4920 3000            00000 13302    01707000           WHILE ('CH R2,@R3',GT),BEGIN
 001958 47D0 7094            0196C 13312             +
 00195C 4B20 3000            00000 13317  1 01708000             SH    R2,@R3              Try next month
 001960 4140 400A            0000A 13318  1 01709000             LA    R4,@R4+10
 001964 4130 3002            00002 13319  1 01710000             LA    R3,@R3+2
1UTILS    Wings: DINTCONV - Convert double-word integer                                                                     Page   64
0Current Usings:  (DEC,R6) (*,R7) (WA-(4+44),R8) (TVT,R11) (GVT,R12)
0Loc    Object Code    Addr1 Addr2  Stmt Lv Lineno    Source Statement           (Hibal 5, Asmedit 3.3)  HLASM R4.0  2002/06/06 10.18
+___    ______ ____    _____ _____  ____ __ ______    ______ _________
0001968 47F0 707C            01954 13320    01711000           END
 00196C 4E40 6000            00000 13325    01712000  DATE1    CVD   R4,DEC              Convert month
 001970 F321 1000 6006 00000 00006 13326    01713000           UNPK  @R1(3),DEC+6(2)
 001976 4C20 72EC            01BC4 13327    01714000           MH    R2,=H'10'
 00197A 4E20 6000            00000 13328    01715000           CVD   R2,DEC              Convert day
 00197E F321 1003 6006 00003 00006 13329    01716000           UNPK  @R1+3(3),DEC+6(2)
 001984 9261 1002      00002       13330    01717000           MVI   @R1+2,C'/'
 001988 9261 1005      00005       13331    01718000           MVI   @R1+5,C'/'
 00198C 4100 0008            00008 13332    01719000  DATEX    LA    R0,8                Return length
 001990 18D8/982C D004       00004 13333    01720000           PEND
 DROP   DEC,R6
 DROP   WA-(4+44),R8
 DROP   *,R7
 001996 58E0 D000/12FF       00000 13359             +
 00199C 07FE                       13362             +
1UTILS    Wings: DINTCONV - Convert double-word integer                                                                     Page   65
0Current Usings:  (TVT,R11) (GVT,R12)
0Loc    Object Code    Addr1 Addr2  Stmt Lv Lineno    Source Statement           (Hibal 5, Asmedit 3.3)  HLASM R4.0  2002/06/06 10.18
+___    ______ ____    _____ _____  ____ __ ______    ______ _________
0                                  13364    01722000  ¿þþþþþþþþþþþþþþþþþþþþþþþþþþþþþþþþþþþþþþþþþþþþþþþþþþþþþþþþþþþþþþþþþþþþþÜ
                                   13365    01723000  Ÿ                                                                     Ÿ
                                   13366    01724000  Ÿ   NDATE -- Routine to convert packed decimal julian date (as        Ÿ
                                   13367    01725000  Ÿ     returned by 'TIME BIN') to 'yyyy/mm/dd' format.                 Ÿ
                                   13368    01726000  Ÿ                                                                     Ÿ
                                   13369    01727000  Ÿ       On entry:                                                     Ÿ
                                   13370    01728000  Ÿ         R0 - packed julian date (0cyydddf)                          Ÿ
                                   13371    01729000  Ÿ         R1 - 10 byte return area (for 'yyyy/mm/dd')                 Ÿ
                                   13372    01730000  Ÿ                                                                     Ÿ
                                   13373    01731000  Ÿ       On exit:                                                      Ÿ
                                   13374    01732000  Ÿ         R1,R0 - return area loc,len                                 Ÿ
                                   13375    01733000  Ÿ                                                                     Ÿ
                                   13376    01734000  Ÿ  revised 1995/01/09 MCL:  clean up last byte                        Ÿ
                                                      ¾þþþþþþþþþþþþþþþþþþþþþþþþþþþþþþþþþþþþþþþþþþþþþþþþþþþþþþþþþþþþþþþþþþþþþ»
000199E 50E0 D000            00000 13378    01736000  NDATE    XPROC (R2,LSR),WA,TRACE=NO
 0019A2 902C D004/188D       00004 13392             +
 0019A8 41D0 D064/0D70       00064 13395             +
 0019AE 1851                       13427    01737000           LR    R5,R1               Save pointer
 USING  *,R7
 USING  WA-(4+44),R8
 0019B0 4160 8034            00004 13428    01738000           LA    R6,DW
 0019B4 5460 71AE            01B5C 13429    01739000           N     R6,=X'FFFFFFF8'     Doubleword
 USING  DEC,R6                     13430    01740000           WITH  (DEC,R6)
 0019B8 5000 6004            00004 13443    01741000           ST    R0,DEC+4            Plant date
 0019BC F363 1000 6004 00000 00004 13444    01742000           UNPK  @R1(7),DEC+4(4)     Convert year (and day to make dec)
 0019C2 96F0 1000      00000       13445    01743000           OI    @R1,X'F0'           Ensure valid plus sign
 0019C6 D306 1001 1000 00001 00000 13446    01744000           MVZ   @R1+1(7),@R1        all have x'f0' zone
 0019CC DD06 1000 7080 00000 01A2E 13447    01745000           TRT   @R1(7),DATEVAL-C'0' look for invalid digits
 0019D2 4770 7076            01A24 13448    01746000           BNZ   NDATERR             if invalid
                                   13449    01747000  **       MVC   @R1+6(2),@R1        Put year into area
 0019D6 F273 6000 1000 00000 00000 13450    01748000           PACK  DEC(8),@R1(4)       Repack it (still 0cyy fmt)
 0019DC 4F30 6000            00000 13451    01749000           CVB   R3,DEC              cyy in binary
 0019E0 FA72 6000 722E 00000 01BDC 13452    01750000           AP    DEC(8),=P'1900'     cyyddd->yyyyddd
 0019E6 F337 1000 6000 00000 00000 13453    01751000           UNPK  @R1(4),DEC(8)       back in result area
 0019EC 96F0 1003      00003       13454    01752000           OI    @R1+3,C'0'          Fix sign/zone
 0019F0 F272 6000 1004 00000 00004 13455    01753000           PACK  DEC(8),@R1+4(3)     Repack day (should be valid now)
 0019F6 4F20 6000            00000 13456    01754000           CVB   R2,DEC              Day of year
 0019FA 5430 71D2            01B80 13457    01755000           IF    ('N R3,=F"3"',Z),BEGIN  leap year
 0019FE 4770 706E            01A1C 13465             +
 001A02 5920 71D6            01B84 13470  1 01756000             IF    (R2,EQ,=A(31+29)),'LA R2,29; LA R4,20; B NDAT1'
 001A06 4770 7068            01A16 13481  1          +
 001A0A 4120 001D            0001D 13487  2          +
 001A0E 4140 0014            00014 13488  2          +
 001A12 47F0 70A0            01A4E 13489  1          +
 001A16 47D0 706E/0620       01A1C 13494  1 01757000             IF    GT,'DECR R2'
 001A1C                            13512    01758000           END
 001A1C 5920 71E6            01B94 13516    01759000           IF    (R2,GT,365),BEGIN
 001A20 47D0 7080            01A2E 13528             +
 001A24 D209 5000 71FA 00000 01BA8 13533  1 01760000  NDATERR    MVC   @R5(10),=C'????/??/??'
 001A2A 47F0 70C0            01A6E 13534  1 01761000             B     NDATX
 001A2E                            13535    01762000           END
 001A2E 4140 000A            0000A 13539    01763000           LA    R4,10               Set month to jan
 001A32 4130 7192            01B40 13540    01764000           LA    R3,=H'31,28,31,30,31,30,31,31,30,31,30,31'
1UTILS    Wings: DINTCONV - Convert double-word integer                                                                     Page   66
0Current Usings:  (DEC,R6) (*,R7) (WA-(4+44),R8) (TVT,R11) (GVT,R12)
0Loc    Object Code    Addr1 Addr2  Stmt Lv Lineno    Source Statement           (Hibal 5, Asmedit 3.3)  HLASM R4.0  2002/06/06 10.18
+___    ______ ____    _____ _____  ____ __ ______    ______ _________
0001A36 4920 3000            00000 13541    01765000           WHILE ('CH R2,@R3',GT),BEGIN
 001A3A 47D0 70A0            01A4E 13551             +
 001A3E 4B20 3000            00000 13556  1 01766000             SH    R2,@R3              Try next month
 001A42 4140 400A            0000A 13557  1 01767000             LA    R4,@R4+10
 001A46 4130 3002            00002 13558  1 01768000             LA    R3,@R3+2
 001A4A 47F0 7088            01A36 13559    01769000           END
 001A4E 4E40 6000            00000 13564    01770000  NDAT1    CVD   R4,DEC              Convert month
 001A52 F321 1005 6006 00005 00006 13565    01771000           UNPK  @R1+5(3),DEC+6(2)
                                   13566    01772000  **-ML    MH    R2,=H'10'
 001A58 4E20 6000            00000 13567    01773000           CVD   R2,DEC              Convert day
                                   13568    01774000  **=ml    UNPK  @R1+8(3),DEC+6(2)
 001A5C F321 1007 6006 00007 00006 13569    01775000           UNPK  @R1+7(3),DEC+6(2)
 001A62 96F0 1009      00009       13570    01776000           OI    @R1+9,C'0'          fix zone      ml950109
 001A66 9261 1004      00004       13571    01777000           MVI   @R1+4,C'/'
 001A6A 9261 1007      00007       13572    01778000           MVI   @R1+7,C'/'
 001A6E 4100 000A            0000A 13573    01779000  NDATX    LA    R0,10               Return length
 001A72 18D8/982C D004       00004 13574    01780000           PEND
 DROP   DEC,R6
 DROP   WA-(4+44),R8
 DROP   *,R7
 001A78 58E0 D000/12FF       00000 13600             +
 001A7E 07FE                       13603             +
1UTILS    Wings: DINTCONV - Convert double-word integer                                                                     Page   67
0Current Usings:  (TVT,R11) (GVT,R12)
0Loc    Object Code    Addr1 Addr2  Stmt Lv Lineno    Source Statement           (Hibal 5, Asmedit 3.3)  HLASM R4.0  2002/06/06 10.18
+___    ______ ____    _____ _____  ____ __ ______    ______ _________
0                                  13605    01782000  ¿þþþþþþþþþþþþþþþþþþþþþþþþþþþþþþþþþþþþþþþþþþþþþþþþþþþþþþþþþþþþþþþþþþþþþÜ
                                   13606    01783000  Ÿ                                                                     Ÿ
                                   13607    01784000  Ÿ  convert time to printable format                                   Ÿ
                                   13608    01785000  Ÿ                                                                     Ÿ
                                                      ¾þþþþþþþþþþþþþþþþþþþþþþþþþþþþþþþþþþþþþþþþþþþþþþþþþþþþþþþþþþþþþþþþþþþþþ»
0001A80 50E0 D000            00000 13609    01786000  TIME     XPROC (R2,LSR),WA,TRACE=NO
 001A84 902C D004/188D       00004 13623             +
 001A8A 41D0 D064/0D70       00064 13626             +
 001A90 4160 8034            00004 13658    01787000           LA    R6,DW               Find double word
 USING  *,R7
 USING  WA-(4+44),R8
 001A94 5460 7108            01B98 13659    01788000           N     R6,=XL4'FFFFF8'
 USING  DEC,R6                     13660    01789000           WITH  (DEC,R6)
 001A98 1830                       13673    01790000           LR    R3,0
 001A9A 1B22                       13674    01791000           SR    R2,R2
 001A9C 5D20 710C            01B9C 13675    01792000           D     R2,=F'100'          Dispose of 100ths
 001AA0 1B22                       13676    01793000           SR    R2,R2
 001AA2 5D20 7110            01BA0 13677    01794000           D     R2,=F'60'           Get seconds
 001AA6 4C20 7134            01BC4 13678    01795000           MH    R2,=H'10'
 001AAA 4E20 6000            00000 13679    01796000           CVD   R2,DEC
 001AAE F321 6000 6006 00000 00006 13680    01797000           UNPK  DEC(3),DEC+6(2)
 001AB4 D201 1006 6000 00006 00000 13681    01798000           MVC   6(2,1),DEC
 001ABA 1B22                       13682    01799000           SR    R2,R2
 001ABC 5D20 7110            01BA0 13683    01800000           D     R2,=F'60'           Get minutes
 001AC0 4C20 7134            01BC4 13684    01801000           MH    R2,=H'10'
 001AC4 4E20 6000            00000 13685    01802000           CVD   R2,DEC
 001AC8 F321 1003 6006 00003 00006 13686    01803000           UNPK  3(3,1),DEC+6(2)
 001ACE 4C30 7134            01BC4 13687    01804000           MH    R3,=H'10'
 001AD2 4E30 6000            00000 13688    01805000           CVD   R3,DEC              Hours
 001AD6 F321 1000 6006 00000 00006 13689    01806000           UNPK  0(3,1),DEC+6(2)
 001ADC 927A 1002      00002       13690    01807000           MVI   2(1),C':'
 001AE0 927A 1005      00005       13691    01808000           MVI   5(1),C':'
 001AE4 4100 0008            00008 13692    01809000           LA    R0,8                Set len
 001AE8 18D8/982C D004       00004 13693    01810000           PEND
 DROP   DEC,R6
 DROP   WA-(4+44),R8
 DROP   *,R7
 001AEE 58E0 D000/12FF       00000 13719             +
 001AF4 07FE                       13722             +
                                   13723    01811000
 001AF6 2020202020202020           13724    01812000  BTREDMSK DC    0CL24' ',14X'20',X'2120',C'.',7X'20'
 001B0E F0F1F2F3F4F5F6F7           13725    01813000  HEXTBL   DC    C'0123456789ABCDEF'
 001B1E 0000000000000000           13726    01814000  DATEVAL  DC    X'00000000000000000000010101010101'
                                   13727    01815000
                                   13728    01816000           QLTORG
1UTILS    ADDSYM - ADD SYMBOL TO DYNAMIC SYMBOL TABLE                                                                       Page   68
0Current Usings:  (TVT,R11) (GVT,R12)
0Loc    Object Code    Addr1 Addr2  Stmt Lv Lineno    Source Statement           (Hibal 5, Asmedit 3.3)  HLASM R4.0  2002/06/06 10.18
+___    ______ ____    _____ _____  ____ __ ______    ______ _________
0                                  13773    01818000  ¿þþþþþþþþþþþþþþþþþþþþþþþþþþþþþþþþþþþþþþþþþþþþþþþþþþþþþþþþþþþþþþþþþþþþþÜ
                                   13774    01819000  Ÿ                                                                     Ÿ
                                   13775    01820000  Ÿ  ADDSYM -- Add symbol to dynamic symbol table                       Ÿ
                                   13776    01821000  Ÿ                                                                     Ÿ
                                   13777    01822000  Ÿ                                                                     Ÿ
                                                      ¾þþþþþþþþþþþþþþþþþþþþþþþþþþþþþþþþþþþþþþþþþþþþþþþþþþþþþþþþþþþþþþþþþþþþþ»
0                                  13778    01823000           COPY  SYMTAB              INCLUDE SYMBOL TABLE FORMAT
                                   13779=   00001000 =¿þþþþþþþþþþþþþþþþþþþþþþþþþþþþþþþþþþþþþþþþþþþþþþþþþþþþþþþþþþþþþþþþþþþþþÜ
                                   13780=   00001010 =Ÿ                                                                     Ÿ
                                   13781=   00001020 =Ÿ   Define format of dynamic symbol table                             Ÿ
                                   13782=   00001030 =Ÿ                                                                     Ÿ
                                                      ¾þþþþþþþþþþþþþþþþþþþþþþþþþþþþþþþþþþþþþþþþþþþþþþþþþþþþþþþþþþþþþþþþþþþþþ»
-000000                00000 00014 13784    00001100 =SYMENTRY RECORD BEGIN
 000000 00000000                   13792  1 00008000 =SYMNEXT    DC    A(0)                Pointer to next symbol or (null)
 000004 D5C1D4C540404040           13793  1 00009000 =SYMNAME    DC    CL8'NAME'           Symbol name (ebcdic)
 00000C 00000000                   13794  1 00010000 =SYMLOC     DC    A(0)                Symbol starting location
 000010 00000000                   13795  1 00011000 =SYMLEN     DC    A(0)                Symbol length
 000014                00014 00014 13796    00013000 =         END
0001BE0 50E0 D000            00000 13806    01825000  ADDSYM   XPROC (R2,LSR),TRACE=NO
 001BE4 902C D004/188D       00004 13820             +
 001BEA 41D0 D030/0D70       00030 13822             +
 001BF0 1821                       13845    01826000           LR    R2,R1               Save address of table anchor
 USING  *,R7
 001BF2 183F                       13846    01827000           LR    R3,R15              Save address of new entry
 001BF4 47F0 7010            01C00 13847    01828000           GETMAIN RC,LV=L'SYMENTRY  Allocate memory for entry
 001BF8 00000014/00/00             13851             +
 001BFE 00/00                      13854             +
 001C00 5800 7008            01BF8 13857             +
 001C04 58F0 700C/1B11       01BFC 13858             +
 001C0A 0A78                       13860             +
 001C0C 12FF/4770 705A       01C4A 13861    01829000           IF    (R15,Z),BEGIN
 USING  SYMENTRY,R1                13875  1 01830000             WITH  (SYMENTRY,R1),BEGIN
 001C12 D20F 1004 3000 00004 00000 13889  2 01831000               MVC   SYMNAME(8+4+4),@R3  Initialize table entry
 001C18                            13890  2 01832000               CLEAR SYMNEXT             Clear next symbol pointer
 001C18 D703 1000 1000 00000 00000 13896  2          +
 DROP   SYMENTRY,R1                13897  1 01833000             END   ,
                                   13905  1 01834000             ¿þþþþþþþþþþþþþþþþþþþþþþþþþþþþþþþþþþþþþþþþþþþþþþþþþþþþþÜ
                                   13906  1 01835000             Ÿ  CHAIN THRU EXISTING SYMBOL table adding new entry  Ÿ
                                   13907  1 01836000             Ÿ  IN STORAGE LOCATION ORDER                          Ÿ
                                   13908  1 01837000             ¾þþþþþþþþþþþþþþþþþþþþþþþþþþþþþþþþþþþþþþþþþþþþþþþþþþþþþ»
 001C1E 5840 2000            00000 13909  1 01838000             L     R4,@R2              Set address of first entry
 USING  SYMENTRY,R4                13910  1 01839000             WITH  (SYMENTRY,R4),BEGIN
 001C22 1244/4780 7056       01C46 13924  2 01840000               WHILE (R4,NZ),BEGIN       Set anchor address of table
 001C28 D503 400C 100C 0000C 0000C 13940  3 01841000                 CLC   SYMLOC,SYMLOC-SYMENTRY(R1)
 001C2E 47D0 7048            01C38 13941  3 01842000                 IF    GT,BEGIN            Found insert point
 001C32 5040 1000            00000 13952  4 01843000                   ST    R4,@R1              Insert symbol in proper location
 001C36 1B44                       13953  4 01844000                   CLEAR R4                  Terminate add
 001C38 704C           01C38 01C30 13957  3 01845000                 END   ELSE,BEGIN
 001C38 47F0 7052            01C42 13966  3          +
 001C3C 1824                       13972  4 01846000                   LR    R2,R4               Save last entry address
1UTILS    ADDSYM - ADD SYMBOL TO DYNAMIC SYMBOL TABLE                                                                       Page   69
0Current Usings:  (SYMENTRY,R4) (*,R7) (TVT,R11) (GVT,R12)
0Loc    Object Code    Addr1 Addr2  Stmt Lv Lineno    Source Statement           (Hibal 5, Asmedit 3.3)  HLASM R4.0  2002/06/06 10.18
+___    ______ ____    _____ _____  ____ __ ______    ______ _________
0001C3E 5840 4000            00000 13973  4 01847000                   L     R4,SYMNEXT          Point to next entry
 001C42                            13974  3 01848000                 END   ,
 001C42 47F0 7032            01C22 13978  2 01849000               END   ,
 001C46 5010 2000            00000 13983  2 01850000               ST    R1,@R2              Add this entry in
 DROP   SYMENTRY,R4                13984  1 01851000             END   ,
 001C4A                            13992    01852000           END   ,
 001C4A 18D8/982C D004       00004 13996    01853000           PEND
 DROP   *,R7
 001C50 58E0 D000/12FF       00000 14012             +
 001C56 07FE                       14015             +
1UTILS    DELSYM - DELETE SYMBOL FROM SYMBOL TABLE                                                                          Page   70
0Current Usings:  (TVT,R11) (GVT,R12)
0Loc    Object Code    Addr1 Addr2  Stmt Lv Lineno    Source Statement           (Hibal 5, Asmedit 3.3)  HLASM R4.0  2002/06/06 10.18
+___    ______ ____    _____ _____  ____ __ ______    ______ _________
0                                  14017    01855000  ¿þþþþþþþþþþþþþþþþþþþþþþþþþþþþþþþþþþþþþþþþþþþþþþþþþþþþþþþþþþþþþþþþþþþþþÜ
                                   14018    01856000  Ÿ                                                                     Ÿ
                                   14019    01857000  Ÿ  DELSYM -- DELETE SYMBOL FROM SYMBOL TABLE                          Ÿ
                                   14020    01858000  Ÿ                                                                     Ÿ
                                   14021    01859000  Ÿ      ON ENTRY:                                                      Ÿ
                                   14022    01860000  Ÿ        R15 - ADDRESS OF SYMBOL TABLE ANCHOR CELL                    Ÿ
                                   14023    01861000  Ÿ        R0  - ADDRESS OF SYMBOL LOCATION                             Ÿ
                                   14024    01862000  Ÿ        R1  - POINTER TO SYMBOL NAME                                 Ÿ
                                   14025    01863000  Ÿ                                                                     Ÿ
                                                      ¾þþþþþþþþþþþþþþþþþþþþþþþþþþþþþþþþþþþþþþþþþþþþþþþþþþþþþþþþþþþþþþþþþþþþþ»
-001C58 50E0 D000            00000 14027    01865000  DELSYM   XPROC (R2,LSR),TRACE=NO
 001C5C 902C D004/188D       00004 14041             +
 001C62 41D0 D030/0D70       00030 14043             +
 USING  *,R7                       14066    01866000           WITH  (SYMENTRY,R2),BEGIN ADDRESSABILITY TO TABLE ENTRY
 USING  SYMENTRY,R2
 001C68 5820 F000            00000 14080  1 01867000             L     R2,@R15             ADDRESS OF FIRST SYMBOL
 001C6C 1222/4780 7046       01CAE 14081  1 01868000             WHILE (R2,NZ),BEGIN       SCAN THROUGH TABLE FOR MATCH
 001C72 5900 200C            0000C 14097  2 01869000               IF    ((R0,EQ,SYMLOC),AND,(SYMNAME,EQ,@R1)),BEGIN
 001C76 4770 7038            01CA0 14111  2          +
 001C7A D507 2004 1000 00004 00000 14124  2          +
 001C80 4770 7038            01CA0 14125  2          +
 001C84 D203 F000 2000 00000 00000 14130  3 01870000                 MVC   0(4,R15),SYMNEXT    DEQUEUE CURRENT ENTRY
 001C8A 0700/47F0 702C       01C94 14131  3 01871000                 FREEMAIN R,LV=L'SYMENTRY,A=(R2)     RELEASE ENTRY
 001C90 00000014                   14135  3          +
 001C94 5800 7028            01C90 14136  3          +
 001C98 4110 2000/0A0A       00000 14137  3          +
 001C9E 1B22                       14139  3 01872000                 CLEAR R2                  TERMINATE PROCESSING
 001CA0 703C           01CA0 01C78 14143  2 01873000               END   ELSE,BEGIN
 001C82 703C           01C84 01CA0 14152  2          +
 001CA0 47F0 7042            01CAA 14154  2          +
 001CA4 18F2                       14160  3 01874000                 LR    R15,R2              SAVE PREVIOUS POINTER
 001CA6 5820 2000            00000 14161  3 01875000                 L     R2,SYMNEXT          CHAIN TO NEXT SYMBOL ENTRY
 001CAA                            14162  2 01876000               END   ,
 001CAA 47F0 7004            01C6C 14166  1 01877000             END   ,
 DROP   SYMENTRY,R2                14171    01878000           END   ,
 001CAE 18D8/982C D004       00004 14179    01879000           PEND  ,
 DROP   *,R7
 001CB4 58E0 D000/12FF       00000 14195             +
 001CBA 07FE                       14198             +
1UTILS    DELSYM - DELETE SYMBOL FROM SYMBOL TABLE                                                                          Page   71
0Current Usings:  (TVT,R11) (GVT,R12)
0Loc    Object Code    Addr1 Addr2  Stmt Lv Lineno    Source Statement           (Hibal 5, Asmedit 3.3)  HLASM R4.0  2002/06/06 10.18
+___    ______ ____    _____ _____  ____ __ ______    ______ _________
0                                  14200    01881000  ¿þþþþþþþþþþþþþþþþþþþþþþþþþþþþþþþþþþþþþþþþþþþþþþþþþþþþþþþþþþþþþþþþþþþþþÜ
                                   14201    01882000  Ÿ                                                                     Ÿ
                                   14202    01883000  Ÿ   UNPRESS -- Unpresses a line in WYLBUR edit format.                Ÿ
                                   14203    01884000  Ÿ                                                                     Ÿ
                                   14204    01885000  Ÿ     On entry:                                                       Ÿ
                                   14205    01886000  Ÿ       R15- pressed line ptr (before lineno)                         Ÿ
                                   14206    01887000  Ÿ       R1 - unpress area (at least &LINESZ bytes)                    Ÿ
                                   14207    01888000  Ÿ                                                                     Ÿ
                                   14208    01889000  Ÿ     On exit:                                                        Ÿ
                                   14209    01890000  Ÿ       R1,R0 - unpress loc, len                                      Ÿ
                                   14210    01891000  Ÿ       R15   - WYLBUR line-number                                    Ÿ
                                   14211    01892000  Ÿ                                                                     Ÿ
                                                      ¾þþþþþþþþþþþþþþþþþþþþþþþþþþþþþþþþþþþþþþþþþþþþþþþþþþþþþþþþþþþþþþþþþþþþþ»
0000000                00000 00004 14212    01893000  UNPRWA   RECORD BEGIN
 000000                            14220  1 01894000  UNPRLNO    DS    F                   Lineno
 000004                00004 00004 14221    01895000           END
                                   14230    01896000  þþþþ
 001CBC 90DF B0D4            000D4 14231    01897000  UNPRESS  XPROC (R1,LSR),UNPRWA
 001CC0 58F0 C014/0DEF       00014 14243             +
 001CC6 E4D5D7D9C5E2E240           14245             +
 001CCE 98DF B0D4            000D4 14246             +
 001CD2 50E0 D000            00000 14249             +
 001CD6 901C D004/188D       00004 14252             +
 001CDC 41D0 D038/0D70       00038 14255             +
 001CE2 D203 8034 F000 00000 00000 14287    01898000           MVC   UNPRLNO,@R15        Make aligned line-no available
 USING  *,R7
 USING  UNPRWA-(4+48),R8
 001CE8 9240 1000      00000       14288    01899000           MVI   @R1,C' '            Blank return area
 001CEC D2E9 1001 1000 00001 00000 14289    01900000           MVC   @R1+1(235-1),@R1
 001CF2 4110 1000            00000 14290    01901000           LA    R1,@R1              Make sure 1st byte clear
 001CF6 1301                       14291    01902000           LCR   R0,R1               Set r0 for length calc at end
 001CF8 1F55/4350 F004       00004 14292    01903000           LC    R5,@R15+4           Get total line length
 001CFE 1255                       14299    01904000           LTR   R5,R5               Is it a null line
 001D00 4780 7052            01D34 14300    01905000           BZ    FINUNP              Br yes
 001D04 4160 000F            0000F 14301    01906000           LA    R6,X'0F'            Put mask in r2
 001D08 4120 0001            00001 14302    01907000           LA    R2,1                Set r2 for bxle step
 001D0C 0650                       14303    01908000           DECR  R5                  Set r5 so that end of line
 001D0E 4135 F000            00000 14305    01909000           LA    R3,@R15(R5)         Point r3 to end for bxle
 001D12 4350 F005            00005 14306    01910000  MORECH   IC    R5,@R15+5           Get blank-char control byte
 001D16 1845                       14307    01911000           LR    R4,R5               Put in r4 also
 001D18 8850 0004            00004 14308    01912000           SRL   R5,4                Shift to get blank count
 001D1C 1A15                       14309    01913000           AR    R1,R5               Move output ptr over blanks
 001D1E 1446                       14310    01914000           NR    R4,R6               Mask to get non-blank count
 001D20 4780 704E            01D30 14311    01915000           BZ    ALLBLS              No move if zero count
 001D24 1854                       14312    01916000           LR    R5,R4               Put count in r5
 001D26 0650/4450 79CE       026B0 14313    01917000           DEX   R5,'MVC @R1,@R15+6' Move text to output
 0026B0 D200 1000 F006 00000 00006 14324             +
 001D2C 1AF4                       14332    01918000           AR    R15,R4              Bump input ptr past text
 001D2E 1A14                       14333    01919000           AR    R1,R4               Bump output ptr past text
 001D30 87F2 7030            01D12 14334    01920000  ALLBLS   BXLE  R15,R2,MORECH       Add 1 (in r2) to input ptr
                                   14335    01921000  *                       (in r15) and branch if <= end (in r3)
                                   14336    01922000  * note that this now falls through even for an invalid pressed
                                   14337    01923000  *      line.  for a valid line (r3+1) must equal r15 but there
1UTILS    DELSYM - DELETE SYMBOL FROM SYMBOL TABLE                                                                          Page   72
0Current Usings:  (*,R7) (UNPRWA-(4+48),R8) (TVT,R11) (GVT,R12)
0Loc    Object Code    Addr1 Addr2  Stmt Lv Lineno    Source Statement           (Hibal 5, Asmedit 3.3)  HLASM R4.0  2002/06/06 10.18
+___    ______ ____    _____ _____  ____ __ ______    ______ _________
0                                  14338    01924000  *      is no reason to check because there is no good recovery
                                   14339    01925000  *      if the line happens to be invalid.
 001D34 58F0 8034            00000 14340    01926000  FINUNP   L     R15,UNPRLNO         Line-no to R15
 001D38 1A01                       14341    01927000           AR    R0,R1               Calc total length of line
 001D3A 18D8/981C D004       00004 14342    01928000           PEND
 DROP   UNPRWA-(4+48),R8
 DROP   *,R7
 001D40 58E0 D000/12FF       00000 14363             +
 001D46 07FE                       14366             +
1UTILS    DELSYM - DELETE SYMBOL FROM SYMBOL TABLE                                                                          Page   73
0Current Usings:  (TVT,R11) (GVT,R12)
0Loc    Object Code    Addr1 Addr2  Stmt Lv Lineno    Source Statement           (Hibal 5, Asmedit 3.3)  HLASM R4.0  2002/06/06 10.18
+___    ______ ____    _____ _____  ____ __ ______    ______ _________
0                                  14368    01930000  ¿þþþþþþþþþþþþþþþþþþþþþþþþþþþþþþþþþþþþþþþþþþþþþþþþþþþþþþþþþþþþþþþþþþþþþÜ
                                   14369    01931000  Ÿ                                                                     Ÿ
                                   14370    01932000  Ÿ   DEQUOTE/DEQSTR -- Routine to dequote string.                      Ÿ
                                   14371    01933000  Ÿ                                                                     Ÿ
                                   14372    01934000  Ÿ    On entry:                                                        Ÿ
                                   14373    01935000  Ÿ      R1,R0 - string loc,len                                         Ÿ
                                   14374    01936000  Ÿ      R15   - output string loc (only for "DEQSTR" entry)            Ÿ
                                   14375    01937000  Ÿ                                                                     Ÿ
                                   14376    01938000  Ÿ    On exit, CC:                                                     Ÿ
                                   14377    01939000  Ÿ      NEG   - not a string (r1,r0 - same as on entry)                Ÿ
                                   14378    01940000  Ÿ      Z,POS - string dequoted (r1,r0 -loc,len of dequoted string)    Ÿ
                                   14379    01941000  Ÿ                                                                     Ÿ
                                                      ¾þþþþþþþþþþþþþþþþþþþþþþþþþþþþþþþþþþþþþþþþþþþþþþþþþþþþþþþþþþþþþþþþþþþþþ»
0                                  14380    01942000           ENTRY DEQUOTE
 001D48 41F0 1001            00001 14381    01943000  DEQUOTE  LA    R15,@R1+1           De-quote string in place
                                   14382    01944000
 001D4C 50E0 D000            00000 14383    01945000  DEQSTR   XPROC (R2,LSR),TRACE=NO
 001D50 902C D004/188D       00004 14397             +
 001D56 41D0 D030/0D70       00030 14399             +
 001D5C 5900 78DC            02638 14422    01946000           IF    (R0,LT,2),DQBAD     Bad string
 USING  *,R7
 001D60 4740 7058            01DB4 14436             +
 001D64 957D 1000      00000       14442    01947000           IF    ((@R1,NE,''''),AND,(@R1,NE,'"')),DQBAD
 001D68 4780 7018            01D74 14455             +
 001D6C 957F 1000      00000       14467             +
 001D70 4770 7058            01DB4 14470             +
                                   14476    01948000
 001D74 0600                       14477    01949000           DECR  R0                  Strip off outer quotes
 001D76 0600                       14479    01950000           DECR  R0
 001D78 1841                       14481    01951000           LR    R4,R1               Remember kind of quote
 001D7A 4160 1001            00001 14482    01952000           LA    R6,@R1+1            Inp ptr
 001D7E 181F                       14483    01953000           LR    R1,R15
 001D80 1850                       14484    01954000           LR    R5,R0
 001D82 1255/47D0 7052       01DAE 14485    01955000           WHILE (R5,POS),BEGIN
 001D88 D200 F000 6000 00000 00000 14501  1 01956000             MVC   @R15,@R6
 001D8E                            14502  1 01957000             IF    ('CLC @R15,@R4',EQ),'LA R6,@R6+1; DECR R5; DECR R0'
 001D8E D500 F000 4000 00000 00000 14509  1          +
 001D94 4770 7044            01DA0 14510  1          +
 001D98 4160 6001/0650       00001 14516  2          +
 001D9E 0600                       14520  1          +
 001DA0 41F0 F001            00001 14525  1 01958000             LA    R15,@R15+1
 001DA4 4160 6001            00001 14526  1 01959000             LA    R6,@R6+1
 001DA8 0650                       14527  1 01960000             DECR  R5
 001DAA 47F0 7026            01D82 14529    01961000           END
 001DAE 1200                       14534    01962000           LTR   R0,R0               Set cc
 001DB0 47F0 705A            01DB6 14535    01963000           EXIT
                                   14538    01964000
 001DB4 1147                       14539    01965000  DQBAD    LNR   R4,BR               Set cc=neg
 001DB6 18D8/982C D004       00004 14540    01966000           PEND  *
 DROP   *,R7
 001DBC 58E0 D000/07FE       00000 14556             +
1UTILS    HEXSEG - Seg data in hex format                                                                                   Page   74
0Current Usings:  (TVT,R11) (GVT,R12)
0Loc    Object Code    Addr1 Addr2  Stmt Lv Lineno    Source Statement           (Hibal 5, Asmedit 3.3)  HLASM R4.0  2002/06/06 10.18
+___    ______ ____    _____ _____  ____ __ ______    ______ _________
0                                  14560    01968000  ¿þþþþþþþþþþþþþþþþþþþþþþþþþþþþþþþþþþþþþþþþþþþþþþþþþþþþþþþþþþþþþþþþþþþþþÜ
                                   14561    01969000  Ÿ                                                                     Ÿ
                                   14562    01970000  Ÿ  HEXSEG -- Routine to seg data in hex format.                       Ÿ
                                   14563    01971000  Ÿ                                                                     Ÿ
                                   14564    01972000  Ÿ    On entry:                                                        Ÿ
                                   14565    01973000  Ÿ      R1,R0 - data loc, len                                          Ÿ
                                   14566    01974000  Ÿ      R15 - SEGCB ptr                                                Ÿ
                                   14567    01975000  Ÿ                                                                     Ÿ
                                                      ¾þþþþþþþþþþþþþþþþþþþþþþþþþþþþþþþþþþþþþþþþþþþþþþþþþþþþþþþþþþþþþþþþþþþþþ»
0000000                00000 00008 14568    01976000  HXSWA    RECORD BEGIN
 000000                            14576  1 01977000  HXSWORK    DS    D                   Work area
 000008                00008 00008 14577    01978000           END
-001DC2 90DF B0D4            000D4 14587    01980000  HEXSEG   XPROC HXSWA
 001DC6 58F0 C014/0DEF       00014 14600             +
 001DCC C8C5E7E2C5C74040           14602             +
 001DD4 98DF B0D4            000D4 14603             +
 001DD8 50E0 D000            00000 14606             +
 001DDC 900C D004/188D       00004 14609             +
 001DE2 41D0 D040/0D70       00040 14612             +
 001DE8 1830                       14644    01981000           LR    R3,R0
 USING  *,R7
 USING  HXSWA-(4+52),R8
 001DEA 1841                       14645    01982000           LR    R4,R1
 001DEC 185F                       14646    01983000           LR    R5,R15              Save SEGCB ptr
                                   14647    01984000           SEGDEF (R5)
                                   14648    01985000
 001DEE 1233/47D0 7046       01E2E 14649    01986000           WHILE (R3,POS),BEGIN      Keep stepping through the data...
 001DF4 58F0 4000            00000 14665  1 01987000             BTX   HXSWORK,8,L:@R4     Convert a word to hex
 001DF8 4100 0008            00008 14676  1          +
 001DFC 4110 8038            00000 14683  1          +
 001E00 58E0 7854/0DEE       0263C 14686  1          +
                                   14688  1 01988000
 001E06 1803                       14689  1 01989000             LR    R0,R3
 001E08 5900 7858            02640 14690  1 01990000             CEIL  R0,4
 001E0C 47D0 702C            01E14 14699  1          +
 001E10 5800 7858            02640 14704  1          +
 001E14 1A00                       14709  1 01991000             AR    R0,R0               Get correct length for digits
                                   14710  1 01992000
 001E16 4110 8038/18F5       00000 14711  1 01993000             SEG   HXSWORK,(R0)        Seg what we have
 001E1C 58E0 785C/0DEE       02644 14733  1          +
 001E22 4140 4004            00004 14735  1 01994000             LA    R4,@R4+4            Next word
 001E26 4B30 78A4            0268C 14736  1 01995000             SH    R3,=H'4'
 001E2A 47F0 7006            01DEE 14737    01996000           END
                                   14742    01997000
 001E2E 18D8/980C D004       00004 14743    01998000  HEXFEXIT PEND
 DROP   HXSWA-(4+52),R8
 DROP   *,R7
 001E34 58E0 D000/12FF       00000 14765             +
 001E3A 07FE                       14768             +
1UTILS    HEXDUMP - Write formatted data display                                                                            Page   75
0Current Usings:  (TVT,R11) (GVT,R12)
0Loc    Object Code    Addr1 Addr2  Stmt Lv Lineno    Source Statement           (Hibal 5, Asmedit 3.3)  HLASM R4.0  2002/06/06 10.18
+___    ______ ____    _____ _____  ____ __ ______    ______ _________
0                                  14770    02000000  ¿þþþþþþþþþþþþþþþþþþþþþþþþþþþþþþþþþþþþþþþþþþþþþþþþþþþþþþþþþþþþþþþþþþþþþÜ
                                   14771    02001000  Ÿ                                                                     Ÿ
                                   14772    02002000  Ÿ   HEXDUMP -- Write formatted hex dump                               Ÿ
                                   14773    02003000  Ÿ                                                                     Ÿ
                                   14774    02004000  Ÿ     On entry:                                                       Ÿ
                                   14775    02005000  Ÿ       R0  - length of area                                          Ÿ
                                   14776    02006000  Ÿ       R1  - address of area                                         Ÿ
                                   14777    02007000  Ÿ       R15 - SEGCB address                                           Ÿ
                                   14778    02008000  Ÿ                                                                     Ÿ
                                   14779    02009000  Ÿ       GVTHXDFL flags specify formatting options                     Ÿ
                                   14780    02010000  Ÿ                                                                     Ÿ
                                                      ¾þþþþþþþþþþþþþþþþþþþþþþþþþþþþþþþþþþþþþþþþþþþþþþþþþþþþþþþþþþþþþþþþþþþþþ»
0000000                00000 0005A 14781    02011000  HXDWA    RECORD BEGIN
 000000                            14789  1 02012000  HXDSEGCB   DS    A                   SEGCB address
 000004                            14790  1 02013000  HXDTRT     DS    A                   Translate table address
                                   14791  1 02014000
 000008                            14792  1 02015000  HXDFLAGS   DS    X                   Copy of GVTHXDFL
                                   14793  1 02016000
 000009                            14794  1 02017000  HXDUNPK    DS    XL2                 Working UNPK area
                                   14795  1 02018000
 00000B                            14796  1 02019000  HXDADDR    DS    CL8                 Address
 000013                            14797  1 02020000             DS    CL2
 000015                            14798  1 02021000  HXDHEXDM   DS    0CL(8*4+3)          Hex bytes (EBCDIC dump format)
 000015                            14799  1 02022000  HXDHEX     DS    CL(16*3+1)          Hex bytes (ASCII char  format)
 000046                            14800  1 02023000             DS    CL2
 000048                            14801  1 02024000             DS    C                   '|'
 000049                            14802  1 02025000             DS    CL16                Char display
 000059                            14803  1 02026000             DS    C                   '|'
                                   14804  1 02027000  HXDLINE    EQU   HXDADDR,*-HXDADDR,C'C'
 00005A                0005A 0005A 14805    02028000           END
                                   14814    02029000  þþþþ
 001E3C 90DF B0D4            000D4 14815    02030000  HEXDUMP  XPROC HXDWA
 001E40 58F0 C014/0DEF       00014 14828             +
 001E46 C8C5E7C4E4D4D740           14830             +
 001E4E 98DF B0D4            000D4 14831             +
 001E52 50E0 D000            00000 14834             +
 001E56 900C D004/188D       00004 14837             +
 001E5C 41D0 D094/0D70       00094 14840             +
 001E62 1851                       14872    02031000           LR    R5,R1               Save start address
 USING  *,R7
 USING  HXDWA-(4+52),R8
 001E64 1861                       14873    02032000           LR    R6,R1               Init data pointer
 001E66 1870                       14874    02033000           LR    R7,R0               Init data counter
 001E68 50F0 8038            00000 14875    02034000           ST    R15,HXDSEGCB        Save SEGCB address
                                   14876    02035000           SEGDEF L:HXDSEGCB
                                   14877    02036000
 001E6C D200 8040 C04D 00008 0004D 14878    02037000           MVC   HXDFLAGS,GVTHXDFL   Save copy of flags
 001E72 9200 C04D      0004D       14879    02038000           CLEAR GVTHXDFL            Reset flags
                                   14886    02039000
 001E76 D203 803C 77E6 00004 02648 14887    02040000           MVC   HXDTRT,=A(ASCIIFMT)
 001E7C 9180 8040      00008       14888    02041000           IF    HXDFLAGS.HXDFLEBC,'MVC HXDTRT,=A(SEGTRTBL)'
 001E80 47E0 7028            01E8A 14898             +
 001E84 D203 803C 77EA 00004 0264C 14904             +
1UTILS    HEXDUMP - Write formatted data display                                                                            Page   76
0Current Usings:  (*,R7) (HXDWA-(4+52),R8) (TVT,R11) (GVT,R12)
0Loc    Object Code    Addr1 Addr2  Stmt Lv Lineno    Source Statement           (Hibal 5, Asmedit 3.3)  HLASM R4.0  2002/06/06 10.18
+___    ______ ____    _____ _____  ____ __ ______    ______ _________
0001E8A 1277/47D0 7142       01FA4 14909    02042000           WHILE (R7,P),BEGIN        Loop on data count
 001E90 9240 8043      0000B       14925  1 02043000             MVI   HXDLINE,C' '        Init print line buffer
 001E94 D24D 8044 8043 0000C 0000B 14926  1 02044000             MVC   HXDLINE+1(L'HXDLINE-1),HXDLINE
 001E9A 18F6                       14927  1 02045000             LR    R15,R6              Data address
 001E9C 9140 8040      00008       14928  1 02046000             IF    HXDFLAGS.HXDFLADD,BEGIN   If address format,
 001EA0 47E0 7050            01EB2 14938  1          +
 001EA4 4100 0008            00008 14943  2 02047000               BTX   HXDADDR,8,(R15)     Format address
 001EA8 4110 8043            0000B 14960  2          +
 001EAC 58E0 77DA/0DEE       0263C 14963  2          +
 001EB2                            14965  1 02048000             END
 001EB2 7054           01EB2 01EA2 14969  1 02049000             ELSE  BEGIN               Else display offset
 001EB2 47F0 7068            01ECA 14974  1          +
 001EB6 1BF5                       14980  2 02050000               SR    R15,R5              Get data offset
 001EB8 924E 8046      0000E       14981  2 02051000               MVI   HXDADDR+3,C'+'      Offset form
 001EBC 4100 0004            00004 14982  2 02052000               BTX   HXDADDR+4,4,(R15)   Format offset
 001EC0 4110 8047            0000F 14999  2          +
 001EC4 58E0 77DA/0DEE       0263C 15002  2          +
 001ECA                            15004  1 02053000             END
 001ECA 4120 804D            00015 15008  1 02054000             LA    R2,HXDHEX           Init hex display pointer
 001ECE 9180 C04D      0004D       15009  1 02055000             IF    HXDFLEBC,BEGIN      If EBCDIC dump format,
 001ED2 47E0 7078            01EDA 15019  1          +
 001ED6 4132 0025            00025 15024  2 02056000               LA    R3,L'HXDHEXDM+2(R2)  Init char display pointer
 001EDA                            15025  1 02057000             END
 001EDA 707C           01EDA 01ED4 15029  1 02058000             ELSE  BEGIN               Else ASCII data format,
 001EDA 47F0 7080            01EE2 15034  1          +
 001EDE 4132 0033            00033 15040  2 02059000               LA    R3,L'HXDHEX+2(R2)
 001EE2                            15041  1 02060000             END
 001EE2 924F 3000      00000       15045  1 02061000             MVI   @R3,C'|'
 001EE6 924F 3011      00011       15046  1 02062000             MVI   @R3+17,C'|'
 001EEA 5E30 77EE            02650 15047  1 02063000             INCR  R3
 001EEE 4140 0001            00001 15050  1 02064000             LA    R4,1                Loop counter for this line
 001EF2 5940 77F2            02654 15051  1 02065000             WHILE ((R4,LE,16),AND,(R7,P)),BEGIN
 001EF6 4730 712C/1277       01F8E 15067  1          +
 001EFC 47D0 712C            01F8E 15078  1          +
 001F00 B100 6000            00000 15083  2 02066000               LRA   R0,@R6              Check address
 001F04 4740 70AA            01F0C 15084  2 02067000               IF    (M,OR,O),BEGIN
 001F08 47E0 70C0            01F22 15100  2          +
 001F0C 4110 7838            0269A 15105  3 02068000                 SEGWR 'Invalid address'
 001F10 4100 000F            0000F 15110  3          +
 001F14 58F0 8038            00000 15116  3          +
 001F18 58E0 77F6/0DEE       02658 15119  3          +
 001F1E 47F0 7142            01FA4 15121  3 02069000                 EXIT  HEXDUMP
 001F22                            15124  2 02070000               END
 001F22 D200 8041 6000 00009 00000 15128  2 02071000               MVC   HXDUNPK(1),@R6      Copy data byte
 001F28 F321 2000 8041 00000 00009 15129  2 02072000               UNPK  @R2(3),HXDUNPK(2)   Format data byte (and junk byte)
 001F2E D401 2000 782C 00000 0268E 15130  2 02073000               NC    @R2(2),=X'0F0F'
 001F34 DC01 2000 77C6 00000 02628 15131  2 02074000               TR    @R2(2),=C'0123456789ABCDEF'
 001F3A 9240 2002      00002       15132  2 02075000               MVI   @R2+2,C' '
 001F3E D200 3000 6000 00000 00000 15133  2 02076000               MVC   @R3,@R6             Move to char display
 001F44 58F0 803C            00004 15134  2 02077000               L     R15,HXDTRT          Translate table address
 001F48 DC00 3000 F000 00000 00000 15135  2 02078000               TR    @R3,@R15            Translate to text char
 001F4E 4122 0002            00002 15136  2 02079000               LA    R2,2(R2)            Incr hex pointer
 001F52 9180 8040      00008       15137  2 02080000               IF    ~HXDFLAGS.HXDFLEBC,BEGIN  If ASCII format,
 001F56 4710 7108            01F6A 15147  2          +
1UTILS    HEXDUMP - Write formatted data display                                                                            Page   77
0Current Usings:  (*,R7) (HXDWA-(4+52),R8) (TVT,R11) (GVT,R12)
0Loc    Object Code    Addr1 Addr2  Stmt Lv Lineno    Source Statement           (Hibal 5, Asmedit 3.3)  HLASM R4.0  2002/06/06 10.18
+___    ______ ____    _____ _____  ____ __ ______    ______ _________
0001F5A 5E20 77EE            02650 15152  3 02081000                 INCR  R2                  Extra space
 001F5E 5940 77FA            0265C 15155  3 02082000                 IF    (R4,EQ,8),'INCR R2'  Extra space after 8th byte
 001F62 4770 7108            01F6A 15167  3          +
 001F66 5E20 77EE            02650 15175  3          +
 001F6A                            15180  2 02083000               END
 001F6A 710C           01F6A 01F58 15184  2 02084000               ELSE  BEGIN
 001F6A 47F0 711A            01F7C 15189  2          +
 001F6E 1804                       15195  3 02085000                 LR    R0,R4
 001F70 5400 77FE            02660 15196  3 02086000                 N     R0,=A(3)
 001F74 4770 711A            01F7C 15197  3 02087000                 IF    Z,'INCR R2'         Space after every 4th byte
 001F78 5E20 77EE            02650 15211  3          +
 001F7C                            15216  2 02088000               END
 001F7C 5E30 77EE            02650 15220  2 02089000               INCR  R3                  Incr char pointer
 001F80 5E60 77EE            02650 15223  2 02090000               INCR  R6                  Incr data pointer
 001F84 0670                       15226  2 02091000               DECR  R7                  Decr data counter
 001F86 5E40 77EE            02650 15228  2 02092000               INCR  R4                  Incr line loop counter
 001F8A 47F0 7090            01EF2 15231  1 02093000             END
 001F8E 4110 8043            0000B 15236  1 02094000             SEGWR HXDLINE             Write line
 001F92 4100 004F            0004F 15251  1          +
 001F96 58F0 8038            00000 15257  1          +
 001F9A 58E0 77F6/0DEE       02658 15260  1          +
 001FA0 47F0 7028            01E8A 15262    02095000           END
 001FA4 18D8/980C D004       00004 15267    02096000           PEND
 DROP   HXDWA-(4+52),R8
 DROP   *,R7
 001FAA 58E0 D000/12FF       00000 15288             +
 001FB0 07FE                       15291             +
                                   15292    02097000           ¿þþþþþþþþþþþþþþþþþþþþþþþþþþÜ
                                   15293    02098000           Ÿ  ASCII translate table.  Ÿ
                                   15294    02099000           ¾þþþþþþþþþþþþþþþþþþþþþþþþþþ»
 001FB2 4B4B4B4B4B4B4B4B           15295    02100000  ASCIIFMT DC    32C'.'                 00-1F
 001FD2 405A7F7B5B6C507D           15296    02101000           DC    C' !"#$%&&''()*+,-./'  20-2F
 001FE2 F0F1F2F3F4F5F6F7           15297    02102000           DC    C'0123456789:;<=>?'    30-3F
 001FF2 7CC1C2C3C4C5C6C7           15298    02103000           DC    C'@ABCDEFGHIJKLMNO'    40-4F
 002002 D7D8D9E2E3E4E5E6           15299    02104000           DC    C'PQRSTUVWXYZ[\]^_'    50-5F
 002012 4B81828384858687           15300    02105000           DC    C'.abcdefghijklmno'    60-6F
 002022 979899A2A3A4A5A6           15301    02106000           DC    C'pqrstuvwxyz{|}~.'    70-7F
 002032 4B4B4B4B4B4B4B4B           15302    02107000           DC    127C'.',C'#'           80-FF
                                   15303    02108000           ¿þþþþþþþþþþþþþþþþþþþþþþþþþþþþþþþþþþþþþþþþþþþþþþþþþþþÜ
                                   15304    02109000           Ÿ  Translate table to convert funny chars to dots.  Ÿ
                                   15305    02110000           ¾þþþþþþþþþþþþþþþþþþþþþþþþþþþþþþþþþþþþþþþþþþþþþþþþþþþ»
 0020B2 4B4B4B4B4B4B4B4B           15306    02111000  SEGTRTBL DC    X'4B4B4B4B4B4B4B4B4B4B4B4B4B4B4B4B'
 0020C2 4B4B4B4B4B4B4B4B           15307    02112000           DC    X'4B4B4B4B4B4B4B4B4B4B4B4B4B4B4B4B'
 0020D2 4B4B4B4B4B4B4B4B           15308    02113000           DC    X'4B4B4B4B4B4B4B4B4B4B4B4B4B4B4B4B'
 0020E2 4B4B4B4B4B4B4B4B           15309    02114000           DC    X'4B4B4B4B4B4B4B4B4B4B4B4B4B4B4B4B'
 0020F2 404B4B4B4B4B4B4B           15310    02115000           DC    X'404B4B4B4B4B4B4B4B4B4A4B4C4D4E4F'
 002102 504B4B4B4B4B4B4B           15311    02116000           DC    X'504B4B4B4B4B4B4B4B4B5A5B5C5D5E4B'
 002112 60614B4B4B4B4B4B           15312    02117000           DC    X'60614B4B4B4B4B4B4B4B4B6B6C6D6E6F'
 002122 4B4B4B4B4B4B4B4B           15313    02118000           DC    X'4B4B4B4B4B4B4B4B4B4B7A7B7C7D7E7F'
 002132 4B81828384858687           15314    02119000           DC    X'4B8182838485868788894B4B4B4B4B4B'
 002142 4B91929394959697           15315    02120000           DC    X'4B9192939495969798994B4B4B4B4B4B'
 002152 4B4BA2A3A4A5A6A7           15316    02121000           DC    X'4B4BA2A3A4A5A6A7A8A94B4B4B4B4B4B'
 002162 4B4B4B4B4B4B4B4B           15317    02122000           DC    X'4B4B4B4B4B4B4B4B4B4B4B4B4B4B4B4B'
 002172 4BC1C2C3C4C5C6C7           15318    02123000           DC    X'4BC1C2C3C4C5C6C7C8C94B4B4B4B4B4B'
1UTILS    HEXDUMP - Write formatted data display                                                                            Page   78
0Current Usings:  (TVT,R11) (GVT,R12)
0Loc    Object Code    Addr1 Addr2  Stmt Lv Lineno    Source Statement           (Hibal 5, Asmedit 3.3)  HLASM R4.0  2002/06/06 10.18
+___    ______ ____    _____ _____  ____ __ ______    ______ _________
0002182 4BD1D2D3D4D5D6D7           15319    02124000           DC    X'4BD1D2D3D4D5D6D7D8D94B4B4B4B4B4B'
 002192 4B4BE2E3E4E5E6E7           15320    02125000           DC    X'4B4BE2E3E4E5E6E7E8E94B4B4B4B4B4B'
 0021A2 F0F1F2F3F4F5F6F7           15321    02126000           DC    X'F0F1F2F3F4F5F6F7F8F94B4B4B4B4B4B'
1UTILS    SEG Routines                                                                                                      Page   79
0Current Usings:  (TVT,R11) (GVT,R12)
0Loc    Object Code    Addr1 Addr2  Stmt Lv Lineno    Source Statement           (Hibal 5, Asmedit 3.3)  HLASM R4.0  2002/06/06 10.18
+___    ______ ____    _____ _____  ____ __ ______    ______ _________
0                                  15323    02128000  ¿þþþþþþþþþþþþþþþþþþþþþþþþþþþþþþþþþþþþþþþþþþþþþþþþþþþþþþþþþþþþþþþþþþþþþÜ
                                   15324    02129000  Ÿ                                                                     Ÿ
                                   15325    02130000  Ÿ  SEGINITR/SEGINITB --                                               Ÿ
                                   15326    02131000  Ÿ    Routine to initialize the SEGCB control block.                   Ÿ
                                   15327    02132000  Ÿ                                                                     Ÿ
                                   15328    02133000  Ÿ    On entry:                                                        Ÿ
                                   15329    02134000  Ÿ      R1,R0 - location & length of seg buffer                        Ÿ
                                   15330    02135000  Ÿ      R15   - SEGCB ptr                                              Ÿ
                                   15331    02136000  Ÿ      @RAR  - adcon of processing routine                            Ÿ
                                   15332    02137000  Ÿ                                                                     Ÿ
                                   15333    02138000  Ÿ  NOTE (01/23/91):                                                   Ÿ
                                   15334    02139000  Ÿ  SEGINIT ROUTINE CHANGED TO SEGINITR (INIT ROUTINE) AND             Ÿ
                                   15335    02140000  Ÿ  SEGINITB (INIT BUFFER).  THIS WAS DONE TO ELIMINATE THE            Ÿ
                                   15336    02141000  Ÿ  PASSING THE ROUTINE AS AN INLINE 'DC A(ROUTINE)'.                  Ÿ
                                   15337    02142000  Ÿ  SEGINITR SHOULD BE CALLED FIRST. IT CLEARS THE SEGCB.              Ÿ
                                   15338    02143000  Ÿ                                                                     Ÿ
                                   15339    02144000  Ÿ                                                                     Ÿ
                                                      ¾þþþþþþþþþþþþþþþþþþþþþþþþþþþþþþþþþþþþþþþþþþþþþþþþþþþþþþþþþþþþþþþþþþþþþ»
00021B2 50E0 D000            00000 15340    02145000  SEGINIT  XPROC TRACE=NO
 0021B6 900C D004/188D       00004 15354             +
 0021BC 41D0 D038/0D70       00038 15356             +
 USING  *,R7                       15379    02146000           WITH  (SEGCB,R15),BEGIN
 USING  SEGCB,R15
 0021C2                            15393  1 02147000             CLEAR SEGCB               Init
 0021C2 D73B F000 F000 00000 00000 15399  1          +
 0021C8 5000 F004            00004 15400  1 02148000             ST    R0,SEGCBMAXF        Save max seg buffer length
 0021CC 5010 F020            00020 15401  1 02149000             ST    R1,SEGCBLOC         ... and location
 DROP   SEGCB,R15                  15402    02150000           END
 0021D0 18D8/980C D004       00004 15410    02151000           PEND
 DROP   *,R7
 0021D6 58E0 D000/12FF       00000 15426             +
 0021DC 07FE                       15429             +
                                   15430    02152000  þþþþ
 0021DE 50E0 D000            00000 15431    02153000  SEGINITR XPROC TRACE=NO
 0021E2 900C D004/188D       00004 15445             +
 0021E8 41D0 D038/0D70       00038 15447             +
 USING  *,R7                       15470    02154000           WITH  (SEGCB,R15),BEGIN
 USING  SEGCB,R15
 0021EE 5000 F024            00024 15484  1 02155000             ST    R0,SEGCBRTN         Save processing routine addr
 0021F2 5010 F014            00014 15485  1 02156000             ST    R1,SEGCBERR         Save error recovery routine addr
 DROP   SEGCB,R15                  15486    02157000           END
 0021F6 18D8/980C D004       00004 15494    02158000           PEND
 DROP   *,R7
 0021FC 58E0 D000/12FF       00000 15510             +
 002202 07FE                       15513             +
1UTILS    SEG Routines                                                                                                      Page   80
0Current Usings:  (TVT,R11) (GVT,R12)
0Loc    Object Code    Addr1 Addr2  Stmt Lv Lineno    Source Statement           (Hibal 5, Asmedit 3.3)  HLASM R4.0  2002/06/06 10.18
+___    ______ ____    _____ _____  ____ __ ______    ______ _________
0                                  15515    02160000  ¿þþþþþþþþþþþþþþþþþþþþþþþþþþþþþþþþþþþþþþþþþþþþþþþþþþþþþþþþþþþþþþþþþþþþþÜ
                                   15516    02161000  Ÿ                                                                     Ÿ
                                   15517    02162000  Ÿ   SEGB -- Routine to add segment to buffer followed by a blank.     Ÿ
                                   15518    02163000  Ÿ     (Same entry conventions as "SEG" routine below.)                Ÿ
                                   15519    02164000  Ÿ                                                                     Ÿ
                                                      ¾þþþþþþþþþþþþþþþþþþþþþþþþþþþþþþþþþþþþþþþþþþþþþþþþþþþþþþþþþþþþþþþþþþþþþ»
0002204 50E0 D000            00000 15520    02165000  SEGB     XPROC (R2,LSR),TRACE=NO
 002208 902C D004/188D       00004 15534             +
 00220E 41D0 D030/0D70       00030 15536             +
 002214 186F                       15559    02166000           LR    R6,R15              Save segcb ptr
 USING  *,R7
 002216 4DE0 7132            02346 15560    02167000           LCALL SEG
 00221A 4110 7495            026A9 15562    02168000           SEG   ' ',,(R6)
 00221E 4100 0001/18F6       00001 15566             +
 002224 58E0 7430/0DEE       02644 15575             +
 00222A 18D8/982C D004       00004 15577    02169000           PEND
 DROP   *,R7
 002230 58E0 D000/12FF       00000 15593             +
 002236 07FE                       15596             +
-                                  15598    02171000  ¿þþþþþþþþþþþþþþþþþþþþþþþþþþþþþþþþþþþþþþþþþþþþþþþþþþþþþþþþþþþþþþþþþþþþþÜ
                                   15599    02172000  Ÿ                                                                     Ÿ
                                   15600    02173000  Ÿ  SEGTB -- Routine to add "trimmed" segment to buffer followed by    Ÿ
                                   15601    02174000  Ÿ    a blank.  (Same entry conventions as "SEG" routine below.)       Ÿ
                                   15602    02175000  Ÿ                                                                     Ÿ
                                                      ¾þþþþþþþþþþþþþþþþþþþþþþþþþþþþþþþþþþþþþþþþþþþþþþþþþþþþþþþþþþþþþþþþþþþþþ»
0002238 50E0 D000            00000 15603    02176000  SEGTB    XPROC (R2,LSR),TRACE=NO
 00223C 902C D004/188D       00004 15617             +
 002242 41D0 D030/0D70       00030 15619             +
 002248 186F                       15642    02177000           LR    R6,R15              Save segcb ptr
 USING  *,R7
 00224A 4DE0 70B0            022F8 15643    02178000           LCALL SEGT
 00224E 4110 7461            026A9 15645    02179000           SEG   ' ',,(R6)
 002252 4100 0001/18F6       00001 15649             +
 002258 58E0 73FC/0DEE       02644 15658             +
 00225E 18D8/982C D004       00004 15660    02180000           PEND
 DROP   *,R7
 002264 58E0 D000/12FF       00000 15676             +
 00226A 07FE                       15679             +
1UTILS    SEG Routines                                                                                                      Page   81
0Current Usings:  (TVT,R11) (GVT,R12)
0Loc    Object Code    Addr1 Addr2  Stmt Lv Lineno    Source Statement           (Hibal 5, Asmedit 3.3)  HLASM R4.0  2002/06/06 10.18
+___    ______ ____    _____ _____  ____ __ ______    ______ _________
0                                  15681    02182000  ¿þþþþþþþþþþþþþþþþþþþþþþþþþþþþþþþþþþþþþþþþþþþþþþþþþþþþþþþþþþþþþþþþþþþþþÜ
                                   15682    02183000  Ÿ                                                                     Ÿ
                                   15683    02184000  Ÿ   SEGCR -- Add segment to buffer followed by a carriage             Ÿ
                                   15684    02185000  Ÿ     return.  (Same entry conventions as "SEG" routine below.)       Ÿ
                                   15685    02186000  Ÿ                                                                     Ÿ
                                                      ¾þþþþþþþþþþþþþþþþþþþþþþþþþþþþþþþþþþþþþþþþþþþþþþþþþþþþþþþþþþþþþþþþþþþþþ»
000226C 50E0 D000            00000 15686    02187000  SEGCR    XPROC (R2,LSR),TRACE=NO
 002270 902C D004/188D       00004 15700             +
 002276 41D0 D030/0D70       00030 15702             +
 00227C 186F                       15725    02188000           LR    R6,R15              Save segcb ptr
 USING  *,R7
 00227E 4DE0 70CA            02346 15726    02189000           LCALL SEG
 002282 4110 742E            026AA 15728    02190000           SEG   X'15',,(R6)         Followed by a cr
 002286 4100 0001/18F6       00001 15732             +
 00228C 58E0 73C8/0DEE       02644 15741             +
 002292 18F6/58E0 73E8       02664 15743    02191000           SEGMARK (R6)
 002298 0DEE                       15753             +
 00229A 18D8/982C D004       00004 15754    02192000           PEND
 DROP   *,R7
 0022A0 58E0 D000/12FF       00000 15770             +
 0022A6 07FE                       15773             +
1UTILS    SEG Routines                                                                                                      Page   82
0Current Usings:  (TVT,R11) (GVT,R12)
0Loc    Object Code    Addr1 Addr2  Stmt Lv Lineno    Source Statement           (Hibal 5, Asmedit 3.3)  HLASM R4.0  2002/06/06 10.18
+___    ______ ____    _____ _____  ____ __ ______    ______ _________
0                                  15775    02194000  ¿þþþþþþþþþþþþþþþþþþþþþþþþþþþþþþþþþþþþþþþþþþþþþþþþþþþþþþþþþþþþþþþþþþþþþÜ
                                   15776    02195000  Ÿ                                                                     Ÿ
                                   15777    02196000  Ÿ   SEGWR -- Routine to add (final) segment to buffer and write       Ÿ
                                   15778    02197000  Ÿ     contents.  (Same entry conventions as "SEG" routine below.)     Ÿ
                                   15779    02198000  Ÿ                                                                     Ÿ
                                                      ¾þþþþþþþþþþþþþþþþþþþþþþþþþþþþþþþþþþþþþþþþþþþþþþþþþþþþþþþþþþþþþþþþþþþþþ»
00022A8 50E0 D000            00000 15780    02199000  SEGWR    XPROC (R2,LSR),TRACE=NO
 0022AC 902C D004/188D       00004 15794             +
 0022B2 41D0 D030/0D70       00030 15796             +
 0022B8 186F                       15819    02200000           LR    R6,R15              Save segcb ptr
 USING  *,R7
 0022BA 4DE0 708E            02346 15820    02201000           LCALL SEG
 USING  SEGCB,R6                   15822    02202000           WITH  (SEGCB,R6)
 0022BE 9202 6000      00000       15835    02203000           SET   SEGCBWR             Set function code for exit routine
 0022C2 5810 6020            00020 15841    02204000           L     R1,SEGCBLOC         Start of buffer
 0022C6 5800 600C            0000C 15842    02205000           L     R0,SEGCBLENF        Length
 0022CA 18F6                       15843    02206000           LR    R15,R6              Segcb ptr
 0022CC 58E0 6024/12EE       00024 15844    02207000           IF    ('LT RAR,SEGCBRTN',NZ),BEGIN
 0022D2 4780 702C            022E4 15855             +
 0022D6 05EE                       15860  1 02208000             BALR  RAR,RAR             Go off to exit routine
 0022D8 D203 600C 73B0 0000C 02668 15861  1 02209000             MVC   SEGCBLENF,=F'0'     Reset buffer (don't change cc)
 0022DE D203 6008 73B0 00008 02668 15862  1 02210000             MVC   SEGCBMRKF,=F'0'     Reset mark too
 0022E4                            15863    02211000           END
 0022E4 7030           022E4 022D4 15867    02212000           ELSE  'CLEAR R15'         Set dummy rc
 0022E4 47F0 7032/1BFF       022EA 15872             +
 0022EA 18D8/982C D004       00004 15887    02213000           PEND
 DROP   SEGCB,R6
 DROP   *,R7
 0022F0 58E0 D000/12FF       00000 15908             +
 0022F6 07FE                       15911             +
1UTILS    SEG Routines                                                                                                      Page   83
0Current Usings:  (TVT,R11) (GVT,R12)
0Loc    Object Code    Addr1 Addr2  Stmt Lv Lineno    Source Statement           (Hibal 5, Asmedit 3.3)  HLASM R4.0  2002/06/06 10.18
+___    ______ ____    _____ _____  ____ __ ______    ______ _________
0                                  15913    02215000  ¿þþþþþþþþþþþþþþþþþþþþþþþþþþþþþþþþþþþþþþþþþþþþþþþþþþþþþþþþþþþþþþþþþþþþþÜ
                                   15914    02216000  Ÿ                                                                     Ÿ
                                   15915    02217000  Ÿ   SEG/SEGT -- Add segment to buffer.  "SEGT" entry will             Ÿ
                                   15916    02218000  Ÿ     trim trailing blanks.                                           Ÿ
                                   15917    02219000  Ÿ                                                                     Ÿ
                                   15918    02220000  Ÿ      On entry:                                                      Ÿ
                                   15919    02221000  Ÿ        R1,R0 - location & length of segment                         Ÿ
                                   15920    02222000  Ÿ        R15 - SEGCB ptr                                              Ÿ
                                   15921    02223000  Ÿ                                                                     Ÿ
                                   15922    02224000  Ÿ      On exit, R15 (and CC):                                         Ÿ
                                   15923    02225000  Ÿ         -4 - overflow occured                                       Ÿ
                                   15924    02226000  Ÿ          0 - normal                                                 Ÿ
                                   15925    02227000  Ÿ                                                                     Ÿ
                                                      ¾þþþþþþþþþþþþþþþþþþþþþþþþþþþþþþþþþþþþþþþþþþþþþþþþþþþþþþþþþþþþþþþþþþþþþ»
00022F8 50E0 D000            00000 15926    02228000  SEGT     XPROC (R0,LSR),TRACE=NO
 0022FC 900C D004/188D       00004 15940             +
 002302 41D0 D038/0D70       00038 15942             +
 002308 186F                       15965    02229000           LR    R6,R15
 USING  *,R7
 USING  SEGCB,R6                   15966    02230000           WITH  (SEGCB,R6)
 00230A 1200/47D0 702C       02334 15979    02231000           IF    (R0,POS),BEGIN      Something to seg...
 002310 4110 1000            00000 15993  1 02232000             LA    R1,@R1              Clear high byte
 002314 1821                       15994  1 02233000             LR    R2,R1
 002316 1A20                       15995  1 02234000             AR    R2,R0
 002318 0620                       15996  1 02235000             DECR  R2                  Addr of last char
 00231A 1921/4750 7026       0232E 15998  1 02236000             WHILE ((R2,GE,R1),AND,(@R2,EQ,' ')),'DECR R2'
 002320 9540 2000      00000       16024  1          +
 002324 4770 7026/0620       0232E 16025  1          +
 00232A 47F0 7012            0231A 16036  1          +
 00232E 1B21                       16038  1 02237000             SR    R2,R1
 002330 4100 2001            00001 16039  1 02238000             LA    R0,@R2+1            Trimmed string len
 002334                            16040    02239000           END
 002334 47F0 7050            02358 16044    02240000           B     SEGCOM
 002338 18D8/980C D004       00004 16045    02241000           PEND  ,                   (Dummy)
 DROP   SEGCB,R6
 DROP   *,R7
 00233E 58E0 D000/12FF       00000 16066             +
 002344 07FE                       16069             +
-002346 50E0 D000            00000 16071    02243000  SEG      XPROC (R0,LSR),TRACE=NO
 00234A 900C D004/188D       00004 16085             +
 002350 41D0 D038/0D70       00038 16087             +
 002356 186F                       16110    02244000           LR    R6,R15
 USING  *,R7
 USING  SEGCB,R6                   16111    02245000           WITH  (SEGCB,R6)
                                   16124    02246000
 002358 0D70                       16125    02247000  SEGCOM   BASE
 DROP   *,R7
 USING  *,R7
 00235A 9201 6000      00000       16142    02248000           SET   SEGCBSEG            Set function code for exit routine
 00235E 58E0 6024/12EE       00024 16148    02249000           IF    ('LT RAR,SEGCBRTN',NZ),'BALR RAR,RAR'
 002364 4780 7010/05EE       0236A 16159             +
1UTILS    SEG Routines                                                                                                      Page   84
0Current Usings:  (SEGCB,R6) (*,R7) (TVT,R11) (GVT,R12)
0Loc    Object Code    Addr1 Addr2  Stmt Lv Lineno    Source Statement           (Hibal 5, Asmedit 3.3)  HLASM R4.0  2002/06/06 10.18
+___    ______ ____    _____ _____  ____ __ ______    ______ _________
0                                  16170    02250000  *
 00236A 1B55                       16171    02251000           CLEAR R5                  Set ok rc
 00236C 1200/47D0 70E2       0243C 16175    02252000           IF    (R0,~POS),SEGEXIT   Skip if nothing to seg
 002372 5900 6004            00004 16192    02253000           CEIL  R0,SEGCBMAXF        Max allowed
 002376 47D0 7024            0237E 16196             +
 00237A 5800 6004            00004 16197             +
 00237E 1821                       16198    02254000           LR    R2,R1
 002380 1830                       16199    02255000           LR    R3,R0
                                   16200    02256000
 002382 1B55                       16201    02257000  SEGRETRY CLEAR R5                  Init return code
 002384 5A00 600C            0000C 16206    02258000           A     R0,SEGCBLENF        Calc new total length
 002388 5900 6004            00004 16207    02259000           IF    (R0,GT,SEGCBMAXF),BEGIN  Overflow...
 00238C 47D0 70D0            0242A 16219             +
 002390 9205 6000      00000       16224  1 02260000             SET   SEGCBOVF            Set function code for exit routine
 002394 5810 6020            00020 16230  1 02261000             L     R1,SEGCBLOC         Start of buffer
 002398 5800 6008/1200       00008 16231  1 02262000             LT    R0,SEGCBMRKF        Last marked position
 00239E 4720 704C            023A6 16235  1 02263000             IF    NP,'L R0,SEGCBLENF'  Use cur len if no mark
 0023A2 5800 600C            0000C 16247  1          +
 0023A6 18F6                       16252  1 02264000             LR    R15,R6              Segcb ptr
 0023A8 58E0 6024/12EE       00024 16253  1 02265000             IF    ('LT RAR,SEGCBRTN',NZ),'BALR RAR,RAR'  user exit
 0023AE 4780 705A/05EE       023B4 16264  1          +
 0023B4 1200/47B0 70B4       0240E 16275  1 02266000             IF    (R0,NEG),BEGIN      Exit processed something...
 0023BA                            16289  2 02267000               CLEAR SEGCBMRKF           Clear mark
 0023BA D703 6008 6008 00008 00008 16295  2          +
 0023C0 1300                       16296  2 02268000               LCR   R0,R0               Amount processed
 0023C2 5810 600C            0000C 16297  2 02269000               L     R1,SEGCBLENF
 0023C6 58E0 6020            00020 16298  2 02270000               L     R14,SEGCBLOC
 0023CA 58F0 6010/12FF       00010 16299  2 02271000               IF    ('LT R15,SEGCBINDF',NZ),BEGIN  Indent...
 0023D0 4780 7090            023EA 16310  2          +
 0023D4 55F0 6004            00004 16315  3 02272000                 IF    (R15,LGE,SEGCBMAXF),EXIT
 0023D8 47A0 7090            023EA 16329  3          +
 0023DC 5810 7312            0266C 16335  3 02273000                 L     R1,=A(X'40000000')
 0023E0 0EE0                       16336  3 02274000                 MVCL  R14,R0              Pad with blanks
 0023E2 5810 600C            0000C 16337  3 02275000                 L     R1,SEGCBLENF
 0023E6 58F0 6010            00010 16338  3 02276000                 L     R15,SEGCBINDF
 0023EA                            16339  2 02277000               END
 0023EA 1B10                       16343  2 02278000               SR    R1,R0               New buffer len
 0023EC 1AF1                       16344  2 02279000               AR    R15,R1              Including indentation
 0023EE 50F0 600C            0000C 16345  2 02280000               ST    R15,SEGCBLENF
 0023F2 1211/4720 70A6       02400 16346  2 02281000               IF    (R1,~POS),'LA R0,@R3(R15); B SEGDO'  add new segment
 0023F8 410F 3000            00000 16361  3          +
 0023FC 47F0 70D0            0242A 16362  2          +
 002400 18F1                       16367  2 02282000               LR    R15,R1
 002402 5A00 6020            00020 16368  2 02283000               A     R0,SEGCBLOC
 002406 0EE0                       16369  2 02284000               MVCL  R14,R0              Move remaining text over
 002408 1803                       16370  2 02285000               LR    R0,R3               New segment len
 00240A 47F0 7028            02382 16371  2 02286000               B     SEGRETRY            Try again
 00240E                            16372  1 02287000             END
 00240E 1803                       16376  1 02288000             LR    R0,R3
 002410 5A00 600C            0000C 16377  1 02289000             A     R0,SEGCBLENF        Re-calc total len
 002414 5B00 6004            00004 16378  1 02290000             IF    ('S R0,SEGCBMAXF',NP),SEGDO  It's ok now
 002418 47D0 70D0            0242A 16388  1          +
 00241C 4850 7336            02690 16394  1 02291000             LH    R5,=H'-4'           Set return code
 002420 1B30                       16395  1 02292000             SR    R3,R0               Only seg as much as will fit
1UTILS    SEG Routines                                                                                                      Page   85
0Current Usings:  (SEGCB,R6) (*,R7) (TVT,R11) (GVT,R12)
0Loc    Object Code    Addr1 Addr2  Stmt Lv Lineno    Source Statement           (Hibal 5, Asmedit 3.3)  HLASM R4.0  2002/06/06 10.18
+___    ______ ____    _____ _____  ____ __ ______    ______ _________
0002422 47D0 70E2            0243C 16396  1 02293000             BNP   SEGEXIT             Nothing will fit
 002426 5800 6004            00004 16397  1 02294000             L     R0,SEGCBMAXF        New buffer len
 00242A                            16398    02295000           END
 00242A 58F0 600C            0000C 16402    02296000  SEGDO    L     R15,SEGCBLENF
 00242E 5000 600C            0000C 16403    02297000           ST    R0,SEGCBLENF        Update length
 002432 5800 6020            00020 16404    02298000           L     R0,SEGCBLOC
 002436 1A0F                       16405    02299000           AR    R0,R15              Insertion point
 002438 1813                       16406    02300000           LR    R1,R3               Len
 00243A 0E02                       16407    02301000           MVCL  R0,R2               Move in segment
 00243C 9204 6000      00000       16408    02302000  SEGEXIT  SET   SEGCBSPP            Set function code for exit routine
 002440 18F6                       16415    02303000           LR    R15,R6              Segcb ptr
 002442 1205                       16416    02304000           LTR   R0,R5               Put rc in R0 for exit routine
 002444 58E0 6024/12EE       00024 16417    02305000           IF    ('LT RAR,SEGCBRTN',NZ),'BALR RAR,RAR'  User exit
 00244A 4780 70F6/05EE       02450 16428             +
 DROP   SEGCB,R6                   16439    02306000           DROP  SEGCB
 002450 18D8/980C D004       00004 16447    02307000           PEND  'LTR R15,R0'
 DROP   *,R7
 002456 58E0 D000/12F0       00000 16465             +
 00245C 07FE                       16469             +
1UTILS    SEG Routines                                                                                                      Page   86
0Current Usings:  (TVT,R11) (GVT,R12)
0Loc    Object Code    Addr1 Addr2  Stmt Lv Lineno    Source Statement           (Hibal 5, Asmedit 3.3)  HLASM R4.0  2002/06/06 10.18
+___    ______ ____    _____ _____  ____ __ ______    ______ _________
0                                  16471    02309000  ¿þþþþþþþþþþþþþþþþþþþþþþþþþþþþþþþþþþþþþþþþþþþþþþþþþþþþþþþþþþþþþþþþþþþþþÜ
                                   16472    02310000  Ÿ                                                                     Ÿ
                                   16473    02311000  Ÿ   SEGCOL -- Routine to extend seg buffer to absolute column.        Ÿ
                                   16474    02312000  Ÿ                                                                     Ÿ
                                   16475    02313000  Ÿ     On entry:                                                       Ÿ
                                   16476    02314000  Ÿ       R0  - column number                                           Ÿ
                                   16477    02315000  Ÿ       R15 - SEGCB ptr                                               Ÿ
                                   16478    02316000  Ÿ                                                                     Ÿ
                                                      ¾þþþþþþþþþþþþþþþþþþþþþþþþþþþþþþþþþþþþþþþþþþþþþþþþþþþþþþþþþþþþþþþþþþþþþ»
000245E 50E0 D000            00000 16479    02317000  SEGCOL   XPROC (R2,LSR),TRACE=NO
 002462 902C D004/188D       00004 16493             +
 002468 41D0 D030/0D70       00030 16495             +
 00246E 186F                       16518    02318000           LR    R6,R15
 USING  *,R7
 USING  SEGCB,R6                   16519    02319000           WITH  (SEGCB,R6)
 002470 0600                       16532    02320000           DECR  R0                  Make rel to zero
 002472 5900 6004            00004 16534    02321000           IF    (R0,GT,SEGCBMAXF),'L R0,SEGCBMAXF'
 002476 47D0 7010            0247E 16546             +
 00247A 5800 6004            00004 16552             +
 00247E 5B00 600C            0000C 16557    02322000           S     R0,SEGCBLENF        No. of blanks
 002482 4720 701C            0248A 16558    02323000           IF    ~POS,'LA R0,1'      At least one blank
 002486 4100 0001            00001 16570             +
 00248A 18F6/58E0 7202       02670 16575    02324000           SEGBLANK (R0)             Add the blanks
 002490 0DEE                       16589             +
 002492 18D8/982C D004       00004 16590    02325000           PEND
 DROP   SEGCB,R6
 DROP   *,R7
 002498 58E0 D000/12FF       00000 16611             +
 00249E 07FE                       16614             +
1UTILS    SEG Routines                                                                                                      Page   87
0Current Usings:  (TVT,R11) (GVT,R12)
0Loc    Object Code    Addr1 Addr2  Stmt Lv Lineno    Source Statement           (Hibal 5, Asmedit 3.3)  HLASM R4.0  2002/06/06 10.18
+___    ______ ____    _____ _____  ____ __ ______    ______ _________
0                                  16616    02327000  ¿þþþþþþþþþþþþþþþþþþþþþþþþþþþþþþþþþþþþþþþþþþþþþþþþþþþþþþþþþþþþþþþþþþþþþÜ
                                   16617    02328000  Ÿ                                                                     Ÿ
                                   16618    02329000  Ÿ   SEGBLANK -- Routine to add blanks to the seg buffer.              Ÿ
                                   16619    02330000  Ÿ                                                                     Ÿ
                                   16620    02331000  Ÿ     On entry:                                                       Ÿ
                                   16621    02332000  Ÿ       R0  - no. of blanks to add                                    Ÿ
                                   16622    02333000  Ÿ       R15 - SEGCB ptr                                               Ÿ
                                   16623    02334000  Ÿ                                                                     Ÿ
                                                      ¾þþþþþþþþþþþþþþþþþþþþþþþþþþþþþþþþþþþþþþþþþþþþþþþþþþþþþþþþþþþþþþþþþþþþþ»
00024A0 50E0 D000            00000 16624    02335000  SEGBLANK XPROC (R2,LSR),TRACE=NO
 0024A4 902C D004/188D       00004 16638             +
 0024AA 41D0 D030/0D70       00030 16640             +
 0024B0 186F                       16663    02336000           LR    R6,R15
 USING  *,R7
 USING  SEGCB,R6                   16664    02337000           WITH  (SEGCB,R6)
 0024B2 1850                       16677    02338000           LR    R5,R0
 0024B4 5950 71C4            02674 16678    02339000           WHILE (R5,GT,L'GVTBLANK),BEGIN
 0024B8 47D0 7024            024D4 16692             +
 0024BC 4110 C0E0            000E0 16697  1 02340000             SEG   GVTBLANK,,(R6)
 0024C0 4100 0100/18F6       00100 16711  1          +
 0024C6 58E0 7194/0DEE       02644 16720  1          +
 0024CC 4B50 71E2            02692 16722  1 02341000             SH    R5,=AL2(L'GVTBLANK)
 0024D0 47F0 7004            024B4 16723    02342000           END
 0024D4 4110 C0E0/1805       000E0 16728    02343000           SEG   GVTBLANK,(R5),(R6)
 0024DA 18F6/58E0 7194       02644 16748             +
 0024E0 0DEE                       16752             +
 0024E2 18D8/982C D004       00004 16753    02344000           PEND
 DROP   SEGCB,R6
 DROP   *,R7
 0024E8 58E0 D000/12FF       00000 16774             +
 0024EE 07FE                       16777             +
1UTILS    SEG Routines                                                                                                      Page   88
0Current Usings:  (TVT,R11) (GVT,R12)
0Loc    Object Code    Addr1 Addr2  Stmt Lv Lineno    Source Statement           (Hibal 5, Asmedit 3.3)  HLASM R4.0  2002/06/06 10.18
+___    ______ ____    _____ _____  ____ __ ______    ______ _________
0                                  16779    02346000  ¿þþþþþþþþþþþþþþþþþþþþþþþþþþþþþþþþþþþþþþþþþþþþþþþþþþþþþþþþþþþþþþþþþþþþþÜ
                                   16780    02347000  Ÿ                                                                     Ÿ
                                   16781    02348000  Ÿ  SEGDAY -- Routine to seg day, date and time.                       Ÿ
                                   16782    02349000  Ÿ                                                                     Ÿ
                                   16783    02350000  Ÿ    On entry:                                                        Ÿ
                                   16784    02351000  Ÿ      R0,R1 - as returned from TIME BIN.                             Ÿ
                                   16785    02352000  Ÿ      R15   - SEGCB ptr                                              Ÿ
                                   16786    02353000  Ÿ                                                                     Ÿ
                                                      ¾þþþþþþþþþþþþþþþþþþþþþþþþþþþþþþþþþþþþþþþþþþþþþþþþþþþþþþþþþþþþþþþþþþþþþ»
0000000                00000 00040 16787    02354000  SEGDWA   RECORD BEGIN
 000000                            16795  1 02355000  SEGDWORK   DS    XL64                Work area
 000040                00040 00040 16796    02356000           END
                                   16805    02357000  þþþþ
 0024F0 90DF B0D4            000D4 16806    02358000  SEGDAY   XPROC SEGDWA
 0024F4 58F0 C014/0DEF       00014 16819             +
 0024FA E2C5C7C4C1E84040           16821             +
 002502 98DF B0D4            000D4 16822             +
 002506 50E0 D000            00000 16825             +
 00250A 900C D004/188D       00004 16828             +
 002510 41D0 D078/0D70       00078 16831             +
 002516 185F                       16863    02359000           LR    R5,R15
 USING  *,R7
 USING  SEGDWA-(4+52),R8
                                   16864    02360000           SEGDEF (R5)
                                   16865    02361000
 002518 1820                       16866    02362000           LR    R2,R0               Time
 00251A 1801                       16867    02363000           LR    R0,R1               Date
                                   16868    02364000
 00251C 4110 8038            00000 16869    02365000           LA    R1,SEGDWORK
 002520 58E0 7162/0DEE       02678 16870    02366000           ACALL FMTDAY              Format day
 002526 18F5/58E0 7166       0267C 16874    02367000           SEGT  (R1),(R0)
 00252C 0DEE                       16895             +
 00252E 4BD0 717E            02694 16896    02368000           POP   ,,64
                                   16900    02369000
 002532 4110 7195            026AB 16901    02370000           SEG   ', at '
 002536 4100 0005/18F5       00005 16905             +
 00253C 58E0 712E/0DEE       02644 16914             +
 002542 1802                       16916    02371000           LR    R0,R2               Time
 002544 4110 8038            00000 16917    02372000           LA    R1,SEGDWORK
 002548 58E0 716A/0DEE       02680 16918    02373000           ACALL TIME                Hh:mm:ss
 00254E 4100 0008/18F5       00008 16922    02374000           SEGB  (R1),8
 002554 58E0 716E/0DEE       02684 16945             +
 00255A 18D8/980C D004       00004 16947    02375000           PEND
 DROP   SEGDWA-(4+52),R8
 DROP   *,R7
 002560 58E0 D000/12FF       00000 16968             +
 002566 07FE                       16971             +
                                   16972    02376000
                                   16973    02377000           SEGDEF DUMMY              (Neatness)
1UTILS    SEG Routines                                                                                                      Page   89
0Current Usings:  (TVT,R11) (GVT,R12)
0Loc    Object Code    Addr1 Addr2  Stmt Lv Lineno    Source Statement           (Hibal 5, Asmedit 3.3)  HLASM R4.0  2002/06/06 10.18
+___    ______ ____    _____ _____  ____ __ ______    ______ _________
0                                  16975    02379000  ¿þþþþþþþþþþþþþþþþþþþþþþþþþþþþþþþþþþþþþþþþþþþþþþþþþþþþþþþþþþþþþþþþþþþþþÜ
                                   16976    02380000  Ÿ                                                                     Ÿ
                                   16977    02381000  Ÿ   SEGCLR -- Routine to reset seg buffer.                            Ÿ
                                   16978    02382000  Ÿ                                                                     Ÿ
                                   16979    02383000  Ÿ     On entry:                                                       Ÿ
                                   16980    02384000  Ÿ       R15 - SEGCB ptr                                               Ÿ
                                   16981    02385000  Ÿ                                                                     Ÿ
                                                      ¾þþþþþþþþþþþþþþþþþþþþþþþþþþþþþþþþþþþþþþþþþþþþþþþþþþþþþþþþþþþþþþþþþþþþþ»
0002568 50E0 D000            00000 16982    02386000  SEGCLR   XPROC (R2,LSR),TRACE=NO
 00256C 902C D004/188D       00004 16996             +
 002572 41D0 D030/0D70       00030 16998             +
 002578 186F                       17021    02387000           LR    R6,R15
 USING  *,R7
 USING  SEGCB,R6                   17022    02388000           WITH  (SEGCB,R6)
 00257A 9203 6000      00000       17035    02389000           SET   SEGCBCLR            Set function code for exit routine
 00257E 58E0 6024/12EE       00024 17041    02390000           IF    ('LT RAR,SEGCBRTN',NZ),'BALR RAR,RAR'  user exit
 002584 4780 7012/05EE       0258A 17052             +
 00258A                            17063    02391000           CLEAR SEGCBLENF,SEGCBMRKF
 00258A D703 600C 600C 0000C 0000C 17069             +
 002590 D703 6008 6008 00008 00008 17074             +
 002596 18D8/982C D004       00004 17075    02392000           PEND
 DROP   SEGCB,R6
 DROP   *,R7
 00259C 58E0 D000/12FF       00000 17096             +
 0025A2 07FE                       17099             +
-                                  17101    02394000  ¿þþþþþþþþþþþþþþþþþþþþþþþþþþþþþþþþþþþþþþþþþþþþþþþþþþþþþþþþþþþþþþþþþþþþþÜ
                                   17102    02395000  Ÿ                                                                     Ÿ
                                   17103    02396000  Ÿ  SEGMARK -- Routine to mark current location in seg buffer.         Ÿ
                                   17104    02397000  Ÿ                                                                     Ÿ
                                   17105    02398000  Ÿ    On entry:                                                        Ÿ
                                   17106    02399000  Ÿ      R15 - segcb ptr                                                Ÿ
                                   17107    02400000  Ÿ                                                                     Ÿ
                                                      ¾þþþþþþþþþþþþþþþþþþþþþþþþþþþþþþþþþþþþþþþþþþþþþþþþþþþþþþþþþþþþþþþþþþþþþ»
0                                  17108    02401000           ENTRY SEGMARK
 USING  SEGCB,R15                  17109    02402000  SEGMARK  WITH  (SEGCB,R15),'MVC SEGCBMRKF,SEGCBLENF'
 0025A4 D203 F008 F00C 00008 0000C 17125             +
 DROP   SEGCB,R15
 0025AA 07FE                       17134    02403000           BR    RAR
1UTILS    SEG Routines                                                                                                      Page   90
0Current Usings:  (TVT,R11) (GVT,R12)
0Loc    Object Code    Addr1 Addr2  Stmt Lv Lineno    Source Statement           (Hibal 5, Asmedit 3.3)  HLASM R4.0  2002/06/06 10.18
+___    ______ ____    _____ _____  ____ __ ______    ______ _________
0                                  17136    02405000  ¿þþþþþþþþþþþþþþþþþþþþþþþþþþþþþþþþþþþþþþþþþþþþþþþþþþþþþþþþþþþþþþþþþþþþþÜ
                                   17137    02406000  Ÿ                                                                     Ÿ
                                   17138    02407000  Ÿ   SEGDC -- Routine to add number in decimal to seg buffer.          Ÿ
                                   17139    02408000  Ÿ                                                                     Ÿ
                                   17140    02409000  Ÿ     On entry:                                                       Ÿ
                                   17141    02410000  Ÿ     R1 - number; R0 - length                                        Ÿ
                                   17142    02411000  Ÿ     R15 - SEGCB ptr                                                 Ÿ
                                   17143    02412000  Ÿ                                                                     Ÿ
                                                      ¾þþþþþþþþþþþþþþþþþþþþþþþþþþþþþþþþþþþþþþþþþþþþþþþþþþþþþþþþþþþþþþþþþþþþþ»
00025AC 50E0 D000            00000 17144    02413000  SEGDC    XPROC (R2,LSR),TRACE=NO
 0025B0 902C D004/188D       00004 17158             +
 0025B6 41D0 D030/0D70       00030 17160             +
 0025BC 186F                       17183    02414000           LR    R6,R15              Save segcb ptr
 USING  *,R7
 0025BE 182D/41D0 D014       00014 17184    02415000           PUSH  20,PTR=R2
 0025C4 18F1                       17188    02416000           LR    R15,R1
 0025C6 1812/58E0 70CC       02688 17189    02417000           BTD   (R2),(R0),(R15)     Convert to printable format
 0025CC 0DEE                       17205             +
 0025CE 18F6/58E0 7088       02644 17206    02418000           SEG   (R1),(R0),(R6)
 0025D4 0DEE                       17226             +
 0025D6 4BD0 70DA            02696 17227    02419000           POP   20
 0025DA 18D8/982C D004       00004 17231    02420000           PEND
 DROP   *,R7
 0025E0 58E0 D000/12FF       00000 17247             +
 0025E6 07FE                       17250             +
1UTILS    SEG Routines                                                                                                      Page   91
0Current Usings:  (TVT,R11) (GVT,R12)
0Loc    Object Code    Addr1 Addr2  Stmt Lv Lineno    Source Statement           (Hibal 5, Asmedit 3.3)  HLASM R4.0  2002/06/06 10.18
+___    ______ ____    _____ _____  ____ __ ______    ______ _________
0                                  17252    02422000  ¿þþþþþþþþþþþþþþþþþþþþþþþþþþþþþþþþþþþþþþþþþþþþþþþþþþþþþþþþþþþþþþþþþþþþþÜ
                                   17253    02423000  Ÿ                                                                     Ÿ
                                   17254    02424000  Ÿ   SEGHX -- Routine to add number in hex to seg buffer.              Ÿ
                                   17255    02425000  Ÿ                                                                     Ÿ
                                   17256    02426000  Ÿ     On entry:                                                       Ÿ
                                   17257    02427000  Ÿ     R1 - number; R0 - length                                        Ÿ
                                   17258    02428000  Ÿ     R15 - SEGCB ptr                                                 Ÿ
                                   17259    02429000  Ÿ                                                                     Ÿ
                                                      ¾þþþþþþþþþþþþþþþþþþþþþþþþþþþþþþþþþþþþþþþþþþþþþþþþþþþþþþþþþþþþþþþþþþþþþ»
00025E8 50E0 D000            00000 17260    02430000  SEGHX    XPROC (R2,LSR),TRACE=NO
 0025EC 902C D004/188D       00004 17274             +
 0025F2 41D0 D030/0D70       00030 17276             +
 0025F8 186F                       17299    02431000           LR    R6,R15              Save segcb ptr
 USING  *,R7
 0025FA 182D/41D0 D014       00014 17300    02432000           PUSH  20,PTR=R2
 002600 18F1                       17304    02433000           LR    R15,R1
 002602 1812/58E0 7044       0263C 17305    02434000           BTX   (R2),(R0),(R15)     Convert to printable format
 002608 0DEE                       17321             +
 00260A 18F6/58E0 704C       02644 17322    02435000           SEG   (R1),(R0),(R6)
 002610 0DEE                       17342             +
 002612 4BD0 70A0            02698 17343    02436000           POP   20
 002616 18D8/982C D004       00004 17347    02437000           PEND
 DROP   *,R7
 00261C 58E0 D000/12FF       00000 17363             +
 002622 07FE                       17366             +
1UTILS    SEG Routines                                                                                                      Page   92
0Current Usings:  (TVT,R11) (GVT,R12)
0Loc    Object Code    Addr1 Addr2  Stmt Lv Lineno    Source Statement           (Hibal 5, Asmedit 3.3)  HLASM R4.0  2002/06/06 10.18
+___    ______ ____    _____ _____  ____ __ ______    ______ _________
0                                  17368    02439000           QLTORG
1UTILS    Translate tables                                                                                                  Page   93
0Current Usings:  (TVT,R11) (GVT,R12)
0Loc    Object Code    Addr1 Addr2  Stmt Lv Lineno    Source Statement           (Hibal 5, Asmedit 3.3)  HLASM R4.0  2002/06/06 10.18
+___    ______ ____    _____ _____  ____ __ ______    ______ _________
0                                  17414    02441000     ¿þþþþþþþþþþþþþþþþþþþþþþþþþþþþþþþþþþþþþþþþþþþþþþþþþþþÜ
                                   17415    02442000     Ÿ  Translate table for EBCDIC to ASCII conversion.  Ÿ
                                   17416    02443000     ¾þþþþþþþþþþþþþþþþþþþþþþþþþþþþþþþþþþþþþþþþþþþþþþþþþþþ»
                                   17417    02444000  *                 0 1 2 3 4 5 6 7 8 9 A B C D E F
                                   17418    02445000  *
 0026B6 000102032309237F           17419    02446000  EBC2ASCI DC    X'000102032309237F2323230B0C0D0E0F'   0
 0026C6 1011121323230823           17420    02447000           DC    X'1011121323230823181923231C1D1E1F'   1
 0026D6 23232323230A171B           17421    02448000           DC    X'23232323230A171B2323232323050607'   2
 0026E6 2323162323232304           17422    02449000           DC    X'2323162323232304232323231415231A'   3
 0026F6 2023232323232323           17423    02450000           DC    X'202323232323232323235E2E3C282B7C'   4
 002706 2623232323232323           17424    02451000           DC    X'2623232323232323232321242A293B7E'   5
 002716 2D2F232323232323           17425    02452000           DC    X'2D2F2323232323232323232C255F3E3F'   6
 002726 2323232323232323           17426    02453000           DC    X'232323232323232323603A2340273D22'   7
 002736 2361626364656667           17427    02454000           DC    X'23616263646566676869232323232323'   8
 002746 236A6B6C6D6E6F70           17428    02455000           DC    X'236A6B6C6D6E6F707172232323232323'   9
 002756 2323737475767778           17429    02456000           DC    X'2323737475767778797A2323235B2323'   A
 002766 2323232323232323           17430    02457000           DC    X'232323232323232323232323235D2323'   B
 002776 7B41424344454647           17431    02458000           DC    X'7B414243444546474849232323232323'   C
 002786 7D4A4B4C4D4E4F50           17432    02459000           DC    X'7D4A4B4C4D4E4F505152232323232323'   D
 002796 5C23535455565758           17433    02460000           DC    X'5C23535455565758595A232323232323'   E
 0027A6 3031323334353637           17434    02461000           DC    X'30313233343536373839232323232323'   F
-                                  17436    02463000     ¿þþþþþþþþþþþþþþþþþþþþþþþþþþþþþþþþþþþþþþþþþþþþþþþþþþþÜ
                                   17437    02464000     Ÿ  Translate table for ASCII to EBCDIC conversion.  Ÿ
                                   17438    02465000     ¾þþþþþþþþþþþþþþþþþþþþþþþþþþþþþþþþþþþþþþþþþþþþþþþþþþþ»
                                   17439    02466000  *                 0 1 2 3 4 5 6 7 8 9 A B C D E F
                                   17440    02467000  *
 0027B6 00010203372D2E2F           17441    02468000  ASCI2EBC DC    X'00010203372D2E2F1605250B0C0D0E0F'   0
 0027C6 101112133C3D3226           17442    02469000           DC    X'101112133C3D322618193F271C1D1E1F'   1
 0027D6 405A7F7B5B6C507D           17443    02470000           DC    X'405A7F7B5B6C507D4D5D5C4E6B604B61'   2
 0027E6 F0F1F2F3F4F5F6F7           17444    02471000           DC    X'F0F1F2F3F4F5F6F7F8F97A5E4C7E6E6F'   3
 0027F6 7CC1C2C3C4C5C6C7           17445    02472000           DC    X'7CC1C2C3C4C5C6C7C8C9D1D2D3D4D5D6'   4
 002806 D7D8D9E2E3E4E5E6           17446    02473000           DC    X'D7D8D9E2E3E4E5E6E7E8E9ADE0BD4A6D'   5
 002816 7981828384858687           17447    02474000           DC    X'79818283848586878889919293949596'   6
 002826 979899A2A3A4A5A6           17448    02475000           DC    X'979899A2A3A4A5A6A7A8A9C04FD05F07'   7
 002836 00010203372D2E2F           17449    02476000           DC    X'00010203372D2E2F1605250B0C0D0E0F'   8
 002846 101112133C3D3226           17450    02477000           DC    X'101112133C3D322618193F271C1D1E1F'   9
 002856 405A7F7B5B6C507D           17451    02478000           DC    X'405A7F7B5B6C507D4D5D5C4E6B604B61'   A
 002866 F0F1F2F3F4F5F6F7           17452    02479000           DC    X'F0F1F2F3F4F5F6F7F8F97A5E4C7E6E6F'   B
 002876 7CC1C2C3C4C5C6C7           17453    02480000           DC    X'7CC1C2C3C4C5C6C7C8C9D1D2D3D4D5D6'   C
 002886 D7D8D9E2E3E4E5E6           17454    02481000           DC    X'D7D8D9E2E3E4E5E6E7E8E9ADE0BD4A6D'   D
 002896 7981828384858687           17455    02482000           DC    X'79818283848586878889919293949596'   E
 0028A6 979899A2A3A4A5A6           17456    02483000           DC    X'979899A2A3A4A5A6A7A8A9C04FD05F07'   F
-                                  17458    02485000      ¿þþþþþþþþþþþþþþþþþþþþþþþþþþþþþþÜ
                                   17459    02486000      Ÿ  Lower case translate table  Ÿ
                                   17460    02487000      ¾þþþþþþþþþþþþþþþþþþþþþþþþþþþþþþ»
 0028B6 0001020304050607           17461    02488000  LOWCASE  DC    256AL1(*-LOWCASE)
 0029B6                029B6 02977 17462    02489000           ORG   LOWCASE+C'A'
 002977 8182838485868788           17463    02490000           DC    C'abcdefghi'
 002980                02980 02987 17464    02491000           ORG   LOWCASE+C'J'
 002987 9192939495969798           17465    02492000           DC    C'jklmnopqr'
1UTILS    Translate tables                                                                                                  Page   94
0Current Usings:  (TVT,R11) (GVT,R12)
0Loc    Object Code    Addr1 Addr2  Stmt Lv Lineno    Source Statement           (Hibal 5, Asmedit 3.3)  HLASM R4.0  2002/06/06 10.18
+___    ______ ____    _____ _____  ____ __ ______    ______ _________
0002990                02990 02998 17466    02493000           ORG   LOWCASE+C'S'
 002998 A2A3A4A5A6A7A8A9           17467    02494000           DC    C'stuvwxyz'
 0029A0                029A0 029B6 17468    02495000           ORG   LOWCASE+256
                                   17469    02496000
                                   17470    02497000           QLTORG
                                   17482    02498000
                                   17483    02499000  UTILS@   EQU   *-UTILS,,C'N'       Module length
                                   17484    02500000           ¿þþþþþþþþþþþþþþþþÜ
                                   17485    02501000           Ÿ  Our symbols.  Ÿ
                                   17486    02502000           ¾þþþþþþþþþþþþþþþþ»
                                   17487    02503000           ENTRY SYMUTILS            Utils' symbol table entries
 0029B8                            17488    02504000           DC    0D'0'               FORCE DOUBLED-WORD ALIGNMENT
 0029B8 E4E3C9D3E2404040           17489    02505000  SYMUTILS DC    CL8'UTILS',A(UTILS,UTILS@)
 0029C8 00000000                   17490    02506000           DC    A(0)                End of table
 0029D0                029D0 029D0 17491    02507000           END   .

1UTILS    Macro and Copy Code Source Summary                                                                                Page   95
- Con Source                                        Volume    Members                        HLASM R4.0  2002/06/06 10.18
0     PRIMARY INPUT                                           CSECT    DROP     END      EX       LTORG    POP
                                                              PRINT    PUSH     START    USING
   L1 WYL.GA.MCL.WINGS.MACLIB                       STR211    BTD      BTR      BTX      DTB      DVTAREA  DVWA     FAIL
                                                              GVT      LCLDBWA  PROC     PTRACE   REG      SYMTAB
                                                              TPENTRY  TRCENTRY TVT      WTOCB    XPOP     XPROC
                                                              XPUSH
   L2 WYL.GG.SYS.MACLIB                             STR210    $BC      $BFLKUP  $BV      $CCLKUP  $CRS     $CSS     $L
                                                              $LA      $LBLAD   $LEXP    $LOR     $REL     $RGLKUP
                                                              $USLKUP  ACALL    BASE     BEGIN    CEIL     CLEAR
                                                              CSECT    DATA     DECR     DEFCC    DEX      DROP     DTEX
                                                              ELSE     ELSEIF   END      EX       EXIT     FLAG     GEN
                                                              HIBAL    IDENT    IF       INCR     LABEL    LC
                                                              LCALL    LS       LT       LTORG    MOVE     PEND     POP
                                                              PRETURN  PRINT    PUSH     QLTORG   RECORD   REGS     SDL
                                                              SET      SETMSG   START    SYSLR    SYSQS    USING
                                                              VCALL    WHILE    WITH
   L3 SYS3.IS.MACLIB                                SYSA03    MILSERV  SEG      SEGB     SEGBLANK SEGCB    SEGCLR
                                                              SEGDEF   SEGINIT  SEGLD    SEGMARK  SEGT     SEGTB
                                                              SEGWR    SYSDEFN
   L5 SYS1.MACLIB                                   OS02AD    CLOSE    CVT      DCB      DCBD     DEVTYPE  FREEMAIN
                                                              GETMAIN  IEFTIOT1 IHBINNRA IHB01    IKJTCB   OPEN     PUT
                                                              SYSSTATE WTO

1UTILS    Using Map                                                                                                         Page   96
-                                                                                            HLASM R4.0  2002/06/06 10.18
   Stmt  -----Location----- Action ----------------Using----------------- Reg Max    Last  Label and Using Text
           Count      Id           Type          Value    Range     Id        Disp   Stmt
0   943  00000000  00000001 USING  ORDINARY    00000000 00001000 FFFFFFF0  15 000          @R15,15
    947  00000000  00000001 USING  ORDINARY    00000000 00001000 FFFFFFF1  14 000    6281  @R14,14
    951  00000000  00000001 USING  ORDINARY    00000000 00001000 FFFFFFF2  13 000          @R13,13
    955  00000000  00000001 USING  ORDINARY    00000000 00001000 FFFFFFF3  12 000          @R12,12
    959  00000000  00000001 USING  ORDINARY    00000000 00001000 FFFFFFF4  11 000          @R11,11
    963  00000000  00000001 USING  ORDINARY    00000000 00001000 FFFFFFF5  10 000          @R10,10
    967  00000000  00000001 USING  ORDINARY    00000000 00001000 FFFFFFF6   9 000          @R9,9
    971  00000000  00000001 USING  ORDINARY    00000000 00001000 FFFFFFF7   8 000          @R8,8
    975  00000000  00000001 USING  ORDINARY    00000000 00001000 FFFFFFF8   7 000          @R7,7
    979  00000000  00000001 USING  ORDINARY    00000000 00001000 FFFFFFF9   6 000          @R6,6
    983  00000000  00000001 USING  ORDINARY    00000000 00001000 FFFFFFFA   5 000          @R5,5
    987  00000000  00000001 USING  ORDINARY    00000000 00001000 FFFFFFFB   4 000          @R4,4
    991  00000000  00000001 USING  ORDINARY    00000000 00001000 FFFFFFFC   3 052   16361  @R3,3
    995  00000000  00000001 USING  ORDINARY    00000000 00001000 FFFFFFFD   2 005    9839  @R2,2
    999  00000000  00000001 USING  ORDINARY    00000000 00001000 FFFFFFFE   1 100   13572  @R1,1
   1003  00000000  00000001 USING  ORDINARY    00000000 00001000 FFFFFFFF   0 000          @R0,0
   1004  00000000  00000001 DROP                                            0              0
   5135  00000000  00000001 USING  ORDINARY    00000000 00001000 FFFFFFE2  12 0E0   16737  GVT,GVTR
   5144  00000000  00000001 USING  ORDINARY    00000000 00001000 FFFFFFE1  11 174    8048  TVT,TVTR
   5163  00000000  00000001 USING  ORDINARY    00000000 00001000 00000001  15 034    5197  PTRACE,R15
   5218  00000020  00000001 USING  ORDINARY    00000000 00001000 FFFFFFE0  13 044    5225  TRCENTRY,R13
   5231  00000034  00000001 USING  ORDINARY    00000000 00001000 FFFFFFF2  13 007   13056  @R13,13
   5242  00000038  00000001 USING  ORDINARY    00000000 00001000 FFFFFFF0  15 000          @R15,15
   5319  0000005E  00000001 USING  ORDINARY    0000005E 00001000 00000001   7 5DE    5526  $$$14B,7
   5333  0000005E  00000001 USING  ORDINARY    FFFFFFC8 00001000 FFFFFFDE   8 038    5495  PRTIWRK-(4+52),R8
   5347  00000060  00000001 USING  ORDINARY    00000000 00001000 FFFFFFEF   6 038    5423  SEGCB,R6
   5372  00000072  00000001 USING  ORDINARY    00000000 00001000 FFFFFFE7   5 030    5516  DCB,R5
   5439  000000A4  00000001 USING  ORDINARY    00000000 00001000 FFFFFFE6   4 000    5450  DVTAREA,R4
   5542  0000010E  00000001 USING  ORDINARY    00000000 00001000 FFFFFFFB   4 013   13557  @R4,4
   5547  0000010E  00000001 USING  ORDINARY    00000000 00001000 FFFFFFFA   5 000          @R5,5
   5552  0000010E  00000001 USING  ORDINARY    00000000 00001000 FFFFFFF9   6 000          @R6,6
   5557  0000010E  00000001 USING  ORDINARY    00000000 00001000 FFFFFFF7   8 000          @R8,8
   5562  0000010E  00000001 USING  ORDINARY    00000000 00001000 FFFFFFF8   7 000          @R7,7
   5638  00000180  00000001 USING  ORDINARY    00000180 00001000 00000001  15 000          $$$19B,R15
   5652  00000186  00000001 USING  ORDINARY    00000000 00001000 FFFFFFF0  15 006   15135  @R15,15
   5724  000001AC  00000001 USING  ORDINARY    000001AC 00001000 00000001   7 494    5862  $$$21B,7
   5738  000001AC  00000001 USING  ORDINARY    FFFFFFC8 00001000 FFFFFFDD   8 038    5818  PRTCWRK-(4+52),R8
   5752  000001AE  00000001 USING  ORDINARY    00000000 00001000 FFFFFFEF   6 038    5859  SEGCB,R6
   5781  000001B8  00000001 USING  ORDINARY    00000000 00001000 FFFFFFE7   5 030    5798  DCB,R5
   5869  0000020A  00000001 USING  ORDINARY    00000000 00001000 FFFFFFFA   5 000    6260  @R5,5
   5880  0000020A  00000001 USING  ORDINARY    00000000 00001000 FFFFFFF9   6 000          @R6,6
   5885  0000020A  00000001 USING  ORDINARY    00000000 00001000 FFFFFFF7   8 000          @R8,8
   5890  0000020A  00000001 USING  ORDINARY    00000000 00001000 FFFFFFF8   7 000          @R7,7
   5963  00000228  00000001 USING  ORDINARY    00000228 00001000 00000001   7 472    6349  $$$27B,7
   5977  00000228  00000001 USING  ORDINARY    FFFFFFD0 00001000 FFFFFFDC   8 03B    6114  PRTWA-(4+44),R8
   5991  0000022A  00000001 USING  ORDINARY    00000000 00001000 FFFFFFEF   6 038    6348  SEGCB,R6
   6369  00000336  00000001 USING  ORDINARY    00000000 00001000 FFFFFFF9   6 000          @R6,6
   6374  00000336  00000001 USING  ORDINARY    00000000 00001000 FFFFFFF7   8 000          @R8,8
   6379  00000336  00000001 USING  ORDINARY    00000000 00001000 FFFFFFF8   7 000          @R7,7
   6444  0000036C  00000001 USING  ORDINARY    0000036C 00001000 00000001   7 2EC    6541  $$$50B,7
   6463  0000036E  00000001 USING  ORDINARY    00000000 00001000 FFFFFFEF   6 038    6543  SEGCB,R6
   6486  0000037E  00000001 USING  ORDINARY    00000000 00001000 FFFFFFDF   5 000    6497  WTOCB,R5
   6555  000003AC  00000001 USING  ORDINARY    00000000 00001000 FFFFFFFA   5 000          @R5,5
1UTILS    Using Map                                                                                                         Page   97
   6560  000003AC  00000001 USING  ORDINARY    00000000 00001000 FFFFFFF9   6 000          @R6,6
   6565  000003AC  00000001 USING  ORDINARY    00000000 00001000 FFFFFFF8   7 000          @R7,7
   6643  000003E0  00000001 USING  ORDINARY    000003E0 00001000 00000001   7 010    6689  $$$53B,7
   6662  000003E2  00000001 USING  ORDINARY    00000000 00001000 FFFFFFEF   6 038    6666  SEGCB,R6
   6676  000003E6  00000001 USING  ORDINARY    00000000 00001000 FFFFFFDF   5 010    6694  WTOCB,R5
   6705  000003F0  00000001 USING  ORDINARY    00000000 00001000 FFFFFFFA   5 000          @R5,5
   6710  000003F0  00000001 USING  ORDINARY    00000000 00001000 FFFFFFF9   6 000          @R6,6
   6715  000003F0  00000001 USING  ORDINARY    00000000 00001000 FFFFFFF8   7 000          @R7,7
   6778  00000424  00000001 USING  ORDINARY    00000424 00001000 00000001   7 010    6824  $$$57B,7
   6797  00000426  00000001 USING  ORDINARY    00000000 00001000 FFFFFFEF   6 038    6801  SEGCB,R6
   6811  0000042A  00000001 USING  ORDINARY    00000000 00001000 FFFFFFDF   5 00C    6829  WTOCB,R5
   6840  00000434  00000001 USING  ORDINARY    00000000 00001000 FFFFFFFA   5 000          @R5,5
   6845  00000434  00000001 USING  ORDINARY    00000000 00001000 FFFFFFF9   6 000          @R6,6
   6850  00000434  00000001 USING  ORDINARY    00000000 00001000 FFFFFFF8   7 000          @R7,7
   7029  00000452  00000001 USING  ORDINARY    00000452 00001000 00000001   7 23D    7652  $$$69B,7
   7043  00000452  00000001 USING  ORDINARY    FFFFFFC8 00001000 FFFFFFDB   8 0A4    7675  WTOWA-(4+52),R8
   7058  00000454  00000001 USING  ORDINARY    00000000 00001000 FFFFFFEF   6 038    7641  SEGCB,R6
   7119  00000472  00000001 USING  ORDINARY    00000000 00001000 FFFFFFDF   5 000    7132  WTOCB,R5
   7139  0000047E  00000001 USING  ORDINARY    00000000 00001000 FFFFFFFA   5 000          @R5,5
   7155  0000047E  00000001 USING  ORDINARY    00000000 00001000 FFFFFFDF   5 010    7543  WTOCB,R5
   7696  00000614  00000001 USING  ORDINARY    00000000 00001000 FFFFFFFA   5 76C   13533  @R5,5
   7707  00000614  00000001 USING  ORDINARY    00000000 00001000 FFFFFFF9   6 000          @R6,6
   7712  00000614  00000001 USING  ORDINARY    00000000 00001000 FFFFFFF7   8 000          @R8,8
   7717  00000614  00000001 USING  ORDINARY    00000000 00001000 FFFFFFF8   7 000          @R7,7
   7823  000006C6  00000001 USING  ORDINARY    000006C6 00001000 00000001   7 10A    7884  $$$85B,7
   7842  000006C8  00000001 USING  ORDINARY    00000000 00001000 FFFFFFEF   6 038    7887  SEGCB,R6
   7899  000006F0  00000001 USING  ORDINARY    00000000 00001000 FFFFFFF9   6 000          @R6,6
   7904  000006F0  00000001 USING  ORDINARY    00000000 00001000 FFFFFFF8   7 000          @R7,7
   7968  00000724  00000001 USING  ORDINARY    00000724 00001000 00000001   7 0BC    8178  $$$88B,7
   7987  00000726  00000001 USING  ORDINARY    00000000 00001000 FFFFFFEF   6 038    8177  SEGCB,R6
   8198  000007BA  00000001 USING  ORDINARY    00000000 00001000 FFFFFFF9   6 000    9383  @R6,6
   8203  000007BA  00000001 USING  ORDINARY    00000000 00001000 FFFFFFF8   7 000          @R7,7
   8283  0000080A  00000001 USING  ORDINARY    0000080A 00001000 00000001   7 AEE    8293  $$$98B,7
   8305  00000814  00000001 USING  ORDINARY    00000000 00001000 FFFFFFF8   7 000          @R7,7
   8361  00000848  00000001 USING  ORDINARY    00000848 00001000 00000001   7 006    8370  $$$101B,7
   8382  0000084E  00000001 USING  ORDINARY    00000000 00001000 FFFFFFF8   7 000          @R7,7
   8445  00000882  00000001 USING  ORDINARY    00000882 00001000 00000001   7 AD2    8510  $$$104B,7
   8524  000008F0  00000001 USING  ORDINARY    00000000 00001000 FFFFFFF8   7 000          @R7,7
   8587  00000924  00000001 USING  ORDINARY    00000924 00001000 00000001   7 A30    8652  $$$109B,7
   8666  00000990  00000001 USING  ORDINARY    00000000 00001000 FFFFFFF8   7 000          @R7,7
   8734  000009C4  00000001 USING  ORDINARY    000009C4 00001000 00000001   7 990    8799  $$$114B,7
   8813  00000A34  00000001 USING  ORDINARY    00000000 00001000 FFFFFFF8   7 000          @R7,7
   8872  00000A68  00000001 USING  ORDINARY    00000A68 00001000 00000001   7 8EE    9050  $$$119B,7
   9088  00000B60  00000001 USING  ORDINARY    00000000 00001000 FFFFFFF8   7 000          @R7,7
   9192  00000B7E  00000001 USING  ORDINARY    00000B7E 00001000 00000001   7 01C    9244  $$$132B,7
   9252  00000B9A  00000001 USING  ORDINARY    00000000 00001000 FFFFFFF8   7 000          @R7,7
   9304  00000BB8  00000001 USING  ORDINARY    00000BB8 00001000 00000001   7 034    9397  $$$138B,7
   9405  00000BEC  00000001 USING  ORDINARY    00000000 00001000 FFFFFFF8   7 000          @R7,7
   9492  00000C20  00000001 USING  ORDINARY    00000C20 00001000 00000001   7 744    9557  $$$147B,7
   9506  00000C20  00000001 USING  ORDINARY    FFFFFFC8 00001000 FFFFFFD8   8 038    9532  DINTPWRK-(4+52),R8
   9578  00000C66  00000001 USING  ORDINARY    00000000 00001000 FFFFFFF7   8 000          @R8,8
   9583  00000C66  00000001 USING  ORDINARY    00000000 00001000 FFFFFFF8   7 000          @R7,7
   9668  00000C9A  00000001 USING  ORDINARY    00000C9A 00001000 00000001   7 682    9695  $$$152B,7
   9682  00000C9A  00000001 USING  ORDINARY    FFFFFFC8 00001000 FFFFFFD7   8 038    9687  NUMCONVW-(4+52),R8
   9711  00000CD2  00000001 USING  ORDINARY    00000000 00001000 FFFFFFF7   8 000          @R8,8
   9716  00000CD2  00000001 USING  ORDINARY    00000000 00001000 FFFFFFF8   7 000          @R7,7
   9781  00000D20  00000001 USING  ORDINARY    00000D20 00001000 00000001   7 646    9853  $$$155B,7
   9861  00000D4A  00000001 USING  ORDINARY    00000000 00001000 FFFFFFF8   7 000          @R7,7
   9919  00000E68  00000001 USING  ORDINARY    00000E68 00001000 00000001   7 4F2    9951  $$$163B,7
1UTILS    Using Map                                                                                                         Page   98
   9940  00000E80  00000001 DROP                                            2              2
   9944  00000E86  00000001 USING  ORDINARY    00000000 00001000 FFFFFFFD   2 000          @R2,2
   9959  00000E9A  00000001 USING  ORDINARY    00000000 00001000 FFFFFFF8   7 000          @R7,7
  10012  00000EB6  00000001 USING  ORDINARY    00000EB6 00001000 00000001   7 472   10051  $$$166B,7
  10029  00000EBE  00000001 DROP                                            2              2
  10033  00000EC4  00000001 USING  ORDINARY    00000000 00001000 FFFFFFFD   2 001   10305  @R2,2
  10060  00000F00  00000001 USING  ORDINARY    00000000 00001000 FFFFFFF8   7 000          @R7,7
  10109  00000F1C  00000001 USING  ORDINARY    00000F1C 00001000 00000001   7 410   10166  $$$169B,7
  10123  00000F1C  00000001 USING  ORDINARY    FFFFFFD0 00001000 FFFFFFDA   8 050   10160  WA-(4+44),R8
  10138  00000F24  00000001 USING  ORDINARY    00000000 00001000 FFFFFFD9   6 000   10146  DEC,R6
  10173  00000F66  00000001 USING  ORDINARY    00000000 00001000 FFFFFFF9   6 000          @R6,6
  10178  00000F66  00000001 USING  ORDINARY    00000000 00001000 FFFFFFF7   8 000          @R8,8
  10183  00000F66  00000001 USING  ORDINARY    00000000 00001000 FFFFFFF8   7 000          @R7,7
  10236  00000F98  00000001 USING  ORDINARY    00000F98 00001000 00000001   7 A86   10278  $$$173B,7
  10250  00000F98  00000001 USING  ORDINARY    FFFFFFD0 00001000 FFFFFFDA   8 048   10269  WA-(4+44),R8
  10286  00000FE2  00000001 USING  ORDINARY    00000000 00001000 FFFFFFF7   8 000          @R8,8
  10291  00000FE2  00000001 USING  ORDINARY    00000000 00001000 FFFFFFF8   7 000          @R7,7
  10342  00001004  00000001 USING  ORDINARY    00001004 00001000 00000001   7 AF2   10448  $$$177B,7
  10356  00001004  00000001 USING  ORDINARY    FFFFFFD0 00001000 FFFFFFDA   8 061   10437  WA-(4+44),R8
  10372  0000100C  00000001 USING  ORDINARY    00000000 00001000 FFFFFFD9   6 000   10385  DEC,R6
  10470  00001060  00000001 USING  ORDINARY    00000000 00001000 FFFFFFF9   6 019   12783  @R6,6
  10475  00001060  00000001 USING  ORDINARY    00000000 00001000 FFFFFFF7   8 000          @R8,8
  10480  00001060  00000001 USING  ORDINARY    00000000 00001000 FFFFFFF8   7 000          @R7,7
  10567  00001096  00000001 USING  ORDINARY    00001096 00001000 00000001   7 2CA   10879  $$$185B,7
  10581  00001096  00000001 USING  ORDINARY    FFFFFFD0 00001000 FFFFFFD6   8 033   10849  HXWA-(4+44),R8
  10889  00001178  00000001 USING  ORDINARY    00000000 00001000 FFFFFFF7   8 000          @R8,8
  10894  00001178  00000001 USING  ORDINARY    00000000 00001000 FFFFFFF8   7 000          @R7,7
  10953  00001196  00000001 USING  ORDINARY    00001196 00001000 00000001   7 546   11345  $$$203B,7
  10967  00001196  00000001 USING  ORDINARY    FFFFFFD0 00001000 FFFFFFDA   8 040   11253  WA-(4+44),R8
  11013  000011B6  00000001 USING  ORDINARY    00000000 00001000 FFFFFFEE   2 130   11019  CVT,R2
  11026  000011BA  00000001 USING  ORDINARY    00000000 00001000 FFFFFFFD   2 003   11090  @R2,2
  11381  000012C2  00000001 USING  ORDINARY    00000000 00001000 FFFFFFF7   8 000          @R8,8
  11386  000012C2  00000001 USING  ORDINARY    00000000 00001000 FFFFFFF8   7 000          @R7,7
  11504  00001382  00000001 USING  ORDINARY    00001382 00001000 00000001   7 822   11554  $$$220B,7
  11518  00001382  00000001 USING  ORDINARY    FFFFFFC8 00001000 FFFFFFD5   8 038   11522  FMTIDLEW-(4+52),R8
  11566  00001408  00000001 USING  ORDINARY    00000000 00001000 FFFFFFF7   8 000          @R8,8
  11571  00001408  00000001 USING  ORDINARY    00000000 00001000 FFFFFFF8   7 000          @R7,7
  11628  00001434  00000001 USING  ORDINARY    00001434 00001000 00000001   7 36E   11657  $$$223B,7
  11682  0000146E  00000001 USING  ORDINARY    00000000 00001000 FFFFFFF8   7 000          @R7,7
  11740  0000148C  00000001 USING  ORDINARY    0000148C 00001000 00000001   7 71A   11825  $$$226B,7
  11858  000014E6  00000001 USING  ORDINARY    00000000 00001000 FFFFFFF8   7 000          @R7,7
  11914  00001504  00000001 USING  ORDINARY    00001504 00001000 00000001   7 6CD   12008  $$$232B,7
  12032  00001558  00000001 USING  ORDINARY    00000000 00001000 FFFFFFF8   7 000          @R7,7
  12088  00001576  00000001 USING  ORDINARY    00001576 00001000 00000001   7 60E   12251  $$$235B,7
  12275  00001604  00000001 USING  ORDINARY    00000000 00001000 FFFFFFF8   7 000          @R7,7
  12331  00001622  00000001 USING  ORDINARY    00001622 00001000 00000001   7 590   12497  $$$243B,7
  12521  000016B4  00000001 USING  ORDINARY    00000000 00001000 FFFFFFF8   7 000          @R7,7
  12579  000016EC  00000001 USING  ORDINARY    000016EC 00001000 00000001   7 4A0   12659  $$$251B,7
  12627  00001704  00000001 USING  ORDINARY    00000000 00001000 FFFFFFEE   2 130   12633  CVT,R2
  12640  00001708  00000001 USING  ORDINARY    00000000 00001000 FFFFFFFD   2 001   12667  @R2,2
  12674  00001732  00000001 USING  ORDINARY    00000000 00001000 FFFFFFF8   7 000          @R7,7
  12739  000017B2  00000001 USING  ORDINARY    000017B2 00001000 00000001   7 40A   12783  $$$256B,7
  12807  000017DE  00000001 USING  ORDINARY    00000000 00001000 FFFFFFF8   7 000          @R7,7
  12865  000017FC  00000001 USING  ORDINARY    000017FC 00001000 00000001   7 3C6   12958  $$$260B,7
  12913  00001814  00000001 USING  ORDINARY    00000000 00001000 FFFFFFEE   2 130   12919  CVT,R2
  12926  00001818  00000001 USING  ORDINARY    00000000 00001000 FFFFFFFD   2 000          @R2,2
  12969  0000185A  00000001 USING  ORDINARY    00000000 00001000 FFFFFFF8   7 000          @R7,7
  13031  00001878  00000001 USING  ORDINARY    00001878 00001000 00000001   7 318   13105  $$$265B,7
  13072  0000188A  00000001 USING  ORDINARY    00000000 00001000 FFFFFFEE   2 130   13078  CVT,R2
1UTILS    Using Map                                                                                                         Page   99
  13085  0000188E  00000001 USING  ORDINARY    00000000 00001000 FFFFFFFD   2 000   13983  @R2,2
  13116  000018BA  00000001 USING  ORDINARY    00000000 00001000 FFFFFFF8   7 000          @R7,7
  13174  000018D8  00000001 USING  ORDINARY    000018D8 00001000 00000001   7 2EC   13327  $$$269B,7
  13188  000018D8  00000001 USING  ORDINARY    FFFFFFD0 00001000 FFFFFFDA   8 034   13192  WA-(4+44),R8
  13203  000018E0  00000001 USING  ORDINARY    00000000 00001000 FFFFFFD9   6 006   13329  DEC,R6
  13339  00001990  00000001 USING  ORDINARY    00000000 00001000 FFFFFFF9   6 000          @R6,6
  13344  00001990  00000001 USING  ORDINARY    00000000 00001000 FFFFFFF7   8 000          @R8,8
  13349  00001990  00000001 USING  ORDINARY    00000000 00001000 FFFFFFF8   7 000          @R7,7
  13409  000019AE  00000001 USING  ORDINARY    000019AE 00001000 00000001   7 22E   13562  $$$278B,7
  13423  000019AE  00000001 USING  ORDINARY    FFFFFFD0 00001000 FFFFFFDA   8 034   13428  WA-(4+44),R8
  13439  000019B8  00000001 USING  ORDINARY    00000000 00001000 FFFFFFD9   6 006   13569  DEC,R6
  13580  00001A72  00000001 USING  ORDINARY    00000000 00001000 FFFFFFF9   6 000          @R6,6
  13585  00001A72  00000001 USING  ORDINARY    00000000 00001000 FFFFFFF7   8 000          @R8,8
  13590  00001A72  00000001 USING  ORDINARY    00000000 00001000 FFFFFFF8   7 000          @R7,7
  13640  00001A90  00000001 USING  ORDINARY    00001A90 00001000 00000001   7 134   13687  $$$287B,7
  13654  00001A90  00000001 USING  ORDINARY    FFFFFFD0 00001000 FFFFFFDA   8 034   13658  WA-(4+44),R8
  13669  00001A98  00000001 USING  ORDINARY    00000000 00001000 FFFFFFD9   6 006   13689  DEC,R6
  13699  00001AE8  00000001 USING  ORDINARY    00000000 00001000 FFFFFFF9   6 001   15133  @R6,6
  13704  00001AE8  00000001 USING  ORDINARY    00000000 00001000 FFFFFFF7   8 000          @R8,8
  13709  00001AE8  00000001 USING  ORDINARY    00000000 00001000 FFFFFFF8   7 000          @R7,7
  13836  00001BF0  00000001 USING  ORDINARY    00001BF0 00001000 00000001   7 05A   13981  $$$290B,7
  13884  00001C12  00000001 USING  ORDINARY    00000000 00001000 FFFFFFD4   1 004   13896  SYMENTRY,R1
  13903  00001C1E  00000001 USING  ORDINARY    00000000 00001000 FFFFFFFE   1 001   15993  @R1,1
  13919  00001C22  00000001 USING  ORDINARY    00000000 00001000 FFFFFFD4   4 00C   13973  SYMENTRY,R4
  13990  00001C4A  00000001 USING  ORDINARY    00000000 00001000 FFFFFFFB   4 004   14735  @R4,4
  14002  00001C4A  00000001 USING  ORDINARY    00000000 00001000 FFFFFFF8   7 000          @R7,7
  14057  00001C68  00000001 USING  ORDINARY    00001C68 00001000 00000001   7 046   14169  $$$298B,7
  14075  00001C68  00000001 USING  ORDINARY    00000000 00001000 FFFFFFD4   2 00C   14161  SYMENTRY,R2
  14177  00001CAE  00000001 USING  ORDINARY    00000000 00001000 FFFFFFFD   2 002   16039  @R2,2
  14185  00001CAE  00000001 USING  ORDINARY    00000000 00001000 FFFFFFF8   7 000          @R7,7
  14269  00001CE2  00000001 USING  ORDINARY    00001CE2 00001000 00000001   7 9CE   14334  $$$306B,7
  14283  00001CE2  00000001 USING  ORDINARY    FFFFFFCC 00001000 FFFFFFD3   8 034   14340  UNPRWA-(4+48),R8
  14294  00001CF8  00000001 DROP                                            5              5
  14298  00001CFE  00000001 USING  ORDINARY    00000000 00001000 FFFFFFFA   5 000          @R5,5
  14348  00001D3A  00000001 USING  ORDINARY    00000000 00001000 FFFFFFF7   8 000          @R8,8
  14353  00001D3A  00000001 USING  ORDINARY    00000000 00001000 FFFFFFF8   7 000          @R7,7
  14413  00001D5C  00000001 USING  ORDINARY    00001D5C 00001000 00000001   7 8DC   14537  $$$311B,7
  14546  00001DB6  00000001 USING  ORDINARY    00000000 00001000 FFFFFFF8   7 000          @R7,7
  14626  00001DE8  00000001 USING  ORDINARY    00001DE8 00001000 00000001   7 8A4   14740  $$$320B,7
  14640  00001DE8  00000001 USING  ORDINARY    FFFFFFC8 00001000 FFFFFFD2   8 038   14720  HXSWA-(4+52),R8
  14750  00001E2E  00000001 USING  ORDINARY    00000000 00001000 FFFFFFF7   8 000          @R8,8
  14755  00001E2E  00000001 USING  ORDINARY    00000000 00001000 FFFFFFF8   7 000          @R7,7
  14854  00001E62  00000001 USING  ORDINARY    00001E62 00001000 00000001   7 838   15265  $$$326B,7
  14868  00001E62  00000001 USING  ORDINARY    FFFFFFC8 00001000 FFFFFFD1   8 04D   15257  HXDWA-(4+52),R8
  15273  00001FA4  00000001 USING  ORDINARY    00000000 00001000 FFFFFFF7   8 000          @R8,8
  15278  00001FA4  00000001 USING  ORDINARY    00000000 00001000 FFFFFFF8   7 000          @R7,7
  15370  000021C2  00000001 USING  ORDINARY    000021C2 00001000 00000001   7 000          $$$345B,7
  15388  000021C2  00000001 USING  ORDINARY    00000000 00001000 FFFFFFEF  15 020   15401  SEGCB,R15
  15408  000021D0  00000001 USING  ORDINARY    00000000 00001000 FFFFFFF0  15 000          @R15,15
  15416  000021D0  00000001 USING  ORDINARY    00000000 00001000 FFFFFFF8   7 000          @R7,7
  15461  000021EE  00000001 USING  ORDINARY    000021EE 00001000 00000001   7 000          $$$348B,7
  15479  000021EE  00000001 USING  ORDINARY    00000000 00001000 FFFFFFEF  15 024   15485  SEGCB,R15
  15492  000021F6  00000001 USING  ORDINARY    00000000 00001000 FFFFFFF0  15 000          @R15,15
  15500  000021F6  00000001 USING  ORDINARY    00000000 00001000 FFFFFFF8   7 000          @R7,7
  15550  00002214  00000001 USING  ORDINARY    00002214 00001000 00000001   7 495   15575  $$$351B,7
  15583  0000222A  00000001 USING  ORDINARY    00000000 00001000 FFFFFFF8   7 000          @R7,7
  15633  00002248  00000001 USING  ORDINARY    00002248 00001000 00000001   7 461   15658  $$$354B,7
  15666  0000225E  00000001 USING  ORDINARY    00000000 00001000 FFFFFFF8   7 000          @R7,7
  15716  0000227C  00000001 USING  ORDINARY    0000227C 00001000 00000001   7 42E   15752  $$$357B,7
1UTILS    Using Map                                                                                                         Page  100
  15760  0000229A  00000001 USING  ORDINARY    00000000 00001000 FFFFFFF8   7 000          @R7,7
  15810  000022B8  00000001 USING  ORDINARY    000022B8 00001000 00000001   7 3B0   15872  $$$360B,7
  15831  000022BE  00000001 USING  ORDINARY    00000000 00001000 FFFFFFEF   6 024   15862  SEGCB,R6
  15893  000022EA  00000001 USING  ORDINARY    00000000 00001000 FFFFFFF9   6 000          @R6,6
  15898  000022EA  00000001 USING  ORDINARY    00000000 00001000 FFFFFFF8   7 000          @R7,7
  15956  00002308  00000001 USING  ORDINARY    00002308 00001000 00000001   7 050   16044  $$$365B,7
  15975  0000230A  00000001 USING  ORDINARY    00000000 00001000 FFFFFFEF   6 000          SEGCB,R6
  16051  00002338  00000001 USING  ORDINARY    00000000 00001000 FFFFFFF9   6 000          @R6,6
  16056  00002338  00000001 USING  ORDINARY    00000000 00001000 FFFFFFF8   7 000          @R7,7
  16101  00002356  00000001 USING  ORDINARY    00002356 00001000 00000001   7 000          $$$372B,7
  16120  00002358  00000001 USING  ORDINARY    00000000 00001000 FFFFFFEF   6 024   16426  SEGCB,R6
  16137  0000235A  00000001 USING  ORDINARY    00000000 00001000 FFFFFFF8   7 000          @R7,7
  16140  0000235A  00000001 USING  ORDINARY    0000235A 00001000 00000001   7 336   16428  $$$373B,7
  16445  00002450  00000001 USING  ORDINARY    00000000 00001000 FFFFFFF9   6 000          @R6,6
  16455  00002450  00000001 USING  ORDINARY    00000000 00001000 FFFFFFF8   7 000          @R7,7
  16509  0000246E  00000001 USING  ORDINARY    0000246E 00001000 00000001   7 202   16588  $$$387B,7
  16528  00002470  00000001 USING  ORDINARY    00000000 00001000 FFFFFFEF   6 00C   16557  SEGCB,R6
  16596  00002492  00000001 USING  ORDINARY    00000000 00001000 FFFFFFF9   6 000          @R6,6
  16601  00002492  00000001 USING  ORDINARY    00000000 00001000 FFFFFFF8   7 000          @R7,7
  16654  000024B0  00000001 USING  ORDINARY    000024B0 00001000 00000001   7 1E2   16751  $$$392B,7
  16673  000024B2  00000001 USING  ORDINARY    00000000 00001000 FFFFFFEF   6 000          SEGCB,R6
  16759  000024E2  00000001 USING  ORDINARY    00000000 00001000 FFFFFFF9   6 000          @R6,6
  16764  000024E2  00000001 USING  ORDINARY    00000000 00001000 FFFFFFF8   7 000          @R7,7
  16845  00002516  00000001 USING  ORDINARY    00002516 00001000 00000001   7 195   16945  $$$397B,7
  16859  00002516  00000001 USING  ORDINARY    FFFFFFC8 00001000 FFFFFFD0   8 038   16917  SEGDWA-(4+52),R8
  16953  0000255A  00000001 USING  ORDINARY    00000000 00001000 FFFFFFF7   8 000          @R8,8
  16958  0000255A  00000001 USING  ORDINARY    00000000 00001000 FFFFFFF8   7 000          @R7,7
  17012  00002578  00000001 USING  ORDINARY    00002578 00001000 00000001   7 012   17052  $$$401B,7
  17031  0000257A  00000001 USING  ORDINARY    00000000 00001000 FFFFFFEF   6 024   17074  SEGCB,R6
  17081  00002596  00000001 USING  ORDINARY    00000000 00001000 FFFFFFF9   6 000          @R6,6
  17086  00002596  00000001 USING  ORDINARY    00000000 00001000 FFFFFFF8   7 000          @R7,7
  17118  000025A4  00000001 USING  ORDINARY    00000000 00001000 FFFFFFEF  15 00C   17125  SEGCB,R15
  17132  000025AA  00000001 USING  ORDINARY    00000000 00001000 FFFFFFF0  15 000          @R15,15
  17174  000025BC  00000001 USING  ORDINARY    000025BC 00001000 00000001   7 0DA   17228  $$$405B,7
  17237  000025DA  00000001 USING  ORDINARY    00000000 00001000 FFFFFFF8   7 000          @R7,7
  17290  000025F8  00000001 USING  ORDINARY    000025F8 00001000 00000001   7 0A0   17344  $$$409B,7
  17353  00002616  00000001 USING  ORDINARY    00000000 00001000 FFFFFFF8   7 000          @R7,7

1         General Purpose Register Cross Reference                                                                          Page  101
- Register  References (M=modified, B=branch, U=USING, D=DROP, N=index)                      HLASM R4.0  2002/06/06 10.18
0    0(0)     1003U  1004D  5224   5302   5356M  5393M  5406M  5450M  5570M  5707   5898M  6039   6051M  6057   6062M
              6062   6117M  6120M  6299M  6319M  6319   6324   6329   6358M  6358   6428   6470M  6513M  6526M  6573M
              6627   6694   6723M  6762   6829   6858M  7012   7210M  7242M  7270M  7287M  7318M  7429M  7451M  7451
              7452M  7488M  7570M  7598M  7615M  7641M  7663M  7664M  7725M  7807   7872M  7891M  7892   7912M  7952
              8028M  8029M  8041   8110M  8111M  8111   8149M  8149   8186M  8186   8211M  8267   8313M  8345   8390M
              8429   8466M  8466   8479M  8480M  8481M  8482   8509M  8510M  8512   8532M  8571   8608M  8608   8621M
              8622M  8623M  8624   8651M  8652M  8654   8674M  8718   8755M  8755   8768M  8769M  8770M  8771   8798M
              8799M  8801   8821M  8856   8934M  8943M  8943   9009M  9018M  9018   9049   9049   9096M  9202   9217M
              9217   9240M  9325M  9325   9347M  9355   9370M  9370   9393M  9475   9526   9538   9591M  9651   9700M
              9701M  9704   9724M  9765   9802M  9802   9808   9849M  9869M  9932M  9932   9950M 10025M 10025  10050M
             10155M 10155  10157M 10157  10158M 10159  10257  10276M 10379  10408M 10420M 10421M 10438  10443  10617M
             10624  10649M 10649  10655  10676M 10694M 10875M 10880M 10984M 10984  11002M 11019M 11028  11033  11049M
             11097M 11119M 11173M 11254M 11273M 11278M 11279M 11295  11325  11374M 11487  11557M 11559  11579M 11640
             11646M 11653M 11675M 11752  11763M 11773M 11779M 11815M 11847M 11928  11945M 11973M 11996M 12025M 12127M
             12216M 12239M 12268M 12373M 12462M 12485M 12514M 12598M 12598  12616M 12633M 12647M 12648M 12664M 12664
             12665M 12771M 12800M 12884M 12884  12902M 12919M 12933M 12934M 12936  12940M 12940  12941M 12942M 12943M
             13048M 13048  13056M 13078M 13088M 13089M 13099M 13108M 13207  13332M 13443  13573M 13673  13692M 13857M
             14110  14136M 14291M 14341M 14433  14478M 14480M 14484  14520M 14534M 14534  14609  14644  14676M 14689M
             14692  14704M 14709M 14709  14763M 14837  14874  14953M 14992M 15083M 15110M 15195M 15196M 15251M 15286M
             15354  15400  15424M 15445  15484  15508M 15566M 15649M 15732M 15842M 15940  15987M 15987  15995  16039M
             16064M 16085  16183M 16183  16195  16197M 16199  16206M 16218  16233M 16234M 16234  16247M 16283M 16283
             16296M 16296  16336M 16343  16361M 16368M 16369M 16370M 16376M 16377M 16385M 16395  16397M 16403  16404M
             16405M 16407M 16416M 16463M 16468  16533M 16545  16552M 16557M 16570M 16677  16711M 16742M 16828  16866
             16867M 16905M 16916M 16936M 16966M
     1(1)      999U  5224   5302   5354   5362   5386M  5410M  5410   5449M  5495M  5496   5497   5498N  5499N  5500N
              5570M  5707   5818M  5819N  5820N  5821N  5852M  5898M  6056   6064M  6064   6118M  6119M  6120M  6156M
              6158   6428   6476   6506M  6530M  6530   6573M  6627   6723M  6762   6858M  7012   7205M  7241M  7265M
              7286M  7313M  7424M  7453M  7457   7483M  7569M  7593M  7614M  7636M  7675M  7725M  7807   7876M  7876
              7886M  7887   7890M  7912M  7952   8027M  8048M  8049   8211M  8267   8313M  8345   8390M  8429   8494M
              8494   8508M  8512   8532M  8571   8636M  8636   8650M  8654   8674M  8718   8783M  8783   8797M  8801
              8821M  8856   8883   8944M  9019M  9074M  9074   9076   9096M  9201   9345M  9354   9475   9544   9591M
              9651   9696M  9697M  9698M  9699N  9701   9702M  9704   9724M  9765   9848M  9869M  9948M 10048M 10144
             10145M 10146M 10150M 10153  10154M 10376  10381M 10382M 10385M 10402M 10421  10437M 10438M 10463M 10527
             10616M 10624  10674M 10693M 10874M 10880M 10995M 10995  11002M 11034  11050M 11080  11090M 11112M 11168M
             11174M 11252M 11278  11367M 11487  11556M 11559  11579M 11641  11647M 11654M 11668M 11753  11762  11764M
             11774M 11777  11780M 11793  11808M 11840M 11952M 11980M 12003M 12018M 12109  12134M 12223M 12246M 12261M
             12354  12380M 12469M 12492M 12507M 12609M 12609  12616M 12647M 12648M 12657M 12658M 12659M 12659N 12666M
             12759  12778M 12793M 12895M 12895  12902M 12933M 12934M 12936M 12941M 12942M 12943  12951M 12952M 12959M
             12959N 12960  12962M 13056M 13088M 13089M 13106M 13107M 13108M 13211M 13427  13447M 13681  13686  13689
             13690  13691  13845  13859M 13859  13884U 13903U 13940  13983  14137M 14252  14290M 14291  14309M 14333M
             14341  14361M 14481  14483M 14609  14645  14683M 14720M 14763M 14837  14872  14873  14960M 14999M 15109M
             15246M 15286M 15354  15401  15424M 15445  15485  15508M 15565M 15648M 15731M 15841M 15940  15993M 15994
             16011  16038  16064M 16085  16198  16230M 16297M 16335M 16336M 16337M 16343M 16344  16354M 16354  16367
             16369M 16406M 16407M 16463M 16706M 16737M 16828  16867  16869M 16904M 16917M 16966M 17188  17201M 17304
             17317M
     2(2)      995U  5224   5302   5354M  5480M  5499   5570M  5707   5898M  5946   6146M  6147M  6149   6183   6214M
              6387M  6428   6573M  6627   6723M  6762   6858M  7012   7725M  7807   7846   7912M  7952   8049M  8050M
              8076M  8077M  8079M  8103M  8104   8211M  8267   8292M  8293M  8294B  8313M  8345   8370M  8371B  8390M
              8429   8532M  8571   8674M  8718   8821M  8856   9096M  9176   9260M  9288   9413M  9475   9591M  9651
              9724M  9765   9790M  9869M  9903   9940D  9942M  9942   9943M  9945M  9947   9967M  9996  10029D 10031M
             10031  10032M 10038M 10045M 10047  10068M 10092  10160M 10161M 10191M 10219  10259M 10260M 10269M 10271M
             10275M 10299M 10325  10378M 10379M 10380N 10382  10443M 10446M 10448  10488M 10550  10722M 10776M 10781
             10804M 10858M 10863  10902M 10936  11003M 11013U 11026U 11080M 11112  11253M 11279  11394M 11487  11526M
             11530M 11531M 11532M 11533M 11537M 11537  11539M 11541M 11542M 11546M 11547M 11551  11579M 11612  11690M
             11724  11779  11866M 11898  12040M 12072  12283M 12315  12529M 12563  12617M 12627U 12640U 12654M 12654
1         General Purpose Register Cross Reference                                                                          Page  102
             12655M 12657  12682M 12723  12815M 12849  12903M 12913U 12926U 12948M 12948  12949M 12950M 12953  12957M
             12957  12958M 12977M 13015  13062M 13072U 13085U 13095M 13095  13096M 13097M 13100  13104M 13104  13105M
             13124M 13157  13211M 13217M 13241  13248M 13268M 13288  13311  13317M 13327M 13328  13357M 13392  13447M
             13456M 13480  13487M 13507M 13527  13550  13556M 13567  13598M 13623  13674M 13674  13675M 13676M 13676
             13677M 13678M 13679  13682M 13682  13683M 13684M 13685  13717M 13820  13845M 13972M 14010M 14041  14080M
             14091M 14091  14137  14142M 14142  14160  14161M 14177U 14193M 14252  14302M 14334  14361M 14397  14554M
             14609  14763M 14837  15008M 15024N 15040N 15136M 15136N 15154M 15175M 15211M 15286M 15354  15424M 15445
             15508M 15534  15591M 15617  15674M 15700  15768M 15794  15906M 15940  15994M 15995M 15997M 16011  16032M
             16038M 16064M 16085  16198M 16407M 16463M 16493  16609M 16638  16772M 16828  16866M 16916  16966M 16996
             17094M 17158  17186M 17201  17245M 17274  17302M 17317  17361M
     3(3)      991U  5224   5302   5570M  5707   5898M  5946   6129M  6156   6387M  6428   6573M  6627   6723M  6762
              6858M  7012   7725M  7807   7912M  7952   8051M  8054   8066M  8072   8073   8077M  8080M  8083   8095M
              8102M  8103   8211M  8267   8313M  8345   8390M  8429   8532M  8571   8674M  8718   8821M  8856   9096M
              9176   9260M  9288   9413M  9475   9532M  9533M  9534M  9591M  9651   9687M  9688M  9689M  9690   9724M
              9765   9869M  9903   9967M  9996  10068M 10092  10152M 10153M 10158  10159M 10161  10164M 10166  10191M
             10219  10257M 10260  10262M 10264  10270M 10274M 10299M 10325  10380M 10488M 10550  10637M 10637  10721M
             10781M 10865M 10866M 10867  10902M 10936  11166M 11195  11209  11232  11246  11266  11309  11339  11394M
             11487  11526M 11528M 11532M 11533M 11539M 11540  11541M 11542M 11543  11546M 11547M 11548  11579M 11612
             11690M 11724  11780  11866M 11898  12040M 12072  12181M 12199M 12283M 12315  12427M 12445M 12529M 12563
             12649M 12655M 12682M 12723  12815M 12849  12935M 12949M 12950M 12951  12953M 12958M 12977M 13015  13090M
             13096M 13097M 13099  13100M 13105M 13124M 13157  13215M 13225M 13301M 13319M 13357M 13392  13451M 13464M
             13540M 13558M 13598M 13623  13673M 13675M 13677M 13683M 13687M 13688  13717M 13820  13846M 14010M 14041
             14193M 14252  14305M 14334  14361M 14397  14554M 14609  14644M 14659M 14659  14689  14736M 14763M 14837
             15024M 15040M 15049M 15222M 15286M 15354  15424M 15445  15508M 15534  15591M 15617  15674M 15700  15768M
             15794  15906M 15940  16064M 16085  16199M 16370  16376  16395M 16406  16407M 16463M 16493  16609M 16638
             16772M 16828  16966M 16996  17094M 17158  17245M 17274  17361M
     4(4)      987U  5224   5302   5361M  5386   5428M  5439U  5542U  5570M  5707   5898M  5946   6057M  6118   6146
              6227M  6227   6233   6299   6387M  6428   6475M  6506   6573M  6627   6723M  6762   6858M  7012   7725M
              7807   7912M  7952   8071M  8077M  8211M  8267   8313M  8345   8390M  8429   8482M  8498   8500N  8509
              8532M  8571   8624M  8640   8642N  8651   8674M  8718   8771M  8787   8789N  8798   8821M  8856   8903M
              8904N  8934   8978M  8979N  9009   9096M  9176   9260M  9288   9413M  9475   9513M  9591M  9651   9686M
              9698   9699M  9702   9724M  9765   9869M  9903   9967M  9996  10068M 10092  10144M 10154  10191M 10219
             10299M 10325  10488M 10550  10635M 10635  10803M 10863M 10866  10902M 10936  11033M 11049  11173  11394M
             11487  11522M 11523M 11524M 11579M 11612  11640M 11646  11653  11690M 11724  11752M 11763  11773  11866M
             11898  11932M 11932  11933M 11938  11960M 11960  11961M 11966  12040M 12072  12114M 12114  12115M 12163
             12170M 12191  12198M 12232  12283M 12315  12359M 12359  12360M 12409  12416M 12437  12444M 12478  12529M
             12563  12682M 12723  12815M 12849  12977M 13015  13124M 13157  13249M 13300M 13318M 13325  13357M 13392
             13488M 13539M 13557M 13564  13598M 13623  13717M 13820  13909M 13919U 13934M 13934  13952  13956M 13956
             13972  13973M 13990U 14010M 14041  14193M 14252  14307M 14310M 14312  14332  14333  14361M 14397  14481M
             14539M 14554M 14609  14645M 14735M 14763M 14837  15050M 15066  15166  15195  15230M 15286M 15354  15424M
             15445  15508M 15534  15591M 15617  15674M 15700  15768M 15794  15906M 15940  16064M 16085  16463M 16493
             16609M 16638  16772M 16828  16966M 16996  17094M 17158  17245M 17274  17361M
     5(5)      983U  5224   5302   5362M  5372U  5423   5547U  5570M  5707   5757M  5766M  5766   5781U  5820   5869U
              5898M  5946   6056M  6117   6387M  6428   6476M  6486U  6543   6555U  6573M  6627   6666M  6676U  6688M
              6688   6705U  6723M  6762   6801M  6811U  6823M  6823   6840U  6858M  7012   7096M  7097M  7097   7109M
              7119U  7139U  7155U  7696U  7725M  7807   7912M  7952   8072M  8077M  8211M  8267   8313M  8345   8390M
              8429   8532M  8571   8674M  8718   8821M  8856   8883M  8886M  8944   9019   9096M  9176   9260M  9288
              9413M  9475   9591M  9651   9724M  9765   9869M  9903   9967M  9996  10068M 10092  10191M 10219  10299M
             10325  10376M 10463  10488M 10550  10631M 10631  10867N 10868M 10875  10902M 10936  11034M 11050  11174
             11394M 11487  11579M 11612  11641M 11647  11654  11690M 11724  11753M 11764  11777M 11793  11866M 11898
             11928M 11933M 11961M 11989  12040M 12072  12110M 12115M 12120  12146M 12180M 12197M 12209  12283M 12315
             12355M 12360M 12361M 12366  12392M 12426M 12443M 12455  12529M 12563  12682M 12723  12815M 12849  12977M
             13015  13124M 13157  13357M 13392  13427M 13598M 13623  13717M 13820  14010M 14041  14193M 14252  14294D
             14296M 14296  14297M 14298U 14299M 14299  14304M 14305N 14306M 14307  14308M 14309  14312M 14315M 14317
             14361M 14397  14484M 14495M 14495  14518M 14528M 14554M 14609  14646M 14730  14763M 14837  14872M 14980
             15286M 15354  15424M 15445  15508M 15534  15591M 15617  15674M 15700  15768M 15794  15906M 15940  16064M
             16085  16174M 16174  16205M 16205  16394M 16416  16463M 16493  16609M 16638  16677M 16691  16722M 16742
             16772M 16828  16863M 16891  16911  16942  16966M 16996  17094M 17158  17245M 17274  17361M
     6(6)      979U  5224   5302   5337M  5347U  5401   5418   5552U  5570M  5707   5742M  5752U  5880U  5898M  5946
1         General Purpose Register Cross Reference                                                                          Page  103
              5981M  5991U  6369U  6387M  6428   6453M  6463U  6521   6538   6560U  6573M  6627   6652M  6662U  6710U
              6723M  6762   6787M  6797U  6845U  6858M  7012   7048M  7058U  7707U  7725M  7807   7832M  7842U  7899U
              7912M  7952   7977M  7987U  8157   8198U  8211M  8267   8313M  8345   8390M  8429   8454M  8499   8532M
              8571   8596M  8641   8674M  8718   8743M  8788   8821M  8856   8881M  8932   9007   9096M  9176   9201M
              9202M  9204M  9238M  9260M  9288   9354M  9355M  9357M  9391M  9413M  9475   9591M  9651   9724M  9765
              9869M  9903   9967M  9996  10068M 10092  10127M 10128M 10138U 10173U 10191M 10219  10299M 10325  10361M
             10362M 10372U 10470U 10488M 10550  10627M 10874  10902M 10936  10971M 11367  11394M 11487  11579M 11612
             11637M 11668  11690M 11724  11749M 11808  11840  11866M 11898  11923M 12003  12018  12040M 12072  12097M
             12223  12261  12283M 12315  12340M 12380  12507  12529M 12563  12682M 12723  12748M 12778  12793  12815M
             12849  12977M 13015  13124M 13157  13192M 13193M 13203U 13339U 13357M 13392  13428M 13429M 13439U 13580U
             13598M 13623  13658M 13659M 13669U 13699U 13717M 13820  14010M 14041  14193M 14252  14301M 14310  14361M
             14397  14482M 14516M 14526M 14554M 14609  14763M 14837  14873M 14927  15225M 15286M 15354  15424M 15445
             15508M 15534  15559M 15572  15591M 15617  15642M 15655  15674M 15700  15725M 15738  15749  15768M 15794
             15819M 15831U 15843  15893U 15906M 15940  15965M 15975U 16051U 16064M 16085  16110M 16120U 16252  16415
             16445U 16463M 16493  16518M 16528U 16585  16596U 16609M 16638  16663M 16673U 16717  16748  16759U 16772M
             16828  16966M 16996  17021M 17031U 17081U 17094M 17158  17183M 17222  17245M 17274  17299M 17338  17361M
     7(7)      975U  5224   5302   5308M  5319U  5562U  5570M  5707   5713M  5724U  5890U  5898M  5946   5952M  5963U
              6379U  6387M  6428   6433M  6444U  6565U  6573M  6627   6632M  6643U  6715U  6723M  6762   6767M  6778U
              6850U  6858M  7012   7018M  7029U  7717U  7725M  7807   7812M  7823U  7904U  7912M  7952   7957M  7968U
              8203U  8211M  8267   8272M  8283U  8305U  8313M  8345   8350M  8361U  8382U  8390M  8429   8434M  8445U
              8524U  8532M  8571   8576M  8587U  8666U  8674M  8718   8723M  8734U  8813U  8821M  8856   8861M  8872U
              9088U  9096M  9176   9181M  9192U  9252U  9260M  9288   9293M  9304U  9405U  9413M  9475   9481M  9492U
              9583U  9591M  9651   9657M  9668U  9716U  9724M  9765   9770M  9781U  9861U  9869M  9903   9908M  9919U
              9959U  9967M  9996  10001M 10012U 10060U 10068M 10092  10098M 10109U 10183U 10191M 10219  10225M 10236U
             10291U 10299M 10325  10331M 10342U 10480U 10488M 10550  10556M 10567U 10881  10894U 10902M 10936  10942M
             10953U 11386U 11394M 11487  11493M 11504U 11571U 11579M 11612  11617M 11628U 11682U 11690M 11724  11729M
             11740U 11858U 11866M 11898  11903M 11914U 12032U 12040M 12072  12077M 12088U 12275U 12283M 12315  12320M
             12331U 12521U 12529M 12563  12568M 12579U 12674U 12682M 12723  12728M 12739U 12807U 12815M 12849  12854M
             12865U 12969U 12977M 13015  13020M 13031U 13116U 13124M 13157  13163M 13174U 13349U 13357M 13392  13398M
             13409U 13590U 13598M 13623  13629M 13640U 13709U 13717M 13820  13825M 13836U 14002U 14010M 14041  14046M
             14057U 14185U 14193M 14252  14258M 14269U 14353U 14361M 14397  14402M 14413U 14539  14546U 14554M 14609
             14615M 14626U 14755U 14763M 14837  14843M 14854U 14874M 14919M 14919  15077M 15077  15227M 15278U 15286M
             15354  15359M 15370U 15416U 15424M 15445  15450M 15461U 15500U 15508M 15534  15539M 15550U 15583U 15591M
             15617  15622M 15633U 15666U 15674M 15700  15705M 15716U 15760U 15768M 15794  15799M 15810U 15898U 15906M
             15940  15945M 15956U 16056U 16064M 16085  16090M 16101U 16127M 16137U 16140U 16455U 16463M 16493  16498M
             16509U 16601U 16609M 16638  16643M 16654U 16764U 16772M 16828  16834M 16845U 16958U 16966M 16996  17001M
             17012U 17086U 17094M 17158  17163M 17174U 17237U 17245M 17274  17279M 17290U 17353U 17361M
     8(8)      971U  5224   5302   5304M  5333U  5557U  5566   5570M  5707   5709M  5738U  5885U  5894   5898M  5946
              5948M  5977U  6374U  6383   6387M  6428   6429M  6569   6573M  6627   6628M  6719   6723M  6762   6763M
              6854   6858M  7012   7014M  7043U  7712U  7721   7725M  7807   7808M  7908   7912M  7952   7953M  8207
              8211M  8267   8268M  8309   8313M  8345   8346M  8386   8390M  8429   8430M  8512   8528   8532M  8571
              8572M  8654   8670   8674M  8718   8719M  8801   8817   8821M  8856   8857M  9076N  9092   9096M  9176
              9177M  9256   9260M  9288   9289M  9409   9413M  9475   9477M  9506U  9578U  9587   9591M  9651   9653M
              9682U  9704   9711U  9720   9724M  9765   9766M  9865   9869M  9903   9904M  9963   9967M  9996   9997M
             10064  10068M 10092  10094M 10123U 10178U 10187  10191M 10219  10221M 10250U 10286U 10295  10299M 10325
             10327M 10356U 10475U 10484  10488M 10550  10552M 10581U 10889U 10898  10902M 10936  10938M 10967U 11381U
             11390  11394M 11487  11489M 11518U 11559  11566U 11575  11579M 11612  11613M 11686  11690M 11724  11725M
             11862  11866M 11898  11899M 12036  12040M 12072  12073M 12279  12283M 12315  12316M 12525  12529M 12563
             12564M 12678  12682M 12723  12724M 12811  12815M 12849  12850M 12973  12977M 13015  13016M 13120  13124M
             13157  13159M 13188U 13344U 13353  13357M 13392  13394M 13423U 13585U 13594  13598M 13623  13625M 13654U
             13704U 13713  13717M 13820  13821M 14006  14010M 14041  14042M 14189  14193M 14252  14254M 14283U 14348U
             14357  14361M 14397  14398M 14550  14554M 14609  14611M 14640U 14750U 14759  14763M 14837  14839M 14868U
             15273U 15282  15286M 15354  15355M 15420  15424M 15445  15446M 15504  15508M 15534  15535M 15587  15591M
             15617  15618M 15670  15674M 15700  15701M 15764  15768M 15794  15795M 15902  15906M 15940  15941M 16060
             16064M 16085  16086M 16459  16463M 16493  16494M 16605  16609M 16638  16639M 16768  16772M 16828  16830M
             16859U 16953U 16962  16966M 16996  16997M 17090  17094M 17158  17159M 17241  17245M 17274  17275M 17357
             17361M
     9(9)      967U  5224   5302   5570M  5707   5898M  5946   6387M  6428   6573M  6627   6723M  6762   6858M  7012
              7725M  7807   7912M  7952   8211M  8267   8313M  8345   8390M  8429   8532M  8571   8674M  8718   8821M
1         General Purpose Register Cross Reference                                                                          Page  104
              8856   9096M  9176   9260M  9288   9413M  9475   9591M  9651   9724M  9765   9869M  9903   9967M  9996
             10068M 10092  10191M 10219  10299M 10325  10488M 10550  10902M 10936  11394M 11487  11579M 11612  11690M
             11724  11866M 11898  12040M 12072  12283M 12315  12529M 12563  12682M 12723  12815M 12849  12977M 13015
             13124M 13157  13357M 13392  13598M 13623  13717M 13820  14010M 14041  14193M 14252  14361M 14397  14554M
             14609  14763M 14837  15286M 15354  15424M 15445  15508M 15534  15591M 15617  15674M 15700  15768M 15794
             15906M 15940  16064M 16085  16463M 16493  16609M 16638  16772M 16828  16966M 16996  17094M 17158  17245M
             17274  17361M
    10(A)      963U  5224   5302   5570M  5707   5898M  5946   6387M  6428   6573M  6627   6723M  6762   6858M  7012
              7725M  7807   7912M  7952   8211M  8267   8313M  8345   8390M  8429   8532M  8571   8674M  8718   8821M
              8856   9096M  9176   9260M  9288   9413M  9475   9591M  9651   9724M  9765   9869M  9903   9967M  9996
             10068M 10092  10191M 10219  10299M 10325  10488M 10550  10902M 10936  11394M 11487  11579M 11612  11690M
             11724  11866M 11898  12040M 12072  12283M 12315  12529M 12563  12682M 12723  12815M 12849  12977M 13015
             13124M 13157  13357M 13392  13598M 13623  13717M 13820  14010M 14041  14193M 14252  14361M 14397  14554M
             14609  14763M 14837  15286M 15354  15424M 15445  15508M 15534  15591M 15617  15674M 15700  15768M 15794
             15906M 15940  16064M 16085  16463M 16493  16609M 16638  16772M 16828  16966M 16996  17094M 17158  17245M
             17274  17361M
    11(B)      959U  1843B  1844B  5144U  5224   5292   5296   5302   5570M  5697   5701   5707   5898M  5946   6387M
              6418   6422   6428   6573M  6617   6621   6627   6723M  6752   6756   6762   6858M  7012   7725M  7797
              7801   7807   7846M  7912M  7942   7946   7952   7991M  8211M  8257   8261   8267   8313M  8335   8339
              8345   8390M  8419   8423   8429   8532M  8561   8565   8571   8674M  8708   8712   8718   8821M  8846
              8850   8856   9096M  9176   9260M  9288   9413M  9465   9469   9475   9591M  9641   9645   9651   9724M
              9755   9759   9765   9869M  9903   9967M  9996  10068M 10092  10191M 10219  10299M 10325  10488M 10540
             10544  10550  10902M 10936  11394M 11487  11579M 11612  11690M 11724  11866M 11898  12040M 12072  12283M
             12315  12529M 12563  12682M 12723  12815M 12849  12977M 13015  13124M 13157  13357M 13392  13598M 13623
             13717M 13820  14010M 14041  14193M 14242  14246  14252  14361M 14397  14554M 14599  14603  14609  14763M
             14827  14831  14837  15286M 15354  15424M 15445  15508M 15534  15591M 15617  15674M 15700  15768M 15794
             15906M 15940  16064M 16085  16463M 16493  16609M 16638  16772M 16818  16822  16828  16966M 16996  17094M
             17158  17245M 17274  17361M
    12(C)      955U  5135U  5224   5293   5302   5570M  5698   5707   5898M  5946   6387M  6419   6428   6573M  6618
              6627   6723M  6753   6762   6858M  7012   7725M  7798   7807   7912M  7943   7952   8211M  8258   8267
              8313M  8336   8345   8390M  8420   8429   8532M  8562   8571   8674M  8709   8718   8821M  8847   8856
              9096M  9176   9260M  9288   9413M  9466   9475   9591M  9642   9651   9724M  9756   9765   9869M  9903
              9967M  9996  10068M 10092  10191M 10219  10299M 10325  10488M 10541  10550  10902M 10936  11394M 11487
             11579M 11612  11690M 11724  11866M 11898  12040M 12072  12283M 12315  12529M 12563  12682M 12723  12815M
             12849  12977M 13015  13124M 13157  13357M 13392  13598M 13623  13717M 13820  14010M 14041  14193M 14243
             14252  14361M 14397  14554M 14600  14609  14763M 14828  14837  15286M 15354  15424M 15445  15508M 15534
             15591M 15617  15674M 15700  15768M 15794  15906M 15940  16064M 16085  16463M 16493  16609M 16638  16772M
             16819  16828  16966M 16996  17094M 17158  17245M 17274  17361M
    13(D)      951U  5183M  5184M  5184N  5196   5203M  5208   5218U  5231U  5292   5296M  5299   5302   5304   5305M
              5305   5428   5429M  5429   5566M  5570   5572   5697   5701M  5704   5707   5709   5710M  5710   5894M
              5898   5900   5943   5946   5948   5949M  5949   6383M  6387   6389   6418   6422M  6425   6428   6429
              6430M  6430   6569M  6573   6575   6617   6621M  6624   6627   6628   6629M  6629   6719M  6723   6725
              6752   6756M  6759   6762   6763   6764M  6764   6854M  6858   6860   7009   7012   7014   7015M  7015
              7721M  7725   7727   7797   7801M  7804   7807   7808   7809M  7809   7908M  7912   7914   7942   7946M
              7949   7952   7953   7954M  7954   8207M  8211   8213   8257   8261M  8264   8267   8268   8269M  8269
              8309M  8313   8315   8335   8339M  8342   8345   8346   8347M  8347   8386M  8390   8392   8419   8423M
              8426   8429   8430   8431M  8431   8528M  8532   8534   8561   8565M  8568   8571   8572   8573M  8573
              8670M  8674   8676   8708   8712M  8715   8718   8719   8720M  8720   8817M  8821   8823   8846   8850M
              8853   8856   8857   8858M  8858   9092M  9096   9098   9173   9176   9177   9178M  9178   9256M  9260
              9262   9285   9288   9289   9290M  9290   9409M  9413   9415   9465   9469M  9472   9475   9477   9478M
              9478   9587M  9591   9593   9641   9645M  9648   9651   9653   9654M  9654   9720M  9724   9726   9755
              9759M  9762   9765   9766   9767M  9767   9865M  9869   9871   9900   9903   9904   9905M  9905   9963M
              9967   9969   9993   9996   9997   9998M  9998  10064M 10068  10070  10089  10092  10094  10095M 10095
             10187M 10191  10193  10216  10219  10221  10222M 10222  10295M 10299  10301  10322  10325  10327  10328M
             10328  10484M 10488  10490  10540  10544M 10547  10550  10552  10553M 10553  10624  10625M 10625  10879M
             10880  10898M 10902  10904  10933  10936  10938  10939M 10939  11390M 11394  11396  11484  11487  11489
             11490M 11490  11575M 11579  11581  11609  11612  11613  11614M 11614  11686M 11690  11692  11721  11724
             11725  11726M 11726  11756  11757M 11757  11769M 11862M 11866  11868  11895  11898  11899  11900M 11900
             12036M 12040  12042  12069  12072  12073  12074M 12074  12279M 12283  12285  12312  12315  12316  12317M
1         General Purpose Register Cross Reference                                                                          Page  105
             12317  12525M 12529  12531  12560  12563  12564  12565M 12565  12678M 12682  12684  12720  12723  12724
             12725M 12725  12811M 12815  12817  12846  12849  12850  12851M 12851  12973M 12977  12979  13012  13015
             13016  13017M 13017  13120M 13124  13126  13154  13157  13159  13160M 13160  13353M 13357  13359  13389
             13392  13394  13395M 13395  13594M 13598  13600  13620  13623  13625  13626M 13626  13713M 13717  13719
             13817  13820  13821  13822M 13822  14006M 14010  14012  14038  14041  14042  14043M 14043  14189M 14193
             14195  14242  14246M 14249  14252  14254  14255M 14255  14357M 14361  14363  14394  14397  14398  14399M
             14399  14550M 14554  14556  14599  14603M 14606  14609  14611  14612M 14612  14759M 14763  14765  14827
             14831M 14834  14837  14839  14840M 14840  15282M 15286  15288  15351  15354  15355  15356M 15356  15420M
             15424  15426  15442  15445  15446  15447M 15447  15504M 15508  15510  15531  15534  15535  15536M 15536
             15587M 15591  15593  15614  15617  15618  15619M 15619  15670M 15674  15676  15697  15700  15701  15702M
             15702  15764M 15768  15770  15791  15794  15795  15796M 15796  15902M 15906  15908  15937  15940  15941
             15942M 15942  16060M 16064  16066  16082  16085  16086  16087M 16087  16459M 16463  16465  16490  16493
             16494  16495M 16495  16605M 16609  16611  16635  16638  16639  16640M 16640  16768M 16772  16774  16818
             16822M 16825  16828  16830  16831M 16831  16897M 16962M 16966  16968  16993  16996  16997  16998M 16998
             17090M 17094  17096  17155  17158  17159  17160M 17160  17186  17187M 17187  17228M 17241M 17245  17247
             17271  17274  17275  17276M 17276  17302  17303M 17303  17344M 17357M 17361  17363
    14(E)      947U  5235N  5292   5294M  5296M  5299   5359M  5360M  5360B  5404M  5405M  5405B  5421M  5422M  5422B
              5445M  5446M  5446B  5454M  5455M  5455B  5483M  5484M  5484B  5498M  5500   5504M  5505M  5505B  5572M
              5575B  5645B  5697   5699M  5701M  5704   5806M  5807M  5807B  5819M  5821   5825M  5826M  5826B  5862M
              5863M  5863B  5900M  5903B  5943   6068M  6069M  6069B  6076M  6077M  6077   6089M  6089N  6101   6108M
              6113   6115M  6115N  6120M  6122M  6152M  6153M  6153B  6159M  6162M  6163M  6163B  6272M  6389M  6392B
              6418   6420M  6422M  6425   6473M  6474M  6474B  6524M  6525M  6525B  6541M  6542M  6542B  6575M  6578B
              6617   6619M  6621M  6624   6725M  6728B  6752   6754M  6756M  6759   6860M  6863B  7009   7221M  7222M
              7222B  7253M  7254M  7254B  7281M  7282M  7282B  7298M  7299M  7299B  7329M  7330M  7330B  7440M  7441M
              7441B  7509M  7510M  7510B  7564M  7565M  7565B  7581M  7582M  7582B  7609M  7610M  7610B  7626M  7627M
              7627B  7652M  7653M  7653B  7727M  7730B  7797   7799M  7801M  7804   7870M  7871M  7871B  7884M  7885M
              7885B  7914M  7917B  7942   7944M  7946M  7949   8160M  8161M  8161B  8213M  8216B  8257   8259M  8261M
              8264   8315M  8318B  8335   8337M  8339M  8342   8392M  8395B  8419   8421M  8423M  8426   8454   8534M
              8537B  8561   8563M  8565M  8568   8596   8676M  8679B  8708   8710M  8712M  8715   8743   8823M  8826B
              8846   8848M  8850M  8853   8881   9098M  9101B  9173   9262M  9265B  9285   9415M  9418B  9465   9467M
              9469M  9472   9593M  9596B  9641   9643M  9645M  9648   9693M  9694M  9694B  9726M  9729B  9755   9757M
              9759M  9762   9871M  9874B  9900   9969M  9971B  9993  10070M 10072B 10089  10193M 10195B 10216  10301M
             10303B 10322  10490M 10493B 10540  10542M 10544M 10547  10904M 10907B 10933  11039M 11053M 11100M 11101M
             11101B 11122M 11123M 11123B 11177M 11396M 11399B 11484  11581M 11584B 11609  11643M 11650M 11657M 11692M
             11695B 11721  11759M 11766M 11776M 11782M 11868M 11871B 11895  11927M 11955M 11956M 11956B 11983M 11984M
             11984B 12006M 12007M 12007B 12042M 12045B 12069  12101M 12137M 12138M 12138B 12226M 12227M 12227B 12249M
             12250M 12250B 12285M 12288B 12312  12344M 12383M 12384M 12384B 12472M 12473M 12473B 12495M 12496M 12496B
             12531M 12534B 12560  12684M 12687B 12720  12751M 12781M 12782M 12782B 12817M 12820B 12846  12979M 12982B
             13012  13126M 13129B 13154  13359M 13362B 13389  13600M 13603B 13620  13719M 13722B 13817  14012M 14015B
             14038  14195M 14198B 14242  14244M 14246M 14249  14363M 14366B 14394  14556M 14558B 14599  14601M 14603M
             14606  14686M 14687M 14687B 14733M 14734M 14734B 14765M 14768B 14827  14829M 14831M 14834  14963M 14964M
             14964B 15002M 15003M 15003B 15119M 15120M 15120B 15260M 15261M 15261B 15288M 15291B 15351  15426M 15429B
             15442  15510M 15513B 15531  15561M 15575M 15576M 15576B 15593M 15596B 15614  15644M 15658M 15659M 15659B
             15676M 15679B 15697  15727M 15741M 15742M 15742B 15752M 15753M 15753B 15770M 15773B 15791  15821M 15853M
             15854M 15854  15860M 15860B 15908M 15911B 15937  16066M 16069B 16082  16157M 16158M 16158  16165M 16165B
             16262M 16263M 16263  16270M 16270B 16298M 16336M 16369M 16426M 16427M 16427  16434M 16434B 16465M 16469B
             16490  16588M 16589M 16589B 16611M 16614B 16635  16720M 16721M 16721B 16751M 16752M 16752B 16774M 16777B
             16818  16820M 16822M 16825  16872M 16873M 16873B 16894M 16895M 16895B 16914M 16915M 16915B 16920M 16921M
             16921B 16945M 16946M 16946B 16968M 16971B 16993  17050M 17051M 17051  17058M 17058B 17096M 17099B 17134B
             17155  17204M 17205M 17205B 17225M 17226M 17226B 17247M 17250B 17271  17320M 17321M 17321B 17341M 17342M
             17342B 17363M 17366B
    15(F)      943U  2305M  2305   5163U  5242U  5292   5293M  5294B  5296M  5337   5401M  5418M  5464M  5464   5471M
              5523M  5535M  5535   5574M  5574   5638U  5652U  5697   5698M  5699B  5701M  5742   5902M  5902   5981
              6065M  6116M  6120M  6121M  6157M  6157   6158M  6159B  6233M  6237M  6246M  6246   6253   6274   6391M
              6391   6418   6419M  6420B  6422M  6453   6521M  6538M  6548M  6548   6577M  6577   6617   6618M  6619B
              6621M  6652   6727M  6727   6752   6753M  6754B  6756M  6787   6862M  6862   7048   7218M  7250M  7278M
              7295M  7326M  7437M  7443M  7444   7489M  7561M  7578M  7606M  7623M  7649M  7684M  7686M  7686   7729M
              7729   7797   7798M  7799B  7801M  7832   7916M  7916   7942   7943M  7944B  7946M  7977   8115M  8115
              8157M  8215M  8215   8257   8258M  8259B  8261M  8317M  8317   8335   8336M  8337B  8339M  8394M  8394
1         General Purpose Register Cross Reference                                                                          Page  106
              8419   8420M  8421B  8423M  8493M  8500M  8501M  8517M  8517   8536M  8536   8561   8562M  8563B  8565M
              8635M  8642M  8643M  8659M  8659   8678M  8678   8708   8709M  8710B  8712M  8782M  8789M  8790M  8806M
              8806   8825M  8825   8846   8847M  8848B  8850M  8904M  8905M  8945M  8979M  8980M  9020M  9081M  9081
              9100M  9100   9264M  9264   9417M  9417   9465   9466M  9467B  9469M  9513   9514M  9567M  9567   9595M
              9595   9641   9642M  9643B  9645M  9686   9690M  9728M  9728   9755   9756M  9757B  9759M  9808M  9811
              9823M  9830M  9832   9873M  9873   9931M  9931   9946M  9947M 10024M 10024  10046M 10047M 10142  10147M
             10147  10254  10377  10394M 10394  10492M 10492  10527M 10540  10541M 10542B 10544M 10627  10881M 10906M
             10906  10971  11040  11051M 11102  11137  11151  11161M 11161  11166  11167M 11168N 11175M 11398M 11398
             11556  11583M 11583  11637  11648M 11655M 11694M 11694  11749  11756M 11762M 11870M 11870  11923  11938M
             11966M 11989M 12044M 12044  12097  12120M 12209M 12232M 12287M 12287  12340  12366M 12455M 12478M 12533M
             12533  12667M 12686M 12686  12748  12760M 12819M 12819  12981M 12981  13128M 13128  13361M 13361  13602M
             13602  13721M 13721  13846  13858M 13869M 13869  14014M 14014  14130  14160M 14197M 14197  14242  14243M
             14244B 14246M 14332M 14334M 14340M 14365M 14365  14381M 14483  14525M 14599  14600M 14601B 14603M 14646
             14669M 14730M 14767M 14767  14827  14828M 14829B 14831M 14875  14927M 14980M 15116M 15134M 15257M 15290M
             15290  15388U 15408U 15428M 15428  15479U 15492U 15512M 15512  15559  15572M 15595M 15595  15642  15655M
             15678M 15678  15725  15738M 15749M 15772M 15772  15819  15843M 15882M 15882  15910M 15910  15965  16068M
             16068  16110  16252M 16308M 16309M 16309  16326  16336M 16338M 16344M 16345  16361N 16367M 16369M 16402M
             16405  16415M 16468M 16518  16585M 16613M 16613  16663  16717M 16748M 16776M 16776  16818  16819M 16820B
             16822M 16863  16891M 16911M 16942M 16970M 16970  17021  17098M 17098  17118U 17132U 17183  17188M 17222M
             17249M 17249  17299  17304M 17338M 17365M 17365

1UTILS    Diagnostic Cross Reference and Assembler Summary                                                                  Page  107
-                                                                                            HLASM R4.0  2002/06/06 10.18
0     No Statements Flagged in this Assembly
 HIGH LEVEL ASSEMBLER, 5696-234, RELEASE 4.0, PTF UQ57391
0SYSTEM: OS/390 02.10.00            JOBNAME: WIN#UTIL    STEPNAME: ASM        PROCSTEP: ASM
0Datasets Allocated for this Assembly
  Con DDname   Dataset Name                                 Volume  Member
   P1 SYSIN    SYS02157.T101846.RA000.WIN#UTIL.SYSIN.H01
   L1 SYSLIB   WYL.GA.MCL.WINGS.MACLIB                      STR211
   L2          WYL.GG.SYS.MACLIB                            STR210
   L3          SYS3.IS.MACLIB                               SYSA03
   L4          SYS3.MACLIB                                  SYSA03
   L5          SYS1.MACLIB                                  OS02AD
   L6          SYS1.MODGEN                                  OS02AD
   L7          SYS4.MACLIB                                  SYSA04
      SYSLIN   WYL.GA.MCL.WINGS.OBJECT                      STR203  UTILS
      SYSPRINT SYS02157.T101846.RA000.WIN#UTIL.PRINT.H01    SCR003
      SYSTERM  GA$MCL.WIN#UTIL.JOB01335.D0000103.?

    9452K allocated to Buffer Pool,         4075K would be required for this to be an In-Storage Assembly
    2519 Primary Input Records Read        20472 Library Records Read                  0 Work File Reads
       0 ASMAOPT Records Read               7256 Primary Print Records Written         0 Work File Writes
     262 Punch Records Written                 0 ADATA Records Written
0Assembly Start Time: 10.18.48 Stop Time: 10.18.52 Processor Time: 00.00.01.5940
 Return Code 000
